 PhysXCommon_64

 Timestamp is 64eadf70 (Sun Aug 27 14:30:24 2023)

 Preferred load address is 0000000180000000

 Start         Length     Name                   Class
 0001:00000000 000033b0H .text$di                CODE
 0001:000033b0 001cab40H .text$mn                CODE
 0001:001cdef0 00000040H .text$mn$00             CODE
 0001:001cdf30 00000490H .text$x                 CODE
 0001:001ce3c0 0000000fH .text$yd                CODE
 0002:00000000 00000260H .idata$5                DATA
 0002:00000260 00000028H .00cfg                  DATA
 0002:00000288 00000008H .CRT$XCA                DATA
 0002:00000290 000019a0H .CRT$XCU                DATA
 0002:00001c30 00000008H .CRT$XCZ                DATA
 0002:00001c38 00000008H .CRT$XIA                DATA
 0002:00001c40 00000018H .CRT$XIC                DATA
 0002:00001c58 00000008H .CRT$XIZ                DATA
 0002:00001c60 00000008H .CRT$XPA                DATA
 0002:00001c68 00000010H .CRT$XPX                DATA
 0002:00001c78 00000008H .CRT$XPXA               DATA
 0002:00001c80 00000008H .CRT$XPZ                DATA
 0002:00001c88 00000008H .CRT$XTA                DATA
 0002:00001c90 00000010H .CRT$XTZ                DATA
 0002:00001c98 00000000H .gehcont$y              DATA
 0002:00001c98 00000000H .gfids$y                DATA
 0002:00001ca0 00011ae0H .rdata                  DATA
 0002:00013780 00000000H .rdata$CastGuardVftablesA DATA
 0002:00013780 00000000H .rdata$CastGuardVftablesC DATA
 0002:00013780 0000043cH .rdata$r                DATA
 0002:00013bbc 000000f8H .rdata$voltmd           DATA
 0002:00013cb4 00000434H .rdata$zzzdbg           DATA
 0002:000140e8 00000008H .rtc$IAA                DATA
 0002:000140f0 00000008H .rtc$IZZ                DATA
 0002:000140f8 00000008H .rtc$TAA                DATA
 0002:00014100 00000008H .rtc$TZZ                DATA
 0002:00014108 00014520H .xdata                  DATA
 0002:00028628 00000084H .xdata$x                DATA
 0002:000286ac 00000020H .didat$2                DATA
 0002:000286cc 00000024H .didat$3                DATA
 0002:000286f0 000000c0H .didat$4                DATA
 0002:000287b0 000003f8H .didat$6                DATA
 0002:00028ba8 000000c8H .didat$7                DATA
 0002:00028c70 0000c310H .edata                  DATA
 0002:00034f80 00000014H .idata$2                DATA
 0002:00034f94 00000014H .idata$3                DATA
 0002:00034fa8 00000260H .idata$4                DATA
 0002:00035208 0000058cH .idata$6                DATA
 0003:00000000 00001c40H .data                   DATA
 0003:00001c40 00001158H .data$r                 DATA
 0003:00002d98 000000f0H .data$rs                DATA
 0003:00002e88 000000c8H .didat$5                DATA
 0003:00002f50 000045dcH .bss                    DATA
 0004:00000000 0000bf4cH .pdata                  DATA
 0005:00000000 00002304H _RDATA                  DATA
 0006:00000000 000000a0H .rsrc$01                DATA
 0006:000000a0 000004b0H .rsrc$02                DATA

  Address         Publics by Value              Rva+Base               Lib:Object

 0000:00000000       __guard_iat_table          0000000000000000     <absolute>
 0000:00000000       __hybrid_code_map          0000000000000000     <absolute>
 0000:00000000       __guard_iat_count          0000000000000000     <absolute>
 0000:00000000       __arm64x_extra_rfe_table_size 0000000000000000     <absolute>
 0000:00000000       __guard_longjmp_count      0000000000000000     <absolute>
 0000:00000000       __arm64x_redirection_metadata 0000000000000000     <absolute>
 0000:00000000       ___safe_se_handler_count   0000000000000000     <absolute>
 0000:00000000       __dynamic_value_reloc_table 0000000000000000     <absolute>
 0000:00000000       __hybrid_auxiliary_iat     0000000000000000     <absolute>
 0000:00000000       __hybrid_auxiliary_iat_copy 0000000000000000     <absolute>
 0000:00000000       __guard_fids_count         0000000000000000     <absolute>
 0000:00000000       __x64_code_ranges_to_entry_points_count 0000000000000000     <absolute>
 0000:00000000       __AbsoluteZero             0000000000000000     <absolute>
 0000:00000000       __arm64x_extra_rfe_table   0000000000000000     <absolute>
 0000:00000000       __guard_eh_cont_count      0000000000000000     <absolute>
 0000:00000000       __guard_check_icall_a64n_fptr 0000000000000000     <absolute>
 0000:00000000       ___safe_se_handler_table   0000000000000000     <absolute>
 0000:00000000       __guard_fids_table         0000000000000000     <absolute>
 0000:00000000       __x64_code_ranges_to_entry_points 0000000000000000     <absolute>
 0000:00000000       __guard_longjmp_table      0000000000000000     <absolute>
 0000:00000000       __arm64x_redirection_metadata_count 0000000000000000     <absolute>
 0000:00000000       __enclave_config           0000000000000000     <absolute>
 0000:00000000       __guard_eh_cont_table      0000000000000000     <absolute>
 0000:00000000       __arm64x_native_entrypoint 0000000000000000     <absolute>
 0000:00000000       __hybrid_code_map_count    0000000000000000     <absolute>
 0000:00000100       __guard_flags              0000000000000100     <absolute>
 0000:00000000       __ImageBase                0000000180000000     <linker-defined>
 0001:000033b0       ??0PtrTable@Cm@physx@@QEAA@W4PxEMPTY@2@@Z 00000001800043b0 f i CmPtrTable.obj
 0001:000033d0       ??0PtrTable@Cm@physx@@QEAA@XZ 00000001800043d0 f   CmPtrTable.obj
 0001:000033e0       ?timeStampChange@CompanionPrunerAABBTree@@UEAAXXZ 00000001800043e0 f   GuSecondaryPruner.obj
 0001:000033e0       ?visualize@BasePruner@Gu@physx@@UEBAXAEAVPxRenderOutput@3@II@Z 00000001800043e0 f   GuIncrementalAABBPruner.obj
 0001:000033e0       ??1HeightFieldData@Gu@physx@@QEAA@XZ 00000001800043e0 f   GuCCTSweepTests.obj
 0001:000033e0       ?execute@?$PxThreadT@V?$PxReflectionAllocator@VPxThreadImpl@physx@@@physx@@@physx@@UEAAXXZ 00000001800043e0 f   GuSDF.obj
 0001:000033e0       ?requiresObjects@ConvexMesh@Gu@physx@@UEAAXAEAVPxProcessPxBaseCallback@3@@Z 00000001800043e0 f   GuConvexMesh.obj
 0001:000033e0       ??1PtrTable@Cm@physx@@QEAA@XZ 00000001800043e0 f   CmPtrTable.obj
 0001:000033e0       ?profile@Callback@RTree@Gu@physx@@UEAAXXZ 00000001800043e0 f   GuMidphaseRTree.obj
 0001:000033e0       ?requiresObjects@TriangleMesh@Gu@physx@@UEAAXAEAVPxProcessPxBaseCallback@3@@Z 00000001800043e0 f   GuTriangleMesh.obj
 0001:000033e0       ??1Box@Gu@physx@@QEAA@XZ   00000001800043e0 f   GuBox.obj
 0001:000033e0       ?onMeshIndexFormatChange@TriangleMeshBuilder@physx@@UEAAXXZ 00000001800043e0 f   GuCookingTriangleMesh.obj
 0001:000033e0       ?swapIndex@CompanionPrunerBucket@@UEAAXII@Z 00000001800043e0 f   GuSecondaryPruner.obj
 0001:000033e0       ?merge@IncrementalAABBPruner@Gu@physx@@UEAAXPEBX@Z 00000001800043e0 f   GuIncrementalAABBPruner.obj
 0001:000033e0       ?build@CompanionPrunerIncremental@@UEAAXXZ 00000001800043e0 f   GuSecondaryPruner.obj
 0001:000033e0       ?execute@PxRunnable@physx@@UEAAXXZ 00000001800043e0 f   GuSDF.obj
 0001:000033e0       ?swapIndex@CompanionPrunerAABBTree@@UEAAXII@Z 00000001800043e0 f   GuSecondaryPruner.obj
 0001:000033e0       ?merge@BucketPruner@Gu@physx@@UEAAXPEBX@Z 00000001800043e0 f   GuBucketPruner.obj
 0001:000033e0       ?checkTreeLeaf@IncrementalAABBTree@Gu@physx@@QEAAXPEAVIncrementalAABBTreeNode@23@I@Z 00000001800043e0 f   GuIncrementalAABBTree.obj
 0001:000033e0       _guard_check_icall_nop     00000001800043e0 f   LIBCMT:guard_support.obj
 0001:000033e0       ??1BigConvexDataBuilder@physx@@QEAA@XZ 00000001800043e0 f   GuCookingBigConvexDataBuilder.obj
 0001:000033e0       ?purge@BucketPruner@Gu@physx@@UEAAXXZ 00000001800043e0 f   GuBucketPruner.obj
 0001:000033e0       ?timeStampChange@CompanionPrunerBucket@@UEAAXXZ 00000001800043e0 f   GuSecondaryPruner.obj
 0001:000033e0       ?requiresObjects@SoftBodyMesh@Gu@physx@@UEAAXAEAVPxProcessPxBaseCallback@3@@Z 00000001800043e0 f   GuTetrahedronMesh.obj
 0001:000033e0       ?requiresObjects@HeightField@Gu@physx@@UEAAXAEAVPxProcessPxBaseCallback@3@@Z 00000001800043e0 f   GuHeightField.obj
 0001:000033e0       ??1AABBTreeBuildNode@Gu@physx@@QEAA@XZ 00000001800043e0 f   GuMeshFactory.obj
 0001:000033f0       ??4AABBTreeBounds@Gu@physx@@QEAAAEAV012@AEBV012@@Z 00000001800043f0 f i GuMeshFactory.obj
 0001:000033f0       ??4PtrTable@Cm@physx@@QEAAAEAU012@AEBU012@@Z 00000001800043f0 f i CmPtrTable.obj
 0001:000033f0       ??4CmModuleUpdateLoader@Cm@physx@@QEAAAEAV012@AEBV012@@Z 00000001800043f0 f i CmWindowsModuleUpdateLoader.obj
 0001:00003400       ?add@PtrTable@Cm@physx@@QEAAXPEAXAEAVPtrTableStorageManager@23@@Z 0000000180004400 f   CmPtrTable.obj
 0001:00003510       ?clear@PtrTable@Cm@physx@@QEAAXAEAVPtrTableStorageManager@23@@Z 0000000180004510 f   CmPtrTable.obj
 0001:00003580       ?exportExtraData@PtrTable@Cm@physx@@QEAAXAEAVPxSerializationContext@3@@Z 0000000180004580 f   CmPtrTable.obj
 0001:000035d0       ?find@PtrTable@Cm@physx@@QEBAIPEBX@Z 00000001800045d0 f   CmPtrTable.obj
 0001:00003600       ?getBinaryMetaData@PtrTable@Cm@physx@@SAXAEAVPxOutputStream@3@@Z 0000000180004600 f   CmPtrTable.obj
 0001:000037f0       ?getCount@PtrTable@Cm@physx@@QEBAIXZ 00000001800047f0 f i CmPtrTable.obj
 0001:00003800       ?getPtrs@PtrTable@Cm@physx@@QEBAPEBQEAXXZ 0000000180004800 f i CmPtrTable.obj
 0001:00003800       ?getPtrs@PtrTable@Cm@physx@@QEAAPEAPEAXXZ 0000000180004800 f i CmPtrTable.obj
 0001:00003810       ?importExtraData@PtrTable@Cm@physx@@QEAAXAEAVPxDeserializationContext@3@@Z 0000000180004810 f   CmPtrTable.obj
 0001:00003840       ?realloc@PtrTable@Cm@physx@@AEAAXIIAEAVPtrTableStorageManager@23@@Z 0000000180004840 f   CmPtrTable.obj
 0001:000038d0       ?replaceWithLast@PtrTable@Cm@physx@@QEAAXIAEAVPtrTableStorageManager@23@@Z 00000001800048d0 f   CmPtrTable.obj
 0001:000039d0       ??_ECollection@Cm@physx@@UEAAPEAXI@Z 00000001800049d0 f i CmCollection.obj
 0001:000039d0       ??_GCollection@Cm@physx@@UEAAPEAXI@Z 00000001800049d0 f i CmCollection.obj
 0001:00003a80       ??_GPxCollection@physx@@MEAAPEAXI@Z 0000000180004a80 f i CmCollection.obj
 0001:00003a80       ??_EPxCollection@physx@@MEAAPEAXI@Z 0000000180004a80 f i CmCollection.obj
 0001:00003ab0       ?add@Collection@Cm@physx@@UEAAXAEAVPxBase@3@_K@Z 0000000180004ab0 f   CmCollection.obj
 0001:00003ba0       ?add@Collection@Cm@physx@@UEAAXAEAVPxCollection@3@@Z 0000000180004ba0 f   CmCollection.obj
 0001:00003d40       ?addId@Collection@Cm@physx@@UEAAXAEAVPxBase@3@_K@Z 0000000180004d40 f   CmCollection.obj
 0001:00003e70       ?contains@Collection@Cm@physx@@UEBA_NAEAVPxBase@3@@Z 0000000180004e70 f   CmCollection.obj
 0001:00003f20       ?create@?$PxHashBase@V?$PxPair@$$CB_KPEAVPxBase@physx@@@physx@@_KU?$PxHash@_K@2@UGetKey@?$PxHashMapBase@_KPEAVPxBase@physx@@U?$PxHash@_K@2@VPxAllocator@2@@2@VPxAllocator@2@$00@physx@@QEAAPEAV?$PxPair@$$CB_KPEAVPxBase@physx@@@2@AEB_KAEA_N@Z 0000000180004f20 f i CmCollection.obj
 0001:00003f20       ?create@?$PxHashBase@V?$PxPair@QEAVPxBase@physx@@_K@physx@@PEAVPxBase@2@U?$PxHash@PEAVPxBase@physx@@@2@UGetKey@?$PxHashMapBase@PEAVPxBase@physx@@_KU?$PxHash@PEAVPxBase@physx@@@2@VPxAllocator@2@@2@VPxAllocator@2@$00@physx@@QEAAPEAV?$PxPair@QEAVPxBase@physx@@_K@2@AEBQEAVPxBase@2@AEA_N@Z 0000000180004f20 f i CmCollection.obj
 0001:000040c0       ?erase@?$PxHashBase@V?$PxPair@$$CB_KPEAVPxBase@physx@@@physx@@_KU?$PxHash@_K@2@UGetKey@?$PxHashMapBase@_KPEAVPxBase@physx@@U?$PxHash@_K@2@VPxAllocator@2@@2@VPxAllocator@2@$00@physx@@QEAA_NAEB_K@Z 00000001800050c0 f i CmCollection.obj
 0001:000040c0       ?erase@?$PxHashBase@V?$PxPair@QEAVPxBase@physx@@_K@physx@@PEAVPxBase@2@U?$PxHash@PEAVPxBase@physx@@@2@UGetKey@?$PxHashMapBase@PEAVPxBase@physx@@_KU?$PxHash@PEAVPxBase@physx@@@2@VPxAllocator@2@@2@VPxAllocator@2@$00@physx@@QEAA_NAEBQEAVPxBase@2@@Z 00000001800050c0 f i CmCollection.obj
 0001:00004260       ?find@?$PxHashMapBase@_KPEAVPxBase@physx@@U?$PxHash@_K@2@VPxAllocator@2@@physx@@QEBAPEBV?$PxPair@$$CB_KPEAVPxBase@physx@@@2@AEB_K@Z 0000000180005260 f i CmCollection.obj
 0001:00004300       ?find@Collection@Cm@physx@@UEBAPEAVPxBase@3@_K@Z 0000000180005300 f   CmCollection.obj
 0001:00004330       ?getId@Collection@Cm@physx@@UEBA_KAEBVPxBase@3@@Z 0000000180005330 f   CmCollection.obj
 0001:000043e0       ?getIds@Collection@Cm@physx@@UEBAIPEA_KII@Z 00000001800053e0 f   CmCollection.obj
 0001:000044a0       ?getNbIds@Collection@Cm@physx@@UEBAIXZ 00000001800054a0 f   CmCollection.obj
 0001:000044b0       ?getNbObjects@Collection@Cm@physx@@UEBAIXZ 00000001800054b0 f   CmCollection.obj
 0001:000044c0       ?getObject@Collection@Cm@physx@@UEBAAEAVPxBase@3@I@Z 00000001800054c0 f   CmCollection.obj
 0001:000044d0       ?getObjects@Collection@Cm@physx@@UEBAIPEAPEAVPxBase@3@II@Z 00000001800054d0 f   CmCollection.obj
 0001:00004520       ?release@Collection@Cm@physx@@UEAAXXZ 0000000180005520 f i CmCollection.obj
 0001:00004540       ?remove@Collection@Cm@physx@@UEAAXAEAVPxBase@3@@Z 0000000180005540 f   CmCollection.obj
 0001:00004630       ?remove@Collection@Cm@physx@@UEAAXAEAVPxCollection@3@@Z 0000000180005630 f   CmCollection.obj
 0001:00004740       ?removeId@Collection@Cm@physx@@UEAAX_K@Z 0000000180005740 f   CmCollection.obj
 0001:000047c0       ?reserveInternal@?$PxHashBase@V?$PxPair@$$CB_KPEAVPxBase@physx@@@physx@@_KU?$PxHash@_K@2@UGetKey@?$PxHashMapBase@_KPEAVPxBase@physx@@U?$PxHash@_K@2@VPxAllocator@2@@2@VPxAllocator@2@$00@physx@@AEAAXI@Z 00000001800057c0 f i CmCollection.obj
 0001:000047c0       ?reserveInternal@?$PxHashBase@V?$PxPair@QEAVPxBase@physx@@_K@physx@@PEAVPxBase@2@U?$PxHash@PEAVPxBase@physx@@@2@UGetKey@?$PxHashMapBase@PEAVPxBase@physx@@_KU?$PxHash@PEAVPxBase@physx@@@2@VPxAllocator@2@@2@VPxAllocator@2@$00@physx@@AEAAXI@Z 00000001800057c0 f i CmCollection.obj
 0001:000049b0       PxCreateCollection         00000001800059b0 f   CmCollection.obj
 0001:00004aa0       ??0RadixSort@Cm@physx@@QEAA@XZ 0000000180005aa0 f   CmRadixSort.obj
 0001:00004ad0       ??0RadixSortBuffered@Cm@physx@@QEAA@XZ 0000000180005ad0 f   CmRadixSort.obj
 0001:00004b00       ??1RadixSort@Cm@physx@@UEAA@XZ 0000000180005b00 f   CmRadixSort.obj
 0001:00004b10       ??1RadixSortBuffered@Cm@physx@@UEAA@XZ 0000000180005b10 f   CmRadixSort.obj
 0001:00004b40       ??_ERadixSort@Cm@physx@@UEAAPEAXI@Z 0000000180005b40 f i CmRadixSort.obj
 0001:00004bd0       ??_ERadixSortBuffered@Cm@physx@@UEAAPEAXI@Z 0000000180005bd0 f i CmRadixSort.obj
 0001:00004d10       ?CheckResize@RadixSortBuffered@Cm@physx@@AEAAXI@Z 0000000180005d10 f i CmRadixSort.obj
 0001:00004d50       ?GetNbHits@RadixSort@Cm@physx@@QEBAIXZ 0000000180005d50 f i CmRadixSort.obj
 0001:00004d60       ?GetNbTotalCalls@RadixSort@Cm@physx@@QEBAIXZ 0000000180005d60 f i CmRadixSort.obj
 0001:00004d70       ?getSimulationMesh@SoftBodyMesh@Gu@physx@@UEBAPEBVPxTetrahedronMesh@3@XZ 0000000180005d70 f i GuTetrahedronMesh.obj
 0001:00004d70       ?getGridModelInvMass@SoftBodyAuxData@Gu@physx@@UEAAPEAMXZ 0000000180005d70 f i GuTetrahedronMesh.obj
 0001:00004d70       ?getSimulationMesh@SoftBodyMesh@Gu@physx@@UEAAPEAVPxTetrahedronMesh@3@XZ 0000000180005d70 f i GuTetrahedronMesh.obj
 0001:00004d70       ?GetRanks@RadixSort@Cm@physx@@QEBAPEBIXZ 0000000180005d70 f i CmRadixSort.obj
 0001:00004d70       ?getHeightField@HeightFieldUtil@Gu@physx@@QEBAAEBVHeightField@23@XZ 0000000180005d70 f i GuCCTSweepTests.obj
 0001:00004d80       ?getVertices@TriangleMesh@Gu@physx@@UEBAPEBV?$PxVec3T@M@3@XZ 0000000180005d80 f i GuTriangleMesh.obj
 0001:00004d80       ?getCollisionMesh@SoftBodyMesh@Gu@physx@@UEAAPEAVPxTetrahedronMesh@3@XZ 0000000180005d80 f i GuTetrahedronMesh.obj
 0001:00004d80       ?getCollisionMesh@SoftBodyMesh@Gu@physx@@UEBAPEBVPxTetrahedronMesh@3@XZ 0000000180005d80 f i GuTetrahedronMesh.obj
 0001:00004d80       ?getPos@AABBTreeBuildNode@Gu@physx@@QEBAPEBV123@XZ 0000000180005d80 f i GuMeshFactory.obj
 0001:00004d80       ?GetValencies@BigConvexData@physx@@QEBAPEBUValency@Gu@2@XZ 0000000180005d80 f i GuMetaData.obj
 0001:00004d80       ?getObjects@PruningPool@Gu@physx@@QEBAPEAUPrunerPayload@23@XZ 0000000180005d80 f i GuIncrementalAABBPrunerCore.obj
 0001:00004d80       ?getHeightFieldGeometry@HeightFieldUtil@Gu@physx@@QEBAAEBVPxHeightFieldGeometry@3@XZ 0000000180005d80 f i GuCCTSweepTests.obj
 0001:00004d80       ?getVertices@TetrahedronMesh@Gu@physx@@UEBAPEBV?$PxVec3T@M@3@XZ 0000000180005d80 f i GuTetrahedronMesh.obj
 0001:00004d80       ?GetRecyclable@RadixSort@Cm@physx@@QEBAPEAIXZ 0000000180005d80 f i CmRadixSort.obj
 0001:00004d90       ?Resize@RadixSortBuffered@Cm@physx@@AEAA_NI@Z 0000000180005d90 f   CmRadixSort.obj
 0001:00004e90       ?SetBuffers@RadixSort@Cm@physx@@QEAA_NPEAI00PEAPEAI@Z 0000000180005e90 f   CmRadixSort.obj
 0001:00004ed0       ?Sort@RadixSort@Cm@physx@@QEAAAEAV123@PEBIIW4RadixHint@23@@Z 0000000180005ed0 f   CmRadixSort.obj
 0001:00005520       ?Sort@RadixSort@Cm@physx@@QEAAAEAV123@PEBMI@Z 0000000180006520 f   CmRadixSort.obj
 0001:00005c80       ?Sort@RadixSortBuffered@Cm@physx@@QEAAAEAV123@PEBIIW4RadixHint@23@@Z 0000000180006c80 f   CmRadixSort.obj
 0001:00005d20       ?Sort@RadixSortBuffered@Cm@physx@@QEAAAEAV123@PEBMI@Z 0000000180006d20 f   CmRadixSort.obj
 0001:00005db0       ?invalidateRanks@RadixSort@Cm@physx@@QEAAXXZ 0000000180006db0 f i CmRadixSort.obj
 0001:00005dc0       ?reset@RadixSortBuffered@Cm@physx@@QEAAXXZ 0000000180006dc0 f   CmRadixSort.obj
 0001:00005e40       ?ReadHeader@Cm@physx@@YA_NEEEEAEAIAEA_NAEAVPxInputStream@2@@Z 0000000180006e40 f   CmSerialize.obj
 0001:00005fa0       ?ReadIndices@Cm@physx@@YAXGIPEAGAEAVPxInputStream@2@_N@Z 0000000180006fa0 f   CmSerialize.obj
 0001:000060f0       ?StoreIndices@Cm@physx@@YAXGIPEBGAEAVPxOutputStream@2@_N@Z 00000001800070f0 f   CmSerialize.obj
 0001:000061b0       ?WriteHeader@Cm@physx@@YA_NEEEEI_NAEAVPxOutputStream@2@@Z 00000001800071b0 f   CmSerialize.obj
 0001:000062e0       ?computeMaxIndex@physx@@YAGPEBGI@Z 00000001800072e0 f   CmSerialize.obj
 0001:00006310       ?computeMaxIndex@physx@@YAIPEBII@Z 0000000180007310 f   CmSerialize.obj
 0001:00006340       ?writeByteBuffer@physx@@YAXPEBEIAEAVPxOutputStream@1@@Z 0000000180007340 f   CmSerialize.obj
 0001:00006340       ?readByteBuffer@physx@@YAXPEAEIAEAVPxInputStream@1@@Z 0000000180007340 f   CmSerialize.obj
 0001:00006360       ?readChunk@physx@@YAXAEAC000AEAVPxInputStream@1@@Z 0000000180007360 f   CmSerialize.obj
 0001:000063e0       ?readDword@physx@@YAI_NAEAVPxInputStream@1@@Z 00000001800073e0 f   CmSerialize.obj
 0001:00006440       ?readFloat@physx@@YAM_NAEAVPxInputStream@1@@Z 0000000180007440 f   CmSerialize.obj
 0001:000064a0       ?readFloatBuffer@physx@@YA_NPEAMI_NAEAVPxInputStream@1@@Z 00000001800074a0 f   CmSerialize.obj
 0001:00006520       ?readHeader@physx@@YA_NCCCCAEAIAEA_NAEAVPxInputStream@1@@Z 0000000180007520 f   CmSerialize.obj
 0001:00006670       ?readIndices@physx@@YAXIIPEAIAEAVPxInputStream@1@_N@Z 0000000180007670 f   CmSerialize.obj
 0001:00006760       ?readWord@physx@@YAG_NAEAVPxInputStream@1@@Z 0000000180007760 f   CmSerialize.obj
 0001:000067a0       ?readWordBuffer@physx@@YAXPEAGI_NAEAVPxInputStream@1@@Z 00000001800077a0 f   CmSerialize.obj
 0001:00006810       ?storeIndices@physx@@YAXIIPEBIAEAVPxOutputStream@1@_N@Z 0000000180007810 f   CmSerialize.obj
 0001:00006970       ?writeDword@physx@@YAXI_NAEAVPxOutputStream@1@@Z 0000000180007970 f   CmSerialize.obj
 0001:000069c0       ?writeFloat@physx@@YAXM_NAEAVPxOutputStream@1@@Z 00000001800079c0 f   CmSerialize.obj
 0001:00006a10       ?writeFloatBuffer@physx@@YAXPEBMI_NAEAVPxOutputStream@1@@Z 0000000180007a10 f   CmSerialize.obj
 0001:00006ab0       ?writeHeader@physx@@YA_NCCCCI_NAEAVPxOutputStream@1@@Z 0000000180007ab0 f   CmSerialize.obj
 0001:00006be0       ?writeWord@physx@@YAXG_NAEAVPxOutputStream@1@@Z 0000000180007be0 f   CmSerialize.obj
 0001:00006c20       ?writeWordBuffer@physx@@YAXPEBGI_NAEAVPxOutputStream@1@@Z 0000000180007c20 f   CmSerialize.obj
 0001:00006ca0       ??6PxRenderOutput@physx@@QEAAAEAV01@AEBV?$PxTransformT@M@1@@Z 0000000180007ca0 f i CmVisualization.obj
 0001:00006e20       ??6PxRenderOutput@physx@@QEAAAEAV01@AEBV?$PxVec3T@M@1@@Z 0000000180007e20 f i CmVisualization.obj
 0001:00007120       ?renderOutputDebugArrow@Cm@physx@@YAXAEAVPxRenderOutput@2@AEBUPxDebugArrow@2@@Z 0000000180008120 f   CmVisualization.obj
 0001:000074c0       ?renderOutputDebugBasis@Cm@physx@@YAXAEAVPxRenderOutput@2@AEBUPxDebugBasis@2@@Z 00000001800084c0 f   CmVisualization.obj
 0001:000079b0       ?renderOutputDebugBox@Cm@physx@@YAXAEAVPxRenderOutput@2@AEBVPxBounds3@2@@Z 00000001800089b0 f   CmVisualization.obj
 0001:00007c20       ?renderOutputDebugCircle@Cm@physx@@YAXAEAVPxRenderOutput@2@IM@Z 0000000180008c20 f   CmVisualization.obj
 0001:00007d00       ?visualizeAngularLimit@Cm@physx@@YAXAEAVPxRenderOutput@2@MAEBV?$PxTransformT@M@2@MM@Z 0000000180008d00 f   CmVisualization.obj
 0001:00007e90       ?visualizeDoubleCone@Cm@physx@@YAXAEAVPxRenderOutput@2@MAEBV?$PxTransformT@M@2@M@Z 0000000180008e90 f   CmVisualization.obj
 0001:00008090       ?visualizeJointFrames@Cm@physx@@YAXAEAVPxRenderOutput@2@MAEBV?$PxTransformT@M@2@1@Z 0000000180009090 f   CmVisualization.obj
 0001:00008aa0       ?visualizeLimitCone@Cm@physx@@YAXAEAVPxRenderOutput@2@MAEBV?$PxTransformT@M@2@MM@Z 0000000180009aa0 f   CmVisualization.obj
 0001:00008ce0       ?visualizeLinearLimit@Cm@physx@@YAXAEAVPxRenderOutput@2@MAEBV?$PxTransformT@M@2@1M@Z 0000000180009ce0 f   CmVisualization.obj
 0001:000092d0       ??0CmModuleUpdateLoader@Cm@physx@@QEAA@PEBD@Z 000000018000a2d0 f   CmWindowsModuleUpdateLoader.obj
 0001:00009310       ??1CmModuleUpdateLoader@Cm@physx@@QEAA@XZ 000000018000a310 f   CmWindowsModuleUpdateLoader.obj
 0001:00009340       ?LoadModule@CmModuleUpdateLoader@Cm@physx@@QEAAPEAUHINSTANCE__@@PEBD0@Z 000000018000a340 f   CmWindowsModuleUpdateLoader.obj
 0001:000093b0       __local_stdio_printf_options 000000018000a3b0 f i CmWindowsModuleUpdateLoader.obj
 0001:000093c0       printf                     000000018000a3c0 f i CmWindowsModuleUpdateLoader.obj
 0001:00009420       ?commonDelayHook@@YAP6A_JXZIPEAUDelayLoadInfo@@@Z 000000018000a420 f   CmWindowsDelayLoadHook.obj
 0001:00009500       PxSetPhysXCommonDelayLoadHook 000000018000a500 f   CmWindowsDelayLoadHook.obj
 0001:00009510       ??0?$PxQuatT@M@physx@@QEAA@AEBV?$PxMat33T@M@1@@Z 000000018000a510 f i GuBox.obj
 0001:000096f0       ??0Box@Gu@physx@@QEAA@AEBV012@@Z 000000018000a6f0 f i GuBox.obj
 0001:000096f0       ??4Box@Gu@physx@@QEAAAEBV012@AEBV012@@Z 000000018000a6f0 f i GuBox.obj
 0001:00009750       ??0Box@Gu@physx@@QEAA@AEBV?$PxVec3T@M@2@0AEBV?$PxMat33T@M@2@@Z 000000018000a750 f i GuBox.obj
 0001:000097c0       ??0Box@Gu@physx@@QEAA@XZ   000000018000a7c0 f i GuBox.obj
 0001:000097c0       ?getAABB@AABBTreeBuildNode@Gu@physx@@QEBAAEBVPxBounds3@3@XZ 000000018000a7c0 f i GuMeshFactory.obj
 0001:000097c0       ??$forward@_K@std@@YA$$QEA_KAEA_K@Z 000000018000a7c0 f i libvcruntime:undname.obj
 0001:000097c0       ?getPaddedBounds@HeightFieldData@Gu@physx@@QEBAAEBVCenterExtentsPadded@23@XZ 000000018000a7c0 f i GuCCTSweepTests.obj
 0001:000097c0       ??0AABBTreeBuildNode@Gu@physx@@QEAA@XZ 000000018000a7c0 f i GuMeshFactory.obj
 0001:000097c0       ??0BigConvexData@physx@@QEAA@W4PxEMPTY@1@@Z 000000018000a7c0 f i GuMetaData.obj
 0001:000097c0       ??0HeightFieldData@Gu@physx@@QEAA@W4PxEMPTY@2@@Z 000000018000a7c0 f i GuCCTSweepTests.obj
 0001:000097d0       ?computeAABBExtent@Box@Gu@physx@@QEBA?AV?$PxVec3T@M@3@XZ 000000018000a7d0 f i GuBox.obj
 0001:00009890       ?computeBoxPoints@Box@Gu@physx@@QEBAXPEIAV?$PxVec3T@M@3@@Z 000000018000a890 f i GuBox.obj
 0001:000098d0       ?computeOBBPoints@Gu@physx@@YAXPEIAV?$PxVec3T@M@2@AEBV32@1111@Z 000000018000a8d0 f   GuBox.obj
 0001:00009b50       ?create@Box@Gu@physx@@QEAAXAEBVCapsule@23@@Z 000000018000ab50 f   GuBox.obj
 0001:00009d80       ?getBoxEdges@Gu@physx@@YAPEBEXZ 000000018000ad80 f   GuBox.obj
 0001:00009d90       ?getTransform@Box@Gu@physx@@QEBA?AV?$PxTransformT@M@3@XZ 000000018000ad90 f i GuBox.obj
 0001:00009df0       ?isValid@Box@Gu@physx@@QEBA_NXZ 000000018000adf0 f i GuBox.obj
 0001:00009e10       ?rotate@Box@Gu@physx@@QEBA?AV?$PxVec3T@M@3@AEBV43@@Z 000000018000ae10 f i GuBox.obj
 0001:00009ea0       ?rotateInv@Box@Gu@physx@@QEBA?AV?$PxVec3T@M@3@AEBV43@@Z 000000018000aea0 f i GuBox.obj
 0001:00009f30       ?setAxes@Box@Gu@physx@@QEAAXAEBV?$PxVec3T@M@3@00@Z 000000018000af30 f i GuBox.obj
 0001:00009f70       ?setEmpty@Box@Gu@physx@@QEAAXXZ 000000018000af70 f i GuBox.obj
 0001:00009fb0       ?transform@Box@Gu@physx@@QEBA?AV?$PxVec3T@M@3@AEBV43@@Z 000000018000afb0 f i GuBox.obj
 0001:0000a050       ?PxComputeBasisVectors@physx@@YAXAEBV?$PxVec3T@M@1@0AEAV21@11@Z 000000018000b050 f i GuCapsule.obj
 0001:0000a1f0       ?computeBoxAroundCapsule@Gu@physx@@YAXAEBVCapsule@12@AEAVBox@12@@Z 000000018000b1f0 f   GuCapsule.obj
 0001:0000a340       ??0HeightFieldData@Gu@physx@@QEAA@AEBU012@@Z 000000018000b340 f i GuCCTSweepTests.obj
 0001:0000a340       ??0HeightFieldData@Gu@physx@@QEAA@$$QEAU012@@Z 000000018000b340 f i GuCCTSweepTests.obj
 0001:0000a340       ??4HeightFieldData@Gu@physx@@QEAAAEAU012@AEBU012@@Z 000000018000b340 f i GuCCTSweepTests.obj
 0001:0000a340       ??4HeightFieldData@Gu@physx@@QEAAAEAU012@$$QEAU012@@Z 000000018000b340 f i GuCCTSweepTests.obj
 0001:0000a3a0       ??0HeightFieldData@Gu@physx@@QEAA@XZ 000000018000b3a0 f i GuCCTSweepTests.obj
 0001:0000a3b0       ??0HeightFieldUtil@Gu@physx@@QEAA@AEBVPxHeightFieldGeometry@2@@Z 000000018000b3b0 f i GuCCTSweepTests.obj
 0001:0000a3b0       ??0HeightFieldTraceUtil@Gu@physx@@QEAA@AEBVPxHeightFieldGeometry@2@@Z 000000018000b3b0 f i GuCCTSweepTests.obj
 0001:0000a3f0       ??4HeightFieldTraceUtil@Gu@physx@@QEAAAEAV012@$$QEAV012@@Z 000000018000b3f0 f i GuCCTSweepTests.obj
 0001:0000a3f0       ??4HeightFieldUtil@Gu@physx@@QEAAAEAV012@AEBV012@@Z 000000018000b3f0 f i GuCCTSweepTests.obj
 0001:0000a3f0       ??4HeightFieldTraceUtil@Gu@physx@@QEAAAEAV012@AEBV012@@Z 000000018000b3f0 f i GuCCTSweepTests.obj
 0001:0000a3f0       ??4AABBTreeBuildParams@Gu@physx@@QEAAAEAV012@AEBV012@@Z 000000018000b3f0 f i GuMeshFactory.obj
 0001:0000a410       ??4HeightFieldUtil@Gu@physx@@QEAAAEAV012@$$QEAV012@@Z 000000018000b410 f i GuCCTSweepTests.obj
 0001:0000a470       ??_EOverlapReport@Gu@physx@@UEAAPEAXI@Z 000000018000b470 f i GuCCTSweepTests.obj
 0001:0000a470       ??_GOverlapCallback@PxBVH@physx@@UEAAPEAXI@Z 000000018000b470 f i GuQuerySystem.obj
 0001:0000a470       ??_GEntityReport@Gu@physx@@UEAAPEAXI@Z 000000018000b470 f i GuSweepsHF.obj
 0001:0000a470       ??_EEntityReport@Gu@physx@@UEAAPEAXI@Z 000000018000b470 f i GuSweepsHF.obj
 0001:0000a470       ??_GOverlapReport@Gu@physx@@UEAAPEAXI@Z 000000018000b470 f i GuCCTSweepTests.obj
 0001:0000a470       ??_ERemapCallback@RTreeCooker@physx@@UEAAPEAXI@Z 000000018000b470 f i GuCookingTriangleMesh.obj
 0001:0000a470       ??_ERaycastCallback@PxBVH@physx@@UEAAPEAXI@Z 000000018000b470 f i GuQuerySystem.obj
 0001:0000a470       ??_GRemapCallback@RTreeCooker@physx@@UEAAPEAXI@Z 000000018000b470 f i GuCookingTriangleMesh.obj
 0001:0000a470       ??_EOverlapCallback@PxBVH@physx@@UEAAPEAXI@Z 000000018000b470 f i GuQuerySystem.obj
 0001:0000a470       ??_GRaycastCallback@PxBVH@physx@@UEAAPEAXI@Z 000000018000b470 f i GuQuerySystem.obj
 0001:0000a4a0       ??_H@YAXPEAX_K1P6APEAX0@Z@Z 000000018000b4a0 f i GuCCTSweepTests.obj
 0001:0000a4f0       ?ceilUp@HeightFieldTraceUtil@Gu@physx@@SAMM@Z 000000018000b4f0 f i GuCCTSweepTests.obj
 0001:0000a530       ?floorDown@HeightFieldTraceUtil@Gu@physx@@SAMM@Z 000000018000b530 f i GuCCTSweepTests.obj
 0001:0000a570       ?getHeightAtShapePoint@HeightFieldUtil@Gu@physx@@QEBAMMM@Z 000000018000b570 f i GuCCTSweepTests.obj
 0001:0000a5d0       ?getHeightInternal2@HeightField@Gu@physx@@QEBAMIMM@Z 000000018000b5d0 f i GuCCTSweepTests.obj
 0001:0000a740       ?getNormalAtShapePoint@HeightFieldUtil@Gu@physx@@QEBA?AV?$PxVec3T@M@3@MM@Z 000000018000b740 f i GuCCTSweepTests.obj
 0001:0000a800       ?getNormal_2@HeightField@Gu@physx@@QEBA?AV?$PxVec3T@M@3@IMMMMM@Z 000000018000b800 f i GuCCTSweepTests.obj
 0001:0000a920       ?getOneOverColumnScale@HeightFieldUtil@Gu@physx@@QEBAMXZ 000000018000b920 f i GuCCTSweepTests.obj
 0001:0000a930       ?getOneOverHeightScale@HeightFieldUtil@Gu@physx@@QEBAMXZ 000000018000b930 f i GuCCTSweepTests.obj
 0001:0000a940       ?getOneOverRowScale@HeightFieldUtil@Gu@physx@@QEBAMXZ 000000018000b940 f i GuCCTSweepTests.obj
 0001:0000a950       ?hf2shapen@HeightFieldUtil@Gu@physx@@QEBA?AV?$PxVec3T@M@3@AEBV43@@Z 000000018000b950 f i GuCCTSweepTests.obj
 0001:0000a950       ?shape2hfp@HeightFieldUtil@Gu@physx@@QEBA?AV?$PxVec3T@M@3@AEBV43@@Z 000000018000b950 f i GuCCTSweepTests.obj
 0001:0000a990       ?hf2shapep@HeightFieldUtil@Gu@physx@@QEBA?AV?$PxVec3T@M@3@AEBV43@@Z 000000018000b990 f i GuCCTSweepTests.obj
 0001:0000a9d0       ?hf2worldn@HeightFieldUtil@Gu@physx@@QEBA?AV?$PxVec3T@M@3@AEBV?$PxTransformT@M@3@AEBV43@@Z 000000018000b9d0 f i GuCCTSweepTests.obj
 0001:0000ab40       ?hf2worldp@HeightFieldUtil@Gu@physx@@QEBA?AV?$PxVec3T@M@3@AEBV?$PxTransformT@M@3@AEBV43@@Z 000000018000bb40 f i GuCCTSweepTests.obj
 0001:0000acc0       ?overlapAABBTriangles0to1@HeightFieldUtil@Gu@physx@@QEBAXAEBV?$PxTransformT@M@3@AEBVPxBounds3@3@AEAVOverlapReport@23@I@Z 000000018000bcc0 f i GuCCTSweepTests.obj
 0001:0000b040       ?overlapAABBTriangles@HeightFieldUtil@Gu@physx@@QEBAXAEBV?$PxTransformT@M@3@0AEBVPxBounds3@3@AEAVOverlapReport@23@I@Z 000000018000c040 f i GuCCTSweepTests.obj
 0001:0000b650       ?overlapAABBTriangles@HeightFieldUtil@Gu@physx@@QEBAXAEBV?$PxTransformT@M@3@AEBVPxBounds3@3@AEAVOverlapReport@23@I@Z 000000018000c650 f i GuCCTSweepTests.obj
 0001:0000bd00       ?sweepBoxTriangles_Precise@Gu@physx@@YA_NIPEBVPxTriangle@2@_NAEBVPxBoxGeometry@2@AEBV?$PxTransformT@M@2@AEBV?$PxVec3T@M@2@MAEAUPxGeomSweepHit@2@PEBIMV?$PxFlags@W4Enum@PxHitFlag@physx@@G@2@@Z 000000018000cd00 f   GuCCTSweepTests.obj
 0001:0000ca80       ?sweepBox_BoxGeom_Precise@@YA_NAEBVPxGeometry@physx@@AEBV?$PxTransformT@M@2@AEBVPxBoxGeometry@2@1AEBVBox@Gu@2@AEBV?$PxVec3T@M@2@MAEAUPxGeomSweepHit@2@V?$PxFlags@W4Enum@PxHitFlag@physx@@G@2@MPEAUPxQueryThreadContext@2@@Z 000000018000da80 f   GuCCTSweepTests.obj
 0001:0000cc40       ?sweepBox_CapsuleGeom_Precise@@YA_NAEBVPxGeometry@physx@@AEBV?$PxTransformT@M@2@AEBVPxBoxGeometry@2@1AEBVBox@Gu@2@AEBV?$PxVec3T@M@2@MAEAUPxGeomSweepHit@2@V?$PxFlags@W4Enum@PxHitFlag@physx@@G@2@MPEAUPxQueryThreadContext@2@@Z 000000018000dc40 f   GuCCTSweepTests.obj
 0001:0000d010       ?sweepBox_HeightFieldGeom_Precise@@YA_NAEBVPxGeometry@physx@@AEBV?$PxTransformT@M@2@AEBVPxBoxGeometry@2@1AEBVBox@Gu@2@AEBV?$PxVec3T@M@2@MAEAUPxGeomSweepHit@2@V?$PxFlags@W4Enum@PxHitFlag@physx@@G@2@MPEAUPxQueryThreadContext@2@@Z 000000018000e010 f   GuCCTSweepTests.obj
 0001:0000d810       ?sweepBox_SphereGeom_Precise@@YA_NAEBVPxGeometry@physx@@AEBV?$PxTransformT@M@2@AEBVPxBoxGeometry@2@1AEBVBox@Gu@2@AEBV?$PxVec3T@M@2@MAEAUPxGeomSweepHit@2@V?$PxFlags@W4Enum@PxHitFlag@physx@@G@2@MPEAUPxQueryThreadContext@2@@Z 000000018000e810 f   GuCCTSweepTests.obj
 0001:0000daf0       ?sweepCapsule_BoxGeom_Precise@@YA_NAEBVPxGeometry@physx@@AEBV?$PxTransformT@M@2@AEBVPxCapsuleGeometry@2@1AEBVCapsule@Gu@2@AEBV?$PxVec3T@M@2@MAEAUPxGeomSweepHit@2@V?$PxFlags@W4Enum@PxHitFlag@physx@@G@2@MPEAUPxQueryThreadContext@2@@Z 000000018000eaf0 f   GuCCTSweepTests.obj
 0001:0000e150       ??0?$CacheMap@UCachedEdge@Gu@physx@@$0IA@@Gu@physx@@QEAA@XZ 000000018000f150 f i GuGeometryQuery.obj
 0001:0000e210       ??0?$CacheMap@UCachedVertex@Gu@physx@@$0IA@@Gu@physx@@QEAA@XZ 000000018000f210 f i GuGeometryQuery.obj
 0001:0000e2d0       ??0MultiplePersistentContactManifold@Gu@physx@@QEAA@XZ 000000018000f2d0 f i GuGeometryQuery.obj
 0001:0000e320       ??0PCMMeshContactGeneration@Gu@physx@@QEAA@AEBT__m128@@0AEBVPxTransformV@aos@2@1AEAVMultiplePersistentContactManifold@12@AEAVPxContactBuffer@2@PEAV?$PxInlineArray@I$0DMA@V?$PxReflectionAllocator@I@physx@@@2@PEAVPxRenderOutput@2@@Z 000000018000f320 f i GuGeometryQuery.obj
 0001:0000ec50       ??0PolygonalBox@Gu@physx@@QEAA@AEBV012@@Z 000000018000fc50 f i GuGeometryQuery.obj
 0001:0000eed0       ??4MultiplePersistentContactManifold@Gu@physx@@QEAAAEAV012@$$QEAV012@@Z 000000018000fed0 f i GuGeometryQuery.obj
 0001:0000f1e0       ??4MultiplePersistentContactManifold@Gu@physx@@QEAAAEAV012@AEBV012@@Z 00000001800101e0 f i GuGeometryQuery.obj
 0001:0000f200       ??_G?$SupportLocalImpl@VBoxV@Gu@physx@@@Gu@physx@@UEAAPEAXI@Z 0000000180010200 f i GuGeometryQuery.obj
 0001:0000f200       ??_G?$SupportLocalImpl@VConvexHullNoScaleV@Gu@physx@@@Gu@physx@@UEAAPEAXI@Z 0000000180010200 f i GuMTD.obj
 0001:0000f200       ??_E?$SupportLocalImpl@VBoxV@Gu@physx@@@Gu@physx@@UEAAPEAXI@Z 0000000180010200 f i GuGeometryQuery.obj
 0001:0000f200       ??_G?$SupportLocalImpl@VConvexHullV@Gu@physx@@@Gu@physx@@UEAAPEAXI@Z 0000000180010200 f i GuGeometryQuery.obj
 0001:0000f200       ??_E?$SupportLocalImpl@VConvexHullNoScaleV@Gu@physx@@@Gu@physx@@UEAAPEAXI@Z 0000000180010200 f i GuMTD.obj
 0001:0000f200       ??_E?$SupportLocalImpl@VConvexHullV@Gu@physx@@@Gu@physx@@UEAAPEAXI@Z 0000000180010200 f i GuGeometryQuery.obj
 0001:0000f200       ??_E?$SupportLocalImpl@VTriangleV@Gu@physx@@@Gu@physx@@UEAAPEAXI@Z 0000000180010200 f i GuPCMContactConvexCommon.obj
 0001:0000f200       ??_G?$SupportLocalImpl@VTriangleV@Gu@physx@@@Gu@physx@@UEAAPEAXI@Z 0000000180010200 f i GuPCMContactConvexCommon.obj
 0001:0000f230       ??_ESupportLocal@Gu@physx@@UEAAPEAXI@Z 0000000180010230 f i GuGeometryQuery.obj
 0001:0000f230       ??_GSupportLocal@Gu@physx@@UEAAPEAXI@Z 0000000180010230 f i GuGeometryQuery.obj
 0001:0000f260       ?clearManifold@MultiplePersistentContactManifold@Gu@physx@@QEAAXXZ 0000000180010260 f i GuGeometryQuery.obj
 0001:0000f2c0       ?computeGeomBounds@PxGeometryQuery@physx@@SAXAEAVPxBounds3@2@AEBVPxGeometry@2@AEBV?$PxTransformT@M@2@MMV?$PxFlags@W4Enum@PxGeometryQueryFlag@physx@@I@2@@Z 00000001800102c0 f   GuGeometryQuery.obj
 0001:0000f340       ?computePenetration@PxGeometryQuery@physx@@SA_NAEAV?$PxVec3T@M@2@AEAMAEBVPxGeometry@2@AEBV?$PxTransformT@M@2@23V?$PxFlags@W4Enum@PxGeometryQueryFlag@physx@@I@2@@Z 0000000180010340 f   GuGeometryQuery.obj
 0001:0000f4a0       ?doSupport@?$SupportLocalImpl@VBoxV@Gu@physx@@@Gu@physx@@UEBA?AT__m128@@AEBT4@@Z 00000001800104a0 f i GuGeometryQuery.obj
 0001:0000f4d0       ?doSupport@?$SupportLocalImpl@VBoxV@Gu@physx@@@Gu@physx@@UEBAXAEBT__m128@@AEAT4@1@Z 00000001800104d0 f i GuGeometryQuery.obj
 0001:0000f520       ?doSupport@?$SupportLocalImpl@VConvexHullV@Gu@physx@@@Gu@physx@@UEBA?AT__m128@@AEBT4@@Z 0000000180010520 f i GuGeometryQuery.obj
 0001:0000f600       ?doSupport@?$SupportLocalImpl@VConvexHullV@Gu@physx@@@Gu@physx@@UEBAXAEBT__m128@@AEAT4@1@Z 0000000180010600 f i GuGeometryQuery.obj
 0001:0000f960       ?generateTriangleContacts@PxGeometryQuery@physx@@SA_NAEBVPxGeometry@2@AEBV?$PxTransformT@M@2@QEBV?$PxVec3T@M@2@IMMMAEAVPxContactBuffer@2@@Z 0000000180010960 f   GuGeometryQuery.obj
 0001:00011260       ?getEmptyManifold@MultiplePersistentContactManifold@Gu@physx@@QEAAPEAVSinglePersistentContactManifold@23@XZ 0000000180012260 f i GuGeometryQuery.obj
 0001:00011280       ?getManifold@MultiplePersistentContactManifold@Gu@physx@@QEAAPEAVSinglePersistentContactManifold@23@I@Z 0000000180012280 f i GuGeometryQuery.obj
 0001:000112a0       ?getUniqueID@PxCustomGeometry@physx@@SAIXZ 00000001800122a0 f   GuGeometryQuery.obj
 0001:000112c0       ?hillClimbing@ConvexHullV@Gu@physx@@QEBAIAEBT__m128@@@Z 00000001800122c0 f i GuGeometryQuery.obj
 0001:000114f0       ?initialize@MultiplePersistentContactManifold@Gu@physx@@QEAAXXZ 00000001800124f0 f i GuGeometryQuery.obj
 0001:00011550       ?invalidate@MultiplePersistentContactManifold@Gu@physx@@QEAAIAEBVPxTransformV@aos@3@AEBT__m128@@1@Z 0000000180012550 f i GuGeometryQuery.obj
 0001:000115c0       ?invalidate@MultiplePersistentContactManifold@Gu@physx@@QEAAIAEBVPxTransformV@aos@3@AEBT__m128@@@Z 00000001800125c0 f i GuGeometryQuery.obj
 0001:00011630       ?isUnit@?$PxQuatT@M@physx@@QEBA_NXZ 0000000180012630 f i GuGeometryQuery.obj
 0001:000116f0       ?isValid@PxGeometryQuery@physx@@SA_NAEBVPxGeometry@2@@Z 00000001800126f0 f   GuGeometryQuery.obj
 0001:000119e0       ?maxTransformPositionDelta@MultiplePersistentContactManifold@Gu@physx@@QEAA?AT__m128@@AEBT4@@Z 00000001800129e0 f i GuGeometryQuery.obj
 0001:00011a20       ?maxTransformQuatDelta@MultiplePersistentContactManifold@Gu@physx@@QEAA?AT__m128@@AEBT4@@Z 0000000180012a20 f i GuGeometryQuery.obj
 0001:00011a60       ?overlap@PxGeometryQuery@physx@@SA_NAEBVPxGeometry@2@AEBV?$PxTransformT@M@2@01V?$PxFlags@W4Enum@PxGeometryQueryFlag@physx@@I@2@PEAUPxQueryThreadContext@2@@Z 0000000180012a60 f   GuGeometryQuery.obj
 0001:00011b40       ?pointDistance@PxGeometryQuery@physx@@SAMAEBV?$PxVec3T@M@2@AEBVPxGeometry@2@AEBV?$PxTransformT@M@2@PEAV32@PEAIV?$PxFlags@W4Enum@PxGeometryQueryFlag@physx@@I@2@@Z 0000000180012b40 f   GuGeometryQuery.obj
 0001:000122e0       ?populateVerts@?$SupportLocalImpl@VBoxV@Gu@physx@@@Gu@physx@@UEBAXPEBEIPEBV?$PxVec3T@M@3@PEAT__m128@@@Z 00000001800132e0 f i GuGeometryQuery.obj
 0001:00012320       ?populateVerts@?$SupportLocalImpl@VConvexHullV@Gu@physx@@@Gu@physx@@UEBAXPEBEIPEBV?$PxVec3T@M@3@PEAT__m128@@@Z 0000000180013320 f i GuGeometryQuery.obj
 0001:00012380       ?raycast@PxGeometryQuery@physx@@SAIAEBV?$PxVec3T@M@2@0AEBVPxGeometry@2@AEBV?$PxTransformT@M@2@MV?$PxFlags@W4Enum@PxHitFlag@physx@@G@2@IPEIAUPxGeomRaycastHit@2@IV?$PxFlags@W4Enum@PxGeometryQueryFlag@physx@@I@2@PEAUPxQueryThreadContext@2@@Z 0000000180013380 f   GuGeometryQuery.obj
 0001:00012480       ?reduceManifoldContactsInDifferentPatches@MultiplePersistentContactManifold@Gu@physx@@QEAAIPEAPEAUPCMContactPatch@23@IPEAVMeshPersistentContact@23@IAEBT__m128@@@Z 0000000180013480 f i GuGeometryQuery.obj
 0001:000125e0       ?refineContactPatchConnective@MultiplePersistentContactManifold@Gu@physx@@QEAAXPEAPEAUPCMContactPatch@23@IPEAVMeshPersistentContact@23@AEBT__m128@@@Z 00000001800135e0 f i GuGeometryQuery.obj
 0001:000126d0       ?refreshManifold@MultiplePersistentContactManifold@Gu@physx@@QEAAXAEBVPxMatTransformV@aos@3@AEBT__m128@@1@Z 00000001800136d0 f i GuGeometryQuery.obj
 0001:000127d0       ?setRelativeTransform@MultiplePersistentContactManifold@Gu@physx@@QEAAXAEBVPxTransformV@aos@3@@Z 00000001800137d0 f i GuGeometryQuery.obj
 0001:000127e0       ?supportVertexIndex@ConvexHullV@Gu@physx@@QEBAIAEBT__m128@@@Z 00000001800137e0 f i GuGeometryQuery.obj
 0001:00012a60       ?sweep@PxGeometryQuery@physx@@SA_NAEBV?$PxVec3T@M@2@MAEBVPxGeometry@2@AEBV?$PxTransformT@M@2@12AEAUPxGeomSweepHit@2@V?$PxFlags@W4Enum@PxHitFlag@physx@@G@2@MV?$PxFlags@W4Enum@PxGeometryQueryFlag@physx@@I@2@PEAUPxQueryThreadContext@2@@Z 0000000180013a60 f   GuGeometryQuery.obj
 0001:00012f00       ?toBuffer@MultiplePersistentContactManifold@Gu@physx@@QEAAXPEIAE@Z 0000000180013f00 f i GuGeometryQuery.obj
 0001:00012fe0       ?computeBoxPoints@Gu@physx@@YAXAEBVPxBounds3@2@PEIAV?$PxVec3T@M@2@@Z 0000000180013fe0 f   GuInternal.obj
 0001:00013080       ?computeSweptBox@Gu@physx@@YAXAEAVBox@12@AEBV?$PxVec3T@M@2@1AEBV?$PxMat33T@M@2@1M@Z 0000000180014080 f   GuInternal.obj
 0001:000135b0       ?getPlane@Gu@physx@@YA?AVPxPlane@2@AEBV?$PxTransformT@M@2@@Z 00000001800145b0 f   GuInternal.obj
 0001:00013a00       ??_EPxInsertionCallback@physx@@MEAAPEAXI@Z 0000000180014a00 f i GuMeshFactory.obj
 0001:00013a00       ??_GCallbackRaycast@RTree@Gu@physx@@UEAAPEAXI@Z 0000000180014a00 f i GuMidphaseRTree.obj
 0001:00013a00       ??_ECallbackRaycast@RTree@Gu@physx@@UEAAPEAXI@Z 0000000180014a00 f i GuMidphaseRTree.obj
 0001:00013a00       ??_ECallbackRefit@RTree@Gu@physx@@UEAAPEAXI@Z 0000000180014a00 f i GuTriangleMeshRTree.obj
 0001:00013a00       ??_GCallbackRefit@RTree@Gu@physx@@UEAAPEAXI@Z 0000000180014a00 f i GuTriangleMeshRTree.obj
 0001:00013a00       ??_GPxInsertionCallback@physx@@MEAAPEAXI@Z 0000000180014a00 f i GuMeshFactory.obj
 0001:00013a30       ??$copy@V?$PxReflectionAllocator@USlab@NodeAllocator@Gu@physx@@@physx@@@?$PxArray@USlab@NodeAllocator@Gu@physx@@V?$PxReflectionAllocator@USlab@NodeAllocator@Gu@physx@@@4@@physx@@IEAAXAEBV01@@Z 0000000180014a30 f i GuMeshFactory.obj
 0001:00013af0       ??0AABBTreeBounds@Gu@physx@@QEAA@XZ 0000000180014af0 f i GuMeshFactory.obj
 0001:00013b00       ??0AABBTreeBuildNode@Gu@physx@@QEAA@AEBV012@@Z 0000000180014b00 f i GuMeshFactory.obj
 0001:00013b00       ??4AABBTreeBuildNode@Gu@physx@@QEAAAEAV012@AEBV012@@Z 0000000180014b00 f i GuMeshFactory.obj
 0001:00013b40       ??0AABBTreeBuildParams@Gu@physx@@QEAA@IIPEBVAABBTreeBounds@12@W4BVHBuildStrategy@12@@Z 0000000180014b40 f i GuMeshFactory.obj
 0001:00013b60       ??0MeshFactory@Gu@physx@@QEAA@XZ 0000000180014b60 f   GuMeshFactory.obj
 0001:00013d60       ??0NodeAllocator@Gu@physx@@QEAA@AEBV012@@Z 0000000180014d60 f i GuMeshFactory.obj
 0001:00013da0       ??0TriangleMeshData@Gu@physx@@QEAA@XZ 0000000180014da0 f i GuMeshFactory.obj
 0001:00013eb0       ??1AABBTreeBounds@Gu@physx@@QEAA@XZ 0000000180014eb0 f i GuMeshFactory.obj
 0001:00013ec0       ??1AABBTreeBuildParams@Gu@physx@@QEAA@XZ 0000000180014ec0 f i GuMeshFactory.obj
 0001:00013ec0       ?reset@AABBTreeBuildParams@Gu@physx@@QEAAXXZ 0000000180014ec0 f i GuMeshFactory.obj
 0001:00013f10       ??1CollisionMeshMappingData@Gu@physx@@UEAA@XZ 0000000180014f10 f i GuMeshFactory.obj
 0001:00014060       ??1MeshDataBase@Gu@physx@@UEAA@XZ 0000000180015060 f i GuMeshFactory.obj
 0001:000141a0       ??1MeshFactory@Gu@physx@@MEAA@XZ 00000001800151a0 f   GuMeshFactory.obj
 0001:000142e0       ??1RTreeTriangleData@Gu@physx@@UEAA@XZ 00000001800152e0 f i GuMeshFactory.obj
 0001:00014350       ??1SoftBodyCollisionData@Gu@physx@@UEAA@XZ 0000000180015350 f i GuMeshFactory.obj
 0001:00014490       ??1SoftBodySimulationData@Gu@physx@@UEAA@XZ 0000000180015490 f i GuMeshFactory.obj
 0001:000145b0       ??1TetrahedronMeshData@Gu@physx@@QEAA@XZ 00000001800155b0 f i GuMeshFactory.obj
 0001:00014640       ??1TriangleMeshData@Gu@physx@@UEAA@XZ 0000000180015640 f i GuMeshFactory.obj
 0001:00014770       ??4NodeAllocator@Gu@physx@@QEAAAEAV012@AEBV012@@Z 0000000180015770 f i GuMeshFactory.obj
 0001:00014820       ??_EMeshFactory@Gu@physx@@MEAAPEAXI@Z 0000000180015820 f i GuMeshFactory.obj
 0001:00014940       ??_FAABBTreeBuildParams@Gu@physx@@QEAAXXZ 0000000180015940 f i GuMeshFactory.obj
 0001:00014960       ??_EBV4TriangleData@Gu@physx@@UEAAPEAXI@Z 0000000180015960 f i GuMeshFactory.obj
 0001:00014960       ??_GBV4TriangleData@Gu@physx@@UEAAPEAXI@Z 0000000180015960 f i GuMeshFactory.obj
 0001:000149f0       ??_GCollisionMeshMappingData@Gu@physx@@UEAAPEAXI@Z 00000001800159f0 f i GuMeshFactory.obj
 0001:000149f0       ??_ECollisionMeshMappingData@Gu@physx@@UEAAPEAXI@Z 00000001800159f0 f i GuMeshFactory.obj
 0001:00014a60       ??_EMeshDataBase@Gu@physx@@UEAAPEAXI@Z 0000000180015a60 f i GuMeshFactory.obj
 0001:00014a60       ??_GMeshDataBase@Gu@physx@@UEAAPEAXI@Z 0000000180015a60 f i GuMeshFactory.obj
 0001:00014ad0       ??_EPxCollisionMeshMappingData@physx@@UEAAPEAXI@Z 0000000180015ad0 f i GuMeshFactory.obj
 0001:00014ad0       ??_GPxCollisionMeshMappingData@physx@@UEAAPEAXI@Z 0000000180015ad0 f i GuMeshFactory.obj
 0001:00014b20       ??_GRTreeTriangleData@Gu@physx@@UEAAPEAXI@Z 0000000180015b20 f i GuMeshFactory.obj
 0001:00014b20       ??_ERTreeTriangleData@Gu@physx@@UEAAPEAXI@Z 0000000180015b20 f i GuMeshFactory.obj
 0001:00014bd0       ??_ESoftBodyCollisionData@Gu@physx@@UEAAPEAXI@Z 0000000180015bd0 f i GuMeshFactory.obj
 0001:00014bd0       ??_GSoftBodyCollisionData@Gu@physx@@UEAAPEAXI@Z 0000000180015bd0 f i GuMeshFactory.obj
 0001:00014c40       ??_GSoftBodySimulationData@Gu@physx@@UEAAPEAXI@Z 0000000180015c40 f i GuMeshFactory.obj
 0001:00014c40       ??_ESoftBodySimulationData@Gu@physx@@UEAAPEAXI@Z 0000000180015c40 f i GuMeshFactory.obj
 0001:00014cb0       ??_GTriangleMeshData@Gu@physx@@UEAAPEAXI@Z 0000000180015cb0 f i GuMeshFactory.obj
 0001:00014cb0       ??_ETriangleMeshData@Gu@physx@@UEAAPEAXI@Z 0000000180015cb0 f i GuMeshFactory.obj
 0001:00014d20       ?__global_delete@@YAXPEAX_K@Z 0000000180015d20 f i GuMeshFactory.obj
 0001:00014d20       ??_V@YAXPEAX_K@Z           0000000180015d20 f i LIBCMT:delete_array_size.obj
 0001:00014d30       ?addBVH@MeshFactory@Gu@physx@@QEAAXPEAVBVH@23@_N@Z 0000000180015d30 f   GuMeshFactory.obj
 0001:00014db0       ?addConvexMesh@MeshFactory@Gu@physx@@QEAAXPEAVConvexMesh@23@_N@Z 0000000180015db0 f   GuMeshFactory.obj
 0001:00014e30       ?addFactoryListener@MeshFactory@Gu@physx@@QEAAXAEAVMeshFactoryListener@23@@Z 0000000180015e30 f   GuMeshFactory.obj
 0001:00014ea0       ?addHeightField@MeshFactory@Gu@physx@@QEAAXPEAVHeightField@23@_N@Z 0000000180015ea0 f   GuMeshFactory.obj
 0001:00014f20       ?addSoftBodyMesh@MeshFactory@Gu@physx@@QEAAXPEAVSoftBodyMesh@23@_N@Z 0000000180015f20 f   GuMeshFactory.obj
 0001:00014fa0       ?addTetrahedronMesh@MeshFactory@Gu@physx@@QEAAXPEAVTetrahedronMesh@23@_N@Z 0000000180015fa0 f   GuMeshFactory.obj
 0001:00015020       ?addTriangleMesh@MeshFactory@Gu@physx@@QEAAXPEAVTriangleMesh@23@_N@Z 0000000180016020 f   GuMeshFactory.obj
 0001:000150a0       ?allocate@?$PxArray@USlab@NodeAllocator@Gu@physx@@V?$PxReflectionAllocator@USlab@NodeAllocator@Gu@physx@@@4@@physx@@IEAAPEAUSlab@NodeAllocator@Gu@2@I@Z 00000001800160a0 f i GuMeshFactory.obj
 0001:00015130       ?allocateAdjacencies@TriangleMeshData@Gu@physx@@QEAAPEAIXZ 0000000180016130 f i GuMeshFactory.obj
 0001:000151a0       ?allocateExtraTrigData@TriangleMeshData@Gu@physx@@QEAAPEAEXZ 00000001800161a0 f i GuMeshFactory.obj
 0001:00015210       ?allocateFaceRemap@TriangleMeshData@Gu@physx@@QEAAPEAIXZ 0000000180016210 f i GuMeshFactory.obj
 0001:00015280       ?allocateGridModelData@SoftBodySimulationData@Gu@physx@@QEAAXIIIIIII@Z 0000000180016280 f i GuMeshFactory.obj
 0001:000154f0       ?allocateMaterials@TetrahedronMeshData@Gu@physx@@QEAAPEAGXZ 00000001800164f0 f i GuMeshFactory.obj
 0001:00015560       ?allocateMaterials@TriangleMeshData@Gu@physx@@QEAAPEAGXZ 0000000180016560 f i GuMeshFactory.obj
 0001:000155d0       ?allocateTetrahedrons@TetrahedronMeshData@Gu@physx@@QEAAXII@Z 00000001800165d0 f i GuMeshFactory.obj
 0001:00015660       ?allocateTriangles@TriangleMeshData@Gu@physx@@QEAAPEAXI_NI@Z 0000000180016660 f i GuMeshFactory.obj
 0001:00015750       ?allocateVertices@MeshDataBase@Gu@physx@@QEAAPEAV?$PxVec3T@M@3@I@Z 0000000180016750 f i GuMeshFactory.obj
 0001:000157c0       ?allocateVertices@TetrahedronMeshData@Gu@physx@@QEAAPEAV?$PxVec3T@M@3@II@Z 00000001800167c0 f i GuMeshFactory.obj
 0001:00015860       ?allocatemappingData@CollisionMeshMappingData@Gu@physx@@QEAAXIIII@Z 0000000180016860 f i GuMeshFactory.obj
 0001:00015a40       ?create@?$PxHashBase@PEAVConvexMesh@Gu@physx@@PEAV123@U?$PxHash@PEAVConvexMesh@Gu@physx@@@3@UGetKey@?$PxHashSetBase@PEAVConvexMesh@Gu@physx@@U?$PxHash@PEAVConvexMesh@Gu@physx@@@3@VPxAllocator@3@$00@3@VPxAllocator@3@$00@physx@@QEAAPEAPEAVConvexMesh@Gu@2@AEBQEAV342@AEA_N@Z 0000000180016a40 f i GuMeshFactory.obj
 0001:00015a40       ?create@?$PxHashBase@PEAVTetrahedronMesh@Gu@physx@@PEAV123@U?$PxHash@PEAVTetrahedronMesh@Gu@physx@@@3@UGetKey@?$PxHashSetBase@PEAVTetrahedronMesh@Gu@physx@@U?$PxHash@PEAVTetrahedronMesh@Gu@physx@@@3@VPxAllocator@3@$00@3@VPxAllocator@3@$00@physx@@QEAAPEAPEAVTetrahedronMesh@Gu@2@AEBQEAV342@AEA_N@Z 0000000180016a40 f i GuMeshFactory.obj
 0001:00015a40       ?create@?$PxHashBase@PEAVBVH@Gu@physx@@PEAV123@U?$PxHash@PEAVBVH@Gu@physx@@@3@UGetKey@?$PxHashSetBase@PEAVBVH@Gu@physx@@U?$PxHash@PEAVBVH@Gu@physx@@@3@VPxAllocator@3@$00@3@VPxAllocator@3@$00@physx@@QEAAPEAPEAVBVH@Gu@2@AEBQEAV342@AEA_N@Z 0000000180016a40 f i GuMeshFactory.obj
 0001:00015a40       ?create@?$PxHashBase@PEAVTriangleMesh@Gu@physx@@PEAV123@U?$PxHash@PEAVTriangleMesh@Gu@physx@@@3@UGetKey@?$PxHashSetBase@PEAVTriangleMesh@Gu@physx@@U?$PxHash@PEAVTriangleMesh@Gu@physx@@@3@VPxAllocator@3@$00@3@VPxAllocator@3@$00@physx@@QEAAPEAPEAVTriangleMesh@Gu@2@AEBQEAV342@AEA_N@Z 0000000180016a40 f i GuMeshFactory.obj
 0001:00015a40       ?create@?$PxHashBase@PEAVHeightField@Gu@physx@@PEAV123@U?$PxHash@PEAVHeightField@Gu@physx@@@3@UGetKey@?$PxHashSetBase@PEAVHeightField@Gu@physx@@U?$PxHash@PEAVHeightField@Gu@physx@@@3@VPxAllocator@3@$00@3@VPxAllocator@3@$00@physx@@QEAAPEAPEAVHeightField@Gu@2@AEBQEAV342@AEA_N@Z 0000000180016a40 f i GuMeshFactory.obj
 0001:00015a40       ?create@?$PxHashBase@PEAVSoftBodyMesh@Gu@physx@@PEAV123@U?$PxHash@PEAVSoftBodyMesh@Gu@physx@@@3@UGetKey@?$PxHashSetBase@PEAVSoftBodyMesh@Gu@physx@@U?$PxHash@PEAVSoftBodyMesh@Gu@physx@@@3@VPxAllocator@3@$00@3@VPxAllocator@3@$00@physx@@QEAAPEAPEAVSoftBodyMesh@Gu@2@AEBQEAV342@AEA_N@Z 0000000180016a40 f i GuMeshFactory.obj
 0001:00015be0       ?createBVH@MeshFactory@Gu@physx@@IEAAPEAVPxBVH@3@AEAVBVHData@23@@Z 0000000180016be0 f   GuMeshFactory.obj
 0001:00015cd0       ?createBVH@MeshFactory@Gu@physx@@QEAAPEAVPxBVH@3@AEAVPxInputStream@3@@Z 0000000180016cd0 f   GuMeshFactory.obj
 0001:00015df0       ?createBVH@MeshFactory@Gu@physx@@QEAAPEAVPxBVH@3@PEAX@Z 0000000180016df0 f   GuMeshFactory.obj
 0001:00015e00       ?createConvexMesh@MeshFactory@Gu@physx@@IEAAPEAVPxConvexMesh@3@AEAUConvexHullInitData@23@@Z 0000000180016e00 f   GuMeshFactory.obj
 0001:00015ef0       ?createConvexMesh@MeshFactory@Gu@physx@@QEAAPEAVPxConvexMesh@3@AEAVPxInputStream@3@@Z 0000000180016ef0 f   GuMeshFactory.obj
 0001:00016000       ?createConvexMesh@MeshFactory@Gu@physx@@QEAAPEAVPxConvexMesh@3@PEAX@Z 0000000180017000 f   GuMeshFactory.obj
 0001:00016010       ?createHeightField@MeshFactory@Gu@physx@@QEAAPEAVPxHeightField@3@AEAVPxInputStream@3@@Z 0000000180017010 f   GuMeshFactory.obj
 0001:00016120       ?createHeightField@MeshFactory@Gu@physx@@QEAAPEAVPxHeightField@3@PEAX@Z 0000000180017120 f   GuMeshFactory.obj
 0001:00016210       ?createSoftBodyMesh@MeshFactory@Gu@physx@@IEAAPEAVPxSoftBodyMesh@3@AEAVSoftBodyMeshData@23@@Z 0000000180017210 f   GuMeshFactory.obj
 0001:00016300       ?createSoftBodyMesh@MeshFactory@Gu@physx@@QEAAPEAVPxSoftBodyMesh@3@AEAVPxInputStream@3@@Z 0000000180017300 f   GuMeshFactory.obj
 0001:00016900       ?createSoftBodyMesh@MeshFactory@Gu@physx@@QEAAPEAVPxSoftBodyMesh@3@PEAX@Z 0000000180017900 f   GuMeshFactory.obj
 0001:00016910       ?createTetrahedronMesh@MeshFactory@Gu@physx@@IEAAPEAVPxTetrahedronMesh@3@AEAVTetrahedronMeshData@23@@Z 0000000180017910 f   GuMeshFactory.obj
 0001:00016a00       ?createTetrahedronMesh@MeshFactory@Gu@physx@@QEAAPEAVPxTetrahedronMesh@3@AEAVPxInputStream@3@@Z 0000000180017a00 f   GuMeshFactory.obj
 0001:00016a70       ?createTetrahedronMesh@MeshFactory@Gu@physx@@QEAAPEAVPxTetrahedronMesh@3@PEAX@Z 0000000180017a70 f   GuMeshFactory.obj
 0001:00016a80       ?createTriangleMesh@MeshFactory@Gu@physx@@IEAAPEAVPxTriangleMesh@3@AEAVTriangleMeshData@23@@Z 0000000180017a80 f   GuMeshFactory.obj
 0001:00016c00       ?createTriangleMesh@MeshFactory@Gu@physx@@QEAAPEAVPxTriangleMesh@3@AEAVPxInputStream@3@@Z 0000000180017c00 f   GuMeshFactory.obj
 0001:00016c60       ?createTriangleMesh@MeshFactory@Gu@physx@@QEAAPEAVPxTriangleMesh@3@PEAX@Z 0000000180017c60 f   GuMeshFactory.obj
 0001:00016c70       ?erase@?$PxHashBase@PEAVSoftBodyMesh@Gu@physx@@PEAV123@U?$PxHash@PEAVSoftBodyMesh@Gu@physx@@@3@UGetKey@?$PxHashSetBase@PEAVSoftBodyMesh@Gu@physx@@U?$PxHash@PEAVSoftBodyMesh@Gu@physx@@@3@VPxAllocator@3@$00@3@VPxAllocator@3@$00@physx@@QEAA_NAEBQEAVSoftBodyMesh@Gu@2@@Z 0000000180017c70 f i GuMeshFactory.obj
 0001:00016c70       ?erase@?$PxHashBase@PEAVHeightField@Gu@physx@@PEAV123@U?$PxHash@PEAVHeightField@Gu@physx@@@3@UGetKey@?$PxHashSetBase@PEAVHeightField@Gu@physx@@U?$PxHash@PEAVHeightField@Gu@physx@@@3@VPxAllocator@3@$00@3@VPxAllocator@3@$00@physx@@QEAA_NAEBQEAVHeightField@Gu@2@@Z 0000000180017c70 f i GuMeshFactory.obj
 0001:00016c70       ?erase@?$PxHashBase@PEAVTriangleMesh@Gu@physx@@PEAV123@U?$PxHash@PEAVTriangleMesh@Gu@physx@@@3@UGetKey@?$PxHashSetBase@PEAVTriangleMesh@Gu@physx@@U?$PxHash@PEAVTriangleMesh@Gu@physx@@@3@VPxAllocator@3@$00@3@VPxAllocator@3@$00@physx@@QEAA_NAEBQEAVTriangleMesh@Gu@2@@Z 0000000180017c70 f i GuMeshFactory.obj
 0001:00016c70       ?erase@?$PxHashBase@PEAVTetrahedronMesh@Gu@physx@@PEAV123@U?$PxHash@PEAVTetrahedronMesh@Gu@physx@@@3@UGetKey@?$PxHashSetBase@PEAVTetrahedronMesh@Gu@physx@@U?$PxHash@PEAVTetrahedronMesh@Gu@physx@@@3@VPxAllocator@3@$00@3@VPxAllocator@3@$00@physx@@QEAA_NAEBQEAVTetrahedronMesh@Gu@2@@Z 0000000180017c70 f i GuMeshFactory.obj
 0001:00016c70       ?erase@?$PxHashBase@PEAVConvexMesh@Gu@physx@@PEAV123@U?$PxHash@PEAVConvexMesh@Gu@physx@@@3@UGetKey@?$PxHashSetBase@PEAVConvexMesh@Gu@physx@@U?$PxHash@PEAVConvexMesh@Gu@physx@@@3@VPxAllocator@3@$00@3@VPxAllocator@3@$00@physx@@QEAA_NAEBQEAVConvexMesh@Gu@2@@Z 0000000180017c70 f i GuMeshFactory.obj
 0001:00016c70       ?erase@?$PxHashBase@PEAVBVH@Gu@physx@@PEAV123@U?$PxHash@PEAVBVH@Gu@physx@@@3@UGetKey@?$PxHashSetBase@PEAVBVH@Gu@physx@@U?$PxHash@PEAVBVH@Gu@physx@@@3@VPxAllocator@3@$00@3@VPxAllocator@3@$00@physx@@QEAA_NAEBQEAVBVH@Gu@2@@Z 0000000180017c70 f i GuMeshFactory.obj
 0001:00016de0       ?getBVHs@MeshFactory@Gu@physx@@QEBAIPEAPEAVPxBVH@3@II@Z 0000000180017de0 f   GuMeshFactory.obj
 0001:00016e80       ?getBounds@AABBTreeBounds@Gu@physx@@QEAAPEAVPxBounds3@3@XZ 0000000180017e80 f i GuMeshFactory.obj
 0001:00016e80       ?getBounds@AABBTreeBounds@Gu@physx@@QEBAPEBVPxBounds3@3@XZ 0000000180017e80 f i GuMeshFactory.obj
 0001:00016e90       ?getConvexMeshes@MeshFactory@Gu@physx@@QEBAIPEAPEAVPxConvexMesh@3@II@Z 0000000180017e90 f   GuMeshFactory.obj
 0001:00016f30       ?getHeightFields@MeshFactory@Gu@physx@@QEBAIPEAPEAVPxHeightField@3@II@Z 0000000180017f30 f   GuMeshFactory.obj
 0001:00016fd0       ?getNbBVHs@MeshFactory@Gu@physx@@QEBAIXZ 0000000180017fd0 f   GuMeshFactory.obj
 0001:00017010       ?getNbConvexMeshes@MeshFactory@Gu@physx@@QEBAIXZ 0000000180018010 f   GuMeshFactory.obj
 0001:00017050       ?getNbHeightFields@MeshFactory@Gu@physx@@QEBAIXZ 0000000180018050 f   GuMeshFactory.obj
 0001:00017090       ?getNbRuntimePrimitives@AABBTreeBuildNode@Gu@physx@@QEBAIXZ 0000000180018090 f i GuMeshFactory.obj
 0001:00017090       ?getNbPrimitives@AABBTreeBuildNode@Gu@physx@@QEBAIXZ 0000000180018090 f i GuMeshFactory.obj
 0001:000170a0       ?getNbSoftBodyMeshes@MeshFactory@Gu@physx@@QEBAIXZ 00000001800180a0 f   GuMeshFactory.obj
 0001:000170e0       ?getNbTetrahedronMeshes@MeshFactory@Gu@physx@@QEBAIXZ 00000001800180e0 f   GuMeshFactory.obj
 0001:00017120       ?getNbTriangleMeshes@MeshFactory@Gu@physx@@QEBAIXZ 0000000180018120 f   GuMeshFactory.obj
 0001:00017160       ?getNeg@AABBTreeBuildNode@Gu@physx@@QEBAPEBV123@XZ 0000000180018160 f i GuMeshFactory.obj
 0001:00017180       ?getPrimitives@AABBTreeBuildNode@Gu@physx@@QEBAPEBIPEBI@Z 0000000180018180 f i GuMeshFactory.obj
 0001:00017180       ?getPrimitives@AABBTreeBuildNode@Gu@physx@@QEAAPEAIPEAI@Z 0000000180018180 f i GuMeshFactory.obj
 0001:00017190       ?getSoftBodyMeshes@MeshFactory@Gu@physx@@QEBAIPEAPEAVPxSoftBodyMesh@3@II@Z 0000000180018190 f   GuMeshFactory.obj
 0001:00017230       ?getTetrahedronMeshes@MeshFactory@Gu@physx@@QEBAIPEAPEAVPxTetrahedronMesh@3@II@Z 0000000180018230 f   GuMeshFactory.obj
 0001:000172c0       ?getTriangleMeshes@MeshFactory@Gu@physx@@QEBAIPEAPEAVPxTriangleMesh@3@II@Z 00000001800182c0 f   GuMeshFactory.obj
 0001:00017350       ?growAndPushBack@?$PxArray@PEAVMeshFactoryListener@Gu@physx@@V?$PxReflectionAllocator@PEAVMeshFactoryListener@Gu@physx@@@3@@physx@@IEAAAEAPEAVMeshFactoryListener@Gu@2@AEBQEAV342@@Z 0000000180018350 f i GuMeshFactory.obj
 0001:00017470       ?isLeaf@AABBTreeBuildNode@Gu@physx@@QEBA_NXZ 0000000180018470 f i GuMeshFactory.obj
 0001:00018f20       ?moveFrom@AABBTreeBounds@Gu@physx@@QEAAXAEAV123@@Z 0000000180019f20 f i GuMeshFactory.obj
 0001:00018f30       ?notifyFactoryListener@MeshFactory@Gu@physx@@QEAAXPEBVPxBase@3@G@Z 0000000180019f30 f   GuMeshFactory.obj
 0001:00018fa0       ?ownsMemory@AABBTreeBounds@Gu@physx@@QEBA_NXZ 0000000180019fa0 f i GuMeshFactory.obj
 0001:00019220       ?recreate@?$PxArray@USlab@NodeAllocator@Gu@physx@@V?$PxReflectionAllocator@USlab@NodeAllocator@Gu@physx@@@4@@physx@@IEAAXI@Z 000000018001a220 f i GuMeshFactory.obj
 0001:000192d0       ?release@CollisionMeshMappingData@Gu@physx@@UEAAXXZ 000000018001a2d0 f i GuMeshFactory.obj
 0001:000192f0       ?release@MeshFactory@Gu@physx@@QEAAXXZ 000000018001a2f0 f   GuMeshFactory.obj
 0001:000193e0       ?remove@MeshFactory@Gu@physx@@QEAA_NAEAVPxBase@3@@Z 000000018001a3e0 f   GuMeshFactory.obj
 0001:000194e0       ?removeBVH@MeshFactory@Gu@physx@@QEAA_NAEAVPxBVH@3@@Z 000000018001a4e0 f   GuMeshFactory.obj
 0001:00019530       ?removeConvexMesh@MeshFactory@Gu@physx@@QEAA_NAEAVPxConvexMesh@3@@Z 000000018001a530 f   GuMeshFactory.obj
 0001:00019580       ?removeFactoryListener@MeshFactory@Gu@physx@@QEAAXAEAVMeshFactoryListener@23@@Z 000000018001a580 f   GuMeshFactory.obj
 0001:00019610       ?removeHeightField@MeshFactory@Gu@physx@@QEAA_NAEAVPxHeightField@3@@Z 000000018001a610 f   GuMeshFactory.obj
 0001:00019660       ?removeSoftBodyMesh@MeshFactory@Gu@physx@@QEAA_NAEAVPxSoftBodyMesh@3@@Z 000000018001a660 f   GuMeshFactory.obj
 0001:000196b0       ?removeTetrahedronMesh@MeshFactory@Gu@physx@@QEAA_NAEAVPxTetrahedronMesh@3@@Z 000000018001a6b0 f   GuMeshFactory.obj
 0001:00019700       ?removeTriangleMesh@MeshFactory@Gu@physx@@QEAA_NAEAVPxTriangleMesh@3@@Z 000000018001a700 f   GuMeshFactory.obj
 0001:00019750       ?reserveInternal@?$PxHashBase@PEAVSoftBodyMesh@Gu@physx@@PEAV123@U?$PxHash@PEAVSoftBodyMesh@Gu@physx@@@3@UGetKey@?$PxHashSetBase@PEAVSoftBodyMesh@Gu@physx@@U?$PxHash@PEAVSoftBodyMesh@Gu@physx@@@3@VPxAllocator@3@$00@3@VPxAllocator@3@$00@physx@@AEAAXI@Z 000000018001a750 f i GuMeshFactory.obj
 0001:00019750       ?reserveInternal@?$PxHashBase@PEAVConvexMesh@Gu@physx@@PEAV123@U?$PxHash@PEAVConvexMesh@Gu@physx@@@3@UGetKey@?$PxHashSetBase@PEAVConvexMesh@Gu@physx@@U?$PxHash@PEAVConvexMesh@Gu@physx@@@3@VPxAllocator@3@$00@3@VPxAllocator@3@$00@physx@@AEAAXI@Z 000000018001a750 f i GuMeshFactory.obj
 0001:00019750       ?reserveInternal@?$PxHashBase@PEAVBVH@Gu@physx@@PEAV123@U?$PxHash@PEAVBVH@Gu@physx@@@3@UGetKey@?$PxHashSetBase@PEAVBVH@Gu@physx@@U?$PxHash@PEAVBVH@Gu@physx@@@3@VPxAllocator@3@$00@3@VPxAllocator@3@$00@physx@@AEAAXI@Z 000000018001a750 f i GuMeshFactory.obj
 0001:00019750       ?reserveInternal@?$PxHashBase@PEAVTetrahedronMesh@Gu@physx@@PEAV123@U?$PxHash@PEAVTetrahedronMesh@Gu@physx@@@3@UGetKey@?$PxHashSetBase@PEAVTetrahedronMesh@Gu@physx@@U?$PxHash@PEAVTetrahedronMesh@Gu@physx@@@3@VPxAllocator@3@$00@3@VPxAllocator@3@$00@physx@@AEAAXI@Z 000000018001a750 f i GuMeshFactory.obj
 0001:00019750       ?reserveInternal@?$PxHashBase@PEAVTriangleMesh@Gu@physx@@PEAV123@U?$PxHash@PEAVTriangleMesh@Gu@physx@@@3@UGetKey@?$PxHashSetBase@PEAVTriangleMesh@Gu@physx@@U?$PxHash@PEAVTriangleMesh@Gu@physx@@@3@VPxAllocator@3@$00@3@VPxAllocator@3@$00@physx@@AEAAXI@Z 000000018001a750 f i GuMeshFactory.obj
 0001:00019750       ?reserveInternal@?$PxHashBase@PEAVHeightField@Gu@physx@@PEAV123@U?$PxHash@PEAVHeightField@Gu@physx@@@3@UGetKey@?$PxHashSetBase@PEAVHeightField@Gu@physx@@U?$PxHash@PEAVHeightField@Gu@physx@@@3@VPxAllocator@3@$00@3@VPxAllocator@3@$00@physx@@AEAAXI@Z 000000018001a750 f i GuMeshFactory.obj
 0001:00019920       ?setBounds@AABBTreeBounds@Gu@physx@@QEAAXPEAVPxBounds3@3@@Z 000000018001a920 f i GuMeshFactory.obj
 0001:00019930       ?setNbRunTimePrimitives@AABBTreeBuildNode@Gu@physx@@QEAAXI@Z 000000018001a930 f i GuMeshFactory.obj
 0001:00019940       ?takeOwnership@AABBTreeBounds@Gu@physx@@QEAAXXZ 000000018001a940 f i GuMeshFactory.obj
 0001:00019950       getInsertionCallback       000000018001a950 f   GuMeshFactory.obj
 0001:00019960       ??4BigConvexData@physx@@QEAAAEAV01@AEBV01@@Z 000000018001a960 f i GuMetaData.obj
 0001:00019980       ?GetAdjacentVerts@BigConvexData@physx@@QEBAPEBEXZ 000000018001a980 f i GuMetaData.obj
 0001:00019980       ?getTriangles@TriangleMesh@Gu@physx@@UEBAPEBXXZ 000000018001a980 f i GuTriangleMesh.obj
 0001:00019980       ?getTransforms@PruningPool@Gu@physx@@QEBAPEBV?$PxTransformT@M@3@XZ 000000018001a980 f i GuIncrementalAABBPrunerCore.obj
 0001:00019980       ?getSoftBodyAuxData@SoftBodyMesh@Gu@physx@@UEAAPEAVPxSoftBodyAuxData@3@XZ 000000018001a980 f i GuTetrahedronMesh.obj
 0001:00019980       ?getTransforms@PruningPool@Gu@physx@@QEAAPEAV?$PxTransformT@M@3@XZ 000000018001a980 f i GuIncrementalAABBPrunerCore.obj
 0001:00019980       ?getSoftBodyAuxData@SoftBodyMesh@Gu@physx@@UEBAPEBVPxSoftBodyAuxData@3@XZ 000000018001a980 f i GuTetrahedronMesh.obj
 0001:00019990       ?GetNbNeighbors@BigConvexData@physx@@QEBAGI@Z 000000018001a990 f i GuMetaData.obj
 0001:00019990       ?GetValency@BigConvexData@physx@@QEBAGI@Z 000000018001a990 f i GuMetaData.obj
 0001:000199a0       ?GetNbSamples@BigConvexData@physx@@QEBAIXZ 000000018001a9a0 f i GuMetaData.obj
 0001:000199b0       ?getNbVertices@TetrahedronMesh@Gu@physx@@UEBAIXZ 000000018001a9b0 f i GuTetrahedronMesh.obj
 0001:000199b0       ?raw_length@pcharNode@@UEBAHXZ 000000018001a9b0 f i libvcruntime:undname.obj
 0001:000199b0       ?length@pcharNode@@UEBAHXZ 000000018001a9b0 f i libvcruntime:undname.obj
 0001:000199b0       ?getNbVertices@TriangleMesh@Gu@physx@@UEBAIXZ 000000018001a9b0 f i GuTriangleMesh.obj
 0001:000199b0       ?GetNbVerts@BigConvexData@physx@@QEBAIXZ 000000018001a9b0 f i GuMetaData.obj
 0001:000199c0       ?GetNeighbors@BigConvexData@physx@@QEBAPEBEI@Z 000000018001a9c0 f i GuMetaData.obj
 0001:000199d0       ?GetOffset@BigConvexData@physx@@QEBAGI@Z 000000018001a9d0 f i GuMetaData.obj
 0001:000199e0       ?GetSubdiv@BigConvexData@physx@@QEBAIXZ 000000018001a9e0 f i GuMetaData.obj
 0001:000199f0       ?getBinaryMetaData@BV4Tree@Gu@physx@@SAXAEAVPxOutputStream@3@@Z 000000018001a9f0 f   GuMetaData.obj
 0001:00019f90       ?getBinaryMetaData@BV4TriangleMesh@Gu@physx@@SAXAEAVPxOutputStream@3@@Z 000000018001af90 f   GuMetaData.obj
 0001:0001a310       ?getBinaryMetaData@BigConvexData@physx@@SAXAEAVPxOutputStream@2@@Z 000000018001b310 f   GuMetaData.obj
 0001:0001a5d0       ?getBinaryMetaData@ConvexMesh@Gu@physx@@SAXAEAVPxOutputStream@3@@Z 000000018001b5d0 f   GuMetaData.obj
 0001:0001ac60       ?getBinaryMetaData@HeightField@Gu@physx@@SAXAEAVPxOutputStream@3@@Z 000000018001bc60 f   GuMetaData.obj
 0001:0001b050       ?getBinaryMetaData@RTree@Gu@physx@@SAXAEAVPxOutputStream@3@@Z 000000018001c050 f   GuMetaData.obj
 0001:0001b380       ?getBinaryMetaData@RTreeTriangleMesh@Gu@physx@@SAXAEAVPxOutputStream@3@@Z 000000018001c380 f   GuMetaData.obj
 0001:0001b460       ?getBinaryMetaData@TriangleMesh@Gu@physx@@SAXAEAVPxOutputStream@3@@Z 000000018001c460 f   GuMetaData.obj
 0001:0001cfa0       ?doSupport@?$SupportLocalImpl@VConvexHullNoScaleV@Gu@physx@@@Gu@physx@@UEBA?AT__m128@@AEBT4@@Z 000000018001dfa0 f i GuMTD.obj
 0001:0001cff0       ?doSupport@?$SupportLocalImpl@VConvexHullNoScaleV@Gu@physx@@@Gu@physx@@UEBAXAEBT__m128@@AEAT4@1@Z 000000018001dff0 f i GuMTD.obj
 0001:0001d170       ?populateVerts@?$SupportLocalImpl@VConvexHullNoScaleV@Gu@physx@@@Gu@physx@@UEBAXPEBEIPEBV?$PxVec3T@M@3@PEAT__m128@@@Z 000000018001e170 f i GuMTD.obj
 0001:0001d1b0       ?isDynamic@Pruner@Gu@physx@@UEBA_NXZ 000000018001e1b0 f   GuIncrementalAABBPruner.obj
 0001:0001d1b0       ?getInternalData@TriangleMesh@Gu@physx@@UEBA_NAEAUPxTriangleMeshInternalData@3@_N@Z 000000018001e1b0 f   GuTriangleMesh.obj
 0001:0001ee10       ??$gjk@U?$LocalConvex@VCapsuleV@Gu@physx@@@Gu@physx@@U?$LocalConvex@VConvexHullV@Gu@physx@@@23@@Gu@physx@@YA?AW4GjkStatus@01@AEBU?$LocalConvex@VCapsuleV@Gu@physx@@@01@AEBU?$LocalConvex@VConvexHullV@Gu@physx@@@01@AEBT__m128@@2AEAT5@333@Z 000000018001fe10 f i GuMTD.obj
 0001:0001fb70       ??0SeparatingAxes@Gu@physx@@QEAA@AEBV012@@Z 0000000180020b70 f i GuMTD.obj
 0001:0001fb70       ??0SeparatingAxes@Gu@physx@@QEAA@$$QEAV012@@Z 0000000180020b70 f i GuMTD.obj
 0001:0001fc80       ??0SeparatingAxes@Gu@physx@@QEAA@XZ 0000000180020c80 f i GuMTD.obj
 0001:0001fc90       ??4SeparatingAxes@Gu@physx@@QEAAAEAV012@$$QEAV012@@Z 0000000180020c90 f i GuMTD.obj
 0001:0001fc90       ??4SeparatingAxes@Gu@physx@@QEAAAEAV012@AEBV012@@Z 0000000180020c90 f i GuMTD.obj
 0001:0001fda0       ??_G?$LocalConvex@VTriangleV@Gu@physx@@@Gu@physx@@UEAAPEAXI@Z 0000000180020da0 f i GuSweepTests.obj
 0001:0001fda0       ??_GGjkConvex@Gu@physx@@UEAAPEAXI@Z 0000000180020da0 f i GuMTD.obj
 0001:0001fda0       ??_E?$LocalConvex@UPointConvexV@@@Gu@physx@@UEAAPEAXI@Z 0000000180020da0 f i GuGjkQuery.obj
 0001:0001fda0       ??_G?$LocalConvex@VConvexHullV@Gu@physx@@@Gu@physx@@UEAAPEAXI@Z 0000000180020da0 f i GuMTD.obj
 0001:0001fda0       ??_E?$LocalConvex@UCustomConvexV@@@Gu@physx@@UEAAPEAXI@Z 0000000180020da0 f i GuGjkQuery.obj
 0001:0001fda0       ??_G?$LocalConvex@VConvexHullNoScaleV@Gu@physx@@@Gu@physx@@UEAAPEAXI@Z 0000000180020da0 f i GuPCMContactBoxConvex.obj
 0001:0001fda0       ??_E?$LocalConvex@VTetrahedronV@Gu@physx@@@Gu@physx@@UEAAPEAXI@Z 0000000180020da0 f i GuCookingTetrahedronMesh.obj
 0001:0001fda0       ??_EGjkConvex@Gu@physx@@UEAAPEAXI@Z 0000000180020da0 f i GuMTD.obj
 0001:0001fda0       ??_E?$LocalConvex@VCapsuleV@Gu@physx@@@Gu@physx@@UEAAPEAXI@Z 0000000180020da0 f i GuMTD.obj
 0001:0001fda0       ??_E?$LocalConvex@VConvexHullV@Gu@physx@@@Gu@physx@@UEAAPEAXI@Z 0000000180020da0 f i GuMTD.obj
 0001:0001fda0       ??_G?$LocalConvex@UPointConvexV@@@Gu@physx@@UEAAPEAXI@Z 0000000180020da0 f i GuGjkQuery.obj
 0001:0001fda0       ??_G?$LocalConvex@VBoxV@Gu@physx@@@Gu@physx@@UEAAPEAXI@Z 0000000180020da0 f i GuSweepTests.obj
 0001:0001fda0       ??_E?$LocalConvex@VConvexHullNoScaleV@Gu@physx@@@Gu@physx@@UEAAPEAXI@Z 0000000180020da0 f i GuPCMContactBoxConvex.obj
 0001:0001fda0       ??_E?$LocalConvex@VTriangleV@Gu@physx@@@Gu@physx@@UEAAPEAXI@Z 0000000180020da0 f i GuSweepTests.obj
 0001:0001fda0       ??_G?$LocalConvex@VTetrahedronV@Gu@physx@@@Gu@physx@@UEAAPEAXI@Z 0000000180020da0 f i GuCookingTetrahedronMesh.obj
 0001:0001fda0       ??_E?$LocalConvex@VBoxV@Gu@physx@@@Gu@physx@@UEAAPEAXI@Z 0000000180020da0 f i GuSweepTests.obj
 0001:0001fda0       ??_G?$LocalConvex@VCapsuleV@Gu@physx@@@Gu@physx@@UEAAPEAXI@Z 0000000180020da0 f i GuMTD.obj
 0001:0001fda0       ??_G?$LocalConvex@UCustomConvexV@@@Gu@physx@@UEAAPEAXI@Z 0000000180020da0 f i GuGjkQuery.obj
 0001:00024200       ?getAxes@SeparatingAxes@Gu@physx@@QEBAPEBV?$PxVec3T@M@3@XZ 0000000180025200 f i GuMTD.obj
 0001:00024210       ?getCenter@?$LocalConvex@VTriangleV@Gu@physx@@@Gu@physx@@UEBA?AT__m128@@XZ 0000000180025210 f i GuSweepTests.obj
 0001:00024210       ?getCenter@?$LocalConvex@VConvexHullV@Gu@physx@@@Gu@physx@@UEBA?AT__m128@@XZ 0000000180025210 f i GuMTD.obj
 0001:00024210       ?getCenter@?$LocalConvex@UPointConvexV@@@Gu@physx@@UEBA?AT__m128@@XZ 0000000180025210 f i GuGjkQuery.obj
 0001:00024210       ?getCenter@?$LocalConvex@VCapsuleV@Gu@physx@@@Gu@physx@@UEBA?AT__m128@@XZ 0000000180025210 f i GuMTD.obj
 0001:00024210       ?getCenter@?$LocalConvex@VBoxV@Gu@physx@@@Gu@physx@@UEBA?AT__m128@@XZ 0000000180025210 f i GuSweepTests.obj
 0001:00024210       ?getCenter@?$LocalConvex@VTetrahedronV@Gu@physx@@@Gu@physx@@UEBA?AT__m128@@XZ 0000000180025210 f i GuCookingTetrahedronMesh.obj
 0001:00024210       ?getCenter@?$LocalConvex@UCustomConvexV@@@Gu@physx@@UEBA?AT__m128@@XZ 0000000180025210 f i GuGjkQuery.obj
 0001:00024210       ?getCenter@?$LocalConvex@VConvexHullNoScaleV@Gu@physx@@@Gu@physx@@UEBA?AT__m128@@XZ 0000000180025210 f i GuPCMContactBoxConvex.obj
 0001:00024220       ?getCount@BuildStats@Gu@physx@@QEBAIXZ 0000000180025220 f i GuBV4Build.obj
 0001:00024220       ?getNbActiveObjects@PruningPool@Gu@physx@@QEBAIXZ 0000000180025220 f i GuIncrementalAABBPrunerCore.obj
 0001:00024220       ?getNumAxes@SeparatingAxes@Gu@physx@@QEBAIXZ 0000000180025220 f i GuMTD.obj
 0001:00024230       ?getSweepMargin@?$RelativeConvex@VCapsuleV@Gu@physx@@@Gu@physx@@UEBA?AT__m128@@XZ 0000000180025230 f i GuCCDSweepPrimitives.obj
 0001:00024230       ?getSweepMargin@?$LocalConvex@VCapsuleV@Gu@physx@@@Gu@physx@@UEBA?AT__m128@@XZ 0000000180025230 f i GuMTD.obj
 0001:00024240       ?getSweepMargin@?$RelativeConvex@UCustomConvexV@@@Gu@physx@@UEBA?AT__m128@@XZ 0000000180025240 f i GuGjkQuery.obj
 0001:00024240       ?getSweepMargin@?$LocalConvex@VBoxV@Gu@physx@@@Gu@physx@@UEBA?AT__m128@@XZ 0000000180025240 f i GuSweepTests.obj
 0001:00024240       ?getSweepMargin@?$RelativeConvex@VBoxV@Gu@physx@@@Gu@physx@@UEBA?AT__m128@@XZ 0000000180025240 f i GuOverlapTests.obj
 0001:00024240       ?getSweepMargin@?$RelativeConvex@VConvexHullV@Gu@physx@@@Gu@physx@@UEBA?AT__m128@@XZ 0000000180025240 f i GuOverlapTests.obj
 0001:00024240       ?getSweepMargin@?$LocalConvex@VConvexHullV@Gu@physx@@@Gu@physx@@UEBA?AT__m128@@XZ 0000000180025240 f i GuMTD.obj
 0001:00024240       ?getSweepMargin@?$LocalConvex@UPointConvexV@@@Gu@physx@@UEBA?AT__m128@@XZ 0000000180025240 f i GuGjkQuery.obj
 0001:00024240       ?getSweepMargin@?$LocalConvex@UCustomConvexV@@@Gu@physx@@UEBA?AT__m128@@XZ 0000000180025240 f i GuGjkQuery.obj
 0001:00024240       ?getSweepMargin@?$LocalConvex@VConvexHullNoScaleV@Gu@physx@@@Gu@physx@@UEBA?AT__m128@@XZ 0000000180025240 f i GuPCMContactBoxConvex.obj
 0001:00024240       ?getSweepMargin@?$RelativeConvex@VConvexHullNoScaleV@Gu@physx@@@Gu@physx@@UEBA?AT__m128@@XZ 0000000180025240 f i GuPCMContactConvexConvex.obj
 0001:00024260       ?getSweepMargin@GjkConvex@Gu@physx@@UEBA?AT__m128@@XZ 0000000180025260 f i GuMTD.obj
 0001:00024280       ?pointConvexDistance@@YA_NAEAV?$PxVec3T@M@physx@@0AEAMAEBV12@PEBVConvexMesh@Gu@2@AEBVPxMeshScale@2@AEBUPxTransformPadded@2@@Z 0000000180025280 f   GuMTD.obj
 0001:00024fe0       ?reset@SeparatingAxes@Gu@physx@@QEAAXXZ 0000000180025fe0 f i GuMTD.obj
 0001:00024ff0       ?support@?$LocalConvex@VCapsuleV@Gu@physx@@@Gu@physx@@UEBA?AT__m128@@AEBT4@@Z 0000000180025ff0 f i GuMTD.obj
 0001:00025050       ?support@?$LocalConvex@VCapsuleV@Gu@physx@@@Gu@physx@@UEBA?AT__m128@@AEBT4@AEAH@Z 0000000180026050 f i GuMTD.obj
 0001:000250c0       ?support@?$LocalConvex@VConvexHullV@Gu@physx@@@Gu@physx@@UEBA?AT__m128@@AEBT4@@Z 00000001800260c0 f i GuMTD.obj
 0001:000251a0       ?support@?$LocalConvex@VConvexHullV@Gu@physx@@@Gu@physx@@UEBA?AT__m128@@AEBT4@AEAH@Z 00000001800261a0 f i GuMTD.obj
 0001:00025270       ?support@GjkConvex@Gu@physx@@UEBA?AT__m128@@AEBT4@@Z 0000000180026270 f i GuMTD.obj
 0001:00025290       ?support@GjkConvex@Gu@physx@@UEBA?AT__m128@@AEBT4@AEAH@Z 0000000180026290 f i GuMTD.obj
 0001:000252b0       ?supportPoint@?$LocalConvex@VCapsuleV@Gu@physx@@@Gu@physx@@UEBA?AT__m128@@H@Z 00000001800262b0 f i GuMTD.obj
 0001:000252e0       ?supportPoint@?$LocalConvex@VConvexHullV@Gu@physx@@@Gu@physx@@UEBA?AT__m128@@H@Z 00000001800262e0 f i GuMTD.obj
 0001:00025330       ?supportPoint@GjkConvex@Gu@physx@@UEBA?AT__m128@@H@Z 0000000180026330 f i GuMTD.obj
 0001:00025350       ?supportPoint@?$RelativeConvex@VBoxV@Gu@physx@@@Gu@physx@@UEBA?AT__m128@@H@Z 0000000180026350 f i GuOverlapTests.obj
 0001:000253c0       ?support@?$RelativeConvex@VBoxV@Gu@physx@@@Gu@physx@@UEBA?AT__m128@@AEBT4@@Z 00000001800263c0 f i GuOverlapTests.obj
 0001:00025440       ?support@?$RelativeConvex@VBoxV@Gu@physx@@@Gu@physx@@UEBA?AT__m128@@AEBT4@AEAH@Z 0000000180026440 f i GuOverlapTests.obj
 0001:000254d0       ?getCenter@?$RelativeConvex@UCustomConvexV@@@Gu@physx@@UEBA?AT__m128@@XZ 00000001800264d0 f i GuGjkQuery.obj
 0001:000254d0       ?getCenter@?$RelativeConvex@VConvexHullNoScaleV@Gu@physx@@@Gu@physx@@UEBA?AT__m128@@XZ 00000001800264d0 f i GuPCMContactConvexConvex.obj
 0001:000254d0       ?getCenter@?$RelativeConvex@VTriangleV@Gu@physx@@@Gu@physx@@UEBA?AT__m128@@XZ 00000001800264d0 f i GuCCDSweepPrimitives.obj
 0001:000254d0       ?getCenter@?$RelativeConvex@VCapsuleV@Gu@physx@@@Gu@physx@@UEBA?AT__m128@@XZ 00000001800264d0 f i GuCCDSweepPrimitives.obj
 0001:000254d0       ?getCenter@?$RelativeConvex@VConvexHullV@Gu@physx@@@Gu@physx@@UEBA?AT__m128@@XZ 00000001800264d0 f i GuOverlapTests.obj
 0001:000254d0       ?getCenter@?$RelativeConvex@VBoxV@Gu@physx@@@Gu@physx@@UEBA?AT__m128@@XZ 00000001800264d0 f i GuOverlapTests.obj
 0001:00025510       ??_G?$RelativeConvex@VCapsuleV@Gu@physx@@@Gu@physx@@UEAAPEAXI@Z 0000000180026510 f i GuCCDSweepPrimitives.obj
 0001:00025510       ??_E?$RelativeConvex@VConvexHullNoScaleV@Gu@physx@@@Gu@physx@@UEAAPEAXI@Z 0000000180026510 f i GuPCMContactConvexConvex.obj
 0001:00025510       ??_G?$RelativeConvex@VBoxV@Gu@physx@@@Gu@physx@@UEAAPEAXI@Z 0000000180026510 f i GuOverlapTests.obj
 0001:00025510       ??_E?$RelativeConvex@VCapsuleV@Gu@physx@@@Gu@physx@@UEAAPEAXI@Z 0000000180026510 f i GuCCDSweepPrimitives.obj
 0001:00025510       ??_G?$RelativeConvex@VConvexHullV@Gu@physx@@@Gu@physx@@UEAAPEAXI@Z 0000000180026510 f i GuOverlapTests.obj
 0001:00025510       ??_E?$RelativeConvex@VTriangleV@Gu@physx@@@Gu@physx@@UEAAPEAXI@Z 0000000180026510 f i GuCCDSweepPrimitives.obj
 0001:00025510       ??_E?$RelativeConvex@UCustomConvexV@@@Gu@physx@@UEAAPEAXI@Z 0000000180026510 f i GuGjkQuery.obj
 0001:00025510       ??_G?$RelativeConvex@UCustomConvexV@@@Gu@physx@@UEAAPEAXI@Z 0000000180026510 f i GuGjkQuery.obj
 0001:00025510       ??_G?$RelativeConvex@VConvexHullNoScaleV@Gu@physx@@@Gu@physx@@UEAAPEAXI@Z 0000000180026510 f i GuPCMContactConvexConvex.obj
 0001:00025510       ??_E?$RelativeConvex@VConvexHullV@Gu@physx@@@Gu@physx@@UEAAPEAXI@Z 0000000180026510 f i GuOverlapTests.obj
 0001:00025510       ??_G?$RelativeConvex@VTriangleV@Gu@physx@@@Gu@physx@@UEAAPEAXI@Z 0000000180026510 f i GuCCDSweepPrimitives.obj
 0001:00025510       ??_E?$RelativeConvex@VBoxV@Gu@physx@@@Gu@physx@@UEAAPEAXI@Z 0000000180026510 f i GuOverlapTests.obj
 0001:00027690       ?supportPoint@?$RelativeConvex@VConvexHullV@Gu@physx@@@Gu@physx@@UEBA?AT__m128@@H@Z 0000000180028690 f i GuOverlapTests.obj
 0001:00027710       ?support@?$RelativeConvex@VConvexHullV@Gu@physx@@@Gu@physx@@UEBA?AT__m128@@AEBT4@@Z 0000000180028710 f i GuOverlapTests.obj
 0001:00027840       ?support@?$RelativeConvex@VConvexHullV@Gu@physx@@@Gu@physx@@UEBA?AT__m128@@AEBT4@AEAH@Z 0000000180028840 f i GuOverlapTests.obj
 0001:000279d0       ??$gjk@U?$RelativeConvex@VBoxV@Gu@physx@@@Gu@physx@@U?$LocalConvex@VConvexHullV@Gu@physx@@@23@@Gu@physx@@YA?AW4GjkStatus@01@AEBU?$RelativeConvex@VBoxV@Gu@physx@@@01@AEBU?$LocalConvex@VConvexHullV@Gu@physx@@@01@AEBT__m128@@2AEAT5@333@Z 00000001800289d0 f i GuOverlapTests.obj
 0001:00028790       ??$gjk@U?$RelativeConvex@VConvexHullV@Gu@physx@@@Gu@physx@@U?$LocalConvex@VConvexHullV@Gu@physx@@@23@@Gu@physx@@YA?AW4GjkStatus@01@AEBU?$RelativeConvex@VConvexHullV@Gu@physx@@@01@AEBU?$LocalConvex@VConvexHullV@Gu@physx@@@01@AEBT__m128@@2AEAT5@333@Z 0000000180029790 f i GuOverlapTests.obj
 0001:00029610       ?ComputeCubemapNearestOffset@physx@@YAIAEBV?$PxVec3T@M@1@I@Z 000000018002a610 f i GuOverlapTests.obj
 0001:00029710       ?getOverlapFuncTable@Gu@physx@@YAPEAY0L@Q6A_NAEBVPxGeometry@2@AEBV?$PxTransformT@M@2@01PEAUTriggerCache@12@PEAUPxQueryThreadContext@2@@ZXZ 000000018002a710 f   GuOverlapTests.obj
 0001:0002b2b0       ?raycast_box@@YAIAEBVPxGeometry@physx@@AEBV?$PxTransformT@M@2@AEBV?$PxVec3T@M@2@2MV?$PxFlags@W4Enum@PxHitFlag@physx@@G@2@IPEIAUPxGeomRaycastHit@2@IPEAUPxQueryThreadContext@2@@Z 000000018002c2b0 f   GuRaycastTests.obj
 0001:0002b8e0       ?raycast_sphere@@YAIAEBVPxGeometry@physx@@AEBV?$PxTransformT@M@2@AEBV?$PxVec3T@M@2@2MV?$PxFlags@W4Enum@PxHitFlag@physx@@G@2@IPEIAUPxGeomRaycastHit@2@IPEAUPxQueryThreadContext@2@@Z 000000018002c8e0 f   GuRaycastTests.obj
 0001:0002ba70       ?raycast_capsule@@YAIAEBVPxGeometry@physx@@AEBV?$PxTransformT@M@2@AEBV?$PxVec3T@M@2@2MV?$PxFlags@W4Enum@PxHitFlag@physx@@G@2@IPEIAUPxGeomRaycastHit@2@IPEAUPxQueryThreadContext@2@@Z 000000018002ca70 f   GuRaycastTests.obj
 0001:0002bfd0       ?raycast_plane@@YAIAEBVPxGeometry@physx@@AEBV?$PxTransformT@M@2@AEBV?$PxVec3T@M@2@2MV?$PxFlags@W4Enum@PxHitFlag@physx@@G@2@IPEIAUPxGeomRaycastHit@2@IPEAUPxQueryThreadContext@2@@Z 000000018002cfd0 f   GuRaycastTests.obj
 0001:0002c140       ?raycast_convexMesh@@YAIAEBVPxGeometry@physx@@AEBV?$PxTransformT@M@2@AEBV?$PxVec3T@M@2@2MV?$PxFlags@W4Enum@PxHitFlag@physx@@G@2@IPEIAUPxGeomRaycastHit@2@IPEAUPxQueryThreadContext@2@@Z 000000018002d140 f   GuRaycastTests.obj
 0001:0002cc50       ?getMidphaseID@RTreeTriangleMeshBuilder@physx@@UEBA?AW4Enum@PxMeshMidPhase@2@XZ 000000018002dc50 f   GuCookingTriangleMesh.obj
 0001:0002cc50       ?raycast_softbody@@YAIAEBVPxGeometry@physx@@AEBV?$PxTransformT@M@2@AEBV?$PxVec3T@M@2@2MV?$PxFlags@W4Enum@PxHitFlag@physx@@G@2@IPEIAUPxGeomRaycastHit@2@IPEAUPxQueryThreadContext@2@@Z 000000018002dc50 f   GuRaycastTests.obj
 0001:0002cc50       ?raycast_particlesystem@@YAIAEBVPxGeometry@physx@@AEBV?$PxTransformT@M@2@AEBV?$PxVec3T@M@2@2MV?$PxFlags@W4Enum@PxHitFlag@physx@@G@2@IPEIAUPxGeomRaycastHit@2@IPEAUPxQueryThreadContext@2@@Z 000000018002dc50 f   GuRaycastTests.obj
 0001:0002cc50       ?getTetrahedraRemap@TetrahedronMesh@Gu@physx@@UEBAPEBIXZ 000000018002dc50 f   GuTetrahedronMesh.obj
 0001:0002cc50       ?getMidphaseID@RTreeTriangleMesh@Gu@physx@@UEBA?AW4Enum@PxMeshMidPhase@3@XZ 000000018002dc50 f   GuTriangleMeshRTree.obj
 0001:0002cc50       ?raycast_hairsystem@@YAIAEBVPxGeometry@physx@@AEBV?$PxTransformT@M@2@AEBV?$PxVec3T@M@2@2MV?$PxFlags@W4Enum@PxHitFlag@physx@@G@2@IPEIAUPxGeomRaycastHit@2@IPEAUPxQueryThreadContext@2@@Z 000000018002dc50 f   GuRaycastTests.obj
 0001:0002cc60       ?raycast_triangleMesh@@YAIAEBVPxGeometry@physx@@AEBV?$PxTransformT@M@2@AEBV?$PxVec3T@M@2@2MV?$PxFlags@W4Enum@PxHitFlag@physx@@G@2@IPEIAUPxGeomRaycastHit@2@IPEAUPxQueryThreadContext@2@@Z 000000018002dc60 f   GuRaycastTests.obj
 0001:0002ccf0       ?raycast_heightField@@YAIAEBVPxGeometry@physx@@AEBV?$PxTransformT@M@2@AEBV?$PxVec3T@M@2@2MV?$PxFlags@W4Enum@PxHitFlag@physx@@G@2@IPEIAUPxGeomRaycastHit@2@IPEAUPxQueryThreadContext@2@@Z 000000018002dcf0 f   GuRaycastTests.obj
 0001:0002e740       ??Dphysx@@YA?AV?$PxMat34T@M@0@AEBVPxMeshScale@0@AEBV?$PxTransformT@M@0@@Z 000000018002f740 f i GuRaycastTests.obj
 0001:0002f220       ?getRaycastFuncTable@Gu@physx@@YAAEAY0L@Q6AIAEBVPxGeometry@2@AEBV?$PxTransformT@M@2@AEBV?$PxVec3T@M@2@2MV?$PxFlags@W4Enum@PxHitFlag@physx@@G@2@IPEIAUPxGeomRaycastHit@2@IPEAUPxQueryThreadContext@2@@ZXZ 0000000180030220 f   GuRaycastTests.obj
 0001:0002f230       ??Dphysx@@YA?AV?$PxMat34T@M@0@AEBV?$PxTransformT@M@0@AEBVPxMeshScale@0@@Z 0000000180030230 f i GuSweepMTD.obj
 0001:0002f770       ??_G?$MeshHitCallback@UPxGeomRaycastHit@physx@@@Gu@physx@@UEAAPEAXI@Z 0000000180030770 f i GuSweepMTD.obj
 0001:0002f770       ??_E?$MeshHitCallback@UPxGeomRaycastHit@physx@@@Gu@physx@@UEAAPEAXI@Z 0000000180030770 f i GuSweepMTD.obj
 0001:0002f7a0       ??_GMeshMTDGenerationCallback@@UEAAPEAXI@Z 00000001800307a0 f i GuSweepMTD.obj
 0001:0002f7a0       ??_EMeshMTDGenerationCallback@@UEAAPEAXI@Z 00000001800307a0 f i GuSweepMTD.obj
 0001:0002f7d0       ??_GRTreeCookerRemap@@UEAAPEAXI@Z 00000001800307d0 f i GuCookingTriangleMesh.obj
 0001:0002f7d0       ??_ERTreeCookerRemap@@UEAAPEAXI@Z 00000001800307d0 f i GuCookingTriangleMesh.obj
 0001:0002f7d0       ??_EMidPhaseQueryLocalReport@@UEAAPEAXI@Z 00000001800307d0 f i GuSweepMTD.obj
 0001:0002f7d0       ??_GMidPhaseQueryLocalReport@@UEAAPEAXI@Z 00000001800307d0 f i GuSweepMTD.obj
 0001:0002f800       ?allocate@?$PxArray@IV?$PxReflectionAllocator@I@physx@@@physx@@IEAAPEAII@Z 0000000180030800 f i GuSweepMTD.obj
 0001:0002f890       ?computeBox_HeightFieldMTD@Gu@physx@@YA_NAEBVPxHeightFieldGeometry@2@AEBV?$PxTransformT@M@2@AEBVBox@12@1M_NAEAUPxGeomSweepHit@2@@Z 0000000180030890 f   GuSweepMTD.obj
 0001:00030620       ?computeBox_TriangleMeshMTD@Gu@physx@@YA_NAEBVPxTriangleMeshGeometry@2@AEBV?$PxTransformT@M@2@AEBVBox@12@1M_NAEAUPxGeomSweepHit@2@@Z 0000000180031620 f   GuSweepMTD.obj
 0001:000315e0       ?computeCapsule_CapsuleMTD@Gu@physx@@YA_NAEBVCapsule@12@0AEAUPxGeomSweepHit@2@@Z 00000001800325e0 f   GuSweepMTD.obj
 0001:00031820       ?computeCapsule_HeightFieldMTD@Gu@physx@@YA_NAEBVPxHeightFieldGeometry@2@AEBV?$PxTransformT@M@2@AEAVCapsuleV@12@M_NAEAUPxGeomSweepHit@2@@Z 0000000180032820 f   GuSweepMTD.obj
 0001:00032000       ?computeCapsule_TriangleMeshMTD@Gu@physx@@YA_NAEBVPxTriangleMeshGeometry@2@AEBV?$PxTransformT@M@2@AEAVCapsuleV@12@M_NAEAUPxGeomSweepHit@2@@Z 0000000180033000 f   GuSweepMTD.obj
 0001:000328c0       ?computeConvex_HeightFieldMTD@Gu@physx@@YA_NAEBVPxHeightFieldGeometry@2@AEBV?$PxTransformT@M@2@AEBVPxConvexMeshGeometry@2@1M_NAEAUPxGeomSweepHit@2@@Z 00000001800338c0 f   GuSweepMTD.obj
 0001:00033b90       ?computeConvex_TriangleMeshMTD@Gu@physx@@YA_NAEBVPxTriangleMeshGeometry@2@AEBV?$PxTransformT@M@2@AEBVPxConvexMeshGeometry@2@1M_NAEAUPxGeomSweepHit@2@@Z 0000000180034b90 f   GuSweepMTD.obj
 0001:00035110       ?computePlane_BoxMTD@Gu@physx@@YA_NAEBVPxPlane@2@AEBVBox@12@AEAUPxGeomSweepHit@2@@Z 0000000180036110 f   GuSweepMTD.obj
 0001:00035440       ?computePlane_CapsuleMTD@Gu@physx@@YA_NAEBVPxPlane@2@AEBVCapsule@12@AEAUPxGeomSweepHit@2@@Z 0000000180036440 f   GuSweepMTD.obj
 0001:00035560       ?computePlane_ConvexMTD@Gu@physx@@YA_NAEBVPxPlane@2@AEBVPxConvexMeshGeometry@2@AEBV?$PxTransformT@M@2@AEAUPxGeomSweepHit@2@@Z 0000000180036560 f   GuSweepMTD.obj
 0001:000360d0       ?computeSphere_CapsuleMTD@Gu@physx@@YA_NAEBVSphere@12@AEBVCapsule@12@AEAUPxGeomSweepHit@2@@Z 00000001800370d0 f   GuSweepMTD.obj
 0001:00036280       ?computeSphere_SphereMTD@Gu@physx@@YA_NAEBVSphere@12@0AEAUPxGeomSweepHit@2@@Z 0000000180037280 f   GuSweepMTD.obj
 0001:00036370       ?getInverse@?$PxMat33T@M@physx@@QEBA?BV12@XZ 0000000180037370 f i GuSweepMTD.obj
 0001:000365c0       ?growAndPushBack@?$PxArray@IV?$PxReflectionAllocator@I@physx@@@physx@@IEAAAEAIAEBI@Z 00000001800375c0 f i GuSweepMTD.obj
 0001:00036680       ?init@FastVertex2ShapeScaling@Cm@physx@@QEAAXAEBV?$PxVec3T@M@3@AEBV?$PxQuatT@M@3@@Z 0000000180037680 f i GuSweepMTD.obj
 0001:00036f50       ?processHit@MeshMTDGenerationCallback@@UEAA_NAEBUPxGeomRaycastHit@physx@@AEBV?$PxVec3T@M@3@11AEAMPEBI@Z 0000000180037f50 f i GuSweepMTD.obj
 0001:00036fa0       ?recreate@?$PxArray@IV?$PxReflectionAllocator@I@physx@@@physx@@IEAAXI@Z 0000000180037fa0 f i GuSweepMTD.obj
 0001:00037040       ?reportTouchedTris@MidPhaseQueryLocalReport@@UEAA_NIPEBI@Z 0000000180038040 f i GuSweepMTD.obj
 0001:000370b0       ??$gjkPenetration@U?$LocalConvex@VCapsuleV@Gu@physx@@@Gu@physx@@U?$LocalConvex@VConvexHullV@Gu@physx@@@23@@Gu@physx@@YA?AW4GjkStatus@01@AEBU?$LocalConvex@VCapsuleV@Gu@physx@@@01@AEBU?$LocalConvex@VConvexHullV@Gu@physx@@@01@AEBT__m128@@2_NPEIAE4AEAEAEAUGjkOutput@01@@Z 00000001800380b0 f i GuSweepSharedTests.obj
 0001:00037120       ??$gjkPenetration@U?$LocalConvex@VCapsuleV@Gu@physx@@@Gu@physx@@U?$LocalConvex@VConvexHullV@Gu@physx@@@23@@Gu@physx@@YA?AW4GjkStatus@01@AEBU?$LocalConvex@VCapsuleV@Gu@physx@@@01@AEBU?$LocalConvex@VConvexHullV@Gu@physx@@@01@AEBT__m128@@2_NPEIAE4PEIAT5@5AEAEAEAUGjkOutput@01@@Z 0000000180038120 f i GuSweepSharedTests.obj
 0001:00038640       ??$gjkPenetration@U?$RelativeConvex@VBoxV@Gu@physx@@@Gu@physx@@U?$LocalConvex@VConvexHullV@Gu@physx@@@23@@Gu@physx@@YA?AW4GjkStatus@01@AEBU?$RelativeConvex@VBoxV@Gu@physx@@@01@AEBU?$LocalConvex@VConvexHullV@Gu@physx@@@01@AEBT__m128@@2_NPEIAE4AEAEAEAUGjkOutput@01@@Z 0000000180039640 f i GuSweepSharedTests.obj
 0001:000386b0       ??$gjkPenetration@U?$RelativeConvex@VBoxV@Gu@physx@@@Gu@physx@@U?$LocalConvex@VConvexHullV@Gu@physx@@@23@@Gu@physx@@YA?AW4GjkStatus@01@AEBU?$RelativeConvex@VBoxV@Gu@physx@@@01@AEBU?$LocalConvex@VConvexHullV@Gu@physx@@@01@AEBT__m128@@2_NPEIAE4PEIAT5@5AEAEAEAUGjkOutput@01@@Z 00000001800396b0 f i GuSweepSharedTests.obj
 0001:00039c10       ??$gjkPenetration@U?$RelativeConvex@VConvexHullV@Gu@physx@@@Gu@physx@@U?$LocalConvex@VConvexHullV@Gu@physx@@@23@@Gu@physx@@YA?AW4GjkStatus@01@AEBU?$RelativeConvex@VConvexHullV@Gu@physx@@@01@AEBU?$LocalConvex@VConvexHullV@Gu@physx@@@01@AEBT__m128@@2_NPEIAE4AEAEAEAUGjkOutput@01@@Z 000000018003ac10 f i GuSweepSharedTests.obj
 0001:00039c80       ??$gjkPenetration@U?$RelativeConvex@VConvexHullV@Gu@physx@@@Gu@physx@@U?$LocalConvex@VConvexHullV@Gu@physx@@@23@@Gu@physx@@YA?AW4GjkStatus@01@AEBU?$RelativeConvex@VConvexHullV@Gu@physx@@@01@AEBU?$LocalConvex@VConvexHullV@Gu@physx@@@01@AEBT__m128@@2_NPEIAE4PEIAT5@5AEAEAEAUGjkOutput@01@@Z 000000018003ac80 f i GuSweepSharedTests.obj
 0001:0003b290       ??$gjkRaycast@U?$LocalConvex@VCapsuleV@Gu@physx@@@Gu@physx@@U?$LocalConvex@VConvexHullV@Gu@physx@@@23@@Gu@physx@@YA_NAEBU?$LocalConvex@VCapsuleV@Gu@physx@@@01@AEBU?$LocalConvex@VConvexHullV@Gu@physx@@@01@AEBT__m128@@222AEAT4@33M@Z 000000018003c290 f i GuSweepSharedTests.obj
 0001:0003bfa0       ??$gjkRaycast@U?$RelativeConvex@VBoxV@Gu@physx@@@Gu@physx@@U?$LocalConvex@VConvexHullV@Gu@physx@@@23@@Gu@physx@@YA_NAEBU?$RelativeConvex@VBoxV@Gu@physx@@@01@AEBU?$LocalConvex@VConvexHullV@Gu@physx@@@01@AEBT__m128@@222AEAT4@33M@Z 000000018003cfa0 f i GuSweepSharedTests.obj
 0001:0003cd50       ??$gjkRaycast@U?$RelativeConvex@VConvexHullV@Gu@physx@@@Gu@physx@@U?$LocalConvex@VConvexHullV@Gu@physx@@@23@@Gu@physx@@YA_NAEBU?$RelativeConvex@VConvexHullV@Gu@physx@@@01@AEBU?$LocalConvex@VConvexHullV@Gu@physx@@@01@AEBT__m128@@222AEAT4@33M@Z 000000018003dd50 f i GuSweepSharedTests.obj
 0001:0003dbf0       ??$gjkRaycastPenetration@U?$RelativeConvex@VConvexHullV@Gu@physx@@@Gu@physx@@U?$LocalConvex@VConvexHullV@Gu@physx@@@23@@Gu@physx@@YA_NAEBU?$RelativeConvex@VConvexHullV@Gu@physx@@@01@AEBU?$LocalConvex@VConvexHullV@Gu@physx@@@01@AEBT__m128@@222AEAT4@33M_N@Z 000000018003ebf0 f i GuSweepSharedTests.obj
 0001:0003e820       ?sweepBox_ConvexGeom@@YA_NAEBVPxGeometry@physx@@AEBV?$PxTransformT@M@2@AEBVPxBoxGeometry@2@1AEBVBox@Gu@2@AEBV?$PxVec3T@M@2@MAEAUPxGeomSweepHit@2@V?$PxFlags@W4Enum@PxHitFlag@physx@@G@2@MPEAUPxQueryThreadContext@2@@Z 000000018003f820 f   GuSweepSharedTests.obj
 0001:0003f630       ?sweepBox_PlaneGeom@@YA_NAEBVPxGeometry@physx@@AEBV?$PxTransformT@M@2@AEBVPxBoxGeometry@2@1AEBVBox@Gu@2@AEBV?$PxVec3T@M@2@MAEAUPxGeomSweepHit@2@V?$PxFlags@W4Enum@PxHitFlag@physx@@G@2@MPEAUPxQueryThreadContext@2@@Z 0000000180040630 f   GuSweepSharedTests.obj
 0001:0003fad0       ?sweepCapsuleTriangles@Gu@physx@@YA_NIPEBVPxTriangle@2@_NAEBVPxCapsuleGeometry@2@AEBV?$PxTransformT@M@2@AEBV?$PxVec3T@M@2@MAEAUPxGeomSweepHit@2@PEBIMV?$PxFlags@W4Enum@PxHitFlag@physx@@G@2@@Z 0000000180040ad0 f   GuSweepSharedTests.obj
 0001:0003fcc0       ?sweepCapsule_CapsuleGeom@@YA_NAEBVPxGeometry@physx@@AEBV?$PxTransformT@M@2@AEBVPxCapsuleGeometry@2@1AEBVCapsule@Gu@2@AEBV?$PxVec3T@M@2@MAEAUPxGeomSweepHit@2@V?$PxFlags@W4Enum@PxHitFlag@physx@@G@2@MPEAUPxQueryThreadContext@2@@Z 0000000180040cc0 f   GuSweepSharedTests.obj
 0001:0003fea0       ?sweepCapsule_ConvexGeom@@YA_NAEBVPxGeometry@physx@@AEBV?$PxTransformT@M@2@AEBVPxCapsuleGeometry@2@1AEBVCapsule@Gu@2@AEBV?$PxVec3T@M@2@MAEAUPxGeomSweepHit@2@V?$PxFlags@W4Enum@PxHitFlag@physx@@G@2@MPEAUPxQueryThreadContext@2@@Z 0000000180040ea0 f   GuSweepSharedTests.obj
 0001:00040c00       ?sweepCapsule_PlaneGeom@@YA_NAEBVPxGeometry@physx@@AEBV?$PxTransformT@M@2@AEBVPxCapsuleGeometry@2@1AEBVCapsule@Gu@2@AEBV?$PxVec3T@M@2@MAEAUPxGeomSweepHit@2@V?$PxFlags@W4Enum@PxHitFlag@physx@@G@2@MPEAUPxQueryThreadContext@2@@Z 0000000180041c00 f   GuSweepSharedTests.obj
 0001:00040ef0       ?sweepCapsule_SphereGeom@@YA_NAEBVPxGeometry@physx@@AEBV?$PxTransformT@M@2@AEBVPxCapsuleGeometry@2@1AEBVCapsule@Gu@2@AEBV?$PxVec3T@M@2@MAEAUPxGeomSweepHit@2@V?$PxFlags@W4Enum@PxHitFlag@physx@@G@2@MPEAUPxQueryThreadContext@2@@Z 0000000180041ef0 f   GuSweepSharedTests.obj
 0001:00041080       ?sweepConvex_BoxGeom@@YA_NAEBVPxGeometry@physx@@AEBV?$PxTransformT@M@2@AEBVPxConvexMeshGeometry@2@1AEBV?$PxVec3T@M@2@MAEAUPxGeomSweepHit@2@V?$PxFlags@W4Enum@PxHitFlag@physx@@G@2@MPEAUPxQueryThreadContext@2@@Z 0000000180042080 f   GuSweepSharedTests.obj
 0001:000412a0       ?sweepConvex_CapsuleGeom@@YA_NAEBVPxGeometry@physx@@AEBV?$PxTransformT@M@2@AEBVPxConvexMeshGeometry@2@1AEBV?$PxVec3T@M@2@MAEAUPxGeomSweepHit@2@V?$PxFlags@W4Enum@PxHitFlag@physx@@G@2@MPEAUPxQueryThreadContext@2@@Z 00000001800422a0 f   GuSweepSharedTests.obj
 0001:000414d0       ?sweepConvex_ConvexGeom@@YA_NAEBVPxGeometry@physx@@AEBV?$PxTransformT@M@2@AEBVPxConvexMeshGeometry@2@1AEBV?$PxVec3T@M@2@MAEAUPxGeomSweepHit@2@V?$PxFlags@W4Enum@PxHitFlag@physx@@G@2@MPEAUPxQueryThreadContext@2@@Z 00000001800424d0 f   GuSweepSharedTests.obj
 0001:00042450       ?sweepConvex_PlaneGeom@@YA_NAEBVPxGeometry@physx@@AEBV?$PxTransformT@M@2@AEBVPxConvexMeshGeometry@2@1AEBV?$PxVec3T@M@2@MAEAUPxGeomSweepHit@2@V?$PxFlags@W4Enum@PxHitFlag@physx@@G@2@MPEAUPxQueryThreadContext@2@@Z 0000000180043450 f   GuSweepSharedTests.obj
 0001:000428a0       ?sweepConvex_SphereGeom@@YA_NAEBVPxGeometry@physx@@AEBV?$PxTransformT@M@2@AEBVPxConvexMeshGeometry@2@1AEBV?$PxVec3T@M@2@MAEAUPxGeomSweepHit@2@V?$PxFlags@W4Enum@PxHitFlag@physx@@G@2@MPEAUPxQueryThreadContext@2@@Z 00000001800438a0 f   GuSweepSharedTests.obj
 0001:000434a0       ?sweepCapsule_BoxGeom@@YA_NAEBVPxGeometry@physx@@AEBV?$PxTransformT@M@2@AEBVPxCapsuleGeometry@2@1AEBVCapsule@Gu@2@AEBV?$PxVec3T@M@2@MAEAUPxGeomSweepHit@2@V?$PxFlags@W4Enum@PxHitFlag@physx@@G@2@MPEAUPxQueryThreadContext@2@@Z 00000001800444a0 f   GuSweepTests.obj
 0001:00043d60       ?sweepBox_SphereGeom@@YA_NAEBVPxGeometry@physx@@AEBV?$PxTransformT@M@2@AEBVPxBoxGeometry@2@1AEBVBox@Gu@2@AEBV?$PxVec3T@M@2@MAEAUPxGeomSweepHit@2@V?$PxFlags@W4Enum@PxHitFlag@physx@@G@2@MPEAUPxQueryThreadContext@2@@Z 0000000180044d60 f   GuSweepTests.obj
 0001:00044440       ?sweepBox_CapsuleGeom@@YA_NAEBVPxGeometry@physx@@AEBV?$PxTransformT@M@2@AEBVPxBoxGeometry@2@1AEBVBox@Gu@2@AEBV?$PxVec3T@M@2@MAEAUPxGeomSweepHit@2@V?$PxFlags@W4Enum@PxHitFlag@physx@@G@2@MPEAUPxQueryThreadContext@2@@Z 0000000180045440 f   GuSweepTests.obj
 0001:00044d00       ?sweepBox_BoxGeom@@YA_NAEBVPxGeometry@physx@@AEBV?$PxTransformT@M@2@AEBVPxBoxGeometry@2@1AEBVBox@Gu@2@AEBV?$PxVec3T@M@2@MAEAUPxGeomSweepHit@2@V?$PxFlags@W4Enum@PxHitFlag@physx@@G@2@MPEAUPxQueryThreadContext@2@@Z 0000000180045d00 f   GuSweepTests.obj
 0001:000457e0       ??$gjkPenetration@U?$LocalConvex@VCapsuleV@Gu@physx@@@Gu@physx@@U?$LocalConvex@VBoxV@Gu@physx@@@23@@Gu@physx@@YA?AW4GjkStatus@01@AEBU?$LocalConvex@VCapsuleV@Gu@physx@@@01@AEBU?$LocalConvex@VBoxV@Gu@physx@@@01@AEBT__m128@@2_NPEIAE4AEAEAEAUGjkOutput@01@@Z 00000001800467e0 f i GuSweepTests.obj
 0001:00045850       ??$gjkPenetration@U?$LocalConvex@VCapsuleV@Gu@physx@@@Gu@physx@@U?$LocalConvex@VBoxV@Gu@physx@@@23@@Gu@physx@@YA?AW4GjkStatus@01@AEBU?$LocalConvex@VCapsuleV@Gu@physx@@@01@AEBU?$LocalConvex@VBoxV@Gu@physx@@@01@AEBT__m128@@2_NPEIAE4PEIAT5@5AEAEAEAUGjkOutput@01@@Z 0000000180046850 f i GuSweepTests.obj
 0001:00046c90       ??$gjkPenetration@U?$RelativeConvex@VBoxV@Gu@physx@@@Gu@physx@@U?$LocalConvex@VBoxV@Gu@physx@@@23@@Gu@physx@@YA?AW4GjkStatus@01@AEBU?$RelativeConvex@VBoxV@Gu@physx@@@01@AEBU?$LocalConvex@VBoxV@Gu@physx@@@01@AEBT__m128@@2_NPEIAE4AEAEAEAUGjkOutput@01@@Z 0000000180047c90 f i GuSweepTests.obj
 0001:00046d00       ??$gjkPenetration@U?$RelativeConvex@VBoxV@Gu@physx@@@Gu@physx@@U?$LocalConvex@VBoxV@Gu@physx@@@23@@Gu@physx@@YA?AW4GjkStatus@01@AEBU?$RelativeConvex@VBoxV@Gu@physx@@@01@AEBU?$LocalConvex@VBoxV@Gu@physx@@@01@AEBT__m128@@2_NPEIAE4PEIAT5@5AEAEAEAUGjkOutput@01@@Z 0000000180047d00 f i GuSweepTests.obj
 0001:00048190       ??$gjkRaycast@U?$LocalConvex@VCapsuleV@Gu@physx@@@Gu@physx@@U?$LocalConvex@VBoxV@Gu@physx@@@23@@Gu@physx@@YA_NAEBU?$LocalConvex@VCapsuleV@Gu@physx@@@01@AEBU?$LocalConvex@VBoxV@Gu@physx@@@01@AEBT__m128@@222AEAT4@33M@Z 0000000180049190 f i GuSweepTests.obj
 0001:00048d30       ??$gjkRaycast@U?$LocalConvex@VTriangleV@Gu@physx@@@Gu@physx@@U?$LocalConvex@VBoxV@Gu@physx@@@23@@Gu@physx@@YA_NAEBU?$LocalConvex@VTriangleV@Gu@physx@@@01@AEBU?$LocalConvex@VBoxV@Gu@physx@@@01@AEBT__m128@@222AEAT4@33M@Z 0000000180049d30 f i GuSweepTests.obj
 0001:00049990       ??$gjkRaycast@U?$RelativeConvex@VBoxV@Gu@physx@@@Gu@physx@@U?$LocalConvex@VBoxV@Gu@physx@@@23@@Gu@physx@@YA_NAEBU?$RelativeConvex@VBoxV@Gu@physx@@@01@AEBU?$LocalConvex@VBoxV@Gu@physx@@@01@AEBT__m128@@222AEAT4@33M@Z 000000018004a990 f i GuSweepTests.obj
 0001:0004a5c0       ?getSweepFuncTable@Gu@physx@@YAAEBUGeomSweepFuncs@12@XZ 000000018004b5c0 f   GuSweepTests.obj
 0001:0004a5d0       ?getSweepMargin@?$RelativeConvex@VTriangleV@Gu@physx@@@Gu@physx@@UEBA?AT__m128@@XZ 000000018004b5d0 f i GuCCDSweepPrimitives.obj
 0001:0004a5d0       ?getSweepMargin@?$LocalConvex@VTetrahedronV@Gu@physx@@@Gu@physx@@UEBA?AT__m128@@XZ 000000018004b5d0 f i GuCookingTetrahedronMesh.obj
 0001:0004a5d0       ?getSweepMargin@?$LocalConvex@VTriangleV@Gu@physx@@@Gu@physx@@UEBA?AT__m128@@XZ 000000018004b5d0 f i GuSweepTests.obj
 0001:0004a5e0       ?support@?$LocalConvex@VBoxV@Gu@physx@@@Gu@physx@@UEBA?AT__m128@@AEBT4@@Z 000000018004b5e0 f i GuSweepTests.obj
 0001:0004a610       ?support@?$LocalConvex@VBoxV@Gu@physx@@@Gu@physx@@UEBA?AT__m128@@AEBT4@AEAH@Z 000000018004b610 f i GuSweepTests.obj
 0001:0004a650       ?support@?$LocalConvex@VTriangleV@Gu@physx@@@Gu@physx@@UEBA?AT__m128@@AEBT4@@Z 000000018004b650 f i GuSweepTests.obj
 0001:0004a6e0       ?support@?$LocalConvex@VTriangleV@Gu@physx@@@Gu@physx@@UEBA?AT__m128@@AEBT4@AEAH@Z 000000018004b6e0 f i GuSweepTests.obj
 0001:0004a7c0       ?supportPoint@?$LocalConvex@VBoxV@Gu@physx@@@Gu@physx@@UEBA?AT__m128@@H@Z 000000018004b7c0 f i GuSweepTests.obj
 0001:0004a800       ?supportPoint@?$LocalConvex@VTetrahedronV@Gu@physx@@@Gu@physx@@UEBA?AT__m128@@H@Z 000000018004b800 f i GuCookingTetrahedronMesh.obj
 0001:0004a800       ?supportPoint@?$LocalConvex@VTriangleV@Gu@physx@@@Gu@physx@@UEBA?AT__m128@@H@Z 000000018004b800 f i GuSweepTests.obj
 0001:0004a820       ?sweepBoxTriangles@Gu@physx@@YA_NIPEBVPxTriangle@2@_NAEBVPxBoxGeometry@2@AEBV?$PxTransformT@M@2@AEBV?$PxVec3T@M@2@MAEAUPxGeomSweepHit@2@PEBIMV?$PxFlags@W4Enum@PxHitFlag@physx@@G@2@@Z 000000018004b820 f   GuSweepTests.obj
 0001:0004b290       ??$PxSmallSort@H$$CBU?$Comparer@V?$PxVec3T@M@physx@@@MeshAnalyzer@Gu@physx@@@physx@@YAXPEAHHHAEBU?$Comparer@V?$PxVec3T@M@physx@@@MeshAnalyzer@Gu@0@@Z 000000018004c290 f i GuSDF.obj
 0001:0004b4a0       ??$PxSort@HU?$Comparer@V?$PxVec3T@M@physx@@@MeshAnalyzer@Gu@physx@@V?$PxReflectionAllocator@H@4@@physx@@YAXPEAHIAEBU?$Comparer@V?$PxVec3T@M@physx@@@MeshAnalyzer@Gu@0@AEBV?$PxReflectionAllocator@H@0@I@Z 000000018004c4a0 f i GuSDF.obj
 0001:0004b970       ??$PxSort@HU?$PxLess@H@physx@@V?$PxReflectionAllocator@H@2@@physx@@YAXPEAHIAEBU?$PxLess@H@0@AEBV?$PxReflectionAllocator@H@0@I@Z 000000018004c970 f i GuSDF.obj
 0001:0004bdc0       ??$mapDuplicatePoints@V?$PxVec3T@M@physx@@M@MeshAnalyzer@Gu@physx@@SAXPEBV?$PxVec3T@M@2@IAEAV?$PxArray@HV?$PxReflectionAllocator@H@physx@@@2@M@Z 000000018004cdc0 f i GuSDF.obj
 0001:0004c140       ??$splitRanges@V?$PxVec3T@M@physx@@M@MeshAnalyzer@Gu@physx@@CAXAEAV?$PxArray@URange@MeshAnalyzer@Gu@physx@@V?$PxReflectionAllocator@URange@MeshAnalyzer@Gu@physx@@@4@@2@AEBV?$PxArray@HV?$PxReflectionAllocator@H@physx@@@2@PEBV?$PxVec3T@M@2@HM@Z 000000018004d140 f i GuSDF.obj
 0001:0004c3b0       ??$traverseBVH@VClosestDistanceToTrimeshTraversalController@Gu@physx@@@Gu@physx@@YAXPEBUBVHNode@01@AEAVClosestDistanceToTrimeshTraversalController@01@H@Z 000000018004d3b0 f i GuSDF.obj
 0001:0004c7b0       ??$traverseBVH@VLineSegmentTrimeshIntersectionTraversalController@Gu@physx@@@Gu@physx@@YAXPEBUBVHNode@01@AEAVLineSegmentTrimeshIntersectionTraversalController@01@H@Z 000000018004d7b0 f i GuSDF.obj
 0001:0004ccb0       ??1SDF@Gu@physx@@QEAA@XZ   000000018004dcb0 f   GuSDF.obj
 0001:0004cd40       ??_E?$PxThreadT@V?$PxReflectionAllocator@VPxThreadImpl@physx@@@physx@@@physx@@UEAAPEAXI@Z 000000018004dd40 f i GuSDF.obj
 0001:0004cd40       ??_G?$PxThreadT@V?$PxReflectionAllocator@VPxThreadImpl@physx@@@physx@@@physx@@UEAAPEAXI@Z 000000018004dd40 f i GuSDF.obj
 0001:0004cdf0       ??_GPxRunnable@physx@@UEAAPEAXI@Z 000000018004ddf0 f i GuSDF.obj
 0001:0004cdf0       ??_EPxRunnable@physx@@UEAAPEAXI@Z 000000018004ddf0 f i GuSDF.obj
 0001:0004ce20       ?PxCreatePointOntoTriangleMeshProjector@Gu@physx@@YAPEAVPxPointOntoTriangleMeshProjector@12@PEBV?$PxVec3T@M@2@PEBII@Z 000000018004de20 f   GuSDF.obj
 0001:0004cf20       ?SDFUsingWindingNumbers@Gu@physx@@YAXAEAV?$PxArray@UBVHNode@Gu@physx@@V?$PxReflectionAllocator@UBVHNode@Gu@physx@@@3@@2@AEAV?$PxHashMap@IU?$ClusterApproximationT@MV?$PxVec3T@M@physx@@@Gu@physx@@U?$PxHash@I@3@VPxAllocator@3@@2@PEBV?$PxVec3T@M@2@PEBIIIIIPEAMAEAVGridQueryPointSampler@12@PEAV52@I_N7@Z 000000018004df20 f   GuSDF.obj
 0001:0004d410       ?SDFUsingWindingNumbers@Gu@physx@@YAXPEBV?$PxVec3T@M@2@PEBIIIIIPEAMV32@3PEAV32@_NI@Z 000000018004e410 f   GuSDF.obj
 0001:0004d780       ?SDFUsingWindingNumbersSparse@Gu@physx@@YAXPEBV?$PxVec3T@M@2@PEBIIIIIAEBV32@2MIAEAV?$PxArray@MV?$PxReflectionAllocator@M@physx@@@2@AEAV?$PxArray@IV?$PxReflectionAllocator@I@physx@@@2@33AEAM5I@Z 000000018004e780 f   GuSDF.obj
 0001:0004e5a0       ?allocate@?$PxArray@HV?$PxInlineAllocator@$0EAA@V?$PxReflectionAllocator@H@physx@@@physx@@@physx@@IEAAPEAHI@Z 000000018004f5a0 f i GuSDF.obj
 0001:0004e660       ?allocate@?$PxArray@MV?$PxReflectionAllocator@M@physx@@@physx@@IEAAPEAMI@Z 000000018004f660 f i GuSDF.obj
 0001:0004e6f0       ?allocateSdfs@SDF@Gu@physx@@QEAAPEAMAEBV?$PxVec3T@M@3@AEBMIIIIIIIMMI@Z 000000018004f6f0 f   GuSDF.obj
 0001:0004e900       ?analyzeAndFixMesh@Gu@physx@@YAXPEBV?$PxVec3T@M@2@PEBIIAEAV?$PxArray@IV?$PxReflectionAllocator@I@physx@@@2@@Z 000000018004f900 f   GuSDF.obj
 0001:0004f2e0       ?buildTree@Gu@physx@@YAXPEBIIPEBV?$PxVec3T@M@2@AEAV?$PxArray@UBVHNode@Gu@physx@@V?$PxReflectionAllocator@UBVHNode@Gu@physx@@@3@@2@M@Z 00000001800502e0 f   GuSDF.obj
 0001:0004f510       ?computeSDFThreadJob@Gu@physx@@YAPEAXPEAX@Z 0000000180050510 f   GuSDF.obj
 0001:0004fff0       ?convertSparseSDFTo3DTextureLayout@Gu@physx@@YAXIIIIPEAIPEBMIAEAV?$PxArray@MV?$PxReflectionAllocator@M@physx@@@2@AEAI33@Z 0000000180050ff0 f   GuSDF.obj
 0001:00050360       ?createTriangles@Gu@physx@@YAXHHHMQEAMAEBV?$PxHashMap@_KIU?$PxHash@_K@physx@@VPxAllocator@2@@2@AEBV?$PxArray@V?$PxVec3T@M@physx@@V?$PxReflectionAllocator@V?$PxVec3T@M@physx@@@2@@2@AEAV?$PxArray@IV?$PxReflectionAllocator@I@physx@@@2@@Z 0000000180051360 f   GuSDF.obj
 0001:00050b90       ?extractIsosurfaceFromSDF@Gu@physx@@YAXAEBVSDF@12@AEAV?$PxArray@V?$PxVec3T@M@physx@@V?$PxReflectionAllocator@V?$PxVec3T@M@physx@@@2@@2@AEAV?$PxArray@IV?$PxReflectionAllocator@I@physx@@@2@@Z 0000000180051b90 f   GuSDF.obj
 0001:00052bf0       ?fixSdfForNonClosedGeometry@Gu@physx@@YAXIIIPEAMAEBV?$PxVec3T@M@2@@Z 0000000180053bf0 f   GuSDF.obj
 0001:00053ca0       ?generatePointInCell@Gu@physx@@YA_NAEBVSDF@12@HHHAEAV?$PxVec3T@M@2@QEAY111M@Z 0000000180054ca0 f   GuSDF.obj
 0001:00054100       ?growAndPushBack@?$PxArray@HV?$PxInlineAllocator@$0EAA@V?$PxReflectionAllocator@H@physx@@@physx@@@physx@@IEAAAEAHAEBH@Z 0000000180055100 f i GuSDF.obj
 0001:000541f0       ?growAndPushBack@?$PxArray@MV?$PxReflectionAllocator@M@physx@@@physx@@IEAAAEAMAEBM@Z 00000001800551f0 f i GuSDF.obj
 0001:000542d0       ?growAndPushBack@?$PxArray@PEAV?$PxThreadT@V?$PxReflectionAllocator@VPxThreadImpl@physx@@@physx@@@physx@@V?$PxReflectionAllocator@PEAV?$PxThreadT@V?$PxReflectionAllocator@VPxThreadImpl@physx@@@physx@@@physx@@@2@@physx@@IEAAAEAPEAV?$PxThreadT@V?$PxReflectionAllocator@VPxThreadImpl@physx@@@physx@@@2@AEBQEAV32@@Z 00000001800552d0 f i GuSDF.obj
 0001:000543f0       ?growAndPushBack@?$PxArray@UMutation@Gu@physx@@V?$PxReflectionAllocator@UMutation@Gu@physx@@@3@@physx@@IEAAAEAUMutation@Gu@2@AEBU342@@Z 00000001800553f0 f i GuSDF.obj
 0001:00054510       ?growAndPushBack@?$PxArray@URange@Gu@physx@@V?$PxReflectionAllocator@URange@Gu@physx@@@3@@physx@@IEAAAEAURange@Gu@2@AEBU342@@Z 0000000180055510 f i GuSDF.obj
 0001:00054640       ?growAndPushBack@?$PxArray@URange@MeshAnalyzer@Gu@physx@@V?$PxReflectionAllocator@URange@MeshAnalyzer@Gu@physx@@@4@@physx@@IEAAAEAURange@MeshAnalyzer@Gu@2@AEBU3452@@Z 0000000180055640 f i GuSDF.obj
 0001:00054760       ?growAndPushBack@?$PxArray@USDFCalculationData@Gu@physx@@V?$PxReflectionAllocator@USDFCalculationData@Gu@physx@@@3@@physx@@IEAAAEAUSDFCalculationData@Gu@2@AEBU342@@Z 0000000180055760 f i GuSDF.obj
 0001:000548e0       ?growAndPushBack@?$PxArray@V?$PxVec3T@M@physx@@V?$PxReflectionAllocator@V?$PxVec3T@M@physx@@@2@@physx@@IEAAAEAV?$PxVec3T@M@2@AEBV32@@Z 00000001800558e0 f i GuSDF.obj
 0001:00054ab0       ?projectPoint@PointOntoTriangleMeshProjector@Gu@physx@@UEAA?AV?$PxVec3T@M@3@AEBV43@@Z 0000000180055ab0 f i GuSDF.obj
 0001:00054b20       ?projectPoint@PointOntoTriangleMeshProjector@Gu@physx@@UEAA?AV?$PxVec3T@M@3@AEBV43@AEAI@Z 0000000180055b20 f i GuSDF.obj
 0001:00054ba0       ?recreate@?$PxArray@HV?$PxReflectionAllocator@H@physx@@@physx@@IEAAXI@Z 0000000180055ba0 f i GuSDF.obj
 0001:00054c90       ?recreate@?$PxArray@MV?$PxReflectionAllocator@M@physx@@@physx@@IEAAXI@Z 0000000180055c90 f i GuSDF.obj
 0001:00054d70       ?recreate@?$PxArray@UBVHNode@Gu@physx@@V?$PxReflectionAllocator@UBVHNode@Gu@physx@@@3@@physx@@IEAAXI@Z 0000000180055d70 f i GuSDF.obj
 0001:00054fb0       ?release@PointOntoTriangleMeshProjector@Gu@physx@@UEAAXXZ 0000000180055fb0 f i GuSDF.obj
 0001:00055000       ?reserveInternal@?$PxHashBase@V?$PxPair@$$CBIU?$ClusterApproximationT@MV?$PxVec3T@M@physx@@@Gu@physx@@@physx@@IU?$PxHash@I@2@UGetKey@?$PxHashMapBase@IU?$ClusterApproximationT@MV?$PxVec3T@M@physx@@@Gu@physx@@U?$PxHash@I@3@VPxAllocator@3@@2@VPxAllocator@2@$00@physx@@AEAAXI@Z 0000000180056000 f i GuSDF.obj
 0001:00055210       ?reserveInternal@?$PxHashBase@V?$PxPair@$$CBUSortedTriangle@Gu@physx@@H@physx@@USortedTriangle@Gu@2@UTriangleHash@42@UGetKey@?$PxHashMapBase@USortedTriangle@Gu@physx@@HUTriangleHash@23@VPxAllocator@3@@2@VPxAllocator@2@$00@physx@@AEAAXI@Z 0000000180056210 f i GuSDF.obj
 0001:000553c0       ?reserveInternal@?$PxHashBase@V?$PxPair@$$CB_KI@physx@@_KU?$PxHash@_K@2@UGetKey@?$PxHashMapBase@_KIU?$PxHash@_K@physx@@VPxAllocator@2@@2@VPxAllocator@2@$00@physx@@AEAAXI@Z 00000001800563c0 f i GuSDF.obj
 0001:000553c0       ?reserveInternal@?$PxHashBase@V?$PxPair@$$CB_KH@physx@@_KU?$PxHash@_K@2@UGetKey@?$PxHashMapBase@_KHU?$PxHash@_K@physx@@VPxAllocator@2@@2@VPxAllocator@2@$00@physx@@AEAAXI@Z 00000001800563c0 f i GuSDF.obj
 0001:000555b0       ?resize@?$PxArray@IV?$PxReflectionAllocator@I@physx@@@physx@@QEAAXIAEBI@Z 00000001800565b0 f i GuSDF.obj
 0001:00055670       ?resize@?$PxArray@MV?$PxReflectionAllocator@M@physx@@@physx@@QEAAXIAEBM@Z 0000000180056670 f i GuSDF.obj
 0001:00055780       ?resize@?$PxArray@UBVHNode@Gu@physx@@V?$PxReflectionAllocator@UBVHNode@Gu@physx@@@3@@physx@@QEAAXIAEBUBVHNode@Gu@2@@Z 0000000180056780 f i GuSDF.obj
 0001:00055900       ?sampleSDFDirect@?$DenseSDF@M@Gu@physx@@QEAAMAEBV?$PxVec3T@M@3@@Z 0000000180056900 f i GuSDF.obj
 0001:00055a90       ?signedVolume@Gu@physx@@YAMPEBV?$PxVec3T@M@2@PEBII1I@Z 0000000180056a90 f   GuSDF.obj
 0001:00055e90       ?windingNumbers@Gu@physx@@YAXPEBV?$PxVec3T@M@2@PEBIIIIIPEAMV32@3PEAV32@@Z 0000000180056e90 f   GuSDF.obj
 0001:00056230       ?windingNumbersInsideCheck@Gu@physx@@YAXPEBV?$PxVec3T@M@2@PEBIIIIIPEA_NV32@3PEAV32@@Z 0000000180057230 f   GuSDF.obj
 0001:00056b80       ??0MeshData@physx@@QEAA@AEBVPxTriangleMeshDesc@1@@Z 0000000180057b80 f i GuCookingSDF.obj
 0001:00056c60       ?GetBounds@MeshData@physx@@QEBAXAEAV?$PxVec3T@M@2@0@Z 0000000180057c60 f i GuCookingSDF.obj
 0001:00056f00       ?buildSDF@physx@@YA_NAEAVPxTriangleMeshDesc@1@AEAV?$PxArray@MV?$PxReflectionAllocator@M@physx@@@1@AEAV?$PxArray@EV?$PxReflectionAllocator@E@physx@@@1@AEAV?$PxArray@IV?$PxReflectionAllocator@I@physx@@@1@@Z 0000000180057f00 f   GuCookingSDF.obj
 0001:00057a10       ?quantizeSparseSDF@physx@@YAXW4Enum@PxSdfBitsPerSubgridPixel@1@AEBV?$PxArray@MV?$PxReflectionAllocator@M@physx@@@1@AEAV?$PxArray@EV?$PxReflectionAllocator@E@physx@@@1@MM@Z 0000000180058a10 f   GuCookingSDF.obj
 0001:00057af0       ?recreate@?$PxArray@EV?$PxReflectionAllocator@E@physx@@@physx@@IEAAXI@Z 0000000180058af0 f i GuCookingSDF.obj
 0001:00057be0       ?recreate@?$PxArray@V?$PxVec3T@M@physx@@V?$PxReflectionAllocator@V?$PxVec3T@M@physx@@@2@@physx@@IEAAXI@Z 0000000180058be0 f i GuCookingSDF.obj
 0001:00057d70       ?resize@?$PxArray@EV?$PxReflectionAllocator@E@physx@@@physx@@QEAAXIAEBE@Z 0000000180058d70 f i GuCookingSDF.obj
 0001:00057e30       ?resize@?$PxArray@V?$PxVec3T@M@physx@@V?$PxReflectionAllocator@V?$PxVec3T@M@physx@@@2@@physx@@QEAAXIAEBV?$PxVec3T@M@2@@Z 0000000180058e30 f i GuCookingSDF.obj
 0001:00057f20       ??$gjk@U?$RelativeConvex@UCustomConvexV@@@Gu@physx@@U?$LocalConvex@UCustomConvexV@@@23@@Gu@physx@@YA?AW4GjkStatus@01@AEBU?$RelativeConvex@UCustomConvexV@@@01@AEBU?$LocalConvex@UCustomConvexV@@@01@AEBT__m128@@2AEAT5@333@Z 0000000180058f20 f i GuGjkQuery.obj
 0001:00058ca0       ??$gjkPenetration@U?$RelativeConvex@UCustomConvexV@@@Gu@physx@@U?$LocalConvex@UCustomConvexV@@@23@@Gu@physx@@YA?AW4GjkStatus@01@AEBU?$RelativeConvex@UCustomConvexV@@@01@AEBU?$LocalConvex@UCustomConvexV@@@01@AEBT__m128@@2_NPEIAE4PEIAT5@5AEAEAEAUGjkOutput@01@@Z 0000000180059ca0 f i GuGjkQuery.obj
 0001:0005a1e0       ??$gjkPenetration@U?$RelativeConvex@UCustomConvexV@@@Gu@physx@@U?$LocalConvex@UCustomConvexV@@@23@@Gu@physx@@YA?AW4GjkStatus@01@AEBU?$RelativeConvex@UCustomConvexV@@@01@AEBU?$LocalConvex@UCustomConvexV@@@01@AEBT__m128@@2_NPEIAT5@4AEAEAEAUGjkOutput@01@@Z 000000018005b1e0 f i GuGjkQuery.obj
 0001:0005a240       ??$gjkRaycast@U?$RelativeConvex@UCustomConvexV@@@Gu@physx@@U?$LocalConvex@UCustomConvexV@@@23@@Gu@physx@@YA_NAEBU?$RelativeConvex@UCustomConvexV@@@01@AEBU?$LocalConvex@UCustomConvexV@@@01@AEBT__m128@@222AEAT4@33M@Z 000000018005b240 f i GuGjkQuery.obj
 0001:0005af90       ??$gjkRaycast@U?$RelativeConvex@UCustomConvexV@@@Gu@physx@@U?$LocalConvex@UPointConvexV@@@23@@Gu@physx@@YA_NAEBU?$RelativeConvex@UCustomConvexV@@@01@AEBU?$LocalConvex@UPointConvexV@@@01@AEBT__m128@@222AEAT4@33M@Z 000000018005bf90 f i GuGjkQuery.obj
 0001:0005bbe0       ?overlap@PxGjkQuery@physx@@SA_NAEBUSupport@12@0AEBV?$PxTransformT@M@2@1@Z 000000018005cbe0 f   GuGjkQuery.obj
 0001:0005bf70       ?proximityInfo@PxGjkQuery@physx@@SA_NAEBUSupport@12@0AEBV?$PxTransformT@M@2@1MMAEAV?$PxVec3T@M@2@22AEAM@Z 000000018005cf70 f   GuGjkQuery.obj
 0001:0005cb90       ?raycast@PxGjkQuery@physx@@SA_NAEBUSupport@12@AEBV?$PxTransformT@M@2@AEBV?$PxVec3T@M@2@2MAEAMAEAV52@4@Z 000000018005db90 f   GuGjkQuery.obj
 0001:0005d040       ?support@?$LocalConvex@UCustomConvexV@@@Gu@physx@@UEBA?AT__m128@@AEBT4@@Z 000000018005e040 f i GuGjkQuery.obj
 0001:0005d0c0       ?support@?$LocalConvex@UCustomConvexV@@@Gu@physx@@UEBA?AT__m128@@AEBT4@AEAH@Z 000000018005e0c0 f i GuGjkQuery.obj
 0001:0005d140       ?supportPoint@?$LocalConvex@UPointConvexV@@@Gu@physx@@UEBA?AT__m128@@H@Z 000000018005e140 f i GuGjkQuery.obj
 0001:0005d140       ?support@?$LocalConvex@UPointConvexV@@@Gu@physx@@UEBA?AT__m128@@AEBT4@@Z 000000018005e140 f i GuGjkQuery.obj
 0001:0005d150       ?support@?$LocalConvex@UPointConvexV@@@Gu@physx@@UEBA?AT__m128@@AEBT4@AEAH@Z 000000018005e150 f i GuGjkQuery.obj
 0001:0005d170       ?support@?$RelativeConvex@UCustomConvexV@@@Gu@physx@@UEBA?AT__m128@@AEBT4@@Z 000000018005e170 f i GuGjkQuery.obj
 0001:0005d240       ?support@?$RelativeConvex@UCustomConvexV@@@Gu@physx@@UEBA?AT__m128@@AEBT4@AEAH@Z 000000018005e240 f i GuGjkQuery.obj
 0001:0005d320       ?supportPoint@?$LocalConvex@UCustomConvexV@@@Gu@physx@@UEBA?AT__m128@@H@Z 000000018005e320 f i GuGjkQuery.obj
 0001:0005d390       ?supportPoint@?$RelativeConvex@UCustomConvexV@@@Gu@physx@@UEBA?AT__m128@@H@Z 000000018005e390 f i GuGjkQuery.obj
 0001:0005d430       ?sweep@PxGjkQuery@physx@@SA_NAEBUSupport@12@0AEBV?$PxTransformT@M@2@1AEBV?$PxVec3T@M@2@MAEAMAEAV52@4@Z 000000018005e430 f   GuGjkQuery.obj
 0001:0005dbf0       ??$approximateCluster@MV?$PxVec3T@M@physx@@@Gu@physx@@YAXAEBV?$PxArray@HV?$PxReflectionAllocator@H@physx@@@1@IIPEBIPEBV?$PxVec3T@M@1@AEBV?$PxArray@MV?$PxReflectionAllocator@M@physx@@@1@AEBV?$PxArray@V?$PxVec3T@M@physx@@V?$PxReflectionAllocator@V?$PxVec3T@M@physx@@@2@@1@4AEAU?$ClusterApproximationT@MV?$PxVec3T@M@physx@@@01@@Z 000000018005ebf0 f i GuWindingNumber.obj
 0001:0005e430       ??$copy@V?$PxReflectionAllocator@M@physx@@@?$PxArray@MV?$PxReflectionAllocator@M@physx@@@physx@@IEAAXAEBV01@@Z 000000018005f430 f i GuWindingNumber.obj
 0001:0005e490       ??$precomputeClusterInformation@MV?$PxVec3T@M@physx@@@Gu@physx@@YAXHPEBUBVHNode@01@PEBIIPEBV?$PxVec3T@M@1@AEAV?$PxHashMap@IU?$ClusterApproximationT@MV?$PxVec3T@M@physx@@@Gu@physx@@U?$PxHash@I@3@VPxAllocator@3@@1@V?$PxArray@MV?$PxReflectionAllocator@M@physx@@@1@AEBV?$PxArray@V?$PxVec3T@M@physx@@V?$PxReflectionAllocator@V?$PxVec3T@M@physx@@@2@@1@5@Z 000000018005f490 f i GuWindingNumber.obj
 0001:0005e860       ??$precomputeClusterInformation@MV?$PxVec3T@M@physx@@@Gu@physx@@YAXPEBUBVHNode@01@PEBIIPEBV?$PxVec3T@M@1@AEAV?$PxHashMap@IU?$ClusterApproximationT@MV?$PxVec3T@M@physx@@@Gu@physx@@U?$PxHash@I@3@VPxAllocator@3@@1@H@Z 000000018005f860 f i GuWindingNumber.obj
 0001:0005ec70       ??$traverseBVH@V?$WindingNumberTraversalController@MV?$PxVec3T@M@physx@@@Gu@physx@@@Gu@physx@@YAXPEBUBVHNode@01@AEAV?$WindingNumberTraversalController@MV?$PxVec3T@M@physx@@@01@H@Z 000000018005fc70 f i GuWindingNumber.obj
 0001:0005f1c0       ?allocate@?$PxArray@HV?$PxReflectionAllocator@H@physx@@@physx@@IEAAPEAHI@Z 00000001800601c0 f i GuWindingNumber.obj
 0001:0005f250       ?computeWindingNumber@Gu@physx@@YAMPEBUBVHNode@12@AEBV?$PxVec3T@M@2@AEBV?$PxHashMap@IU?$ClusterApproximationT@MV?$PxVec3T@M@physx@@@Gu@physx@@U?$PxHash@I@3@VPxAllocator@3@@2@PEBIPEBV42@@Z 0000000180060250 f   GuWindingNumber.obj
 0001:0005f2c0       ?computeWindingNumber@Gu@physx@@YAMPEBUBVHNode@12@AEBV?$PxVec3T@M@2@MAEBV?$PxHashMap@IU?$ClusterApproximationT@MV?$PxVec3T@M@physx@@@Gu@physx@@U?$PxHash@I@3@VPxAllocator@3@@2@PEBIPEBV42@@Z 00000001800602c0 f   GuWindingNumber.obj
 0001:0005f330       ?copy@?$PxArray@MV?$PxReflectionAllocator@M@physx@@@physx@@KAXPEAM0PEBM@Z 0000000180060330 f i GuWindingNumber.obj
 0001:0005f390       ?create@?$PxHashBase@V?$PxPair@$$CBIU?$ClusterApproximationT@MV?$PxVec3T@M@physx@@@Gu@physx@@@physx@@IU?$PxHash@I@2@UGetKey@?$PxHashMapBase@IU?$ClusterApproximationT@MV?$PxVec3T@M@physx@@@Gu@physx@@U?$PxHash@I@3@VPxAllocator@3@@2@VPxAllocator@2@$00@physx@@QEAAPEAV?$PxPair@$$CBIU?$ClusterApproximationT@MV?$PxVec3T@M@physx@@@Gu@physx@@@2@AEBIAEA_N@Z 0000000180060390 f i GuWindingNumber.obj
 0001:0005f4f0       ?growAndPushBack@?$PxArray@HV?$PxReflectionAllocator@H@physx@@@physx@@IEAAAEAHAEBH@Z 00000001800604f0 f i GuWindingNumber.obj
 0001:0005f5b0       ?growAndPushBack@?$PxArray@USection@Gu@physx@@V?$PxReflectionAllocator@USection@Gu@physx@@@3@@physx@@IEAAAEAUSection@Gu@2@AEBU342@@Z 00000001800605b0 f i GuWindingNumber.obj
 0001:0005f6d0       ?precomputeClusterInformation@Gu@physx@@YAXPEBUBVHNode@12@PEBIIPEBV?$PxVec3T@M@2@AEAV?$PxHashMap@IU?$ClusterApproximationT@MV?$PxVec3T@M@physx@@@Gu@physx@@U?$PxHash@I@3@VPxAllocator@3@@2@H@Z 00000001800606d0 f   GuWindingNumber.obj
 0001:0005f770       ?SweepAnyShapeHeightfield@Gu@physx@@YAMAEBUCCDShape@12@0AEBUPxTransformPadded@2@111MAEAV?$PxVec3T@M@2@2MAEAIM@Z 0000000180060770 f   GuCCDSweepConvexMesh.obj
 0001:00060d00       ?SweepAnyShapeMesh@Gu@physx@@YAMAEBUCCDShape@12@0AEBUPxTransformPadded@2@111MAEAV?$PxVec3T@M@2@2MAEAIM@Z 0000000180061d00 f   GuCCDSweepConvexMesh.obj
 0001:000622c0       ?SweepEstimateAnyShapeHeightfield@Gu@physx@@YAMAEBUCCDShape@12@0MM@Z 00000001800632c0 f   GuCCDSweepConvexMesh.obj
 0001:00062f30       ?SweepEstimateAnyShapeMesh@Gu@physx@@YAMAEBUCCDShape@12@0MM@Z 0000000180063f30 f   GuCCDSweepConvexMesh.obj
 0001:000631d0       ?allocate@?$PxArray@IV?$PxInlineAllocator@$0BAA@V?$PxReflectionAllocator@I@physx@@@physx@@@physx@@IEAAPEAII@Z 00000001800641d0 f i GuCCDSweepConvexMesh.obj
 0001:00063ca0       ?growAndPushBack@?$PxArray@IV?$PxInlineAllocator@$0BAA@V?$PxReflectionAllocator@I@physx@@@physx@@@physx@@IEAAAEAIAEBI@Z 0000000180064ca0 f i GuCCDSweepConvexMesh.obj
 0001:000642e0       ?recreate@?$PxArray@IV?$PxInlineAllocator@$0BAA@V?$PxReflectionAllocator@I@physx@@@physx@@@physx@@IEAAXI@Z 00000001800652e0 f i GuCCDSweepConvexMesh.obj
 0001:00064420       ?resize@?$PxArray@IV?$PxInlineAllocator@$0BAA@V?$PxReflectionAllocator@I@physx@@@physx@@@physx@@QEAAXIAEBI@Z 0000000180065420 f i GuCCDSweepConvexMesh.obj
 0001:000644f0       ?transformBoxOrthonormal@physx@@YA?AVBox@Gu@1@AEBV231@AEBV?$PxTransformT@M@1@@Z 00000001800654f0 f i GuCCDSweepConvexMesh.obj
 0001:00064980       ?UnimplementedSweep@Gu@physx@@YAMAEBUCCDShape@12@0AEBUPxTransformPadded@2@111MAEAV?$PxVec3T@M@2@2MAEAIM@Z 0000000180065980 f   GuCCDSweepPrimitives.obj
 0001:000684f0       ?UnimplementedTriangleSweep@Gu@physx@@YAMAEBVPxGeometry@2@0AEBUPxTransformPadded@2@111MAEAV?$PxVec3T@M@2@2AEBVFastVertex2ShapeScaling@Cm@2@AEAVTriangleV@12@M@Z 00000001800694f0 f   GuCCDSweepPrimitives.obj
 0001:00068500       ??$SweepGeomTriangles@VCapsuleV@Gu@physx@@@Gu@physx@@YAMAEBVPxGeometry@1@0AEBUPxTransformPadded@1@111MAEAV?$PxVec3T@M@1@2AEBVFastVertex2ShapeScaling@Cm@1@AEAVTriangleV@01@M@Z 0000000180069500 f i GuCCDSweepPrimitives.obj
 0001:00068c30       ??$SweepGeomTriangles@VBoxV@Gu@physx@@@Gu@physx@@YAMAEBVPxGeometry@1@0AEBUPxTransformPadded@1@111MAEAV?$PxVec3T@M@1@2AEBVFastVertex2ShapeScaling@Cm@1@AEAVTriangleV@01@M@Z 0000000180069c30 f i GuCCDSweepPrimitives.obj
 0001:00069380       ??$SweepGeomTriangles@VConvexHullV@Gu@physx@@@Gu@physx@@YAMAEBVPxGeometry@1@0AEBUPxTransformPadded@1@111MAEAV?$PxVec3T@M@1@2AEBVFastVertex2ShapeScaling@Cm@1@AEAVTriangleV@01@M@Z 000000018006a380 f i GuCCDSweepPrimitives.obj
 0001:00069e70       ?supportPoint@?$RelativeConvex@VCapsuleV@Gu@physx@@@Gu@physx@@UEBA?AT__m128@@H@Z 000000018006ae70 f i GuCCDSweepPrimitives.obj
 0001:00069ed0       ?support@?$RelativeConvex@VCapsuleV@Gu@physx@@@Gu@physx@@UEBA?AT__m128@@AEBT4@@Z 000000018006aed0 f i GuCCDSweepPrimitives.obj
 0001:00069f80       ?support@?$RelativeConvex@VCapsuleV@Gu@physx@@@Gu@physx@@UEBA?AT__m128@@AEBT4@AEAH@Z 000000018006af80 f i GuCCDSweepPrimitives.obj
 0001:0006a040       ?supportPoint@?$RelativeConvex@VTriangleV@Gu@physx@@@Gu@physx@@UEBA?AT__m128@@H@Z 000000018006b040 f i GuCCDSweepPrimitives.obj
 0001:0006a090       ?support@?$RelativeConvex@VTriangleV@Gu@physx@@@Gu@physx@@UEBA?AT__m128@@AEBT4@@Z 000000018006b090 f i GuCCDSweepPrimitives.obj
 0001:0006a190       ?support@?$RelativeConvex@VTriangleV@Gu@physx@@@Gu@physx@@UEBA?AT__m128@@AEBT4@AEAH@Z 000000018006b190 f i GuCCDSweepPrimitives.obj
 0001:0006a2d0       ??$gjkPenetration@U?$RelativeConvex@VCapsuleV@Gu@physx@@@Gu@physx@@U?$LocalConvex@VBoxV@Gu@physx@@@23@@Gu@physx@@YA?AW4GjkStatus@01@AEBU?$RelativeConvex@VCapsuleV@Gu@physx@@@01@AEBU?$LocalConvex@VBoxV@Gu@physx@@@01@AEBT__m128@@2_NPEIAE4AEAEAEAUGjkOutput@01@@Z 000000018006b2d0 f i GuCCDSweepPrimitives.obj
 0001:0006a340       ??$gjkPenetration@U?$RelativeConvex@VCapsuleV@Gu@physx@@@Gu@physx@@U?$LocalConvex@VBoxV@Gu@physx@@@23@@Gu@physx@@YA?AW4GjkStatus@01@AEBU?$RelativeConvex@VCapsuleV@Gu@physx@@@01@AEBU?$LocalConvex@VBoxV@Gu@physx@@@01@AEBT__m128@@2_NPEIAE4PEIAT5@5AEAEAEAUGjkOutput@01@@Z 000000018006b340 f i GuCCDSweepPrimitives.obj
 0001:0006b7f0       ??$gjkPenetration@U?$RelativeConvex@VCapsuleV@Gu@physx@@@Gu@physx@@U?$LocalConvex@VCapsuleV@Gu@physx@@@23@@Gu@physx@@YA?AW4GjkStatus@01@AEBU?$RelativeConvex@VCapsuleV@Gu@physx@@@01@AEBU?$LocalConvex@VCapsuleV@Gu@physx@@@01@AEBT__m128@@2_NPEIAE4AEAEAEAUGjkOutput@01@@Z 000000018006c7f0 f i GuCCDSweepPrimitives.obj
 0001:0006b860       ??$gjkPenetration@U?$RelativeConvex@VCapsuleV@Gu@physx@@@Gu@physx@@U?$LocalConvex@VCapsuleV@Gu@physx@@@23@@Gu@physx@@YA?AW4GjkStatus@01@AEBU?$RelativeConvex@VCapsuleV@Gu@physx@@@01@AEBU?$LocalConvex@VCapsuleV@Gu@physx@@@01@AEBT__m128@@2_NPEIAE4PEIAT5@5AEAEAEAUGjkOutput@01@@Z 000000018006c860 f i GuCCDSweepPrimitives.obj
 0001:0006cd00       ??$gjkPenetration@U?$RelativeConvex@VCapsuleV@Gu@physx@@@Gu@physx@@U?$LocalConvex@VConvexHullV@Gu@physx@@@23@@Gu@physx@@YA?AW4GjkStatus@01@AEBU?$RelativeConvex@VCapsuleV@Gu@physx@@@01@AEBU?$LocalConvex@VConvexHullV@Gu@physx@@@01@AEBT__m128@@2_NPEIAE4AEAEAEAUGjkOutput@01@@Z 000000018006dd00 f i GuCCDSweepPrimitives.obj
 0001:0006cd70       ??$gjkPenetration@U?$RelativeConvex@VCapsuleV@Gu@physx@@@Gu@physx@@U?$LocalConvex@VConvexHullV@Gu@physx@@@23@@Gu@physx@@YA?AW4GjkStatus@01@AEBU?$RelativeConvex@VCapsuleV@Gu@physx@@@01@AEBU?$LocalConvex@VConvexHullV@Gu@physx@@@01@AEBT__m128@@2_NPEIAE4PEIAT5@5AEAEAEAUGjkOutput@01@@Z 000000018006dd70 f i GuCCDSweepPrimitives.obj
 0001:0006e2f0       ??$gjkPenetration@U?$RelativeConvex@VTriangleV@Gu@physx@@@Gu@physx@@U?$LocalConvex@VBoxV@Gu@physx@@@23@@Gu@physx@@YA?AW4GjkStatus@01@AEBU?$RelativeConvex@VTriangleV@Gu@physx@@@01@AEBU?$LocalConvex@VBoxV@Gu@physx@@@01@AEBT__m128@@2_NPEIAE4AEAEAEAUGjkOutput@01@@Z 000000018006f2f0 f i GuCCDSweepPrimitives.obj
 0001:0006e360       ??$gjkPenetration@U?$RelativeConvex@VTriangleV@Gu@physx@@@Gu@physx@@U?$LocalConvex@VBoxV@Gu@physx@@@23@@Gu@physx@@YA?AW4GjkStatus@01@AEBU?$RelativeConvex@VTriangleV@Gu@physx@@@01@AEBU?$LocalConvex@VBoxV@Gu@physx@@@01@AEBT__m128@@2_NPEIAE4PEIAT5@5AEAEAEAUGjkOutput@01@@Z 000000018006f360 f i GuCCDSweepPrimitives.obj
 0001:0006f850       ??$gjkPenetration@U?$RelativeConvex@VTriangleV@Gu@physx@@@Gu@physx@@U?$LocalConvex@VCapsuleV@Gu@physx@@@23@@Gu@physx@@YA?AW4GjkStatus@01@AEBU?$RelativeConvex@VTriangleV@Gu@physx@@@01@AEBU?$LocalConvex@VCapsuleV@Gu@physx@@@01@AEBT__m128@@2_NPEIAE4AEAEAEAUGjkOutput@01@@Z 0000000180070850 f i GuCCDSweepPrimitives.obj
 0001:0006f8c0       ??$gjkPenetration@U?$RelativeConvex@VTriangleV@Gu@physx@@@Gu@physx@@U?$LocalConvex@VCapsuleV@Gu@physx@@@23@@Gu@physx@@YA?AW4GjkStatus@01@AEBU?$RelativeConvex@VTriangleV@Gu@physx@@@01@AEBU?$LocalConvex@VCapsuleV@Gu@physx@@@01@AEBT__m128@@2_NPEIAE4PEIAT5@5AEAEAEAUGjkOutput@01@@Z 00000001800708c0 f i GuCCDSweepPrimitives.obj
 0001:00070dc0       ??$gjkPenetration@U?$RelativeConvex@VTriangleV@Gu@physx@@@Gu@physx@@U?$LocalConvex@VConvexHullV@Gu@physx@@@23@@Gu@physx@@YA?AW4GjkStatus@01@AEBU?$RelativeConvex@VTriangleV@Gu@physx@@@01@AEBU?$LocalConvex@VConvexHullV@Gu@physx@@@01@AEBT__m128@@2_NPEIAE4AEAEAEAUGjkOutput@01@@Z 0000000180071dc0 f i GuCCDSweepPrimitives.obj
 0001:00070e30       ??$gjkPenetration@U?$RelativeConvex@VTriangleV@Gu@physx@@@Gu@physx@@U?$LocalConvex@VConvexHullV@Gu@physx@@@23@@Gu@physx@@YA?AW4GjkStatus@01@AEBU?$RelativeConvex@VTriangleV@Gu@physx@@@01@AEBU?$LocalConvex@VConvexHullV@Gu@physx@@@01@AEBT__m128@@2_NPEIAE4PEIAT5@5AEAEAEAUGjkOutput@01@@Z 0000000180071e30 f i GuCCDSweepPrimitives.obj
 0001:000723e0       ??$gjkRaycast@U?$RelativeConvex@VCapsuleV@Gu@physx@@@Gu@physx@@U?$LocalConvex@VBoxV@Gu@physx@@@23@@Gu@physx@@YA_NAEBU?$RelativeConvex@VCapsuleV@Gu@physx@@@01@AEBU?$LocalConvex@VBoxV@Gu@physx@@@01@AEBT__m128@@222AEAT4@33M@Z 00000001800733e0 f i GuCCDSweepPrimitives.obj
 0001:00073030       ??$gjkRaycast@U?$RelativeConvex@VCapsuleV@Gu@physx@@@Gu@physx@@U?$LocalConvex@VCapsuleV@Gu@physx@@@23@@Gu@physx@@YA_NAEBU?$RelativeConvex@VCapsuleV@Gu@physx@@@01@AEBU?$LocalConvex@VCapsuleV@Gu@physx@@@01@AEBT__m128@@222AEAT4@33M@Z 0000000180074030 f i GuCCDSweepPrimitives.obj
 0001:00073d00       ??$gjkRaycast@U?$RelativeConvex@VCapsuleV@Gu@physx@@@Gu@physx@@U?$LocalConvex@VConvexHullV@Gu@physx@@@23@@Gu@physx@@YA_NAEBU?$RelativeConvex@VCapsuleV@Gu@physx@@@01@AEBU?$LocalConvex@VConvexHullV@Gu@physx@@@01@AEBT__m128@@222AEAT4@33M@Z 0000000180074d00 f i GuCCDSweepPrimitives.obj
 0001:00074b10       ??$gjkRaycast@U?$RelativeConvex@VTriangleV@Gu@physx@@@Gu@physx@@U?$LocalConvex@VBoxV@Gu@physx@@@23@@Gu@physx@@YA_NAEBU?$RelativeConvex@VTriangleV@Gu@physx@@@01@AEBU?$LocalConvex@VBoxV@Gu@physx@@@01@AEBT__m128@@222AEAT4@33M@Z 0000000180075b10 f i GuCCDSweepPrimitives.obj
 0001:00075810       ??$gjkRaycast@U?$RelativeConvex@VTriangleV@Gu@physx@@@Gu@physx@@U?$LocalConvex@VCapsuleV@Gu@physx@@@23@@Gu@physx@@YA_NAEBU?$RelativeConvex@VTriangleV@Gu@physx@@@01@AEBU?$LocalConvex@VCapsuleV@Gu@physx@@@01@AEBT__m128@@222AEAT4@33M@Z 0000000180076810 f i GuCCDSweepPrimitives.obj
 0001:00076590       ??$gjkRaycast@U?$RelativeConvex@VTriangleV@Gu@physx@@@Gu@physx@@U?$LocalConvex@VConvexHullV@Gu@physx@@@23@@Gu@physx@@YA_NAEBU?$RelativeConvex@VTriangleV@Gu@physx@@@01@AEBU?$LocalConvex@VConvexHullV@Gu@physx@@@01@AEBT__m128@@222AEAT4@33M@Z 0000000180077590 f i GuCCDSweepPrimitives.obj
 0001:00077400       ?SweepShapeShape@Gu@physx@@YAMAEBUCCDShape@12@0AEBUPxTransformPadded@2@111MAEAV?$PxVec3T@M@2@2MAEAIM@Z 0000000180078400 f   GuCCDSweepPrimitives.obj
 0001:00077420       ?SweepShapeTriangle@Gu@physx@@YAMAEBVPxGeometry@2@0AEBUPxTransformPadded@2@111MAEAV?$PxVec3T@M@2@2AEBVFastVertex2ShapeScaling@Cm@2@AEAVTriangleV@12@M@Z 0000000180078420 f   GuCCDSweepPrimitives.obj
 0001:00077440       ?barycentricCoordinates@Gu@physx@@YAXAEBT__m128@@000AEAT3@1@Z 0000000180078440 f   GuBarycentricCoordinates.obj
 0001:00077580       ?barycentricCoordinates@Gu@physx@@YAXAEBT__m128@@00AEAT3@@Z 0000000180078580 f   GuBarycentricCoordinates.obj
 0001:000775f0       ??$?_UV?$PxReflectionAllocator@VAdjTriangle@Gu@physx@@@physx@@@PxUserAllocated@physx@@SAPEAX_KV?$PxReflectionAllocator@VAdjTriangle@Gu@physx@@@1@PEBDH@Z 00000001800785f0 f i GuAdjacencies.obj
 0001:000776d0       ??0AdjacenciesBuilder@Gu@physx@@QEAA@XZ 00000001800786d0 f   GuAdjacencies.obj
 0001:000776e0       ??1AdjacenciesBuilder@Gu@physx@@QEAA@XZ 00000001800786e0 f   GuAdjacencies.obj
 0001:00077730       ?ComputeNbBoundaryEdges@Adjacencies@Gu@physx@@QEBAIXZ 0000000180078730 f   GuAdjacencies.obj
 0001:000779c0       ?Init@AdjacenciesBuilder@Gu@physx@@QEAA_NAEBUADJACENCIESCREATE@23@@Z 00000001800789c0 f   GuAdjacencies.obj
 0001:00077f90       ??0EdgeList@Gu@physx@@QEAA@XZ 0000000180078f90 f   GuEdgeList.obj
 0001:00077fb0       ??1EdgeList@Gu@physx@@QEAA@XZ 0000000180078fb0 f   GuEdgeList.obj
 0001:00078060       ?computeActiveEdges@EdgeList@Gu@physx@@AEAA_NIPEBIPEBGPEBV?$PxVec3T@M@3@M@Z 0000000180079060 f   GuEdgeList.obj
 0001:00079400       ?createEdgesToFaces@EdgeList@Gu@physx@@AEAA_NIPEBIPEBG@Z 000000018007a400 f   GuEdgeList.obj
 0001:00079660       ?createFacesToEdges@EdgeList@Gu@physx@@AEAA_NIPEBIPEBG@Z 000000018007a660 f   GuEdgeList.obj
 0001:00079a90       ?init@EdgeList@Gu@physx@@QEAA_NAEBUEDGELISTCREATE@23@@Z 000000018007aa90 f   GuEdgeList.obj
 0001:00079bd0       ?addAxis@SeparatingAxes@Gu@physx@@QEAA_NAEBV?$PxVec3T@M@3@@Z 000000018007abd0 f   GuSeparatingAxes.obj
 0001:00079c90       ??$kmeans_cluster@V?$PxVec3T@M@physx@@M@@YAIPEBV?$PxVec3T@M@physx@@IIPEAV01@PEAIMM@Z 000000018007ac90 f i GuQuantizer.obj
 0001:0007a5f0       ??_GQuantizer@Gu@physx@@MEAAPEAXI@Z 000000018007b5f0 f i GuQuantizer.obj
 0001:0007a5f0       ??_EQuantizer@Gu@physx@@MEAAPEAXI@Z 000000018007b5f0 f i GuQuantizer.obj
 0001:0007a620       ??_EQuantizerImpl@@EEAAPEAXI@Z 000000018007b620 f i GuQuantizer.obj
 0001:0007a620       ??_GQuantizerImpl@@EEAAPEAXI@Z 000000018007b620 f i GuQuantizer.obj
 0001:0007a6f0       ?createQuantizer@Gu@physx@@YAPEAVQuantizer@12@XZ 000000018007b6f0 f   GuQuantizer.obj
 0001:0007a7a0       ?getDenormalizeCenter@QuantizerImpl@@UEBAAEBV?$PxVec3T@M@physx@@XZ 000000018007b7a0 f i GuQuantizer.obj
 0001:0007a7b0       ?getCurrentAABBTreeBounds@PruningPool@Gu@physx@@QEBAAEBVAABBTreeBounds@23@XZ 000000018007b7b0 f i GuIncrementalAABBPrunerCore.obj
 0001:0007a7b0       ?getDenormalizeScale@QuantizerImpl@@UEBAAEBV?$PxVec3T@M@physx@@XZ 000000018007b7b0 f i GuQuantizer.obj
 0001:0007a7c0       ?kmeansQuantize3D@QuantizerImpl@@UEAAPEBV?$PxVec3T@M@physx@@IPEBV23@I_NIAEAI@Z 000000018007b7c0 f i GuQuantizer.obj
 0001:0007aa20       ?normalizeInput@QuantizerImpl@@AEAAXIPEBV?$PxVec3T@M@physx@@I@Z 000000018007ba20 f i GuQuantizer.obj
 0001:0007ae50       ?release@QuantizerImpl@@UEAAXXZ 000000018007be50 f i GuQuantizer.obj
 0001:0007ae70       ??0MeshCleaner@Gu@physx@@QEAA@IPEBV?$PxVec3T@M@2@IPEBIM@Z 000000018007be70 f   GuMeshCleaner.obj
 0001:0007b820       ??1MeshCleaner@Gu@physx@@QEAA@XZ 000000018007c820 f   GuMeshCleaner.obj
 0001:0007b8b0       ??0ReducedVertexCloud@Gu@physx@@QEAA@PEBV?$PxVec3T@M@2@I@Z 000000018007c8b0 f   GuVertexReducer.obj
 0001:0007b8d0       ??1ReducedVertexCloud@Gu@physx@@QEAA@XZ 000000018007c8d0 f   GuVertexReducer.obj
 0001:0007b8e0       ?clean@ReducedVertexCloud@Gu@physx@@QEAAAEAV123@XZ 000000018007c8e0 f   GuVertexReducer.obj
 0001:0007b950       ?reduce@ReducedVertexCloud@Gu@physx@@QEAA_NPEAUREDUCEDCLOUD@23@@Z 000000018007c950 f   GuVertexReducer.obj
 0001:0007bc00       ??$copy@V?$PxReflectionAllocator@I@physx@@@?$PxArray@IV?$PxReflectionAllocator@I@physx@@@physx@@IEAAXAEBV01@@Z 000000018007cc00 f i GuMeshAnalysis.obj
 0001:0007bc70       ?buildConsistentTriangleOrientationMap@MeshAnalyzer@Gu@physx@@SA_NPEBU?$IndexedTriangleT@H@23@IAEAV?$PxArray@_NV?$PxReflectionAllocator@_N@physx@@@3@AEAV?$PxHashMap@_KHU?$PxHash@_K@physx@@VPxAllocator@2@@3@AEAV?$PxArray@V?$PxArray@IV?$PxReflectionAllocator@I@physx@@@physx@@V?$PxReflectionAllocator@V?$PxArray@IV?$PxReflectionAllocator@I@physx@@@physx@@@2@@3@@Z 000000018007cc70 f   GuMeshAnalysis.obj
 0001:0007c020       ?buildTriangleAdjacency@MeshAnalyzer@Gu@physx@@SA_NPEBU?$IndexedTriangleT@H@23@IAEAV?$PxArray@HV?$PxReflectionAllocator@H@physx@@@3@AEAV?$PxHashMap@_KHU?$PxHash@_K@physx@@VPxAllocator@2@@3@@Z 000000018007d020 f   GuMeshAnalysis.obj
 0001:0007c4e0       ?checkConsistentTriangleOrientation@MeshAnalyzer@Gu@physx@@SA_NPEBU?$IndexedTriangleT@H@23@I@Z 000000018007d4e0 f   GuMeshAnalysis.obj
 0001:0007c690       ?checkMeshWatertightness@MeshAnalyzer@Gu@physx@@SA_NPEBU?$IndexedTriangleT@H@23@I_N@Z 000000018007d690 f   GuMeshAnalysis.obj
 0001:0007c8a0       ?create@?$PxHashBase@V?$PxPair@$$CB_KH@physx@@_KU?$PxHash@_K@2@UGetKey@?$PxHashMapBase@_KHU?$PxHash@_K@physx@@VPxAllocator@2@@2@VPxAllocator@2@$00@physx@@QEAAPEAV?$PxPair@$$CB_KH@2@AEB_KAEA_N@Z 000000018007d8a0 f i GuMeshAnalysis.obj
 0001:0007ca40       ?destroy@?$PxArray@V?$PxArray@IV?$PxReflectionAllocator@I@physx@@@physx@@V?$PxReflectionAllocator@V?$PxArray@IV?$PxReflectionAllocator@I@physx@@@physx@@@2@@physx@@KAXPEAV?$PxArray@IV?$PxReflectionAllocator@I@physx@@@2@0@Z 000000018007da40 f i GuMeshAnalysis.obj
 0001:0007cab0       ?growAndPushBack@?$PxArray@V?$PxArray@IV?$PxReflectionAllocator@I@physx@@@physx@@V?$PxReflectionAllocator@V?$PxArray@IV?$PxReflectionAllocator@I@physx@@@physx@@@2@@physx@@IEAAAEAV?$PxArray@IV?$PxReflectionAllocator@I@physx@@@2@AEBV32@@Z 000000018007dab0 f i GuMeshAnalysis.obj
 0001:0007cc00       ?makeTriOrientationConsistent@MeshAnalyzer@Gu@physx@@SA_NPEAU?$IndexedTriangleT@H@23@I_N@Z 000000018007dc00 f   GuMeshAnalysis.obj
 0001:0007cdb0       ?recreate@?$PxArray@_NV?$PxReflectionAllocator@_N@physx@@@physx@@IEAAXI@Z 000000018007ddb0 f i GuMeshAnalysis.obj
 0001:0007cea0       ?resize@?$PxArray@HV?$PxReflectionAllocator@H@physx@@@physx@@QEAAXIAEBH@Z 000000018007dea0 f i GuMeshAnalysis.obj
 0001:0007cf60       ?resize@?$PxArray@_NV?$PxReflectionAllocator@_N@physx@@@physx@@QEAAXIAEB_N@Z 000000018007df60 f i GuMeshAnalysis.obj
 0001:0007d020       ?contactBoxBox@Gu@physx@@YA_NAEBVPxGeometry@2@0AEBUPxTransformPadded@2@1AEBUNarrowPhaseParams@12@AEAUCache@12@AEAVPxContactBuffer@2@PEAVPxRenderOutput@2@@Z 000000018007e020 f   GuContactBoxBox.obj
 0001:00081430       ?contactCapsuleBox@Gu@physx@@YA_NAEBVPxGeometry@2@0AEBUPxTransformPadded@2@1AEBUNarrowPhaseParams@12@AEAUCache@12@AEAVPxContactBuffer@2@PEAVPxRenderOutput@2@@Z 0000000180082430 f   GuContactCapsuleBox.obj
 0001:000819d0       ?contactCapsuleCapsule@Gu@physx@@YA_NAEBVPxGeometry@2@0AEBUPxTransformPadded@2@1AEBUNarrowPhaseParams@12@AEAUCache@12@AEAVPxContactBuffer@2@PEAVPxRenderOutput@2@@Z 00000001800829d0 f   GuContactCapsuleCapsule.obj
 0001:00084290       ?contactCapsuleConvex@Gu@physx@@YA_NAEBVPxGeometry@2@0AEBUPxTransformPadded@2@1AEBUNarrowPhaseParams@12@AEAUCache@12@AEAVPxContactBuffer@2@PEAVPxRenderOutput@2@@Z 0000000180085290 f   GuContactCapsuleConvex.obj
 0001:000867a0       ?contactCapsuleHeightfield@Gu@physx@@YA_NAEBVPxGeometry@2@0AEBUPxTransformPadded@2@1AEBUNarrowPhaseParams@12@AEAUCache@12@AEAVPxContactBuffer@2@PEAVPxRenderOutput@2@@Z 00000001800877a0 f   GuContactCapsuleMesh.obj
 0001:00086fb0       ?contactCapsuleMesh@Gu@physx@@YA_NAEBVPxGeometry@2@0AEBUPxTransformPadded@2@1AEBUNarrowPhaseParams@12@AEAUCache@12@AEAVPxContactBuffer@2@PEAVPxRenderOutput@2@@Z 0000000180087fb0 f   GuContactCapsuleMesh.obj
 0001:00088130       ?transformQueryBounds@FastVertex2ShapeScaling@Cm@physx@@QEBAXAEAV?$PxVec3T@M@3@0AEAV?$PxMat33T@M@3@@Z 0000000180089130 f i GuContactCapsuleMesh.obj
 0001:0008c440       ?contactBoxConvex@Gu@physx@@YA_NAEBVPxGeometry@2@0AEBUPxTransformPadded@2@1AEBUNarrowPhaseParams@12@AEAUCache@12@AEAVPxContactBuffer@2@PEAVPxRenderOutput@2@@Z 000000018008d440 f   GuContactConvexConvex.obj
 0001:0008c610       ?contactConvexConvex@Gu@physx@@YA_NAEBVPxGeometry@2@0AEBUPxTransformPadded@2@1AEBUNarrowPhaseParams@12@AEAUCache@12@AEAVPxContactBuffer@2@PEAVPxRenderOutput@2@@Z 000000018008d610 f   GuContactConvexConvex.obj
 0001:0008ca90       ?transformPlaneToShapeSpace@FastVertex2ShapeScaling@Cm@physx@@QEBAXAEBV?$PxVec3T@M@3@MAEAV43@AEAM@Z 000000018008da90 f i GuContactConvexConvex.obj
 0001:0008cf40       ??_EConvexMeshContactGenerationCallback@@UEAAPEAXI@Z 000000018008df40 f i GuContactConvexMesh.obj
 0001:0008cf40       ??_GConvexMeshContactGenerationCallback@@UEAAPEAXI@Z 000000018008df40 f i GuContactConvexMesh.obj
 0001:0008cfa0       ?addData@?$CacheMap@UCachedEdge@Gu@physx@@$0IA@@Gu@physx@@QEAA_NAEBUCachedEdge@23@@Z 000000018008dfa0 f i GuContactConvexMesh.obj
 0001:0008d080       ?addData@?$CacheMap@UCachedVertex@Gu@physx@@$0IA@@Gu@physx@@QEAA_NAEBUCachedVertex@23@@Z 000000018008e080 f i GuContactConvexMesh.obj
 0001:0008d110       ?allocate@?$PxArray@IV?$PxInlineAllocator@$0BBAA@V?$PxReflectionAllocator@I@physx@@@physx@@@physx@@IEAAPEAII@Z 000000018008e110 f i GuContactConvexMesh.obj
 0001:0008d510       ?contactBoxHeightfield@Gu@physx@@YA_NAEBVPxGeometry@2@0AEBUPxTransformPadded@2@1AEBUNarrowPhaseParams@12@AEAUCache@12@AEAVPxContactBuffer@2@PEAVPxRenderOutput@2@@Z 000000018008e510 f   GuContactConvexMesh.obj
 0001:0008d690       ?contactBoxMesh@Gu@physx@@YA_NAEBVPxGeometry@2@0AEBUPxTransformPadded@2@1AEBUNarrowPhaseParams@12@AEAUCache@12@AEAVPxContactBuffer@2@PEAVPxRenderOutput@2@@Z 000000018008e690 f   GuContactConvexMesh.obj
 0001:0008d860       ?contactConvexHeightfield@Gu@physx@@YA_NAEBVPxGeometry@2@0AEBUPxTransformPadded@2@1AEBUNarrowPhaseParams@12@AEAUCache@12@AEAVPxContactBuffer@2@PEAVPxRenderOutput@2@@Z 000000018008e860 f   GuContactConvexMesh.obj
 0001:0008d9b0       ?contactConvexMesh@Gu@physx@@YA_NAEBVPxGeometry@2@0AEBUPxTransformPadded@2@1AEBUNarrowPhaseParams@12@AEAUCache@12@AEAVPxContactBuffer@2@PEAVPxRenderOutput@2@@Z 000000018008e9b0 f   GuContactConvexMesh.obj
 0001:00091110       ?processHit@ConvexMeshContactGenerationCallback@@UEAA_NAEBUPxGeomRaycastHit@physx@@AEBV?$PxVec3T@M@3@11AEAMPEBI@Z 0000000180092110 f i GuContactConvexMesh.obj
 0001:00091a80       ?recreate@?$PxArray@IV?$PxInlineAllocator@$0BBAA@V?$PxReflectionAllocator@I@physx@@@physx@@@physx@@IEAAXI@Z 0000000180092a80 f i GuContactConvexMesh.obj
 0001:00092ec0       ?contactPlaneBox@Gu@physx@@YA_NAEBVPxGeometry@2@0AEBUPxTransformPadded@2@1AEBUNarrowPhaseParams@12@AEAUCache@12@AEAVPxContactBuffer@2@PEAVPxRenderOutput@2@@Z 0000000180093ec0 f   GuContactPlaneBox.obj
 0001:00093b60       ?contactPlaneCapsule@Gu@physx@@YA_NAEBVPxGeometry@2@0AEBUPxTransformPadded@2@1AEBUNarrowPhaseParams@12@AEAUCache@12@AEAVPxContactBuffer@2@PEAVPxRenderOutput@2@@Z 0000000180094b60 f   GuContactPlaneCapsule.obj
 0001:00094200       ?contactPlaneConvex@Gu@physx@@YA_NAEBVPxGeometry@2@0AEBUPxTransformPadded@2@1AEBUNarrowPhaseParams@12@AEAUCache@12@AEAVPxContactBuffer@2@PEAVPxRenderOutput@2@@Z 0000000180095200 f   GuContactPlaneConvex.obj
 0001:00095fb0       ?contactPolygonPolygonExt@Gu@physx@@YA_NIPEBV?$PxVec3T@M@2@PEBEAEBV?$PxMat34T@M@2@AEBVPxPlane@2@AEBV?$PxMat33T@M@2@I01234AEBV32@22IIAEAVPxContactBuffer@2@_N5M@Z 0000000180096fb0 f   GuContactPolygonPolygon.obj
 0001:00097700       ?findRotationMatrixFromZ@Gu@physx@@YA?AV?$PxMat33T@M@2@AEBV?$PxVec3T@M@2@@Z 0000000180098700 f   GuContactPolygonPolygon.obj
 0001:00098130       ?contactSphereBox@Gu@physx@@YA_NAEBVPxGeometry@2@0AEBUPxTransformPadded@2@1AEBUNarrowPhaseParams@12@AEAUCache@12@AEAVPxContactBuffer@2@PEAVPxRenderOutput@2@@Z 0000000180099130 f   GuContactSphereBox.obj
 0001:00098710       ?contactSphereCapsule@Gu@physx@@YA_NAEBVPxGeometry@2@0AEBUPxTransformPadded@2@1AEBUNarrowPhaseParams@12@AEAUCache@12@AEAVPxContactBuffer@2@PEAVPxRenderOutput@2@@Z 0000000180099710 f   GuContactSphereCapsule.obj
 0001:000994f0       ?contactSphereHeightfield@Gu@physx@@YA_NAEBVPxGeometry@2@0AEBUPxTransformPadded@2@1AEBUNarrowPhaseParams@12@AEAUCache@12@AEAVPxContactBuffer@2@PEAVPxRenderOutput@2@@Z 000000018009a4f0 f   GuContactSphereMesh.obj
 0001:00099eb0       ?contactSphereMesh@Gu@physx@@YA_NAEBVPxGeometry@2@0AEBUPxTransformPadded@2@1AEBUNarrowPhaseParams@12@AEAUCache@12@AEAVPxContactBuffer@2@PEAVPxRenderOutput@2@@Z 000000018009aeb0 f   GuContactSphereMesh.obj
 0001:0009c150       ?contactSpherePlane@Gu@physx@@YA_NAEBVPxGeometry@2@0AEBUPxTransformPadded@2@1AEBUNarrowPhaseParams@12@AEAUCache@12@AEAVPxContactBuffer@2@PEAVPxRenderOutput@2@@Z 000000018009d150 f   GuContactSpherePlane.obj
 0001:0009c360       ?contactSphereSphere@Gu@physx@@YA_NAEBVPxGeometry@2@0AEBUPxTransformPadded@2@1AEBUNarrowPhaseParams@12@AEAUCache@12@AEAVPxContactBuffer@2@PEAVPxRenderOutput@2@@Z 000000018009d360 f   GuContactSphereSphere.obj
 0001:0009c4e0       ?contactCustomGeometryGeometry@Gu@physx@@YA_NAEBVPxGeometry@2@0AEBUPxTransformPadded@2@1AEBUNarrowPhaseParams@12@AEAUCache@12@AEAVPxContactBuffer@2@PEAVPxRenderOutput@2@@Z 000000018009d4e0 f   GuContactCustomGeometry.obj
 0001:0009c540       ?contactGeometryCustomGeometry@Gu@physx@@YA_NAEBVPxGeometry@2@0AEBUPxTransformPadded@2@1AEBUNarrowPhaseParams@12@AEAUCache@12@AEAVPxContactBuffer@2@PEAVPxRenderOutput@2@@Z 000000018009d540 f   GuContactCustomGeometry.obj
 0001:0009c600       ?selectNormal@Gu@physx@@YA_NEMM@Z 000000018009d600 f   GuFeatureCode.obj
 0001:0009c680       ??0BigConvexData@physx@@QEAA@XZ 000000018009d680 f   GuBigConvexData.obj
 0001:0009c6a0       ??1BigConvexData@physx@@QEAA@XZ 000000018009d6a0 f   GuBigConvexData.obj
 0001:0009c760       ?ComputeNearestOffset@BigConvexData@physx@@QEBAIAEBV?$PxVec3T@M@2@@Z 000000018009d760 f   GuBigConvexData.obj
 0001:0009c860       ?ComputeOffset@BigConvexData@physx@@QEBAIAEBV?$PxVec3T@M@2@@Z 000000018009d860 f   GuBigConvexData.obj
 0001:0009c960       ?CreateOffsets@BigConvexData@physx@@IEAAXXZ 000000018009d960 f   GuBigConvexData.obj
 0001:0009c9b0       ?Load@BigConvexData@physx@@QEAA_NAEAVPxInputStream@2@@Z 000000018009d9b0 f   GuBigConvexData.obj
 0001:0009cad0       ?VLoad@BigConvexData@physx@@IEAA_NAEAVPxInputStream@2@@Z 000000018009dad0 f   GuBigConvexData.obj
 0001:0009cc70       ?exportExtraData@BigConvexData@physx@@QEAAXAEAVPxSerializationContext@2@@Z 000000018009dc70 f   GuBigConvexData.obj
 0001:0009ccf0       ?importExtraData@BigConvexData@physx@@QEAAXAEAVPxDeserializationContext@2@@Z 000000018009dcf0 f   GuBigConvexData.obj
 0001:0009cd60       ?findUniqueConvexEdges@Gu@physx@@YAIIPEIAUConvexEdge@12@IPEIBUHullPolygonData@12@PEIBE@Z 000000018009dd60 f   GuConvexHelper.obj
 0001:0009cea0       ?getConvexData@Gu@physx@@YA_NAEBVPxConvexMeshGeometry@2@AEAVFastVertex2ShapeScaling@Cm@2@AEAVPxBounds3@2@AEAUPolygonalData@12@@Z 000000018009dea0 f   GuConvexHelper.obj
 0001:0009d120       ?getScaledConvex@Gu@physx@@YAXAEAPEAV?$PxVec3T@M@2@AEAPEAEPEAV32@PEAE_NPEBV32@PEBEIAEBVFastVertex2ShapeScaling@Cm@2@@Z 000000018009e120 f   GuConvexHelper.obj
 0001:0009d250       ??0ConvexMesh@Gu@physx@@QEAA@PEAVMeshFactory@12@@Z 000000018009e250 f   GuConvexMesh.obj
 0001:0009d2e0       ??0ConvexMesh@Gu@physx@@QEAA@PEAVMeshFactory@12@AEAUConvexHullInitData@12@@Z 000000018009e2e0 f   GuConvexMesh.obj
 0001:0009d400       ??_GConvexMesh@Gu@physx@@UEAAPEAXI@Z 000000018009e400 f i GuConvexMesh.obj
 0001:0009d400       ??_EConvexMesh@Gu@physx@@UEAAPEAXI@Z 000000018009e400 f i GuConvexMesh.obj
 0001:0009d510       ??_GPxBVH@physx@@MEAAPEAXI@Z 000000018009e510 f i GuBVH.obj
 0001:0009d510       ??_EPxBVH@physx@@MEAAPEAXI@Z 000000018009e510 f i GuBVH.obj
 0001:0009d510       ??_EPxBase@physx@@MEAAPEAXI@Z 000000018009e510 f i GuConvexMesh.obj
 0001:0009d510       ??_GPxBase@physx@@MEAAPEAXI@Z 000000018009e510 f i GuConvexMesh.obj
 0001:0009d540       ?acquireReference@SoftBodyAuxData@Gu@physx@@UEAAXXZ 000000018009e540 f   GuTetrahedronMesh.obj
 0001:0009d540       ?acquireReference@TetrahedronMesh@Gu@physx@@UEAAXXZ 000000018009e540 f   GuTetrahedronMesh.obj
 0001:0009d540       ?acquireReference@SoftBodyMesh@Gu@physx@@UEAAXXZ 000000018009e540 f   GuTetrahedronMesh.obj
 0001:0009d540       ?acquireReference@TriangleMesh@Gu@physx@@UEAAXXZ 000000018009e540 f   GuTriangleMesh.obj
 0001:0009d540       ?acquireReference@ConvexMesh@Gu@physx@@UEAAXXZ 000000018009e540 f   GuConvexMesh.obj
 0001:0009d540       ?acquireReference@HeightField@Gu@physx@@UEAAXXZ 000000018009e540 f   GuHeightField.obj
 0001:0009da10       ?createObject@ConvexMesh@Gu@physx@@SAPEAV123@AEAPEAEAEAVPxDeserializationContext@3@@Z 000000018009ea10 f   GuConvexMesh.obj
 0001:0009db00       ?exportExtraData@ConvexMesh@Gu@physx@@UEAAXAEAVPxSerializationContext@3@@Z 000000018009eb00 f   GuConvexMesh.obj
 0001:0009dbd0       ?getConcreteTypeName@PxConvexMesh@physx@@UEBAPEBDXZ 000000018009ebd0 f i GuConvexMesh.obj
 0001:0009dbe0       ?getIndexBuffer@ConvexMesh@Gu@physx@@UEBAPEBEXZ 000000018009ebe0 f i GuConvexMesh.obj
 0001:0009dc20       ?getLocalBounds@ConvexMesh@Gu@physx@@UEBA?AVPxBounds3@3@XZ 000000018009ec20 f   GuConvexMesh.obj
 0001:0009dcb0       ?getMassInformation@ConvexMesh@Gu@physx@@UEBAXAEAMAEAV?$PxMat33T@M@3@AEAV?$PxVec3T@M@3@@Z 000000018009ecb0 f   GuConvexMesh.obj
 0001:0009dd20       ?getNbPolygons@ConvexMesh@Gu@physx@@UEBAIXZ 000000018009ed20 f i GuConvexMesh.obj
 0001:0009dd30       ?getNbVertices@ConvexMesh@Gu@physx@@UEBAIXZ 000000018009ed30 f i GuConvexMesh.obj
 0001:0009dd40       ?getPolygonData@ConvexMesh@Gu@physx@@UEBA_NIAEAUPxHullPolygon@3@@Z 000000018009ed40 f   GuConvexMesh.obj
 0001:0009dd90       ?length@DNameStatusNode@@UEBAHXZ 000000018009ed90 f   libvcruntime:undname.obj
 0001:0009dd90       ?getReferenceCount@HeightField@Gu@physx@@UEBAIXZ 000000018009ed90 f   GuHeightField.obj
 0001:0009dd90       ?getReferenceCount@SoftBodyMesh@Gu@physx@@UEBAIXZ 000000018009ed90 f   GuTetrahedronMesh.obj
 0001:0009dd90       ?getReferenceCount@TriangleMesh@Gu@physx@@UEBAIXZ 000000018009ed90 f   GuTriangleMesh.obj
 0001:0009dd90       ?raw_length@DNameStatusNode@@UEBAHXZ 000000018009ed90 f   libvcruntime:undname.obj
 0001:0009dd90       ?getReferenceCount@ConvexMesh@Gu@physx@@UEBAIXZ 000000018009ed90 f   GuConvexMesh.obj
 0001:0009dd90       ?getReferenceCount@SoftBodyAuxData@Gu@physx@@UEBAIXZ 000000018009ed90 f   GuTetrahedronMesh.obj
 0001:0009dd90       ?getReferenceCount@TetrahedronMesh@Gu@physx@@UEBAIXZ 000000018009ed90 f   GuTetrahedronMesh.obj
 0001:0009dda0       ?getSDF@ConvexMesh@Gu@physx@@UEBAPEBMXZ 000000018009eda0 f   GuConvexMesh.obj
 0001:0009ddb0       ?getVertices@ConvexMesh@Gu@physx@@UEBAPEBV?$PxVec3T@M@3@XZ 000000018009edb0 f i GuConvexMesh.obj
 0001:0009ddd0       ?isGpuCompatible@ConvexMesh@Gu@physx@@UEBA_NXZ 000000018009edd0 f   GuConvexMesh.obj
 0001:0009de10       ?isKindOf@PxBase@physx@@MEBA_NPEBD@Z 000000018009ee10 f i GuConvexMesh.obj
 0001:0009de40       ?isKindOf@PxConvexMesh@physx@@MEBA_NPEBD@Z 000000018009ee40 f i GuConvexMesh.obj
 0001:0009deb0       ?isReleasable@PxBase@physx@@UEBA_NXZ 000000018009eeb0 f i GuConvexMesh.obj
 0001:0009dec0       ?load@ConvexMesh@Gu@physx@@QEAA_NAEAVPxInputStream@3@@Z 000000018009eec0 f   GuConvexMesh.obj
 0001:0009e410       ?onRefCountZero@ConvexMesh@Gu@physx@@UEAAXXZ 000000018009f410 f   GuConvexMesh.obj
 0001:0009e540       ?release@SoftBodyAuxData@Gu@physx@@UEAAXXZ 000000018009f540 f   GuTetrahedronMesh.obj
 0001:0009e540       ?release@TriangleMesh@Gu@physx@@UEAAXXZ 000000018009f540 f   GuTriangleMesh.obj
 0001:0009e540       ?release@SoftBodyMesh@Gu@physx@@UEAAXXZ 000000018009f540 f   GuTetrahedronMesh.obj
 0001:0009e540       ?release@TetrahedronMesh@Gu@physx@@UEAAXXZ 000000018009f540 f   GuTetrahedronMesh.obj
 0001:0009e540       ?release@HeightField@Gu@physx@@UEAAXXZ 000000018009f540 f   GuHeightField.obj
 0001:0009e540       ?release@ConvexMesh@Gu@physx@@UEAAXXZ 000000018009f540 f   GuConvexMesh.obj
 0001:0009e570       ??Dphysx@@YA?AV?$PxMat34T@M@0@AEBVPxMeshScale@0@AEBV10@@Z 000000018009f570 f i GuConvexUtilsInternal.obj
 0001:0009eae0       ?computeHullOBB@Gu@physx@@YAXAEAVBox@12@AEBVPxBounds3@2@MAEBV?$PxMat34T@M@2@2AEBVFastVertex2ShapeScaling@Cm@2@_N@Z 000000018009fae0 f   GuConvexUtilsInternal.obj
 0001:0009ef90       ?computeOBBAroundConvex@Gu@physx@@YAXAEAVBox@12@AEBVPxConvexMeshGeometry@2@PEBVPxConvexMesh@2@AEBV?$PxTransformT@M@2@@Z 000000018009ff90 f   GuConvexUtilsInternal.obj
 0001:0009f7f0       ?computeVertexSpaceOBB@Gu@physx@@YAXAEAVBox@12@AEBV312@AEBV?$PxTransformT@M@2@AEBVPxMeshScale@2@@Z 00000001800a07f0 f   GuConvexUtilsInternal.obj
 0001:0009fb20       ?transform@physx@@YA?AVBox@Gu@1@AEBV?$PxMat34T@M@1@AEBV231@@Z 00000001800a0b20 f i GuConvexUtilsInternal.obj
 0001:0009fd70       ?localSearch@physx@@YAXAEAIAEBV?$PxVec3T@M@1@PEBV21@PEBUBigConvexRawData@Gu@1@@Z 00000001800a0d70 f   GuHillClimbing.obj
 0001:0009fea0       ??0PCMPolygonalBox@Gu@physx@@QEAA@AEBV?$PxVec3T@M@2@@Z 00000001800a0ea0 f   GuPCMShapeConvex.obj
 0001:0009fea0       ??0PolygonalBox@Gu@physx@@QEAA@AEBV?$PxVec3T@M@2@@Z 00000001800a0ea0 f   GuShapeConvex.obj
 0001:000a1360       ?getPolygonalData@PolygonalBox@Gu@physx@@QEBAXPEIAUPolygonalData@23@@Z 00000001800a2360 f   GuShapeConvex.obj
 0001:000a13d0       ?getPolygonalData_Convex@Gu@physx@@YAXPEIAUPolygonalData@12@PEIBUConvexHullData@12@AEBVFastVertex2ShapeScaling@Cm@2@@Z 00000001800a23d0 f   GuShapeConvex.obj
 0001:000a1530       ?distancePointBoxSquared@Gu@physx@@YAMAEBV?$PxVec3T@M@2@00AEBV?$PxMat33T@M@2@PEAV32@@Z 00000001800a2530 f   GuDistancePointBox.obj
 0001:000a1680       ?closestPtPointTriangle@Gu@physx@@YA?AV?$PxVec3T@M@2@AEBV32@000AEAM1@Z 00000001800a2680 f   GuDistancePointTriangle.obj
 0001:000a1ba0       ?distancePointTriangleSquared@Gu@physx@@YA?AT__m128@@AEBT3@000AEAT3@11@Z 00000001800a2ba0 f   GuDistancePointTriangle.obj
 0001:000a28f0       ?distanceSegmentBoxSquared@Gu@physx@@YAMAEBV?$PxVec3T@M@2@000AEBV?$PxMat33T@M@2@PEAMPEAV32@@Z 00000001800a38f0 f   GuDistanceSegmentBox.obj
 0001:000a3160       ?distanceSegmentSegmentSquared4@Gu@physx@@YA?AT__m128@@AEBT3@000000000AEAT3@1@Z 00000001800a4160 f   GuDistanceSegmentSegment.obj
 0001:000a3480       ?distanceSegmentSegmentSquared@Gu@physx@@YA?AT__m128@@AEBT3@000AEAT3@1@Z 00000001800a4480 f   GuDistanceSegmentSegment.obj
 0001:000a3640       ?distanceSegmentSegmentSquared@Gu@physx@@YAMAEBV?$PxVec3T@M@2@000PEAM1@Z 00000001800a4640 f   GuDistanceSegmentSegment.obj
 0001:000a38d0       ?distanceSegmentSegmentSquared@Gu@physx@@YAMAEBV?$PxVec3T@M@2@0M00MPEAM1@Z 00000001800a48d0 f   GuDistanceSegmentSegment.obj
 0001:000a4020       ?distanceSegmentTriangleSquared@Gu@physx@@YA?AT__m128@@AEBT3@0000AEAT3@1@Z 00000001800a5020 f   GuDistanceSegmentTriangle.obj
 0001:000a4760       ?distanceSegmentTriangleSquared@Gu@physx@@YAMAEBV?$PxVec3T@M@2@0000PEAM11@Z 00000001800a5760 f   GuDistanceSegmentTriangle.obj
 0001:000a5df0       ?PointOutsideOfPlane4@Gu@physx@@YA?AV?$PxVec4T@M@2@AEBV?$PxVec3T@M@2@0000@Z 00000001800a6df0 f   GuDistancePointTetrahedron.obj
 0001:000a6260       ?closestPtPointTetrahedron@Gu@physx@@YA?AV?$PxVec3T@M@2@AEBV32@0000AEBV?$PxVec4T@M@2@@Z 00000001800a7260 f   GuDistancePointTetrahedron.obj
 0001:000a7350       ?PenetrationDepth@EPA@Gu@physx@@QEAA?AW4GjkStatus@23@AEBUGjkConvex@23@0PEIBT__m128@@1E_NT6@AEAUGjkOutput@23@@Z 00000001800a8350 f   GuEPA.obj
 0001:000a7e30       ?addFacet@EPA@Gu@physx@@QEAAPEAVFacet@23@IIIAEBT__m128@@@Z 00000001800a8e30 f   GuEPA.obj
 0001:000a8270       ?epaPenetration@Gu@physx@@YA?AW4GjkStatus@12@AEBUGjkConvex@12@0PEIBE1E_NT__m128@@AEAUGjkOutput@12@@Z 00000001800a9270 f   GuEPA.obj
 0001:000a83e0       ?epaPenetration@Gu@physx@@YA?AW4GjkStatus@12@AEBUGjkConvex@12@0PEIBT__m128@@1E_NT5@AEAUGjkOutput@12@@Z 00000001800a93e0 f   GuEPA.obj
 0001:000a8490       ?silhouette@Facet@Gu@physx@@QEAAXAEBT__m128@@PEIBT4@1AEAVEdgeBuffer@23@AEAV?$InlineDeferredIDPool@$0EA@@Cm@3@@Z 00000001800a9490 f   GuEPA.obj
 0001:000a8660       ?closestPtPointTetrahedron@Gu@physx@@YA?AT__m128@@PEIAT3@00AEAI@Z 00000001800a9660 f   GuGJKSimplex.obj
 0001:000a8dd0       ?closestPtPointTetrahedron@Gu@physx@@YA?AT__m128@@PEIAT3@00PEIAH1AEAI@Z 00000001800a9dd0 f   GuGJKSimplex.obj
 0001:000aa860       ??$gjk@UGjkConvex@Gu@physx@@U123@@Gu@physx@@YA?AW4GjkStatus@01@AEBUGjkConvex@01@0AEBT__m128@@1AEAT4@222@Z 00000001800ab860 f i GuGJKTest.obj
 0001:000ab480       ??$gjkPenetration@UGjkConvex@Gu@physx@@U123@@Gu@physx@@YA?AW4GjkStatus@01@AEBUGjkConvex@01@0AEBT__m128@@1_NPEIAE3AEAEAEAUGjkOutput@01@@Z 00000001800ac480 f i GuGJKTest.obj
 0001:000ab4f0       ??$gjkPenetration@UGjkConvex@Gu@physx@@U123@@Gu@physx@@YA?AW4GjkStatus@01@AEBUGjkConvex@01@0AEBT__m128@@1_NPEIAE3PEIAT4@4AEAEAEAUGjkOutput@01@@Z 00000001800ac4f0 f i GuGJKTest.obj
 0001:000ac910       ?testEpaPenetration@Gu@physx@@YA?AW4GjkStatus@12@AEBUGjkConvex@12@0PEBE1EAEAUGjkOutput@12@@Z 00000001800ad910 f   GuGJKTest.obj
 0001:000ac960       ?testGjk@Gu@physx@@YA?AW4GjkStatus@12@AEBUGjkConvex@12@0AEBT__m128@@1AEAT5@222@Z 00000001800ad960 f   GuGJKTest.obj
 0001:000ac970       ?testGjkPenetration@Gu@physx@@YA?AW4GjkStatus@12@AEBUGjkConvex@12@0AEBT__m128@@1PEAE2AEAEAEAUGjkOutput@12@@Z 00000001800ad970 f   GuGJKTest.obj
 0001:000ac9c0       ??0HeightField@Gu@physx@@QEAA@PEAVMeshFactory@12@@Z 00000001800ad9c0 f   GuHeightField.obj
 0001:000aca10       ??0HeightField@Gu@physx@@QEAA@PEAVMeshFactory@12@AEAUHeightFieldData@12@@Z 00000001800ada10 f   GuHeightField.obj
 0001:000acac0       ??1HeightField@Gu@physx@@UEAA@XZ 00000001800adac0 f   GuHeightField.obj
 0001:000acb40       ??_GHeightField@Gu@physx@@UEAAPEAXI@Z 00000001800adb40 f i GuHeightField.obj
 0001:000acb40       ??_EHeightField@Gu@physx@@UEAAPEAXI@Z 00000001800adb40 f i GuHeightField.obj
 0001:000acbf0       ?computeCellCoordinates@HeightField@Gu@physx@@QEBAIMMAEAM0@Z 00000001800adbf0 f   GuHeightField.obj
 0001:000acd10       ?createObject@HeightField@Gu@physx@@SAPEAV123@AEAPEAEAEAVPxDeserializationContext@3@@Z 00000001800add10 f   GuHeightField.obj
 0001:000acd70       ?exportExtraData@HeightField@Gu@physx@@UEAAXAEAVPxSerializationContext@3@@Z 00000001800add70 f   GuHeightField.obj
 0001:000acdc0       ?getConcreteTypeName@PxHeightField@physx@@UEBAPEBDXZ 00000001800addc0 f i GuHeightField.obj
 0001:000acdd0       ?getConvexEdgeThreshold@HeightField@Gu@physx@@UEBAMXZ 00000001800addd0 f i GuHeightField.obj
 0001:000acde0       ?getFlags@HeightField@Gu@physx@@UEBA?AV?$PxFlags@W4Enum@PxHeightFieldFlag@physx@@G@3@XZ 00000001800adde0 f i GuHeightField.obj
 0001:000acdf0       ?getFormat@HeightField@Gu@physx@@UEBA?AW4Enum@PxHeightFieldFormat@3@XZ 00000001800addf0 f i GuHeightField.obj
 0001:000ace00       ?getHeight@HeightField@Gu@physx@@UEBAMMM@Z 00000001800ade00 f i GuHeightField.obj
 0001:000acf20       ?getNbColumns@HeightField@Gu@physx@@UEBAIXZ 00000001800adf20 f i GuHeightField.obj
 0001:000acf30       ?getNbBounds@BVH@Gu@physx@@UEBAIXZ 00000001800adf30 f i GuBVH.obj
 0001:000acf30       ?getNbPrimitives@TetrahedronSourceMesh@Gu@physx@@UEBAIXZ 00000001800adf30 f i GuBV4.obj
 0001:000acf30       ?getNbRows@HeightField@Gu@physx@@UEBAIXZ 00000001800adf30 f i GuHeightField.obj
 0001:000acf30       ?getNbPrimitives@SourceMesh@Gu@physx@@UEBAIXZ 00000001800adf30 f i GuBV4.obj
 0001:000acf40       ?getSample@HeightField@Gu@physx@@UEBAAEBUPxHeightFieldSample@3@II@Z 00000001800adf40 f i GuHeightField.obj
 0001:000acf50       ?getSampleStride@HeightField@Gu@physx@@UEBAIXZ 00000001800adf50 f i GuHeightField.obj
 0001:000acf60       ?getTimestamp@HeightField@Gu@physx@@UEBAIXZ 00000001800adf60 f i GuHeightField.obj
 0001:000acf70       ?getTriangleMaterialIndex@HeightField@Gu@physx@@UEBAGI@Z 00000001800adf70 f i GuHeightField.obj
 0001:000acfa0       ?getTriangleNormal@HeightField@Gu@physx@@UEBA?AV?$PxVec3T@M@3@I@Z 00000001800adfa0 f i GuHeightField.obj
 0001:000ad280       ?isCollisionVertexPreca@HeightField@Gu@physx@@QEBA_NIIIG@Z 00000001800ae280 f   GuHeightField.obj
 0001:000ad320       ?isConvexVertex@HeightField@Gu@physx@@QEBA_NIII@Z 00000001800ae320 f i GuHeightField.obj
 0001:000ad3f0       ?isKindOf@PxHeightField@physx@@MEBA_NPEBD@Z 00000001800ae3f0 f i GuHeightField.obj
 0001:000ad460       ?isSolidVertex@HeightField@Gu@physx@@QEBA_NIIIGAEA_N@Z 00000001800ae460 f   GuHeightField.obj
 0001:000ad6f0       ?load@HeightField@Gu@physx@@QEAA_NAEAVPxInputStream@3@@Z 00000001800ae6f0 f   GuHeightField.obj
 0001:000ada50       ?loadFromDesc@HeightField@Gu@physx@@QEAA_NAEBVPxHeightFieldDesc@3@@Z 00000001800aea50 f   GuHeightField.obj
 0001:000adc50       ?modifySamples@HeightField@Gu@physx@@UEAA_NHHAEBVPxHeightFieldDesc@3@_N@Z 00000001800aec50 f   GuHeightField.obj
 0001:000adfb0       ?onRefCountZero@HeightField@Gu@physx@@UEAAXXZ 00000001800aefb0 f   GuHeightField.obj
 0001:000ae080       ?parseTrianglesForCollisionVertices@HeightField@Gu@physx@@QEAAXG@Z 00000001800af080 f   GuHeightField.obj
 0001:000ae570       ?releaseMemory@HeightField@Gu@physx@@QEAAXXZ 00000001800af570 f   GuHeightField.obj
 0001:000ae5c0       ?resizeAndClear@?$PxBitMapBase@VPxAllocator@physx@@@physx@@QEAAXI@Z 00000001800af5c0 f i GuHeightField.obj
 0001:000ae680       ?save@HeightField@Gu@physx@@QEAA_NAEAVPxOutputStream@3@_N@Z 00000001800af680 f   GuHeightField.obj
 0001:000ae8c0       ?saveCells@HeightField@Gu@physx@@UEBAIPEAXI@Z 00000001800af8c0 f   GuHeightField.obj
 0001:000ae900       ?computeLocalBounds@HeightFieldUtil@Gu@physx@@QEBAXAEAVPxBounds3@3@@Z 00000001800af900 f   GuHeightFieldUtil.obj
 0001:000aedc0       ?getTriangle@HeightFieldUtil@Gu@physx@@QEBAIAEBV?$PxTransformT@M@3@AEAVPxTriangle@3@PEAI2I_N3@Z 00000001800afdc0 f   GuHeightFieldUtil.obj
 0001:000af8a0       ?getTriangleAdjacencyIndices@HeightField@Gu@physx@@QEBAXIIIIAEAI00@Z 00000001800b08a0 f i GuHeightFieldUtil.obj
 0001:000afa80       ?getTriangleVertexIndices@HeightField@Gu@physx@@QEBAXIAEAI00@Z 00000001800b0a80 f i GuHeightFieldUtil.obj
 0001:000afb40       ?overlapAABBTriangles@HeightFieldUtil@Gu@physx@@QEBAXAEBVPxBounds3@3@AEAVOverlapReport@23@I@Z 00000001800b0b40 f   GuHeightFieldUtil.obj
 0001:000affa0       ??$gjk@U?$RelativeConvex@VTriangleV@Gu@physx@@@Gu@physx@@U?$LocalConvex@VConvexHullV@Gu@physx@@@23@@Gu@physx@@YA?AW4GjkStatus@01@AEBU?$RelativeConvex@VTriangleV@Gu@physx@@@01@AEBU?$LocalConvex@VConvexHullV@Gu@physx@@@01@AEBT__m128@@2AEAT5@333@Z 00000001800b0fa0 f i GuOverlapTestsHF.obj
 0001:000b0ee0       ?GeomOverlapCallback_BoxHeightfield@@YA_NAEBVPxGeometry@physx@@AEBV?$PxTransformT@M@2@01PEAUTriggerCache@Gu@2@PEAUPxQueryThreadContext@2@@Z 00000001800b1ee0 f   GuOverlapTestsHF.obj
 0001:000b1440       ?GeomOverlapCallback_CapsuleHeightfield@@YA_NAEBVPxGeometry@physx@@AEBV?$PxTransformT@M@2@01PEAUTriggerCache@Gu@2@PEAUPxQueryThreadContext@2@@Z 00000001800b2440 f   GuOverlapTestsHF.obj
 0001:000b1a40       ?GeomOverlapCallback_ConvexHeightfield@@YA_NAEBVPxGeometry@physx@@AEBV?$PxTransformT@M@2@01PEAUTriggerCache@Gu@2@PEAUPxQueryThreadContext@2@@Z 00000001800b2a40 f   GuOverlapTestsHF.obj
 0001:000b2490       ?GeomOverlapCallback_SphereHeightfield@@YA_NAEBVPxGeometry@physx@@AEBV?$PxTransformT@M@2@01PEAUTriggerCache@Gu@2@PEAUPxQueryThreadContext@2@@Z 00000001800b3490 f   GuOverlapTestsHF.obj
 0001:000b3050       ??$gjkRaycast@U?$LocalConvex@VTriangleV@Gu@physx@@@Gu@physx@@U?$LocalConvex@VConvexHullV@Gu@physx@@@23@@Gu@physx@@YA_NAEBU?$LocalConvex@VTriangleV@Gu@physx@@@01@AEBU?$LocalConvex@VConvexHullV@Gu@physx@@@01@AEBT__m128@@222AEAT4@33M@Z 00000001800b4050 f i GuSweepsHF.obj
 0001:000b3df0       ??$traceSegment@VBoxTraceSegmentReport@@$0A@$00@HeightFieldTraceUtil@Gu@physx@@QEBAXAEBV?$PxVec3T@M@2@0MPEAVBoxTraceSegmentReport@@AEBVPxBounds3@2@_NPEBV32@@Z 00000001800b4df0 f i GuSweepsHF.obj
 0001:000b3df0       ??$traceSegment@VConvexTraceSegmentReport@@$0A@$00@HeightFieldTraceUtil@Gu@physx@@QEBAXAEBV?$PxVec3T@M@2@0MPEAVConvexTraceSegmentReport@@AEBVPxBounds3@2@_NPEBV32@@Z 00000001800b4df0 f i GuSweepsHF.obj
 0001:000b3df0       ??$traceSegment@VCapsuleTraceSegmentReport@@$0A@$00@HeightFieldTraceUtil@Gu@physx@@QEBAXAEBV?$PxVec3T@M@2@0MPEAVCapsuleTraceSegmentReport@@AEBVPxBounds3@2@_NPEBV32@@Z 00000001800b4df0 f i GuSweepsHF.obj
 0001:000b4810       ??0ConvexTraceSegmentReport@@QEAA@AEBVHeightFieldUtil@Gu@physx@@AEBUConvexHullData@23@AEBVPxMeshScale@3@AEBV?$PxTransformT@M@3@3AEBV?$PxVec3T@M@3@MV?$PxFlags@W4Enum@PxHitFlag@physx@@G@3@M@Z 00000001800b5810 f i GuSweepsHF.obj
 0001:000b5180       ??_EBoxTraceSegmentReport@@UEAAPEAXI@Z 00000001800b6180 f i GuSweepsHF.obj
 0001:000b5180       ??_GBoxTraceSegmentReport@@UEAAPEAXI@Z 00000001800b6180 f i GuSweepsHF.obj
 0001:000b51b0       ??_GCapsuleTraceSegmentReport@@UEAAPEAXI@Z 00000001800b61b0 f i GuSweepsHF.obj
 0001:000b51b0       ??_ECapsuleTraceSegmentReport@@UEAAPEAXI@Z 00000001800b61b0 f i GuSweepsHF.obj
 0001:000b51e0       ??_EConvexTraceSegmentReport@@UEAAPEAXI@Z 00000001800b61e0 f i GuSweepsHF.obj
 0001:000b51e0       ??_GConvexTraceSegmentReport@@UEAAPEAXI@Z 00000001800b61e0 f i GuSweepsHF.obj
 0001:000b5210       ??_GHeightFieldTraceSegmentReport@@UEAAPEAXI@Z 00000001800b6210 f i GuSweepsHF.obj
 0001:000b5210       ??_EHeightFieldTraceSegmentReport@@UEAAPEAXI@Z 00000001800b6210 f i GuSweepsHF.obj
 0001:000b5240       ?finalizeHit@ConvexTraceSegmentReport@@QEAA_NAEAUPxGeomSweepHit@physx@@AEBVPxHeightFieldGeometry@3@AEBV?$PxTransformT@M@3@AEBVPxConvexMeshGeometry@3@2AEBV?$PxVec3T@M@3@M@Z 00000001800b6240 f i GuSweepsHF.obj
 0001:000b5470       ?onEvent@BoxTraceSegmentReport@@UEAA_NIPEBI@Z 00000001800b6470 f i GuSweepsHF.obj
 0001:000b58c0       ?onEvent@CapsuleTraceSegmentReport@@UEAA_NIPEBI@Z 00000001800b68c0 f i GuSweepsHF.obj
 0001:000b5ad0       ?onEvent@ConvexTraceSegmentReport@@UEAA_NIPEBI@Z 00000001800b6ad0 f i GuSweepsHF.obj
 0001:000b6090       ?prepare@?$OverlapTraceSegment@VConvexTraceSegmentReport@@@HeightFieldTraceUtil@Gu@physx@@QEAAXAEBV?$PxVec3T@M@4@00AEAM1@Z 00000001800b7090 f i GuSweepsHF.obj
 0001:000b6090       ?prepare@?$OverlapTraceSegment@VBoxTraceSegmentReport@@@HeightFieldTraceUtil@Gu@physx@@QEAAXAEBV?$PxVec3T@M@4@00AEAM1@Z 00000001800b7090 f i GuSweepsHF.obj
 0001:000b6090       ?prepare@?$OverlapTraceSegment@VCapsuleTraceSegmentReport@@@HeightFieldTraceUtil@Gu@physx@@QEAAXAEBV?$PxVec3T@M@4@00AEAM1@Z 00000001800b7090 f i GuSweepsHF.obj
 0001:000b6330       ?sweepBox_HeightFieldGeom@@YA_NAEBVPxGeometry@physx@@AEBV?$PxTransformT@M@2@AEBVPxBoxGeometry@2@1AEBVBox@Gu@2@AEBV?$PxVec3T@M@2@MAEAUPxGeomSweepHit@2@V?$PxFlags@W4Enum@PxHitFlag@physx@@G@2@MPEAUPxQueryThreadContext@2@@Z 00000001800b7330 f   GuSweepsHF.obj
 0001:000b7170       ?sweepCapsule_HeightFieldGeom@@YA_NAEBVPxGeometry@physx@@AEBV?$PxTransformT@M@2@AEBVPxCapsuleGeometry@2@1AEBVCapsule@Gu@2@AEBV?$PxVec3T@M@2@MAEAUPxGeomSweepHit@2@V?$PxFlags@W4Enum@PxHitFlag@physx@@G@2@MPEAUPxQueryThreadContext@2@@Z 00000001800b8170 f   GuSweepsHF.obj
 0001:000b7ac0       ?sweepConvex_HeightFieldGeom@@YA_NAEBVPxGeometry@physx@@AEBV?$PxTransformT@M@2@AEBVPxConvexMeshGeometry@2@1AEBV?$PxVec3T@M@2@MAEAUPxGeomSweepHit@2@V?$PxFlags@W4Enum@PxHitFlag@physx@@G@2@MPEAUPxQueryThreadContext@2@@Z 00000001800b8ac0 f   GuSweepsHF.obj
 0001:000b8480       ?testVertexIndex@?$OverlapTraceSegment@VCapsuleTraceSegmentReport@@@HeightFieldTraceUtil@Gu@physx@@QEAA_NI@Z 00000001800b9480 f i GuSweepsHF.obj
 0001:000b8480       ?testVertexIndex@?$OverlapTraceSegment@VConvexTraceSegmentReport@@@HeightFieldTraceUtil@Gu@physx@@QEAA_NI@Z 00000001800b9480 f i GuSweepsHF.obj
 0001:000b8480       ?testVertexIndex@?$OverlapTraceSegment@VBoxTraceSegmentReport@@@HeightFieldTraceUtil@Gu@physx@@QEAA_NI@Z 00000001800b9480 f i GuSweepsHF.obj
 0001:000b85d0       ?transformFast@PxBounds3@physx@@SA?AV12@AEBV?$PxTransformT@M@2@AEBV12@@Z 00000001800b95d0 f i GuSweepsHF.obj
 0001:000b89b0       ?intersectOBBOBB@Gu@physx@@YA_NAEBV?$PxVec3T@M@2@0AEBV?$PxMat33T@M@2@001_N@Z 00000001800b99b0 f   GuIntersectionBoxBox.obj
 0001:000b9010       ?intersectCapsuleTriangle@Gu@physx@@YA_NAEBV?$PxVec3T@M@2@000AEBVCapsule@12@AEBUCapsuleTriangleOverlapData@12@@Z 00000001800ba010 f   GuIntersectionCapsuleTriangle.obj
 0001:000b9ba0       ?intersectEdgeEdge@Gu@physx@@YA_NAEBV?$PxVec3T@M@2@0000AEAMAEAV32@@Z 00000001800baba0 f   GuIntersectionEdgeEdge.obj
 0001:000b9ed0       ?intersectRayAABB2@Gu@physx@@YA_NAEBT__m128@@0000AEAT3@1@Z 00000001800baed0 f   GuIntersectionRayBox.obj
 0001:000b9f90       ?intersectRayAABB2@Gu@physx@@YA_NAEBV?$PxVec3T@M@2@000MAEAM1@Z 00000001800baf90 f   GuIntersectionRayBox.obj
 0001:000ba140       ?intersectRayAABB@Gu@physx@@YAHAEBV?$PxVec3T@M@2@000AEAM1@Z 00000001800bb140 f   GuIntersectionRayBox.obj
 0001:000ba260       ?rayAABBIntersect2@Gu@physx@@YAIAEBV?$PxVec3T@M@2@000AEAV32@AEAM@Z 00000001800bb260 f   GuIntersectionRayBox.obj
 0001:000ba470       ?intersectRayCapsuleInternal@Gu@physx@@YAIAEBV?$PxVec3T@M@2@000MQEAM@Z 00000001800bb470 f   GuIntersectionRayCapsule.obj
 0001:000ba940       ?intersectRaySphere@Gu@physx@@YA_NAEBV?$PxVec3T@M@2@0M0MAEAMPEAV32@@Z 00000001800bb940 f   GuIntersectionRaySphere.obj
 0001:000baa30       ?intersectRaySphereBasic@Gu@physx@@YA_NAEBV?$PxVec3T@M@2@0M0MAEAMPEAV32@@Z 00000001800bba30 f   GuIntersectionRaySphere.obj
 0001:000bab90       ?intersectSphereBox@Gu@physx@@YA_NAEBVSphere@12@AEBVBox@12@@Z 00000001800bbb90 f   GuIntersectionSphereBox.obj
 0001:000badc0       ?intersectTetrahedronBox@Gu@physx@@YA_NAEBV?$PxVec3T@M@2@000AEBVPxBounds3@2@@Z 00000001800bbdc0 f   GuIntersectionTetrahedronBox.obj
 0001:000bb1a0       ?intersectTriangleBox@Gu@physx@@YAHAEBVBoxPadded@12@AEBV?$PxVec3T@M@2@11@Z 00000001800bc1a0 f   GuIntersectionTriangleBox.obj
 0001:000bb770       ?intersectTriangleBoxBV4@@YAHAEBV?$PxVec3T@M@physx@@00AEBV?$PxMat33T@M@2@00@Z 00000001800bc770 f   GuIntersectionTriangleBox.obj
 0001:000bbbb0       ?intersectTriangleBox_ReferenceCode@Gu@physx@@YAHAEBV?$PxVec3T@M@2@0000@Z 00000001800bcbb0 f   GuIntersectionTriangleBox.obj
 0001:000bc3e0       ?intersectTriangleBox_Unsafe@Gu@physx@@YAHAEBV?$PxVec3T@M@2@0000@Z 00000001800bd3e0 f   GuIntersectionTriangleBox.obj
 0001:000bca90       ?trianglesIntersect@Gu@physx@@YA_NAEBV?$PxVec3T@M@2@00000PEAVSegment@12@@Z 00000001800bda90 f   GuIntersectionTriangleTriangle.obj
 0001:000bd080       ??0BV4Tree@Gu@physx@@QEAA@W4PxEMPTY@2@@Z 00000001800be080 f   GuBV4.obj
 0001:000bd090       ??0BV4Tree@Gu@physx@@QEAA@XZ 00000001800be090 f   GuBV4.obj
 0001:000bd0c0       ??0SourceMesh@Gu@physx@@QEAA@XZ 00000001800be0c0 f   GuBV4.obj
 0001:000bd0f0       ??0TetrahedronSourceMesh@Gu@physx@@QEAA@XZ 00000001800be0f0 f   GuBV4.obj
 0001:000bd120       ??1BV4Tree@Gu@physx@@QEAA@XZ 00000001800be120 f   GuBV4.obj
 0001:000bd180       ??1SourceMesh@Gu@physx@@UEAA@XZ 00000001800be180 f   GuBV4.obj
 0001:000bd180       ??1TetrahedronSourceMesh@Gu@physx@@UEAA@XZ 00000001800be180 f   GuBV4.obj
 0001:000bd1d0       ??4BV4Tree@Gu@physx@@QEAAXAEAV012@@Z 00000001800be1d0 f   GuBV4.obj
 0001:000bd260       ??4SourceMesh@Gu@physx@@QEAAXAEAV012@@Z 00000001800be260 f   GuBV4.obj
 0001:000bd2b0       ??_GSourceMesh@Gu@physx@@UEAAPEAXI@Z 00000001800be2b0 f i GuBV4.obj
 0001:000bd2b0       ??_ETetrahedronSourceMesh@Gu@physx@@UEAAPEAXI@Z 00000001800be2b0 f i GuBV4.obj
 0001:000bd2b0       ??_GTetrahedronSourceMesh@Gu@physx@@UEAAPEAXI@Z 00000001800be2b0 f i GuBV4.obj
 0001:000bd2b0       ??_ESourceMesh@Gu@physx@@UEAAPEAXI@Z 00000001800be2b0 f i GuBV4.obj
 0001:000bd350       ??_GSourceMeshBase@Gu@physx@@UEAAPEAXI@Z 00000001800be350 f i GuBV4.obj
 0001:000bd350       ??_ESourceMeshBase@Gu@physx@@UEAAPEAXI@Z 00000001800be350 f i GuBV4.obj
 0001:000bd3f0       ?exportExtraData@BV4Tree@Gu@physx@@QEAAXAEAVPxSerializationContext@3@@Z 00000001800be3f0 f   GuBV4.obj
 0001:000bd450       ?getPrimitiveBox@SourceMesh@Gu@physx@@UEAAXIAEAT__m128@@0@Z 00000001800be450 f   GuBV4.obj
 0001:000bd4f0       ?getPrimitiveBox@TetrahedronSourceMesh@Gu@physx@@UEAAXIAEAT__m128@@0@Z 00000001800be4f0 f   GuBV4.obj
 0001:000bd5b0       ?importExtraData@BV4Tree@Gu@physx@@QEAAXAEAVPxDeserializationContext@3@@Z 00000001800be5b0 f   GuBV4.obj
 0001:000bd5f0       ?init@BV4Tree@Gu@physx@@QEAA_NPEAVSourceMeshBase@23@AEBVPxBounds3@3@@Z 00000001800be5f0 f   GuBV4.obj
 0001:000bd5f0       ?init@BV32Tree@Gu@physx@@QEAA_NPEAVSourceMeshBase@23@AEBVPxBounds3@3@@Z 00000001800be5f0 f   GuBV32.obj
 0001:000bd690       ?load@BV4Tree@Gu@physx@@QEAA_NAEAVPxInputStream@3@_N@Z 00000001800be690 f   GuBV4.obj
 0001:000bd8d0       ?refit@BV4Tree@Gu@physx@@QEAA_NAEAVPxBounds3@3@M@Z 00000001800be8d0 f   GuBV4.obj
 0001:000be020       ?refit@SourceMesh@Gu@physx@@UEAAXIAEAVPxBounds3@3@@Z 00000001800bf020 f   GuBV4.obj
 0001:000be1c0       ?refit@TetrahedronSourceMesh@Gu@physx@@UEAAXIAEAVPxBounds3@3@@Z 00000001800bf1c0 f   GuBV4.obj
 0001:000be3e0       ?remapTopology@SourceMesh@Gu@physx@@UEAAXPEBI@Z 00000001800bf3e0 f   GuBV4.obj
 0001:000be680       ?remapTopology@TetrahedronSourceMesh@Gu@physx@@UEAAXPEBI@Z 00000001800bf680 f   GuBV4.obj
 0001:000be930       ??0BV4_AABBTree@Gu@physx@@QEAA@XZ 00000001800bf930 f   GuBV4Build.obj
 0001:000be940       ??0BVData@@QEAA@XZ         00000001800bf940 f   GuBV4Build.obj
 0001:000be970       ??0BuildStats@Gu@physx@@QEAA@XZ 00000001800bf970 f i GuBV4Build.obj
 0001:000be980       ??1BV4_AABBTree@Gu@physx@@QEAA@XZ 00000001800bf980 f   GuBV4Build.obj
 0001:000be990       ??4BuildStats@Gu@physx@@QEAAAEAU012@$$QEAU012@@Z 00000001800bf990 f i GuBV4Build.obj
 0001:000be9a0       ??4BuildStats@Gu@physx@@QEAAAEAU012@AEBU012@@Z 00000001800bf9a0 f i GuBV4Build.obj
 0001:000be9b0       ?BuildBV4Ex@Gu@physx@@YA_NAEAVBV4Tree@12@AEAVSourceMeshBase@12@MI_NW4BV4_BuildStrategy@12@@Z 00000001800bf9b0 f   GuBV4Build.obj
 0001:000bf910       ?allocateNode@BV4BuildParams@@QEAAPEAUBV4Node@@XZ 00000001800c0910 f   GuBV4Build.obj
 0001:000bfd80       ?buildFromMesh@BV4_AABBTree@Gu@physx@@QEAA_NAEAVSourceMeshBase@23@IW4BV4_BuildStrategy@23@@Z 00000001800c0d80 f   GuBV4Build.obj
 0001:000c0e30       ?increaseCount@BuildStats@Gu@physx@@QEAAXI@Z 00000001800c1e30 f i GuBV4Build.obj
 0001:000c18c0       ?release@BV4_AABBTree@Gu@physx@@QEAAXXZ 00000001800c28c0 f   GuBV4Build.obj
 0001:000c1970       ?releaseNodes@BV4BuildParams@@QEAAXXZ 00000001800c2970 f   GuBV4Build.obj
 0001:000c19e0       ?reset@BuildStats@Gu@physx@@QEAAXXZ 00000001800c29e0 f i GuBV4Build.obj
 0001:000c19f0       ?setCount@BuildStats@Gu@physx@@QEAAXI@Z 00000001800c29f0 f i GuBV4Build.obj
 0001:000c2070       ?walk@BV4_AABBTree@Gu@physx@@QEBAIP6A_NPEBVAABBTreeNode@23@IPEAX@Z1@Z 00000001800c3070 f   GuBV4Build.obj
 0001:000c2130       ?walkDistance@BV4_AABBTree@Gu@physx@@QEBAIP6A_NPEBVAABBTreeNode@23@IPEAX@ZP6A_N01@Z1@Z 00000001800c3130 f   GuBV4Build.obj
 0001:000c6190       ?GenericSweep_AABB_CB@@YAXAEBVBox@Gu@physx@@AEBV?$PxVec3T@M@3@MAEBVBV4Tree@23@P6A_NPEAX111IAEAM@Z3I@Z 00000001800c7190 f   GuBV4_AABBSweep.obj
 0001:000c62f0       ?Sweep_AABB_BV4@@YAHAEBVBox@Gu@physx@@AEBV?$PxVec3T@M@3@MAEBVBV4Tree@23@PEIAVSweepHit@23@I@Z 00000001800c72f0 f   GuBV4_AABBSweep.obj
 0001:000cee70       ?BV4_OverlapBoxAll@@YAIAEBVBox@Gu@physx@@AEBVBV4Tree@23@PEIBV?$PxMat44T@M@3@PEAIIAEA_N@Z 00000001800cfe70 f   GuBV4_BoxOverlap.obj
 0001:000cf690       ?BV4_OverlapBoxAny@@YAHAEBVBox@Gu@physx@@AEBVBV4Tree@23@PEIBV?$PxMat44T@M@3@@Z 00000001800d0690 f   GuBV4_BoxOverlap.obj
 0001:000cfe50       ?BV4_OverlapBoxCB@@YAXAEBVBox@Gu@physx@@AEBVBV4Tree@23@P6A_NPEAXAEBV?$PxVec3T@M@3@333IPEBI@Z2@Z 00000001800d0e50 f   GuBV4_BoxOverlap.obj
 0001:000d0510       ?BV4_OverlapBoxCB@@YAXAEBVBox@Gu@physx@@AEBVBV4Tree@23@P6A_NPEAXAEBV?$PxVec3T@M@3@33IPEBI@Z2@Z 00000001800d1510 f   GuBV4_BoxOverlap.obj
 0001:000d09c0       ?BV4_OverlapCapsuleAll@@YAIAEBVCapsule@Gu@physx@@AEBVBV4Tree@23@PEIBV?$PxMat44T@M@3@PEAIIAEA_N@Z 00000001800d19c0 f   GuBV4_BoxOverlap.obj
 0001:000d10e0       ?BV4_OverlapCapsuleAny@@YAHAEBVCapsule@Gu@physx@@AEBVBV4Tree@23@PEIBV?$PxMat44T@M@3@@Z 00000001800d20e0 f   GuBV4_BoxOverlap.obj
 0001:000d3ec0       ?BV4_CapsuleSweepSingle@@YAHAEBVCapsule@Gu@physx@@AEBV?$PxVec3T@M@3@MAEBVBV4Tree@23@PEIAVSweepHit@23@I@Z 00000001800d4ec0 f   GuBV4_CapsuleSweep.obj
 0001:000d7fe0       ?BV4_CapsuleSweepSingleAA@@YAHAEBVCapsule@Gu@physx@@AEBV?$PxVec3T@M@3@MAEBVBV4Tree@23@PEIAVSweepHit@23@I@Z 00000001800d8fe0 f   GuBV4_CapsuleSweepAA.obj
 0001:000e80e0       ?BV4_OverlapMeshVsMesh@@YA_NAEAV?$PxReportCallback@UPxGeomIndexPair@physx@@@physx@@AEBVBV4Tree@Gu@2@1PEBV?$PxMat44T@M@2@2AEBV?$PxTransformT@M@2@3AEBVPxMeshScale@2@4V?$PxFlags@W4Enum@PxMeshMeshQueryFlag@physx@@I@2@@Z 00000001800e90e0 f   GuBV4_MeshMeshOverlap.obj
 0001:000e8300       ?BV4_OverlapMeshVsMesh@@YA_NAEAV?$PxReportCallback@UPxGeomIndexPair@physx@@@physx@@AEBVBV4Tree@Gu@2@1PEBV?$PxMat44T@M@2@2V?$PxFlags@W4Enum@PxMeshMeshQueryFlag@physx@@I@2@@Z 00000001800e9300 f   GuBV4_MeshMeshOverlap.obj
 0001:000ef590       ??D?$PxMat33T@M@physx@@QEBA?BV?$PxVec3T@M@1@AEBV21@@Z 00000001800f0590 f i GuBV4_OBBSweep.obj
 0001:000ef620       ?BV4_BoxSweepSingle@@YAHAEBVBox@Gu@physx@@AEBV?$PxVec3T@M@3@MAEBVBV4Tree@23@PEIBV?$PxMat44T@M@3@PEIAVSweepHit@23@I@Z 00000001800f0620 f   GuBV4_OBBSweep.obj
 0001:000efd50       ?BV4_GenericSweepCB@@YAXAEBVBox@Gu@physx@@AEBV?$PxVec3T@M@3@MAEBVBV4Tree@23@P6A_NPEAX111IAEAM@Z3_N@Z 00000001800f0d50 f   GuBV4_OBBSweep.obj
 0001:000eff70       ?Sweep_OBB_BV4@@YAHAEBVBox@Gu@physx@@AEBV?$PxVec3T@M@3@MAEBVBV4Tree@23@PEIAVSweepHit@23@I@Z 00000001800f0f70 f   GuBV4_OBBSweep.obj
 0001:000f2ae0       ?BV4_RaycastCB@@YAXAEBV?$PxVec3T@M@physx@@0AEBVBV4Tree@Gu@2@PEIBV?$PxMat44T@M@2@MMIP6A?AW4HitCode@42@PEAX000IMMM@Z3@Z 00000001800f3ae0 f   GuBV4_Raycast.obj
 0001:000f2f20       ?BV4_RaycastSingle@@YAHAEBV?$PxVec3T@M@physx@@0AEBVBV4Tree@Gu@2@PEIBV?$PxMat44T@M@2@PEIAUPxGeomRaycastHit@2@MMIV?$PxFlags@W4Enum@PxHitFlag@physx@@G@2@@Z 00000001800f3f20 f   GuBV4_Raycast.obj
 0001:000f5450       ?BV4_OverlapSphereAll@@YAIAEBVSphere@Gu@physx@@AEBVBV4Tree@23@PEIBV?$PxMat44T@M@3@PEAIIAEA_N@Z 00000001800f6450 f   GuBV4_SphereOverlap.obj
 0001:000f5770       ?BV4_OverlapSphereAny@@YAHAEBVSphere@Gu@physx@@AEBVBV4Tree@23@PEIBV?$PxMat44T@M@3@@Z 00000001800f6770 f   GuBV4_SphereOverlap.obj
 0001:000f5a50       ?BV4_PointDistance@@YAXAEBV?$PxVec3T@M@physx@@AEBVBV4Tree@Gu@2@MAEAIAEAMAEAV12@@Z 00000001800f6a50 f   GuBV4_SphereOverlap.obj
 0001:000fc400       ?BV4_GenericSweepCB_Old@@YAXAEBV?$PxVec3T@M@physx@@00MAEBVBV4Tree@Gu@2@PEIBV?$PxMat44T@M@2@P6A_NPEAX000IAEAM@Z3@Z 00000001800fd400 f   GuBV4_SphereSweep.obj
 0001:000fc810       ?BV4_SphereSweepSingle@@YAHAEBVSphere@Gu@physx@@AEBV?$PxVec3T@M@3@MAEBVBV4Tree@23@PEIBV?$PxMat44T@M@3@PEIAVSweepHit@23@I@Z 00000001800fd810 f   GuBV4_SphereSweep.obj
 0001:000fdb20       ?computeSweepData@physx@@YAMAEBVPxTriangleMeshGeometry@1@AEAV?$PxVec3T@M@1@11M@Z 00000001800feb20 f i GuMidphaseBV4.obj
 0001:000fef60       ?intersectBoxVsMesh_BV4@Gu@physx@@YA_NAEBVBox@12@AEBVTriangleMesh@12@AEBV?$PxTransformT@M@2@AEBVPxMeshScale@2@PEAULimitedResults@12@@Z 00000001800fff60 f   GuMidphaseBV4.obj
 0001:000ffa00       ?intersectCapsuleVsMesh_BV4@Gu@physx@@YA_NAEBVCapsule@12@AEBVTriangleMesh@12@AEBV?$PxTransformT@M@2@AEBVPxMeshScale@2@PEAULimitedResults@12@@Z 0000000180100a00 f   GuMidphaseBV4.obj
 0001:00100210       ?intersectMeshVsMesh_BV4@Gu@physx@@YA_NAEAV?$PxReportCallback@UPxGeomIndexPair@physx@@@2@AEBVTriangleMesh@12@1AEBV?$PxTransformT@M@2@2AEBVPxMeshScale@2@3V?$PxFlags@W4Enum@PxMeshMeshQueryFlag@physx@@I@2@@Z 0000000180101210 f   GuMidphaseBV4.obj
 0001:00100b20       ?intersectOBB_BV4@Gu@physx@@YAXPEBVTetrahedronMesh@12@AEBVBox@12@AEAU?$TetMeshHitCallback@UPxGeomRaycastHit@physx@@@12@@Z 0000000180101b20 f   GuMidphaseBV4.obj
 0001:00100b40       ?intersectOBB_BV4@Gu@physx@@YAXPEBVTriangleMesh@12@AEBVBox@12@AEAU?$MeshHitCallback@UPxGeomRaycastHit@physx@@@12@_N3@Z 0000000180101b40 f   GuMidphaseBV4.obj
 0001:00100b60       ?intersectSphereVsMesh_BV4@Gu@physx@@YA_NAEBVSphere@12@AEBVTriangleMesh@12@AEBV?$PxTransformT@M@2@AEBVPxMeshScale@2@PEAULimitedResults@12@@Z 0000000180101b60 f   GuMidphaseBV4.obj
 0001:00101260       ?pointMeshDistance_BV4@Gu@physx@@YAXPEBVTriangleMesh@12@AEBVPxTriangleMeshGeometry@2@AEBV?$PxTransformT@M@2@AEBV?$PxVec3T@M@2@MAEAIAEAMAEAV62@@Z 0000000180102260 f   GuMidphaseBV4.obj
 0001:00101910       ?raycast_triangleMesh_BV4@Gu@physx@@YAIPEBVTriangleMesh@12@AEBVPxTriangleMeshGeometry@2@AEBV?$PxTransformT@M@2@AEBV?$PxVec3T@M@2@3MV?$PxFlags@W4Enum@PxHitFlag@physx@@G@2@IPEIAUPxGeomRaycastHit@2@I@Z 0000000180102910 f   GuMidphaseBV4.obj
 0001:00102720       ?sweepBox_MeshGeom_BV4@Gu@physx@@YA_NPEBVTriangleMesh@12@AEBVPxTriangleMeshGeometry@2@AEBV?$PxTransformT@M@2@AEBVBox@12@AEBV?$PxVec3T@M@2@MAEAUPxGeomSweepHit@2@V?$PxFlags@W4Enum@PxHitFlag@physx@@G@2@M@Z 0000000180103720 f   GuMidphaseBV4.obj
 0001:00103e80       ?sweepCapsule_MeshGeom_BV4@Gu@physx@@YA_NPEBVTriangleMesh@12@AEBVPxTriangleMeshGeometry@2@AEBV?$PxTransformT@M@2@AEBVCapsule@12@AEBV?$PxVec3T@M@2@MAEAUPxGeomSweepHit@2@V?$PxFlags@W4Enum@PxHitFlag@physx@@G@2@M@Z 0000000180104e80 f   GuMidphaseBV4.obj
 0001:00104980       ?sweepConvex_MeshGeom_BV4@Gu@physx@@YAXPEBVTriangleMesh@12@AEBVBox@12@AEBV?$PxVec3T@M@2@MAEAUSweepConvexMeshHitCallback@12@_N@Z 0000000180105980 f   GuMidphaseBV4.obj
 0001:001049c0       ?transform@PxMeshScale@physx@@QEBA?AV?$PxVec3T@M@2@AEBV32@@Z 00000001801059c0 f i GuMidphaseBV4.obj
 0001:00104c00       ?findOverlapHeightField@PxMeshQuery@physx@@SAIAEBVPxGeometry@2@AEBV?$PxTransformT@M@2@AEBVPxHeightFieldGeometry@2@1PEAIIIAEA_NV?$PxFlags@W4Enum@PxGeometryQueryFlag@physx@@I@2@@Z 0000000180105c00 f   GuMeshQuery.obj
 0001:00105360       ?findOverlapTriangleMesh@PxMeshQuery@physx@@SAIAEBVPxGeometry@2@AEBV?$PxTransformT@M@2@AEBVPxTriangleMeshGeometry@2@1PEAIIIAEA_NV?$PxFlags@W4Enum@PxGeometryQueryFlag@physx@@I@2@@Z 0000000180106360 f   GuMeshQuery.obj
 0001:001056a0       ?findOverlapTriangleMesh@PxMeshQuery@physx@@SA_NAEAV?$PxReportCallback@UPxGeomIndexPair@physx@@@2@AEBVPxTriangleMeshGeometry@2@AEBV?$PxTransformT@M@2@12V?$PxFlags@W4Enum@PxGeometryQueryFlag@physx@@I@2@V?$PxFlags@W4Enum@PxMeshMeshQueryFlag@physx@@I@2@@Z 00000001801066a0 f   GuMeshQuery.obj
 0001:001057b0       ?getTriangle@PxMeshQuery@physx@@SAXAEBVPxHeightFieldGeometry@2@AEBV?$PxTransformT@M@2@IAEAVPxTriangle@2@PEAI3@Z 00000001801067b0 f   GuMeshQuery.obj
 0001:00105830       ?getTriangle@PxMeshQuery@physx@@SAXAEBVPxTriangleMeshGeometry@2@AEBV?$PxTransformT@M@2@IAEAVPxTriangle@2@PEAI3@Z 0000000180106830 f   GuMeshQuery.obj
 0001:00105d20       ?sweep@PxMeshQuery@physx@@SA_NAEBV?$PxVec3T@M@2@MAEBVPxGeometry@2@AEBV?$PxTransformT@M@2@IPEBVPxTriangle@2@AEAUPxGeomSweepHit@2@V?$PxFlags@W4Enum@PxHitFlag@physx@@G@2@PEBIM_NV?$PxFlags@W4Enum@PxGeometryQueryFlag@physx@@I@2@@Z 0000000180106d20 f   GuMeshQuery.obj
 0001:00105fa0       ??$collide@$00$00@MeshRayCollider@@SAXAEBV?$PxVec3T@M@physx@@0M_NPEBVRTreeTriangleMesh@Gu@2@AEAU?$MeshHitCallback@UPxGeomRaycastHit@physx@@@42@PEBV12@@Z 0000000180106fa0 f i GuMidphaseRTree.obj
 0001:00106310       ??$collide@$00$0A@@MeshRayCollider@@SAXAEBV?$PxVec3T@M@physx@@0M_NPEBVRTreeTriangleMesh@Gu@2@AEAU?$MeshHitCallback@UPxGeomRaycastHit@physx@@@42@PEBV12@@Z 0000000180107310 f i GuMidphaseRTree.obj
 0001:00106550       ??$collide@$0A@$00@MeshRayCollider@@SAXAEBV?$PxVec3T@M@physx@@0M_NPEBVRTreeTriangleMesh@Gu@2@AEAU?$MeshHitCallback@UPxGeomRaycastHit@physx@@@42@PEBV12@@Z 0000000180107550 f i GuMidphaseRTree.obj
 0001:001088a0       ??0?$RayRTreeCallback@$00$0A@@@QEAA@MAEAU?$MeshHitCallback@UPxGeomRaycastHit@physx@@@Gu@physx@@HPEBXPEBV?$PxVec3T@M@3@AEBV43@3M_N2@Z 00000001801098a0 f i GuMidphaseRTree.obj
 0001:001089c0       ??1?$RayRTreeCallback@$00$00@@UEAA@XZ 00000001801099c0 f i GuMidphaseRTree.obj
 0001:00108a50       ??1?$RayRTreeCallback@$00$0A@@@UEAA@XZ 0000000180109a50 f i GuMidphaseRTree.obj
 0001:00108a50       ??1?$RayRTreeCallback@$0A@$0A@@@UEAA@XZ 0000000180109a50 f i GuMidphaseRTree.obj
 0001:00108ae0       ??1?$RayRTreeCallback@$0A@$00@@UEAA@XZ 0000000180109ae0 f i GuMidphaseRTree.obj
 0001:00108b68       ??_E?$RayRTreeCallback@$00$00@@W7EAAPEAXI@Z 0000000180109b68 f i GuMidphaseRTree.obj
 0001:00108b74       ??_E?$RayRTreeCallback@$00$0A@@@W7EAAPEAXI@Z 0000000180109b74 f i GuMidphaseRTree.obj
 0001:00108b74       ??_E?$RayRTreeCallback@$0A@$0A@@@W7EAAPEAXI@Z 0000000180109b74 f i GuMidphaseRTree.obj
 0001:00108b80       ??_E?$RayRTreeCallback@$0A@$00@@W7EAAPEAXI@Z 0000000180109b80 f i GuMidphaseRTree.obj
 0001:00108bf0       ??_G?$RayRTreeCallback@$00$00@@UEAAPEAXI@Z 0000000180109bf0 f i GuMidphaseRTree.obj
 0001:00108bf0       ??_E?$RayRTreeCallback@$00$00@@UEAAPEAXI@Z 0000000180109bf0 f i GuMidphaseRTree.obj
 0001:00108c30       ??_E?$RayRTreeCallback@$0A@$0A@@@UEAAPEAXI@Z 0000000180109c30 f i GuMidphaseRTree.obj
 0001:00108c30       ??_G?$RayRTreeCallback@$0A@$0A@@@UEAAPEAXI@Z 0000000180109c30 f i GuMidphaseRTree.obj
 0001:00108c30       ??_G?$RayRTreeCallback@$00$0A@@@UEAAPEAXI@Z 0000000180109c30 f i GuMidphaseRTree.obj
 0001:00108c30       ??_E?$RayRTreeCallback@$00$0A@@@UEAAPEAXI@Z 0000000180109c30 f i GuMidphaseRTree.obj
 0001:00108c70       ??_E?$RayRTreeCallback@$0A@$00@@UEAAPEAXI@Z 0000000180109c70 f i GuMidphaseRTree.obj
 0001:00108c70       ??_G?$RayRTreeCallback@$0A@$00@@UEAAPEAXI@Z 0000000180109c70 f i GuMidphaseRTree.obj
 0001:00108cb0       ??_GCallback@RTree@Gu@physx@@UEAAPEAXI@Z 0000000180109cb0 f i GuMidphaseRTree.obj
 0001:00108cb0       ??_ECallback@RTree@Gu@physx@@UEAAPEAXI@Z 0000000180109cb0 f i GuMidphaseRTree.obj
 0001:00108ce0       ??_ERayMeshColliderCallback@@UEAAPEAXI@Z 0000000180109ce0 f i GuMidphaseRTree.obj
 0001:00108ce0       ??_ESweepCapsuleMeshHitCallback@Gu@physx@@UEAAPEAXI@Z 0000000180109ce0 f i GuSweepsMesh.obj
 0001:00108ce0       ??_GRayMeshColliderCallback@@UEAAPEAXI@Z 0000000180109ce0 f i GuMidphaseRTree.obj
 0001:00108ce0       ??_GSweepCapsuleMeshHitCallback@Gu@physx@@UEAAPEAXI@Z 0000000180109ce0 f i GuSweepsMesh.obj
 0001:00108d10       ?collideOBB@MeshRayCollider@@SAXAEBVBox@Gu@physx@@_NPEBVRTreeTriangleMesh@34@AEAU?$MeshHitCallback@UPxGeomRaycastHit@physx@@@34@1@Z 0000000180109d10 f   GuMidphaseRTree.obj
 0001:001091e0       ?intersectBoxVsMesh_RTREE@Gu@physx@@YA_NAEBVBox@12@AEBVTriangleMesh@12@AEBV?$PxTransformT@M@2@AEBVPxMeshScale@2@PEAULimitedResults@12@@Z 000000018010a1e0 f   GuMidphaseRTree.obj
 0001:00109250       ?intersectCapsuleVsMesh_RTREE@Gu@physx@@YA_NAEBVCapsule@12@AEBVTriangleMesh@12@AEBV?$PxTransformT@M@2@AEBVPxMeshScale@2@PEAULimitedResults@12@@Z 000000018010a250 f   GuMidphaseRTree.obj
 0001:001092d0       ?intersectOBB_RTREE@Gu@physx@@YAXPEBVTriangleMesh@12@AEBVBox@12@AEAU?$MeshHitCallback@UPxGeomRaycastHit@physx@@@12@_N3@Z 000000018010a2d0 f   GuMidphaseRTree.obj
 0001:00109300       ?intersectSphereVsMesh_RTREE@Gu@physx@@YA_NAEBVSphere@12@AEBVTriangleMesh@12@AEBV?$PxTransformT@M@2@AEBVPxMeshScale@2@PEAULimitedResults@12@@Z 000000018010a300 f   GuMidphaseRTree.obj
 0001:00109330       ?pointMeshDistance_RTREE@Gu@physx@@YAXPEBVTriangleMesh@12@AEBVPxTriangleMeshGeometry@2@AEBV?$PxTransformT@M@2@AEBV?$PxVec3T@M@2@MAEAIAEAMAEAV62@@Z 000000018010a330 f   GuMidphaseRTree.obj
 0001:0010a130       ?processHit@RayMeshColliderCallback@@UEAA_NAEBUPxGeomRaycastHit@physx@@AEBV?$PxVec3T@M@3@11AEAMPEBI@Z 000000018010b130 f i GuMidphaseRTree.obj
 0001:0010a8e0       ?processResults@?$RayRTreeCallback@$00$00@@UEAA_NIPEAI@Z 000000018010b8e0 f i GuMidphaseRTree.obj
 0001:0010ac50       ?processResults@?$RayRTreeCallback@$00$00@@UEAA_NIPEAIAEAM@Z 000000018010bc50 f i GuMidphaseRTree.obj
 0001:0010afc0       ?processResults@?$RayRTreeCallback@$00$0A@@@UEAA_NIPEAI@Z 000000018010bfc0 f i GuMidphaseRTree.obj
 0001:0010afc0       ?processResults@?$RayRTreeCallback@$0A@$0A@@@UEAA_NIPEAI@Z 000000018010bfc0 f i GuMidphaseRTree.obj
 0001:0010b230       ?processResults@?$RayRTreeCallback@$00$0A@@@UEAA_NIPEAIAEAM@Z 000000018010c230 f i GuMidphaseRTree.obj
 0001:0010b230       ?processResults@?$RayRTreeCallback@$0A@$0A@@@UEAA_NIPEAIAEAM@Z 000000018010c230 f i GuMidphaseRTree.obj
 0001:0010b4a0       ?processResults@?$RayRTreeCallback@$0A@$00@@UEAA_NIPEAI@Z 000000018010c4a0 f i GuMidphaseRTree.obj
 0001:0010bad0       ?processResults@?$RayRTreeCallback@$0A@$00@@UEAA_NIPEAIAEAM@Z 000000018010cad0 f i GuMidphaseRTree.obj
 0001:0010c120       ?raycast_triangleMesh_RTREE@Gu@physx@@YAIPEBVTriangleMesh@12@AEBVPxTriangleMeshGeometry@2@AEBV?$PxTransformT@M@2@AEBV?$PxVec3T@M@2@3MV?$PxFlags@W4Enum@PxHitFlag@physx@@G@2@IPEIAUPxGeomRaycastHit@2@I@Z 000000018010d120 f   GuMidphaseRTree.obj
 0001:0010c8a0       ?sweepBox_MeshGeom_RTREE@Gu@physx@@YA_NPEBVTriangleMesh@12@AEBVPxTriangleMeshGeometry@2@AEBV?$PxTransformT@M@2@AEBVBox@12@AEBV?$PxVec3T@M@2@MAEAUPxGeomSweepHit@2@V?$PxFlags@W4Enum@PxHitFlag@physx@@G@2@M@Z 000000018010d8a0 f   GuMidphaseRTree.obj
 0001:0010dd80       ?sweepCapsule_MeshGeom_RTREE@Gu@physx@@YA_NPEBVTriangleMesh@12@AEBVPxTriangleMeshGeometry@2@AEBV?$PxTransformT@M@2@AEBVCapsule@12@AEBV?$PxVec3T@M@2@MAEAUPxGeomSweepHit@2@V?$PxFlags@W4Enum@PxHitFlag@physx@@G@2@M@Z 000000018010ed80 f   GuMidphaseRTree.obj
 0001:0010e530       ?sweepConvex_MeshGeom_RTREE@Gu@physx@@YAXPEBVTriangleMesh@12@AEBVBox@12@AEBV?$PxVec3T@M@2@MAEAUSweepConvexMeshHitCallback@12@_N@Z 000000018010f530 f   GuMidphaseRTree.obj
 0001:0010eeb0       ??_G?$PxReportCallback@UPxGeomIndexPair@physx@@@physx@@UEAAPEAXI@Z 000000018010feb0 f i GuOverlapTestsMesh.obj
 0001:0010eeb0       ??_E?$PxReportCallback@UPxGeomIndexPair@physx@@@physx@@UEAAPEAXI@Z 000000018010feb0 f i GuOverlapTestsMesh.obj
 0001:0010ef40       ?GeomOverlapCallback_BoxMesh@@YA_NAEBVPxGeometry@physx@@AEBV?$PxTransformT@M@2@01PEAUTriggerCache@Gu@2@PEAUPxQueryThreadContext@2@@Z 000000018010ff40 f   GuOverlapTestsMesh.obj
 0001:0010f050       ?GeomOverlapCallback_CapsuleMesh@@YA_NAEBVPxGeometry@physx@@AEBV?$PxTransformT@M@2@01PEAUTriggerCache@Gu@2@PEAUPxQueryThreadContext@2@@Z 0000000180110050 f   GuOverlapTestsMesh.obj
 0001:0010f160       ?GeomOverlapCallback_ConvexMesh@@YA_NAEBVPxGeometry@physx@@AEBV?$PxTransformT@M@2@01PEAUTriggerCache@Gu@2@PEAUPxQueryThreadContext@2@@Z 0000000180110160 f   GuOverlapTestsMesh.obj
 0001:0010f660       ?GeomOverlapCallback_MeshMesh@@YA_NAEBVPxGeometry@physx@@AEBV?$PxTransformT@M@2@01PEAUTriggerCache@Gu@2@PEAUPxQueryThreadContext@2@@Z 0000000180110660 f   GuOverlapTestsMesh.obj
 0001:0010f720       ?GeomOverlapCallback_SphereMesh@@YA_NAEBVPxGeometry@physx@@AEBV?$PxTransformT@M@2@01PEAUTriggerCache@Gu@2@PEAUPxQueryThreadContext@2@@Z 0000000180110720 f   GuOverlapTestsMesh.obj
 0001:0010fb10       ??0RTree@Gu@physx@@QEAA@W4PxEMPTY@2@@Z 0000000180110b10 f   GuRTree.obj
 0001:0010fb20       ?exportExtraData@RTree@Gu@physx@@QEAAXAEAVPxSerializationContext@3@@Z 0000000180110b20 f   GuRTree.obj
 0001:0010fb60       ?importExtraData@RTree@Gu@physx@@QEAAXAEAVPxDeserializationContext@3@@Z 0000000180110b60 f   GuRTree.obj
 0001:0010fb90       ?load@RTree@Gu@physx@@QEAA_NAEAVPxInputStream@3@I_N@Z 0000000180110b90 f   GuRTree.obj
 0001:0010fe90       ?refitAllStaticTree@RTree@Gu@physx@@QEAAXAEAUCallbackRefit@123@PEAVPxBounds3@3@@Z 0000000180110e90 f   GuRTree.obj
 0001:001103f0       ?validate@RTree@Gu@physx@@QEAAXPEAUCallbackRefit@123@@Z 00000001801113f0 f   GuRTree.obj
 0001:00110550       ?validateRecursive@RTree@Gu@physx@@IEAAXIURTreeNodeQ@23@PEAURTreePage@23@PEAUCallbackRefit@123@@Z 0000000180111550 f   GuRTree.obj
 0001:00110680       ??$traverseRay@$00@RTree@Gu@physx@@QEBAXAEBV?$PxVec3T@M@2@0IPEAIPEAUCallbackRaycast@012@PEBV32@M@Z 0000000180111680 f i GuRTreeQueries.obj
 0001:00110a20       ??$traverseRay@$0A@@RTree@Gu@physx@@QEBAXAEBV?$PxVec3T@M@2@0IPEAIPEAUCallbackRaycast@012@PEBV32@M@Z 0000000180111a20 f i GuRTreeQueries.obj
 0001:00110d70       ?traverseAABB@RTree@Gu@physx@@QEBAXAEBV?$PxVec3T@M@3@0IPEAIPEAUCallback@123@@Z 0000000180111d70 f   GuRTreeQueries.obj
 0001:00110f30       ?traverseOBB@RTree@Gu@physx@@QEBAXAEBVBox@23@IPEAIPEAUCallback@123@@Z 0000000180111f30 f   GuRTreeQueries.obj
 0001:00111810       ??0SweepBoxMeshHitCallback@Gu@physx@@QEAA@W4Enum@CallbackMode@12@AEBVPxMat34Padded@2@M_NAEBVBox@12@AEBV?$PxVec3T@M@2@44AEBV?$PxFlags@W4Enum@PxHitFlag@physx@@G@2@M2M@Z 0000000180112810 f   GuSweepsMesh.obj
 0001:00111920       ??0SweepCapsuleMeshHitCallback@Gu@physx@@QEAA@AEAUPxGeomSweepHit@2@AEBV?$PxMat34T@M@2@M_NAEBVCapsule@12@AEBV?$PxVec3T@M@2@AEBV?$PxFlags@W4Enum@PxHitFlag@physx@@G@2@2M@Z 0000000180112920 f   GuSweepsMesh.obj
 0001:001119f0       ??0SweepConvexMeshHitCallback@Gu@physx@@QEAA@AEBUConvexHullData@12@AEBVPxMeshScale@2@AEBVFastVertex2ShapeScaling@Cm@2@AEBV?$PxTransformT@M@2@3AEBV?$PxVec3T@M@2@MV?$PxFlags@W4Enum@PxHitFlag@physx@@G@2@_NM6M@Z 00000001801129f0 f   GuSweepsMesh.obj
 0001:00112350       ??_GSweepBoxMeshHitCallback@Gu@physx@@UEAAPEAXI@Z 0000000180113350 f i GuSweepsMesh.obj
 0001:00112350       ??_ESweepBoxMeshHitCallback@Gu@physx@@UEAAPEAXI@Z 0000000180113350 f i GuSweepsMesh.obj
 0001:00112380       ??_ESweepConvexMeshHitCallback@Gu@physx@@UEAAPEAXI@Z 0000000180113380 f i GuSweepsMesh.obj
 0001:00112380       ??_GSweepConvexMeshHitCallback@Gu@physx@@UEAAPEAXI@Z 0000000180113380 f i GuSweepsMesh.obj
 0001:001123b0       ??_ESweepShapeMeshHitCallback@Gu@physx@@UEAAPEAXI@Z 00000001801133b0 f i GuSweepsMesh.obj
 0001:001123b0       ??_GSweepShapeMeshHitCallback@Gu@physx@@UEAAPEAXI@Z 00000001801133b0 f i GuSweepsMesh.obj
 0001:001123e0       ?finalizeHit@SweepBoxMeshHitCallback@Gu@physx@@QEBA_NAEAUPxGeomSweepHit@3@AEBVPxTriangleMeshGeometry@3@AEBV?$PxTransformT@M@3@2AEBV?$PxVec3T@M@3@_N4@Z 00000001801133e0 f   GuSweepsMesh.obj
 0001:00112aa0       ?finalizeHit@SweepCapsuleMeshHitCallback@Gu@physx@@QEBA_NAEAUPxGeomSweepHit@3@AEBVCapsule@23@AEBVPxTriangleMeshGeometry@3@AEBV?$PxTransformT@M@3@_N@Z 0000000180113aa0 f   GuSweepsMesh.obj
 0001:00112c50       ?finalizeHit@SweepConvexMeshHitCallback@Gu@physx@@QEAA_NAEAUPxGeomSweepHit@3@AEBVPxTriangleMeshGeometry@3@AEBV?$PxTransformT@M@3@AEBVPxConvexMeshGeometry@3@2AEBV?$PxVec3T@M@3@M_N555@Z 0000000180113c50 f   GuSweepsMesh.obj
 0001:00113130       ?processHit@SweepBoxMeshHitCallback@Gu@physx@@UEAA_NAEBUPxGeomRaycastHit@3@AEBV?$PxVec3T@M@3@11AEAMPEBI@Z 0000000180114130 f   GuSweepsMesh.obj
 0001:00113930       ?processHit@SweepCapsuleMeshHitCallback@Gu@physx@@UEAA_NAEBUPxGeomRaycastHit@3@AEBV?$PxVec3T@M@3@11AEAMPEBI@Z 0000000180114930 f   GuSweepsMesh.obj
 0001:00113e90       ?processHit@SweepConvexMeshHitCallback@Gu@physx@@UEAA_NAEBUPxGeomRaycastHit@3@AEBV?$PxVec3T@M@3@11AEAMPEBI@Z 0000000180114e90 f   GuSweepsMesh.obj
 0001:001145d0       ?sweepBox_MeshGeom@@YA_NAEBVPxGeometry@physx@@AEBV?$PxTransformT@M@2@AEBVPxBoxGeometry@2@1AEBVBox@Gu@2@AEBV?$PxVec3T@M@2@MAEAUPxGeomSweepHit@2@V?$PxFlags@W4Enum@PxHitFlag@physx@@G@2@MPEAUPxQueryThreadContext@2@@Z 00000001801155d0 f   GuSweepsMesh.obj
 0001:00114660       ?sweepCapsule_MeshGeom@@YA_NAEBVPxGeometry@physx@@AEBV?$PxTransformT@M@2@AEBVPxCapsuleGeometry@2@1AEBVCapsule@Gu@2@AEBV?$PxVec3T@M@2@MAEAUPxGeomSweepHit@2@V?$PxFlags@W4Enum@PxHitFlag@physx@@G@2@MPEAUPxQueryThreadContext@2@@Z 0000000180115660 f   GuSweepsMesh.obj
 0001:001146f0       ?sweepConvex_MeshGeom@@YA_NAEBVPxGeometry@physx@@AEBV?$PxTransformT@M@2@AEBVPxConvexMeshGeometry@2@1AEBV?$PxVec3T@M@2@MAEAUPxGeomSweepHit@2@V?$PxFlags@W4Enum@PxHitFlag@physx@@G@2@MPEAUPxQueryThreadContext@2@@Z 00000001801156f0 f   GuSweepsMesh.obj
 0001:00115230       ??0TriangleMesh@Gu@physx@@QEAA@AEBUPxTriangleMeshInternalData@2@@Z 0000000180116230 f   GuTriangleMesh.obj
 0001:00115310       ??0TriangleMesh@Gu@physx@@QEAA@PEAVMeshFactory@12@AEAVTriangleMeshData@12@@Z 0000000180116310 f   GuTriangleMesh.obj
 0001:00115690       ??1TriangleMesh@Gu@physx@@UEAA@XZ 0000000180116690 f   GuTriangleMesh.obj
 0001:00115900       ??_ETriangleMesh@Gu@physx@@UEAAPEAXI@Z 0000000180116900 f i GuTriangleMesh.obj
 0001:00115900       ??_GTriangleMesh@Gu@physx@@UEAAPEAXI@Z 0000000180116900 f i GuTriangleMesh.obj
 0001:00115970       ?exportExtraData@TriangleMesh@Gu@physx@@UEAAXAEAVPxSerializationContext@3@@Z 0000000180116970 f   GuTriangleMesh.obj
 0001:00115b40       ?getLocalBounds@TriangleMesh@Gu@physx@@UEBA?AVPxBounds3@3@XZ 0000000180116b40 f i GuTriangleMesh.obj
 0001:00115bd0       ?getMassInformation@TriangleMesh@Gu@physx@@UEBAXAEAMAEAV?$PxMat33T@M@3@AEAV?$PxVec3T@M@3@@Z 0000000180116bd0 f i GuTriangleMesh.obj
 0001:00115c50       ?getNbTriangles@TriangleMesh@Gu@physx@@UEBAIXZ 0000000180116c50 f i GuTriangleMesh.obj
 0001:00115c60       ?getPreferSDFProjection@TriangleMesh@Gu@physx@@UEBA_NXZ 0000000180116c60 f i GuTriangleMesh.obj
 0001:00115c70       ?getSDF@TriangleMesh@Gu@physx@@UEBAPEBMXZ 0000000180116c70 f i GuTriangleMesh.obj
 0001:00115c80       ?getSDFDimensions@TriangleMesh@Gu@physx@@UEBAXAEAI00@Z 0000000180116c80 f i GuTriangleMesh.obj
 0001:00115cb0       ?getTriangleMaterialIndex@TriangleMesh@Gu@physx@@UEBAGI@Z 0000000180116cb0 f i GuTriangleMesh.obj
 0001:00115cd0       ?getTriangleMeshFlags@TriangleMesh@Gu@physx@@UEBA?AV?$PxFlags@W4Enum@PxTriangleMeshFlag@physx@@E@3@XZ 0000000180116cd0 f i GuTriangleMesh.obj
 0001:00115ce0       ?getTrianglesRemap@TriangleMesh@Gu@physx@@UEBAPEBIXZ 0000000180116ce0 f i GuTriangleMesh.obj
 0001:00115cf0       ?getVerticesForModification@TriangleMesh@Gu@physx@@UEAAPEAV?$PxVec3T@M@3@XZ 0000000180116cf0 f   GuTriangleMesh.obj
 0001:00115d30       ?importExtraData@TriangleMesh@Gu@physx@@QEAAXAEAVPxDeserializationContext@3@@Z 0000000180116d30 f   GuTriangleMesh.obj
 0001:00115ed0       ?isKindOf@PxTriangleMesh@physx@@MEBA_NPEBD@Z 0000000180116ed0 f i GuTriangleMesh.obj
 0001:00115f40       ?onRefCountZero@TriangleMesh@Gu@physx@@UEAAXXZ 0000000180116f40 f   GuTriangleMesh.obj
 0001:00116010       ?refitBVH@TriangleMesh@Gu@physx@@UEAA?AVPxBounds3@3@XZ 0000000180117010 f   GuTriangleMesh.obj
 0001:001160e0       ?requestEdgeList@TriangleMesh@Gu@physx@@QEBAPEBVEdgeList@23@XZ 00000001801170e0 f   GuTriangleMesh.obj
 0001:001161c0       ?setAllEdgesActive@TriangleMesh@Gu@physx@@QEAAXXZ 00000001801171c0 f   GuTriangleMesh.obj
 0001:001162b0       ?setPreferSDFProjection@TriangleMesh@Gu@physx@@UEAAX_N@Z 00000001801172b0 f i GuTriangleMesh.obj
 0001:001162e0       ??0BV4TriangleMesh@Gu@physx@@QEAA@AEBUPxTriangleMeshInternalData@2@@Z 00000001801172e0 f   GuTriangleMeshBV4.obj
 0001:00116450       ??0BV4TriangleMesh@Gu@physx@@QEAA@PEAVMeshFactory@12@AEAVTriangleMeshData@12@@Z 0000000180117450 f   GuTriangleMeshBV4.obj
 0001:001164e0       ??_EBV4TriangleMesh@Gu@physx@@UEAAPEAXI@Z 00000001801174e0 f i GuTriangleMeshBV4.obj
 0001:001164e0       ??_GBV4TriangleMesh@Gu@physx@@UEAAPEAXI@Z 00000001801174e0 f i GuTriangleMeshBV4.obj
 0001:00116570       ?createObject@BV4TriangleMesh@Gu@physx@@SAPEAVTriangleMesh@23@AEAPEAEAEAVPxDeserializationContext@3@@Z 0000000180117570 f   GuTriangleMeshBV4.obj
 0001:00116660       ?exportExtraData@BV4TriangleMesh@Gu@physx@@UEAAXAEAVPxSerializationContext@3@@Z 0000000180117660 f   GuTriangleMeshBV4.obj
 0001:001166a0       ?getConcreteTypeName@BV4TriangleMesh@Gu@physx@@UEBAPEBDXZ 00000001801176a0 f i GuTriangleMeshBV4.obj
 0001:001166b0       ?getInternalData@BV4TriangleMesh@Gu@physx@@UEBA_NAEAUPxTriangleMeshInternalData@3@_N@Z 00000001801176b0 f   GuTriangleMeshBV4.obj
 0001:001167a0       _get_startup_argv_mode     00000001801177a0 f i LIBCMT:argv_mode.obj
 0001:001167a0       ?length@charNode@@UEBAHXZ  00000001801177a0 f i libvcruntime:undname.obj
 0001:001167a0       ?raw_length@charNode@@UEBAHXZ 00000001801177a0 f i libvcruntime:undname.obj
 0001:001167a0       ?getMidphaseID@BV4TriangleMesh@Gu@physx@@UEBA?AW4Enum@PxMeshMidPhase@3@XZ 00000001801177a0 f i GuTriangleMeshBV4.obj
 0001:001167a0       DllMain                    00000001801177a0 f i LIBCMT:dll_dllmain_stub.obj
 0001:001167a0       ?getMidphaseID@BV4TriangleMeshBuilder@physx@@UEBA?AW4Enum@PxMeshMidPhase@2@XZ 00000001801177a0 f i GuCookingTriangleMesh.obj
 0001:001167b0       ?getVerticesForModification@RTreeTriangleMesh@Gu@physx@@UEAAPEAV?$PxVec3T@M@3@XZ 00000001801177b0 f   GuTriangleMeshRTree.obj
 0001:001167b0       ?getVerticesForModification@BV4TriangleMesh@Gu@physx@@UEAAPEAV?$PxVec3T@M@3@XZ 00000001801177b0 f   GuTriangleMeshBV4.obj
 0001:001167c0       ?refitBVH@BV4TriangleMesh@Gu@physx@@UEAA?AVPxBounds3@3@XZ 00000001801177c0 f   GuTriangleMeshBV4.obj
 0001:00116930       PxGetTriangleMeshInternalData 0000000180117930 f   GuTriangleMeshBV4.obj
 0001:00116950       ??0RTreeTriangleMesh@Gu@physx@@QEAA@PEAVMeshFactory@12@AEAVTriangleMeshData@12@@Z 0000000180117950 f   GuTriangleMeshRTree.obj
 0001:00116ac0       ??_E?$RefitCallback@I@physx@@UEAAPEAXI@Z 0000000180117ac0 f i GuTriangleMeshRTree.obj
 0001:00116ac0       ??_G?$RefitCallback@G@physx@@UEAAPEAXI@Z 0000000180117ac0 f i GuTriangleMeshRTree.obj
 0001:00116ac0       ??_E?$RefitCallback@G@physx@@UEAAPEAXI@Z 0000000180117ac0 f i GuTriangleMeshRTree.obj
 0001:00116ac0       ??_G?$RefitCallback@I@physx@@UEAAPEAXI@Z 0000000180117ac0 f i GuTriangleMeshRTree.obj
 0001:00116af0       ??_ERTreeTriangleMesh@Gu@physx@@UEAAPEAXI@Z 0000000180117af0 f i GuTriangleMeshRTree.obj
 0001:00116af0       ??_GRTreeTriangleMesh@Gu@physx@@UEAAPEAXI@Z 0000000180117af0 f i GuTriangleMeshRTree.obj
 0001:00116ba0       ?createObject@RTreeTriangleMesh@Gu@physx@@SAPEAVTriangleMesh@23@AEAPEAEAEAVPxDeserializationContext@3@@Z 0000000180117ba0 f   GuTriangleMeshRTree.obj
 0001:00116c40       ?exportExtraData@RTreeTriangleMesh@Gu@physx@@UEAAXAEAVPxSerializationContext@3@@Z 0000000180117c40 f   GuTriangleMeshRTree.obj
 0001:00116c80       ?getConcreteTypeName@RTreeTriangleMesh@Gu@physx@@UEBAPEBDXZ 0000000180117c80 f i GuTriangleMeshRTree.obj
 0001:00116c90       ?recomputeBounds@?$RefitCallback@G@physx@@UEAAXIAEAT__m128@@0@Z 0000000180117c90 f i GuTriangleMeshRTree.obj
 0001:00116fc0       ?recomputeBounds@?$RefitCallback@I@physx@@UEAAXIAEAT__m128@@0@Z 0000000180117fc0 f i GuTriangleMeshRTree.obj
 0001:001172e0       ?refitBVH@RTreeTriangleMesh@Gu@physx@@UEAA?AVPxBounds3@3@XZ 00000001801182e0 f   GuTriangleMeshRTree.obj
 0001:00117400       ??0BV32Tree@Gu@physx@@QEAA@XZ 0000000180118400 f   GuBV32.obj
 0001:00117430       ??1BV32Tree@Gu@physx@@QEAA@XZ 0000000180118430 f   GuBV32.obj
 0001:00117440       ?calculateLeafNode@BV32Tree@Gu@physx@@QEAAXAEAUBV32Data@23@@Z 0000000180118440 f   GuBV32.obj
 0001:00117680       ?createSOAformatNode@BV32Tree@Gu@physx@@QEAAXAEAUBV32DataPacked@23@AEBUBV32Data@23@IAEAI2@Z 0000000180118680 f   GuBV32.obj
 0001:00117ae0       ?load@BV32Tree@Gu@physx@@QEAA_NAEAVPxInputStream@3@_N@Z 0000000180118ae0 f   GuBV32.obj
 0001:00117e20       ?release@BV32Tree@Gu@physx@@QEAAXXZ 0000000180118e20 f   GuBV32.obj
 0001:00117ee0       ??0BV32Node@@QEAA@XZ       0000000180118ee0 f i GuBV32Build.obj
 0001:00118360       ?BuildBV32Ex@Gu@physx@@YA_NAEAVBV32Tree@12@AEAVSourceMeshBase@12@MI@Z 0000000180119360 f   GuBV32Build.obj
 0001:00119310       ??0BVTetrahedronMesh@Gu@physx@@QEAA@AEAVTetrahedronMeshData@12@AEAVSoftBodyCollisionData@12@PEAVMeshFactory@12@@Z 000000018011a310 f   GuTetrahedronMesh.obj
 0001:00119570       ??0SoftBodyMesh@Gu@physx@@QEAA@PEAVMeshFactory@12@AEAVSoftBodyMeshData@12@@Z 000000018011a570 f   GuTetrahedronMesh.obj
 0001:00119910       ??0TetrahedronMesh@Gu@physx@@QEAA@PEAVMeshFactory@12@AEAVTetrahedronMeshData@12@@Z 000000018011a910 f   GuTetrahedronMesh.obj
 0001:00119a00       ??1SoftBodyAuxData@Gu@physx@@UEAA@XZ 000000018011aa00 f   GuTetrahedronMesh.obj
 0001:00119c80       ??1TetrahedronMesh@Gu@physx@@UEAA@XZ 000000018011ac80 f   GuTetrahedronMesh.obj
 0001:00119d20       ??_EBVTetrahedronMesh@Gu@physx@@UEAAPEAXI@Z 000000018011ad20 f i GuTetrahedronMesh.obj
 0001:00119d20       ??_GBVTetrahedronMesh@Gu@physx@@UEAAPEAXI@Z 000000018011ad20 f i GuTetrahedronMesh.obj
 0001:00119ea0       ??_ESoftBodyAuxData@Gu@physx@@UEAAPEAXI@Z 000000018011aea0 f i GuTetrahedronMesh.obj
 0001:00119ea0       ??_GSoftBodyAuxData@Gu@physx@@UEAAPEAXI@Z 000000018011aea0 f i GuTetrahedronMesh.obj
 0001:00119f10       ??_ESoftBodyMesh@Gu@physx@@UEAAPEAXI@Z 000000018011af10 f i GuTetrahedronMesh.obj
 0001:00119f10       ??_GSoftBodyMesh@Gu@physx@@UEAAPEAXI@Z 000000018011af10 f i GuTetrahedronMesh.obj
 0001:00119fe0       ??_ETetrahedronMesh@Gu@physx@@UEAAPEAXI@Z 000000018011afe0 f i GuTetrahedronMesh.obj
 0001:00119fe0       ??_GTetrahedronMesh@Gu@physx@@UEAAPEAXI@Z 000000018011afe0 f i GuTetrahedronMesh.obj
 0001:0011a050       ?exportExtraData@SoftBodyMesh@Gu@physx@@UEAAXAEAVPxSerializationContext@3@@Z 000000018011b050 f   GuTetrahedronMesh.obj
 0001:0011a140       ?getConcreteTypeName@SoftBodyAuxData@Gu@physx@@UEBAPEBDXZ 000000018011b140 f i GuTetrahedronMesh.obj
 0001:0011a150       ?getConcreteTypeName@SoftBodyMesh@Gu@physx@@UEBAPEBDXZ 000000018011b150 f i GuTetrahedronMesh.obj
 0001:0011a160       ?getConcreteTypeName@TetrahedronMesh@Gu@physx@@UEBAPEBDXZ 000000018011b160 f i GuTetrahedronMesh.obj
 0001:0011a170       ?getLocalBounds@TetrahedronMesh@Gu@physx@@UEBA?AVPxBounds3@3@XZ 000000018011b170 f i GuTetrahedronMesh.obj
 0001:0011a200       ?getNbTetrahedrons@TetrahedronMesh@Gu@physx@@UEBAIXZ 000000018011b200 f i GuTetrahedronMesh.obj
 0001:0011a210       ?getBounds@BVH@Gu@physx@@UEBAPEBVPxBounds3@3@XZ 000000018011b210 f i GuBVH.obj
 0001:0011a210       ?getTetrahedraRemap@BVTetrahedronMesh@Gu@physx@@UEBAPEBIXZ 000000018011b210 f i GuTetrahedronMesh.obj
 0001:0011a220       ?getTetrahedronMeshFlags@TetrahedronMesh@Gu@physx@@UEBA?AV?$PxFlags@W4Enum@PxTetrahedronMeshFlag@physx@@E@3@XZ 000000018011b220 f i GuTetrahedronMesh.obj
 0001:0011a230       ?getTetrahedrons@TetrahedronMesh@Gu@physx@@UEBAPEBXXZ 000000018011b230 f i GuTetrahedronMesh.obj
 0001:0011a240       ?isKindOf@PxSoftBodyAuxData@physx@@MEBA_NPEBD@Z 000000018011b240 f i GuTetrahedronMesh.obj
 0001:0011a2b0       ?isKindOf@PxSoftBodyMesh@physx@@MEBA_NPEBD@Z 000000018011b2b0 f i GuTetrahedronMesh.obj
 0001:0011a320       ?isKindOf@PxTetrahedronMesh@physx@@MEBA_NPEBD@Z 000000018011b320 f i GuTetrahedronMesh.obj
 0001:0011a390       ?onRefCountZero@SoftBodyAuxData@Gu@physx@@UEAAXXZ 000000018011b390 f i GuTetrahedronMesh.obj
 0001:0011a390       ?release@SimulationTetrahedronMeshData@Gu@physx@@UEAAXXZ 000000018011b390 f i GuCookingTetrahedronMesh.obj
 0001:0011a3b0       ?onRefCountZero@SoftBodyMesh@Gu@physx@@UEAAXXZ 000000018011b3b0 f   GuTetrahedronMesh.obj
 0001:0011a450       ?onRefCountZero@TetrahedronMesh@Gu@physx@@UEAAXXZ 000000018011b450 f   GuTetrahedronMesh.obj
 0001:0011a4f0       ?closestPtPointTetrahedron@Gu@physx@@YA?AV?$PxVec3T@M@2@AEBV32@0000@Z 000000018011b4f0 f i GuTetrahedronMeshUtils.obj
 0001:0011b620       ?computeBarycentric@physx@@YAXAEBV?$PxVec3T@M@1@0000AEAV?$PxVec4T@M@1@@Z 000000018011c620 f i GuTetrahedronMeshUtils.obj
 0001:0011b8d0       ?convertSoftbodyCollisionToSimMeshTets@Gu@physx@@YAXAEBVPxTetrahedronMesh@2@AEBVSoftBodyAuxData@12@AEBVBVTetrahedronMesh@12@IAEBV?$PxVec4T@M@2@AEAIAEAV62@@Z 000000018011c8d0 f   GuTetrahedronMeshUtils.obj
 0001:0011e590       ?pcmContactBoxBox@Gu@physx@@YA_NAEBVPxGeometry@2@0AEBUPxTransformPadded@2@1AEBUNarrowPhaseParams@12@AEAUCache@12@AEAVPxContactBuffer@2@PEAVPxRenderOutput@2@@Z 000000018011f590 f   GuPCMContactBoxBox.obj
 0001:0011f450       ??$gjkPenetration@U?$RelativeConvex@VBoxV@Gu@physx@@@Gu@physx@@U?$LocalConvex@VConvexHullNoScaleV@Gu@physx@@@23@@Gu@physx@@YA?AW4GjkStatus@01@AEBU?$RelativeConvex@VBoxV@Gu@physx@@@01@AEBU?$LocalConvex@VConvexHullNoScaleV@Gu@physx@@@01@AEBT__m128@@2_NPEIAE4AEAEAEAUGjkOutput@01@@Z 0000000180120450 f i GuPCMContactBoxConvex.obj
 0001:0011f4c0       ??$gjkPenetration@U?$RelativeConvex@VBoxV@Gu@physx@@@Gu@physx@@U?$LocalConvex@VConvexHullNoScaleV@Gu@physx@@@23@@Gu@physx@@YA?AW4GjkStatus@01@AEBU?$RelativeConvex@VBoxV@Gu@physx@@@01@AEBU?$LocalConvex@VConvexHullNoScaleV@Gu@physx@@@01@AEBT__m128@@2_NPEIAE4PEIAT5@5AEAEAEAUGjkOutput@01@@Z 00000001801204c0 f i GuPCMContactBoxConvex.obj
 0001:00121090       ?pcmContactBoxConvex@Gu@physx@@YA_NAEBVPxGeometry@2@0AEBUPxTransformPadded@2@1AEBUNarrowPhaseParams@12@AEAUCache@12@AEAVPxContactBuffer@2@PEAVPxRenderOutput@2@@Z 0000000180122090 f   GuPCMContactBoxConvex.obj
 0001:00121ed0       ?support@?$LocalConvex@VConvexHullNoScaleV@Gu@physx@@@Gu@physx@@UEBA?AT__m128@@AEBT4@@Z 0000000180122ed0 f i GuPCMContactBoxConvex.obj
 0001:00121f20       ?support@?$LocalConvex@VConvexHullNoScaleV@Gu@physx@@@Gu@physx@@UEBA?AT__m128@@AEBT4@AEAH@Z 0000000180122f20 f i GuPCMContactBoxConvex.obj
 0001:00121f80       ?supportPoint@?$LocalConvex@VConvexHullNoScaleV@Gu@physx@@@Gu@physx@@UEBA?AT__m128@@H@Z 0000000180122f80 f i GuPCMContactBoxConvex.obj
 0001:00121fb0       ?pcmContactCapsuleBox@Gu@physx@@YA_NAEBVPxGeometry@2@0AEBUPxTransformPadded@2@1AEBUNarrowPhaseParams@12@AEAUCache@12@AEAVPxContactBuffer@2@PEAVPxRenderOutput@2@@Z 0000000180122fb0 f   GuPCMContactCapsuleBox.obj
 0001:00122f20       ?pcmContactCapsuleCapsule@Gu@physx@@YA_NAEBVPxGeometry@2@0AEBUPxTransformPadded@2@1AEBUNarrowPhaseParams@12@AEAUCache@12@AEAVPxContactBuffer@2@PEAVPxRenderOutput@2@@Z 0000000180123f20 f   GuPCMContactCapsuleCapsule.obj
 0001:001237b0       ??$gjkPenetration@U?$LocalConvex@VCapsuleV@Gu@physx@@@Gu@physx@@U?$LocalConvex@VConvexHullNoScaleV@Gu@physx@@@23@@Gu@physx@@YA?AW4GjkStatus@01@AEBU?$LocalConvex@VCapsuleV@Gu@physx@@@01@AEBU?$LocalConvex@VConvexHullNoScaleV@Gu@physx@@@01@AEBT__m128@@2_NPEIAE4AEAEAEAUGjkOutput@01@@Z 00000001801247b0 f i GuPCMContactCapsuleConvex.obj
 0001:00123820       ??$gjkPenetration@U?$LocalConvex@VCapsuleV@Gu@physx@@@Gu@physx@@U?$LocalConvex@VConvexHullNoScaleV@Gu@physx@@@23@@Gu@physx@@YA?AW4GjkStatus@01@AEBU?$LocalConvex@VCapsuleV@Gu@physx@@@01@AEBU?$LocalConvex@VConvexHullNoScaleV@Gu@physx@@@01@AEBT__m128@@2_NPEIAE4PEIAT5@5AEAEAEAUGjkOutput@01@@Z 0000000180124820 f i GuPCMContactCapsuleConvex.obj
 0001:00124ef0       ?pcmContactCapsuleConvex@Gu@physx@@YA_NAEBVPxGeometry@2@0AEBUPxTransformPadded@2@1AEBUNarrowPhaseParams@12@AEAUCache@12@AEAVPxContactBuffer@2@PEAVPxRenderOutput@2@@Z 0000000180125ef0 f   GuPCMContactCapsuleConvex.obj
 0001:001260e0       ??_GPCMCapsuleVsHeightfieldContactGenerationCallback@@UEAAPEAXI@Z 00000001801270e0 f i GuPCMContactCapsuleHeightField.obj
 0001:001260e0       ??_EPCMConvexVsHeightfieldContactGenerationCallback@physx@@UEAAPEAXI@Z 00000001801270e0 f i GuPCMContactConvexHeightField.obj
 0001:001260e0       ??_GPCMConvexVsHeightfieldContactGenerationCallback@physx@@UEAAPEAXI@Z 00000001801270e0 f i GuPCMContactConvexHeightField.obj
 0001:001260e0       ??_EPCMCapsuleVsHeightfieldContactGenerationCallback@@UEAAPEAXI@Z 00000001801270e0 f i GuPCMContactCapsuleHeightField.obj
 0001:00126110       ?pcmContactCapsuleHeightField@Gu@physx@@YA_NAEBVPxGeometry@2@0AEBUPxTransformPadded@2@1AEBUNarrowPhaseParams@12@AEAUCache@12@AEAVPxContactBuffer@2@PEAVPxRenderOutput@2@@Z 0000000180127110 f   GuPCMContactCapsuleHeightField.obj
 0001:00127010       ?reportTouchedTris@?$PCMHeightfieldContactGenerationCallback@UPCMCapsuleVsHeightfieldContactGenerationCallback@@@Gu@physx@@UEAA_NIPEBI@Z 0000000180128010 f i GuPCMContactCapsuleHeightField.obj
 0001:00127690       ?generateContacts@PCMCapsuleVsMeshContactGeneration@Gu@physx@@SAXAEBT__m128@@0000I000PEAVMeshPersistentContact@23@AEAI@Z 0000000180128690 f   GuPCMContactCapsuleMesh.obj
 0001:00127b10       ?generateEE@PCMCapsuleVsMeshContactGeneration@Gu@physx@@QEAAXAEBT__m128@@000I00PEAVMeshPersistentContact@23@AEAI@Z 0000000180128b10 f   GuPCMContactCapsuleMesh.obj
 0001:00127d80       ?generateEEMTD@PCMCapsuleVsMeshContactGeneration@Gu@physx@@SAXAEBT__m128@@000I00PEAVMeshPersistentContact@23@AEAI@Z 0000000180128d80 f   GuPCMContactCapsuleMesh.obj
 0001:00127fb0       ?pcmContactCapsuleMesh@Gu@physx@@YA_NAEBVPxGeometry@2@0AEBUPxTransformPadded@2@1AEBUNarrowPhaseParams@12@AEAUCache@12@AEAVPxContactBuffer@2@PEAVPxRenderOutput@2@@Z 0000000180128fb0 f   GuPCMContactCapsuleMesh.obj
 0001:001297f0       ?pcmDistanceSegmentTriangleSquaredExported@@YA?AT__m128@@AEBT1@0000AEAT1@11@Z 000000018012a7f0 f   GuPCMContactCapsuleMesh.obj
 0001:00129c50       ?processTriangle@PCMCapsuleVsMeshContactGeneration@Gu@physx@@QEAA_NPEBV?$PxVec3T@M@3@IEPEBI@Z 000000018012ac50 f   GuPCMContactCapsuleMesh.obj
 0001:0012a800       ?processTriangle@PCMCapsuleVsMeshContactGeneration@Gu@physx@@SA_NAEBVTriangleV@23@IAEBVCapsuleV@23@AEBT__m128@@EPEAVMeshPersistentContact@23@AEAI@Z 000000018012b800 f   GuPCMContactCapsuleMesh.obj
 0001:0012ab30       ?addContactsToPatch@PCMConvexVsMeshContactGeneration@Gu@physx@@QEAAXAEBT__m128@@I@Z 000000018012bb30 f   GuPCMContactConvexCommon.obj
 0001:0012b450       ?doSupport@?$SupportLocalImpl@VTriangleV@Gu@physx@@@Gu@physx@@UEBA?AT__m128@@AEBT4@@Z 000000018012c450 f i GuPCMContactConvexCommon.obj
 0001:0012b4e0       ?doSupport@?$SupportLocalImpl@VTriangleV@Gu@physx@@@Gu@physx@@UEBAXAEBT__m128@@AEAT4@1@Z 000000018012c4e0 f i GuPCMContactConvexCommon.obj
 0001:0012b550       ?generateLastContacts@PCMConvexVsMeshContactGeneration@Gu@physx@@QEAAXXZ 000000018012c550 f   GuPCMContactConvexCommon.obj
 0001:0012ba90       ?populateVerts@?$SupportLocalImpl@VTriangleV@Gu@physx@@@Gu@physx@@UEBAXPEBEIPEBV?$PxVec3T@M@3@PEAT__m128@@@Z 000000018012ca90 f i GuPCMContactConvexCommon.obj
 0001:0012bbd0       ?processTriangle@PCMConvexVsMeshContactGeneration@Gu@physx@@QEAA_NPEBV?$PxVec3T@M@3@IEPEBI@Z 000000018012cbd0 f   GuPCMContactConvexCommon.obj
 0001:0012c140       ?processTriangle@PCMConvexVsMeshContactGeneration@Gu@physx@@SA_NAEBUPolygonalData@23@PEBVSupportLocal@23@PEBV?$PxVec3T@M@3@IEAEBT__m128@@_NAEBVPxTransformV@aos@3@AEBVPxMatTransformV@93@PEAVMeshPersistentContact@23@AEAI@Z 000000018012d140 f   GuPCMContactConvexCommon.obj
 0001:0012c3c0       ??$gjkPenetration@U?$RelativeConvex@VConvexHullNoScaleV@Gu@physx@@@Gu@physx@@U?$LocalConvex@VConvexHullNoScaleV@Gu@physx@@@23@@Gu@physx@@YA?AW4GjkStatus@01@AEBU?$RelativeConvex@VConvexHullNoScaleV@Gu@physx@@@01@AEBU?$LocalConvex@VConvexHullNoScaleV@Gu@physx@@@01@AEBT__m128@@2_NPEIAE4AEAEAEAUGjkOutput@01@@Z 000000018012d3c0 f i GuPCMContactConvexConvex.obj
 0001:0012c430       ??$gjkPenetration@U?$RelativeConvex@VConvexHullNoScaleV@Gu@physx@@@Gu@physx@@U?$LocalConvex@VConvexHullNoScaleV@Gu@physx@@@23@@Gu@physx@@YA?AW4GjkStatus@01@AEBU?$RelativeConvex@VConvexHullNoScaleV@Gu@physx@@@01@AEBU?$LocalConvex@VConvexHullNoScaleV@Gu@physx@@@01@AEBT__m128@@2_NPEIAE4PEIAT5@5AEAEAEAUGjkOutput@01@@Z 000000018012d430 f i GuPCMContactConvexConvex.obj
 0001:0012d930       ??$gjkPenetration@U?$RelativeConvex@VConvexHullNoScaleV@Gu@physx@@@Gu@physx@@U?$LocalConvex@VConvexHullV@Gu@physx@@@23@@Gu@physx@@YA?AW4GjkStatus@01@AEBU?$RelativeConvex@VConvexHullNoScaleV@Gu@physx@@@01@AEBU?$LocalConvex@VConvexHullV@Gu@physx@@@01@AEBT__m128@@2_NPEIAE4AEAEAEAUGjkOutput@01@@Z 000000018012e930 f i GuPCMContactConvexConvex.obj
 0001:0012d9a0       ??$gjkPenetration@U?$RelativeConvex@VConvexHullNoScaleV@Gu@physx@@@Gu@physx@@U?$LocalConvex@VConvexHullV@Gu@physx@@@23@@Gu@physx@@YA?AW4GjkStatus@01@AEBU?$RelativeConvex@VConvexHullNoScaleV@Gu@physx@@@01@AEBU?$LocalConvex@VConvexHullV@Gu@physx@@@01@AEBT__m128@@2_NPEIAE4PEIAT5@5AEAEAEAUGjkOutput@01@@Z 000000018012e9a0 f i GuPCMContactConvexConvex.obj
 0001:0012ef30       ??$gjkPenetration@U?$RelativeConvex@VConvexHullV@Gu@physx@@@Gu@physx@@U?$LocalConvex@VConvexHullNoScaleV@Gu@physx@@@23@@Gu@physx@@YA?AW4GjkStatus@01@AEBU?$RelativeConvex@VConvexHullV@Gu@physx@@@01@AEBU?$LocalConvex@VConvexHullNoScaleV@Gu@physx@@@01@AEBT__m128@@2_NPEIAE4AEAEAEAUGjkOutput@01@@Z 000000018012ff30 f i GuPCMContactConvexConvex.obj
 0001:0012efa0       ??$gjkPenetration@U?$RelativeConvex@VConvexHullV@Gu@physx@@@Gu@physx@@U?$LocalConvex@VConvexHullNoScaleV@Gu@physx@@@23@@Gu@physx@@YA?AW4GjkStatus@01@AEBU?$RelativeConvex@VConvexHullV@Gu@physx@@@01@AEBU?$LocalConvex@VConvexHullNoScaleV@Gu@physx@@@01@AEBT__m128@@2_NPEIAE4PEIAT5@5AEAEAEAUGjkOutput@01@@Z 000000018012ffa0 f i GuPCMContactConvexConvex.obj
 0001:00130f90       ?pcmContactConvexConvex@Gu@physx@@YA_NAEBVPxGeometry@2@0AEBUPxTransformPadded@2@1AEBUNarrowPhaseParams@12@AEAUCache@12@AEAVPxContactBuffer@2@PEAVPxRenderOutput@2@@Z 0000000180131f90 f   GuPCMContactConvexConvex.obj
 0001:001320b0       ?support@?$RelativeConvex@VConvexHullNoScaleV@Gu@physx@@@Gu@physx@@UEBA?AT__m128@@AEBT4@@Z 00000001801330b0 f i GuPCMContactConvexConvex.obj
 0001:00132160       ?support@?$RelativeConvex@VConvexHullNoScaleV@Gu@physx@@@Gu@physx@@UEBA?AT__m128@@AEBT4@AEAH@Z 0000000180133160 f i GuPCMContactConvexConvex.obj
 0001:00132220       ?supportPoint@?$RelativeConvex@VConvexHullNoScaleV@Gu@physx@@@Gu@physx@@UEBA?AT__m128@@H@Z 0000000180133220 f i GuPCMContactConvexConvex.obj
 0001:00132280       ?PCMContactConvexHeightfield@Gu@physx@@YA_NAEBUPolygonalData@12@PEAVSupportLocal@12@AEBT__m128@@AEBVPxBounds3@2@AEBVPxHeightFieldGeometry@2@AEBV?$PxTransformT@M@2@5MAEAVPxContactBuffer@2@AEBVFastVertex2ShapeScaling@Cm@2@_NAEAVMultiplePersistentContactManifold@12@PEAVPxRenderOutput@2@@Z 0000000180133280 f   GuPCMContactConvexHeightField.obj
 0001:001330d0       ?pcmContactBoxHeightField@Gu@physx@@YA_NAEBVPxGeometry@2@0AEBUPxTransformPadded@2@1AEBUNarrowPhaseParams@12@AEAUCache@12@AEAVPxContactBuffer@2@PEAVPxRenderOutput@2@@Z 00000001801340d0 f   GuPCMContactConvexHeightField.obj
 0001:00133370       ?pcmContactConvexHeightField@Gu@physx@@YA_NAEBVPxGeometry@2@0AEBUPxTransformPadded@2@1AEBUNarrowPhaseParams@12@AEAUCache@12@AEAVPxContactBuffer@2@PEAVPxRenderOutput@2@@Z 0000000180134370 f   GuPCMContactConvexHeightField.obj
 0001:00133a30       ?reportTouchedTris@?$PCMHeightfieldContactGenerationCallback@UPCMConvexVsHeightfieldContactGenerationCallback@physx@@@Gu@physx@@UEAA_NIPEBI@Z 0000000180134a30 f i GuPCMContactConvexHeightField.obj
 0001:00133ff0       ??$processTriangleCache@$0BA@@PCMConvexVsMeshContactGenerationCallback@physx@@QEAAXAEAU?$TriangleCache@$0BA@@Gu@1@@Z 0000000180134ff0 f i GuPCMContactConvexMesh.obj
 0001:00134080       ??_GPCMConvexVsMeshContactGenerationCallback@physx@@UEAAPEAXI@Z 0000000180135080 f i GuPCMContactConvexMesh.obj
 0001:00134080       ??_EPCMConvexVsMeshContactGenerationCallback@physx@@UEAAPEAXI@Z 0000000180135080 f i GuPCMContactConvexMesh.obj
 0001:001340b0       ?PCMContactConvexMesh@Gu@physx@@YA_NAEBUPolygonalData@12@PEAVSupportLocal@12@AEBT__m128@@AEBVPxBounds3@2@AEBVPxTriangleMeshGeometry@2@AEBV?$PxTransformT@M@2@5MAEAVPxContactBuffer@2@AEBVFastVertex2ShapeScaling@Cm@2@7_N8AEAVMultiplePersistentContactManifold@12@PEAVPxRenderOutput@2@@Z 00000001801350b0 f   GuPCMContactConvexMesh.obj
 0001:00134b80       ?pcmContactBoxMesh@Gu@physx@@YA_NAEBVPxGeometry@2@0AEBUPxTransformPadded@2@1AEBUNarrowPhaseParams@12@AEAUCache@12@AEAVPxContactBuffer@2@PEAVPxRenderOutput@2@@Z 0000000180135b80 f   GuPCMContactConvexMesh.obj
 0001:00134ed0       ?pcmContactConvexMesh@Gu@physx@@YA_NAEBVPxGeometry@2@0AEBUPxTransformPadded@2@1AEBUNarrowPhaseParams@12@AEAUCache@12@AEAVPxContactBuffer@2@PEAVPxRenderOutput@2@@Z 0000000180135ed0 f   GuPCMContactConvexMesh.obj
 0001:001356a0       ?processHit@?$PCMMeshContactGenerationCallback@UPCMConvexVsMeshContactGenerationCallback@physx@@@Gu@physx@@UEAA_NAEBUPxGeomRaycastHit@3@AEBV?$PxVec3T@M@3@11AEAMPEBI@Z 00000001801366a0 f i GuPCMContactConvexMesh.obj
 0001:00135b70       ?addGJKEPAContacts@Gu@physx@@YA_NPEBUGjkConvex@12@0AEBVPxMatTransformV@aos@2@W4GjkStatus@12@PEAVPersistentContact@12@T__m128@@4AEAUGjkOutput@12@AEAVPersistentContactManifold@12@@Z 0000000180136b70 f   GuPCMContactGenBoxConvex.obj
 0001:00135d70       ?buildPartialHull@Gu@physx@@YAXAEBUPolygonalData@12@PEBVSupportLocal@12@AEAVSeparatingAxes@12@AEBT__m128@@3@Z 0000000180136d70 f   GuPCMContactGenBoxConvex.obj
 0001:00136020       ?computeMTD@Gu@physx@@YA_NAEBUPolygonalData@12@0PEBVSupportLocal@12@1AEAT__m128@@2@Z 0000000180137020 f   GuPCMContactGenBoxConvex.obj
 0001:00136650       ?generateFullContactManifold@Gu@physx@@YA_NAEBUPolygonalData@12@0PEBVSupportLocal@12@1PEAVPersistentContact@12@AEAIAEBT__m128@@444MM_NPEAVPxRenderOutput@2@M@Z 0000000180137650 f   GuPCMContactGenBoxConvex.obj
 0001:00137160       ?generatedContacts@Gu@physx@@YAXAEBUPolygonalData@12@0AEBUHullPolygonData@12@1PEBVSupportLocal@12@2AEBVPxMatTransformV@aos@2@PEAVPersistentContact@12@AEAIAEBT__m128@@PEAVPxRenderOutput@2@@Z 0000000180138160 f   GuPCMContactGenBoxConvex.obj
 0001:001385a0       ?computeMTD@Gu@physx@@YA_NAEBVCapsuleV@12@AEBUPolygonalData@12@PEBVSupportLocal@12@AEAT__m128@@3@Z 00000001801395a0 f   GuPCMContactGenSphereCapsule.obj
 0001:00138690       ?generateCapsuleBoxFullContactManifold@Gu@physx@@YA_NAEBVCapsuleV@12@AEBUPolygonalData@12@PEBVSupportLocal@12@AEBVPxMatTransformV@aos@2@PEAVPersistentContact@12@AEAIAEBT__m128@@AEAT9@6M_NMPEAVPxRenderOutput@2@@Z 0000000180139690 f   GuPCMContactGenSphereCapsule.obj
 0001:00138830       ?generateFullContactManifold@Gu@physx@@YA_NAEBVCapsuleV@12@AEBUPolygonalData@12@PEBVSupportLocal@12@AEBVPxMatTransformV@aos@2@PEAVPersistentContact@12@AEAIAEBT__m128@@AEAT9@6M_NM@Z 0000000180139830 f   GuPCMContactGenSphereCapsule.obj
 0001:00138a20       ?generateSphereFullContactManifold@Gu@physx@@YA_NAEBVCapsuleV@12@AEBUPolygonalData@12@PEBVSupportLocal@12@PEAVPersistentContact@12@AEAIAEBT__m128@@AEAT7@_N@Z 0000000180139a20 f   GuPCMContactGenSphereCapsule.obj
 0001:00139ed0       ?pcmContactPlaneBox@Gu@physx@@YA_NAEBVPxGeometry@2@0AEBUPxTransformPadded@2@1AEBUNarrowPhaseParams@12@AEAUCache@12@AEAVPxContactBuffer@2@PEAVPxRenderOutput@2@@Z 000000018013aed0 f   GuPCMContactPlaneBox.obj
 0001:0013aa80       ?pcmContactPlaneCapsule@Gu@physx@@YA_NAEBVPxGeometry@2@0AEBUPxTransformPadded@2@1AEBUNarrowPhaseParams@12@AEAUCache@12@AEAVPxContactBuffer@2@PEAVPxRenderOutput@2@@Z 000000018013ba80 f   GuPCMContactPlaneCapsule.obj
 0001:0013b210       ?pcmContactPlaneConvex@Gu@physx@@YA_NAEBVPxGeometry@2@0AEBUPxTransformPadded@2@1AEBUNarrowPhaseParams@12@AEAUCache@12@AEAVPxContactBuffer@2@PEAVPxRenderOutput@2@@Z 000000018013c210 f   GuPCMContactPlaneConvex.obj
 0001:0013be70       ?pcmContactSphereBox@Gu@physx@@YA_NAEBVPxGeometry@2@0AEBUPxTransformPadded@2@1AEBUNarrowPhaseParams@12@AEAUCache@12@AEAVPxContactBuffer@2@PEAVPxRenderOutput@2@@Z 000000018013ce70 f   GuPCMContactSphereBox.obj
 0001:0013c2d0       ?pcmContactSphereCapsule@Gu@physx@@YA_NAEBVPxGeometry@2@0AEBUPxTransformPadded@2@1AEBUNarrowPhaseParams@12@AEAUCache@12@AEAVPxContactBuffer@2@PEAVPxRenderOutput@2@@Z 000000018013d2d0 f   GuPCMContactSphereCapsule.obj
 0001:0013c750       ?pcmContactSphereConvex@Gu@physx@@YA_NAEBVPxGeometry@2@0AEBUPxTransformPadded@2@1AEBUNarrowPhaseParams@12@AEAUCache@12@AEAVPxContactBuffer@2@PEAVPxRenderOutput@2@@Z 000000018013d750 f   GuPCMContactSphereConvex.obj
 0001:0013d420       ??1?$PxArray@USortedTriangle@Gu@physx@@V?$PxInlineAllocator@$0IAA@V?$PxReflectionAllocator@USortedTriangle@Gu@physx@@@physx@@@3@@physx@@QEAA@XZ 000000018013e420 f i GuPCMContactSphereHeightField.obj
 0001:0013d490       ??_EPCMSphereVsHeightfieldContactGenerationCallback@physx@@UEAAPEAXI@Z 000000018013e490 f i GuPCMContactSphereHeightField.obj
 0001:0013d490       ??_GPCMSphereVsHeightfieldContactGenerationCallback@physx@@UEAAPEAXI@Z 000000018013e490 f i GuPCMContactSphereHeightField.obj
 0001:0013d4e0       ?pcmContactSphereHeightField@Gu@physx@@YA_NAEBVPxGeometry@2@0AEBUPxTransformPadded@2@1AEBUNarrowPhaseParams@12@AEAUCache@12@AEAVPxContactBuffer@2@PEAVPxRenderOutput@2@@Z 000000018013e4e0 f   GuPCMContactSphereHeightField.obj
 0001:0013df80       ?reportTouchedTris@?$PCMHeightfieldContactGenerationCallback@UPCMSphereVsHeightfieldContactGenerationCallback@physx@@@Gu@physx@@UEAA_NIPEBI@Z 000000018013ef80 f i GuPCMContactSphereHeightField.obj
 0001:0013e540       ??$PxSort@USortedTriangle@Gu@physx@@U?$PxLess@USortedTriangle@Gu@physx@@@3@V?$PxReflectionAllocator@USortedTriangle@Gu@physx@@@3@@physx@@YAXPEAUSortedTriangle@Gu@0@IAEBU?$PxLess@USortedTriangle@Gu@physx@@@0@AEBV?$PxReflectionAllocator@USortedTriangle@Gu@physx@@@0@I@Z 000000018013f540 f i GuPCMContactSphereMesh.obj
 0001:0013ea70       ??$processTriangleCache@$0BA@VPCMSphereVsMeshContactGeneration@Gu@physx@@@PCMMeshContactGeneration@Gu@physx@@QEAA_NAEAU?$TriangleCache@$0BA@@12@@Z 000000018013fa70 f i GuPCMContactSphereMesh.obj
 0001:0013f090       ?addToPatch@PCMSphereVsMeshContactGeneration@Gu@physx@@QEAAXAEBT__m128@@0T4@I@Z 0000000180140090 f   GuPCMContactSphereMesh.obj
 0001:0013f730       ?allocate@?$PxArray@IV?$PxInlineAllocator@$0PAA@V?$PxReflectionAllocator@I@physx@@@physx@@@physx@@IEAAPEAII@Z 0000000180140730 f i GuPCMContactSphereMesh.obj
 0001:0013f7f0       ?allocate@?$PxArray@USortedTriangle@Gu@physx@@V?$PxInlineAllocator@$0IAA@V?$PxReflectionAllocator@USortedTriangle@Gu@physx@@@physx@@@3@@physx@@IEAAPEAUSortedTriangle@Gu@2@I@Z 00000001801407f0 f i GuPCMContactSphereMesh.obj
 0001:0013f8b0       ?generateLastContacts@PCMSphereVsMeshContactGeneration@Gu@physx@@QEAAXXZ 00000001801408b0 f   GuPCMContactSphereMesh.obj
 0001:0013fef0       ?growAndPushBack@?$PxArray@USortedTriangle@Gu@physx@@V?$PxInlineAllocator@$0IAA@V?$PxReflectionAllocator@USortedTriangle@Gu@physx@@@physx@@@3@@physx@@IEAAAEAUSortedTriangle@Gu@2@AEBU342@@Z 0000000180140ef0 f i GuPCMContactSphereMesh.obj
 0001:00140000       ?pcmContactSphereMesh@Gu@physx@@YA_NAEBVPxGeometry@2@0AEBUPxTransformPadded@2@1AEBUNarrowPhaseParams@12@AEAUCache@12@AEAVPxContactBuffer@2@PEAVPxRenderOutput@2@@Z 0000000180141000 f   GuPCMContactSphereMesh.obj
 0001:00141aa0       ?processTriangle@PCMSphereVsMeshContactGeneration@Gu@physx@@QEAA_NPEBV?$PxVec3T@M@3@IEPEBI@Z 0000000180142aa0 f   GuPCMContactSphereMesh.obj
 0001:00141ea0       ?recreate@?$PxArray@IV?$PxInlineAllocator@$0PAA@V?$PxReflectionAllocator@I@physx@@@physx@@@physx@@IEAAXI@Z 0000000180142ea0 f i GuPCMContactSphereMesh.obj
 0001:00141f60       ?pcmContactSpherePlane@Gu@physx@@YA_NAEBVPxGeometry@2@0AEBUPxTransformPadded@2@1AEBUNarrowPhaseParams@12@AEAUCache@12@AEAVPxContactBuffer@2@PEAVPxRenderOutput@2@@Z 0000000180142f60 f   GuPCMContactSpherePlane.obj
 0001:001420e0       ?pcmContactSphereSphere@Gu@physx@@YA_NAEBVPxGeometry@2@0AEBUPxTransformPadded@2@1AEBUNarrowPhaseParams@12@AEAUCache@12@AEAVPxContactBuffer@2@PEAVPxRenderOutput@2@@Z 00000001801430e0 f   GuPCMContactSphereSphere.obj
 0001:001429a0       ?pcmContactGeometryCustomGeometry@Gu@physx@@YA_NAEBVPxGeometry@2@0AEBUPxTransformPadded@2@1AEBUNarrowPhaseParams@12@AEAUCache@12@AEAVPxContactBuffer@2@PEAVPxRenderOutput@2@@Z 00000001801439a0 f   GuPCMContactCustomGeometry.obj
 0001:00142a50       ?getPCMConvexData@Gu@physx@@YAXAEBVConvexHullV@12@_NAEAUPolygonalData@12@@Z 0000000180143a50 f   GuPCMShapeConvex.obj
 0001:00142a90       ?getPCMConvexData@Gu@physx@@YA_NAEBVPxConvexMeshGeometry@2@AEAVFastVertex2ShapeScaling@Cm@2@AEAVPxBounds3@2@AEAUPolygonalData@12@@Z 0000000180143a90 f   GuPCMShapeConvex.obj
 0001:00142fe0       ?getPolygonalData@PCMPolygonalBox@Gu@physx@@QEBAXPEIAUPolygonalData@23@@Z 0000000180143fe0 f   GuPCMShapeConvex.obj
 0001:00143060       ?generatePolyDataContactManifold@PCMConvexVsMeshContactGeneration@Gu@physx@@QEAA_NAEBVTriangleV@23@IIEPEAVMeshPersistentContact@23@AEAIAEBT__m128@@AEAT6@@Z 0000000180144060 f   GuPCMTriangleContactGen.obj
 0001:00143180       ?generateTriangleFullContactManifold@PCMConvexVsMeshContactGeneration@Gu@physx@@QEAA_NAEBVTriangleV@23@IPEBIEAEBUPolygonalData@23@PEBV?$SupportLocalImpl@VTriangleV@Gu@physx@@@23@PEBVSupportLocal@23@PEAVMeshPersistentContact@23@AEAIAEBT__m128@@AEAT9@@Z 0000000180144180 f   GuPCMTriangleContactGen.obj
 0001:001436b0       ?generateTriangleFullContactManifold@PCMConvexVsMeshContactGeneration@Gu@physx@@SA_NAEBVTriangleV@23@IEAEBUPolygonalData@23@PEBV?$SupportLocalImpl@VTriangleV@Gu@physx@@@23@PEBVSupportLocal@23@PEAVMeshPersistentContact@23@AEAIAEBT__m128@@AEAT9@PEAVPxRenderOutput@3@@Z 00000001801446b0 f   GuPCMTriangleContactGen.obj
 0001:00145740       ?addBatchManifoldContacts2@PersistentContactManifold@Gu@physx@@QEAAXPEBVPersistentContact@23@I@Z 0000000180146740 f   GuPersistentContactManifold.obj
 0001:001457b0       ?addBatchManifoldContacts@PersistentContactManifold@Gu@physx@@QEAAXPEBVPersistentContact@23@IM@Z 00000001801467b0 f   GuPersistentContactManifold.obj
 0001:00145830       ?addBatchManifoldContactsCluster@PersistentContactManifold@Gu@physx@@QEAAXPEBVPersistentContact@23@I@Z 0000000180146830 f   GuPersistentContactManifold.obj
 0001:00145ab0       ?addManifoldContactPoints@MultiplePersistentContactManifold@Gu@physx@@QEAAXPEAVMeshPersistentContact@23@IPEAPEAUPCMContactPatch@23@IAEBT__m128@@2E@Z 0000000180146ab0 f   GuPersistentContactManifold.obj
 0001:00145ec0       ?addManifoldContactsToContactBuffer@MultiplePersistentContactManifold@Gu@physx@@QEAA_NAEAVPxContactBuffer@3@AEBVPxTransformV@aos@3@1AEBT__m128@@@Z 0000000180146ec0 f   GuPersistentContactManifold.obj
 0001:00146170       ?addManifoldContactsToContactBuffer@MultiplePersistentContactManifold@Gu@physx@@QEAA_NAEAVPxContactBuffer@3@AEBVPxTransformV@aos@3@@Z 0000000180147170 f   GuPersistentContactManifold.obj
 0001:00146400       ?addManifoldContactsToContactBuffer@PersistentContactManifold@Gu@physx@@QEAAXAEAVPxContactBuffer@3@AEBT__m128@@1AEBVPxTransformV@aos@3@11@Z 0000000180147400 f   GuPersistentContactManifold.obj
 0001:00146590       ?addManifoldContactsToContactBuffer@PersistentContactManifold@Gu@physx@@QEAAXAEAVPxContactBuffer@3@AEBT__m128@@AEBVPxMatTransformV@aos@3@@Z 0000000180147590 f   GuPersistentContactManifold.obj
 0001:00146640       ?addManifoldContactsToContactBuffer@PersistentContactManifold@Gu@physx@@QEAAXAEAVPxContactBuffer@3@AEBT__m128@@AEBVPxTransformV@aos@3@1@Z 0000000180147640 f   GuPersistentContactManifold.obj
 0001:00146790       ?addManifoldPoint2@PersistentContactManifold@Gu@physx@@QEAAIAEBT__m128@@000@Z 0000000180147790 f   GuPersistentContactManifold.obj
 0001:001468c0       ?addManifoldPoint@Gu@physx@@YAXPEAVPersistentContact@12@AEAVPersistentContactManifold@12@AEAUGjkOutput@12@AEBVPxMatTransformV@aos@2@T__m128@@@Z 00000001801478c0 f   GuPersistentContactManifold.obj
 0001:00146a70       ?addManifoldPoint@PersistentContactManifold@Gu@physx@@QEAAIAEBT__m128@@000@Z 0000000180147a70 f   GuPersistentContactManifold.obj
 0001:00146eb0       ?drawLine@MultiplePersistentContactManifold@Gu@physx@@SAXAEAVPxRenderOutput@3@AEBT__m128@@1I@Z 0000000180147eb0 f   GuPersistentContactManifold.obj
 0001:00146f60       ?drawLine@MultiplePersistentContactManifold@Gu@physx@@SAXAEAVPxRenderOutput@3@V?$PxVec3T@M@3@1I@Z 0000000180147f60 f   GuPersistentContactManifold.obj
 0001:00146fd0       ?drawManifold@MultiplePersistentContactManifold@Gu@physx@@QEAAXAEAVPxRenderOutput@3@AEBVPxTransformV@aos@3@1@Z 0000000180147fd0 f   GuPersistentContactManifold.obj
 0001:00147660       ?drawPoint@MultiplePersistentContactManifold@Gu@physx@@SAXAEAVPxRenderOutput@3@AEBT__m128@@MI@Z 0000000180148660 f   GuPersistentContactManifold.obj
 0001:00147870       ?drawPolygon@MultiplePersistentContactManifold@Gu@physx@@SAXAEAVPxRenderOutput@3@AEBVPxTransformV@aos@3@PEAT__m128@@II@Z 0000000180148870 f   GuPersistentContactManifold.obj
 0001:00147ab0       ?findRotationMatrixFromZAxis@Gu@physx@@YA?AUMat33V@aos@2@AEBT__m128@@@Z 0000000180148ab0 f   GuPersistentContactManifold.obj
 0001:00147d30       ?fromBuffer@MultiplePersistentContactManifold@Gu@physx@@QEAAXPEIAE@Z 0000000180148d30 f   GuPersistentContactManifold.obj
 0001:00147e80       ?reduceBatchContacts2@PersistentContactManifold@Gu@physx@@QEAAXPEBVPersistentContact@23@I@Z 0000000180148e80 f   GuPersistentContactManifold.obj
 0001:00148080       ?reduceBatchContacts@PersistentContactManifold@Gu@physx@@QEAAXPEBVPersistentContact@23@IM@Z 0000000180149080 f   GuPersistentContactManifold.obj
 0001:00148530       ?reduceBatchContactsCapsule@SinglePersistentContactManifold@Gu@physx@@QEAA?AT__m128@@PEBVMeshPersistentContact@23@IAEAUPCMContactPatch@23@@Z 0000000180149530 f   GuPersistentContactManifold.obj
 0001:001487c0       ?reduceBatchContactsCluster@PersistentContactManifold@Gu@physx@@QEAAXPEBVPersistentContact@23@I@Z 00000001801497c0 f   GuPersistentContactManifold.obj
 0001:00148c50       ?reduceBatchContactsConvex@SinglePersistentContactManifold@Gu@physx@@QEAA?AT__m128@@PEBVMeshPersistentContact@23@IAEAUPCMContactPatch@23@@Z 0000000180149c50 f   GuPersistentContactManifold.obj
 0001:00149240       ?reduceContacts@SinglePersistentContactManifold@Gu@physx@@SAIPEAVMeshPersistentContact@23@I@Z 000000018014a240 f   GuPersistentContactManifold.obj
 0001:001497d0       ?reduceContactsForPCM@PersistentContactManifold@Gu@physx@@QEAAIAEBT__m128@@00@Z 000000018014a7d0 f   GuPersistentContactManifold.obj
 0001:00149d70       ?refreshContactPoints@SinglePersistentContactManifold@Gu@physx@@QEAA?AT__m128@@AEBVPxMatTransformV@aos@3@AEBT4@1@Z 000000018014ad70 f   GuPersistentContactManifold.obj
 0001:00149ec0       ?replaceManifoldPoint@PersistentContactManifold@Gu@physx@@QEAA_NAEBT__m128@@000@Z 000000018014aec0 f   GuPersistentContactManifold.obj
 0001:00149f90       ?contains@Gu@physx@@YA_NPEAT__m128@@IAEBT3@11@Z 000000018014af90 f   GuPCMContactGenUtil.obj
 0001:0014a150       ?getPolygonIndex@Gu@physx@@YAHAEBUPolygonalData@12@PEBVSupportLocal@12@AEBT__m128@@AEAH@Z 000000018014b150 f   GuPCMContactGenUtil.obj
 0001:0014a3f0       ?getWitnessPolygonIndex@Gu@physx@@YAIAEBUPolygonalData@12@PEBVSupportLocal@12@AEBT__m128@@2M@Z 000000018014b3f0 f   GuPCMContactGenUtil.obj
 0001:0014a930       ?sweepBoxBox@Gu@physx@@YA_NAEBVBox@12@0AEBV?$PxVec3T@M@2@MV?$PxFlags@W4Enum@PxHitFlag@physx@@G@2@AEAUPxGeomSweepHit@2@@Z 000000018014b930 f   GuSweepBoxBox.obj
 0001:0014bf30       ?sweepBoxSphere@Gu@physx@@YA_NAEBVBox@12@MAEBV?$PxVec3T@M@2@1MAEAMAEAV42@V?$PxFlags@W4Enum@PxHitFlag@physx@@G@2@@Z 000000018014cf30 f   GuSweepBoxSphere.obj
 0001:0014cb70       ?sweepBoxTriangle@Gu@physx@@YA_NAEBVPxTriangle@2@AEBVPxBounds3@2@AEBV?$PxVec3T@M@2@2AEAV52@3AEAM_N@Z 000000018014db70 f   GuSweepBoxTriangle_FeatureBased.obj
 0001:0014e210       ?triBoxSweepTestBoxSpace@Gu@physx@@YAHAEBVPxTriangle@2@AEBV?$PxVec3T@M@2@11MAEAM_N@Z 000000018014f210 f   GuSweepBoxTriangle_SAT.obj
 0001:0014fb20       ?sweepCapsuleBox@Gu@physx@@YA_NAEBVCapsule@12@AEBV?$PxTransformT@M@2@AEBV?$PxVec3T@M@2@2MAEAV52@AEAM3V?$PxFlags@W4Enum@PxHitFlag@physx@@G@2@@Z 0000000180150b20 f   GuSweepCapsuleBox.obj
 0001:0014fe70       ?distancePointSegmentSquared@Gu@physx@@YAMAEBVSegment@12@AEBV?$PxVec3T@M@2@PEAM@Z 0000000180150e70 f i GuSweepCapsuleCapsule.obj
 0001:001501f0       ?sweepCapsuleCapsule@Gu@physx@@YA_NAEBVCapsule@12@0AEBV?$PxVec3T@M@2@MAEAMAEAV42@3IAEAG@Z 00000001801511f0 f   GuSweepCapsuleCapsule.obj
 0001:00150fc0       ?sweepCapsuleTriangles_Precise@Gu@physx@@YA_NIPEIBVPxTriangle@2@AEBVCapsule@12@AEBV?$PxVec3T@M@2@MPEIBIAEAUPxGeomSweepHit@2@AEAV52@V?$PxFlags@W4Enum@PxHitFlag@physx@@G@2@_NPEBVBoxPadded@12@@Z 0000000180151fc0 f   GuSweepCapsuleTriangle.obj
 0001:001530e0       ?sweepSphereCapsule@Gu@physx@@YA_NAEBVSphere@12@AEBVCapsule@12@AEBV?$PxVec3T@M@2@MAEAMAEAV52@4V?$PxFlags@W4Enum@PxHitFlag@physx@@G@2@@Z 00000001801540e0 f   GuSweepSphereCapsule.obj
 0001:00153780       ?sweepSphereSphere@Gu@physx@@YA_NAEBV?$PxVec3T@M@2@M0M0AEAMAEAV32@@Z 0000000180154780 f   GuSweepSphereSphere.obj
 0001:00153a10       ?sweepSphereTriangles@Gu@physx@@YA_NIPEIBVPxTriangle@2@AEBV?$PxVec3T@M@2@M1MPEIBIAEAUPxGeomSweepHit@2@AEAV42@_N555@Z 0000000180154a10 f   GuSweepSphereTriangle.obj
 0001:00154300       ?sweepSphereVSQuad@Gu@physx@@YA_NPEIBV?$PxVec3T@M@2@AEBV32@1M1AEAM@Z 0000000180155300 f   GuSweepSphereTriangle.obj
 0001:00155330       ?sweepSphereVSTri@Gu@physx@@YA_NPEIBV?$PxVec3T@M@2@AEBV32@1M1AEAMAEA_N_N@Z 0000000180156330 f   GuSweepSphereTriangle.obj
 0001:00155fe0       ??$gjk@U?$LocalConvex@VTriangleV@Gu@physx@@@Gu@physx@@U?$LocalConvex@VBoxV@Gu@physx@@@23@@Gu@physx@@YA?AW4GjkStatus@01@AEBU?$LocalConvex@VTriangleV@Gu@physx@@@01@AEBU?$LocalConvex@VBoxV@Gu@physx@@@01@AEBT__m128@@2AEAT5@333@Z 0000000180156fe0 f i GuSweepTriangleUtils.obj
 0001:00156cc0       ?computeBoxTriImpactData@Gu@physx@@YAXAEAV?$PxVec3T@M@2@0AEBV32@1AEBVPxTriangle@2@M@Z 0000000180157cc0 f   GuSweepTriangleUtils.obj
 0001:00156f50       ?computeEdgeEdgeNormal@Gu@physx@@YAXAEAV?$PxVec3T@M@2@AEBV32@1111M@Z 0000000180157f50 f   GuSweepTriangleUtils.obj
 0001:00157210       ?computeSphereTriImpactData@Gu@physx@@YAXAEAV?$PxVec3T@M@2@0AEBV32@1MAEBVPxTriangle@2@@Z 0000000180158210 f   GuSweepTriangleUtils.obj
 0001:001576f0       ??0ShapeData@Gu@physx@@QEAA@AEBVPxGeometry@2@AEBV?$PxTransformT@M@2@M@Z 00000001801586f0 f   GuBounds.obj
 0001:00157c50       ?computeBounds@Gu@physx@@YAXAEAVPxBounds3@2@AEBVPxGeometry@2@AEBV?$PxTransformT@M@2@MM@Z 0000000180158c50 f   GuBounds.obj
 0001:001589c0       ?computeBoundsAroundVertices@Gu@physx@@YAXAEAVPxBounds3@2@IPEIBV?$PxVec3T@M@2@@Z 00000001801599c0 f   GuBounds.obj
 0001:00158a70       ?computeGlobalBox@Gu@physx@@YAXAEAVPxBounds3@2@IPEIBV32@PEIBI@Z 0000000180159a70 f   GuBounds.obj
 0001:00158b00       ?computeLocalBoundsAndGeomEpsilon@Gu@physx@@YAXPEBV?$PxVec3T@M@2@IAEAVPxBounds3@2@AEAM@Z 0000000180159b00 f   GuBounds.obj
 0001:00159d70       ??0AABBTree@Gu@physx@@QEAA@XZ 000000018015ad70 f   GuAABBTree.obj
 0001:00159da0       ??0BVHPartialRefitData@Gu@physx@@QEAA@XZ 000000018015ada0 f   GuAABBTree.obj
 0001:00159dd0       ??0NodeAllocator@Gu@physx@@QEAA@XZ 000000018015add0 f   GuAABBTree.obj
 0001:00159df0       ??1AABBTree@Gu@physx@@QEAA@XZ 000000018015adf0 f   GuAABBTree.obj
 0001:00159e10       ??1BVHPartialRefitData@Gu@physx@@QEAA@XZ 000000018015ae10 f   GuAABBTree.obj
 0001:00159eb0       ??1NodeAllocator@Gu@physx@@QEAA@XZ 000000018015aeb0 f   GuAABBTree.obj
 0001:00159f00       ?_buildHierarchy@AABBTreeBuildNode@Gu@physx@@QEAAXAEBVAABBTreeBuildParams@23@AEAUBuildStats@23@AEAVNodeAllocator@23@QEAI@Z 000000018015af00 f   GuAABBTree.obj
 0001:00159f90       ?_buildHierarchySAH@AABBTreeBuildNode@Gu@physx@@QEAAXAEBVAABBTreeBuildParams@23@AEAUSAH_Buffers@23@AEAUBuildStats@23@AEAVNodeAllocator@23@QEAI@Z 000000018015af90 f   GuAABBTree.obj
 0001:0015a040       ?addRuntimeChilds@AABBTree@Gu@physx@@AEAAXAEAIAEBVAABBTreeMergeData@23@@Z 000000018015b040 f   GuAABBTree.obj
 0001:0015a140       ?build@AABBTree@Gu@physx@@QEAA_NAEBVAABBTreeBuildParams@23@AEAVNodeAllocator@23@@Z 000000018015b140 f   GuAABBTree.obj
 0001:0015a360       ?buildAABBTree@Gu@physx@@YAPEAIAEBVAABBTreeBuildParams@12@AEAVNodeAllocator@12@AEAUBuildStats@12@@Z 000000018015b360 f   GuAABBTree.obj
 0001:0015a400       ?buildAABBTree@Gu@physx@@YAXIAEBVAABBTreeBounds@12@AEAV?$PxArray@UBVHNode@Gu@physx@@V?$PxReflectionAllocator@UBVHNode@Gu@physx@@@3@@2@@Z 000000018015b400 f   GuAABBTree.obj
 0001:0015a7e0       ?buildEnd@AABBTree@Gu@physx@@AEAAXAEBVAABBTreeBuildParams@23@AEAVNodeAllocator@23@AEBUBuildStats@23@@Z 000000018015b7e0 f   GuAABBTree.obj
 0001:0015aa00       ?createUpdateMap@BVHPartialRefitData@Gu@physx@@QEAAXI@Z 000000018015ba00 f   GuAABBTree.obj
 0001:0015ab20       ?flattenTree@Gu@physx@@YAXAEBVNodeAllocator@12@PEAUBVHNode@12@PEBI@Z 000000018015bb20 f   GuAABBTree.obj
 0001:0015acd0       ?fullRefit@BVHCoreData@Gu@physx@@QEAAXPEBVPxBounds3@3@@Z 000000018015bcd0 f   GuAABBTree.obj
 0001:0015ae90       ?getBiNode@NodeAllocator@Gu@physx@@QEAAPEAVAABBTreeBuildNode@23@XZ 000000018015be90 f   GuAABBTree.obj
 0001:0015afc0       ?getParentIndices@BVHPartialRefitData@Gu@physx@@IEAAPEAIXZ 000000018015bfc0 f   GuAABBTree.obj
 0001:0015b050       ?growAndPushBack@?$PxArray@PEAVAABBTreeBuildNode@Gu@physx@@V?$PxReflectionAllocator@PEAVAABBTreeBuildNode@Gu@physx@@@3@@physx@@IEAAAEAPEAVAABBTreeBuildNode@Gu@2@AEBQEAV342@@Z 000000018015c050 f i GuAABBTree.obj
 0001:0015b170       ?growAndPushBack@?$PxArray@USlab@NodeAllocator@Gu@physx@@V?$PxReflectionAllocator@USlab@NodeAllocator@Gu@physx@@@4@@physx@@IEAAAEAUSlab@NodeAllocator@Gu@2@AEBU3452@@Z 000000018015c170 f i GuAABBTree.obj
 0001:0015b230       ?init@AABBTreeBounds@Gu@physx@@QEAAXIPEBVPxBounds3@3@@Z 000000018015c230 f   GuAABBTree.obj
 0001:0015b2f0       ?init@NodeAllocator@Gu@physx@@QEAAXII@Z 000000018015c2f0 f   GuAABBTree.obj
 0001:0015b630       ?initTree@AABBTree@Gu@physx@@QEAAXAEBVAABBTreeMergeData@23@@Z 000000018015c630 f   GuAABBTree.obj
 0001:0015b760       ?markNodeForRefit@BVHPartialRefitData@Gu@physx@@QEAAXI@Z 000000018015c760 f   GuAABBTree.obj
 0001:0015b870       ?mergeRuntimeLeaf@AABBTree@Gu@physx@@AEAAXAEAUBVHNode@23@AEBVAABBTreeMergeData@23@I@Z 000000018015c870 f   GuAABBTree.obj
 0001:0015bad0       ?mergeRuntimeNode@AABBTree@Gu@physx@@AEAAXAEAUBVHNode@23@AEBVAABBTreeMergeData@23@I@Z 000000018015cad0 f   GuAABBTree.obj
 0001:0015bdf0       ?mergeTree@AABBTree@Gu@physx@@QEAAXAEBVAABBTreeMergeData@23@@Z 000000018015cdf0 f   GuAABBTree.obj
 0001:0015c080       ?progressiveBuild@AABBTree@Gu@physx@@QEAAIAEBVAABBTreeBuildParams@23@AEAVNodeAllocator@23@AEAUBuildStats@23@II@Z 000000018015d080 f   GuAABBTree.obj
 0001:0015c330       ?refitMarkedNodes@BVHPartialRefitData@Gu@physx@@QEAAXPEBVPxBounds3@3@@Z 000000018015d330 f   GuAABBTree.obj
 0001:0015c4a0       ?release@AABBTree@Gu@physx@@QEAAX_N@Z 000000018015d4a0 f   GuAABBTree.obj
 0001:0015c590       ?release@AABBTreeBounds@Gu@physx@@QEAAXXZ 000000018015d590 f   GuAABBTree.obj
 0001:0015c5e0       ?release@NodeAllocator@Gu@physx@@QEAAXXZ 000000018015d5e0 f   GuAABBTree.obj
 0001:0015c690       ?releasePartialRefitData@BVHPartialRefitData@Gu@physx@@QEAAX_N@Z 000000018015d690 f   GuAABBTree.obj
 0001:0015c720       ?reshuffle@Gu@physx@@YAIIQEIAIPEIBV?$PxVec3T@M@2@MI@Z 000000018015d720 f   GuAABBTree.obj
 0001:0015c860       ?resize@?$PxArray@USlab@NodeAllocator@Gu@physx@@V?$PxReflectionAllocator@USlab@NodeAllocator@Gu@physx@@@4@@physx@@QEAAXIAEBUSlab@NodeAllocator@Gu@2@@Z 000000018015d860 f i GuAABBTree.obj
 0001:0015c8e0       ?resize@AABBTreeBounds@Gu@physx@@QEAAXII@Z 000000018015d8e0 f   GuAABBTree.obj
 0001:0015c9a0       ?shiftIndices@AABBTree@Gu@physx@@QEAAXI@Z 000000018015d9a0 f   GuAABBTree.obj
 0001:0015c9c0       ?shiftOrigin@AABBTree@Gu@physx@@QEAAXAEBV?$PxVec3T@M@3@@Z 000000018015d9c0 f   GuAABBTree.obj
 0001:0015cc40       ?subdivide@AABBTreeBuildNode@Gu@physx@@QEAAXAEBVAABBTreeBuildParams@23@AEAUBuildStats@23@AEAVNodeAllocator@23@QEAI@Z 000000018015dc40 f   GuAABBTree.obj
 0001:0015ce20       ?subdivideSAH@AABBTreeBuildNode@Gu@physx@@QEAAXAEBVAABBTreeBuildParams@23@AEAUSAH_Buffers@23@AEAUBuildStats@23@AEAVNodeAllocator@23@QEAI@Z 000000018015de20 f   GuAABBTree.obj
 0001:0015cf10       ?traverseRuntimeNode@AABBTree@Gu@physx@@AEAAXAEAUBVHNode@23@AEBVAABBTreeMergeData@23@I@Z 000000018015df10 f   GuAABBTree.obj
 0001:0015d000       ?initMap@AABBTreeUpdateMap@Gu@physx@@QEAAXIAEBVAABBTree@23@@Z 000000018015e000 f   GuAABBTreeUpdateMap.obj
 0001:0015d140       ?invalidate@AABBTreeUpdateMap@Gu@physx@@QEAAXIIAEAVAABBTree@23@@Z 000000018015e140 f   GuAABBTreeUpdateMap.obj
 0001:0015d3e0       ?visualizeTree@@YAXAEAVPxRenderOutput@physx@@IPEBVAABBTree@Gu@2@@Z 000000018015e3e0 f   GuSqInternal.obj
 0001:0015d450       ?visualizeTree@@YAXAEAVPxRenderOutput@physx@@IPEBVBVH@Gu@2@@Z 000000018015e450 f   GuSqInternal.obj
 0001:0015d4c0       ?visualizeTree@@YAXAEAVPxRenderOutput@physx@@IPEBVIncrementalAABBTree@Gu@2@PEAVDebugVizCallback@2@@Z 000000018015e4c0 f   GuSqInternal.obj
 0001:0015d540       ??$PxSort@PEAXU?$PxLess@PEAX@physx@@V?$PxReflectionAllocator@UAABBTreeIndices@Gu@physx@@@2@@physx@@YAXPEAPEAXIAEBU?$PxLess@PEAX@0@AEBV?$PxReflectionAllocator@UAABBTreeIndices@Gu@physx@@@0@I@Z 000000018015e540 f i GuIncrementalAABBTree.obj
 0001:0015d9a0       ??$PxSort@PEAXU?$PxLess@PEAX@physx@@V?$PxReflectionAllocator@UIncrementalAABBTreeNodePair@Gu@physx@@@2@@physx@@YAXPEAPEAXIAEBU?$PxLess@PEAX@0@AEBV?$PxReflectionAllocator@UIncrementalAABBTreeNodePair@Gu@physx@@@0@I@Z 000000018015e9a0 f i GuIncrementalAABBTree.obj
 0001:0015de00       ??0IncrementalAABBTree@Gu@physx@@QEAA@XZ 000000018015ee00 f   GuIncrementalAABBTree.obj
 0001:0015de80       ??1?$PxPoolBase@UAABBTreeIndices@Gu@physx@@V?$PxReflectionAllocator@UAABBTreeIndices@Gu@physx@@@3@@physx@@QEAA@XZ 000000018015ee80 f i GuIncrementalAABBTree.obj
 0001:0015dfe0       ??1?$PxPoolBase@UIncrementalAABBTreeNodePair@Gu@physx@@V?$PxReflectionAllocator@UIncrementalAABBTreeNodePair@Gu@physx@@@3@@physx@@QEAA@XZ 000000018015efe0 f i GuIncrementalAABBTree.obj
 0001:0015e140       ??1IncrementalAABBTree@Gu@physx@@QEAA@XZ 000000018015f140 f   GuIncrementalAABBTree.obj
 0001:0015e180       ?allocate@?$PxArray@PEAXV?$PxReflectionAllocator@UAABBTreeIndices@Gu@physx@@@physx@@@physx@@IEAAPEAPEAXI@Z 000000018015f180 f i GuIncrementalAABBTree.obj
 0001:0015e210       ?allocate@?$PxArray@PEAXV?$PxReflectionAllocator@UIncrementalAABBTreeNodePair@Gu@physx@@@physx@@@physx@@IEAAPEAPEAXI@Z 000000018015f210 f i GuIncrementalAABBTree.obj
 0001:0015e2a0       ?allocate@?$PxPoolBase@UAABBTreeIndices@Gu@physx@@V?$PxReflectionAllocator@UAABBTreeIndices@Gu@physx@@@3@@physx@@QEAAPEAUAABBTreeIndices@Gu@2@XZ 000000018015f2a0 f i GuIncrementalAABBTree.obj
 0001:0015e390       ?allocate@?$PxPoolBase@UIncrementalAABBTreeNodePair@Gu@physx@@V?$PxReflectionAllocator@UIncrementalAABBTreeNodePair@Gu@physx@@@3@@physx@@QEAAPEAUIncrementalAABBTreeNodePair@Gu@2@XZ 000000018015f390 f i GuIncrementalAABBTree.obj
 0001:0015e480       ?build@IncrementalAABBTree@Gu@physx@@QEAA_NAEBVAABBTreeBuildParams@23@AEAV?$PxArray@PEAVIncrementalAABBTreeNode@Gu@physx@@V?$PxReflectionAllocator@PEAVIncrementalAABBTreeNode@Gu@physx@@@3@@3@@Z 000000018015f480 f   GuIncrementalAABBTree.obj
 0001:0015e660       ?clone@IncrementalAABBTree@Gu@physx@@AEAAXAEAV?$PxArray@PEAVIncrementalAABBTreeNode@Gu@physx@@V?$PxReflectionAllocator@PEAVIncrementalAABBTreeNode@Gu@physx@@@3@@3@PEBIPEAPEAVIncrementalAABBTreeNode@23@@Z 000000018015f660 f   GuIncrementalAABBTree.obj
 0001:0015eb30       ?copy@IncrementalAABBTree@Gu@physx@@QEAAXAEBVBVH@23@AEAV?$PxArray@PEAVIncrementalAABBTreeNode@Gu@physx@@V?$PxReflectionAllocator@PEAVIncrementalAABBTreeNode@Gu@physx@@@3@@3@@Z 000000018015fb30 f   GuIncrementalAABBTree.obj
 0001:0015ebe0       ?copyNode@IncrementalAABBTree@Gu@physx@@AEAAXAEAVIncrementalAABBTreeNode@23@AEBUBVHNode@23@PEBU523@PEAV423@PEBIAEAV?$PxArray@PEAVIncrementalAABBTreeNode@Gu@physx@@V?$PxReflectionAllocator@PEAVIncrementalAABBTreeNode@Gu@physx@@@3@@3@@Z 000000018015fbe0 f   GuIncrementalAABBTree.obj
 0001:0015eda0       ?fixupTreeIndices@IncrementalAABBTree@Gu@physx@@QEAAXPEAVIncrementalAABBTreeNode@23@II@Z 000000018015fda0 f   GuIncrementalAABBTree.obj
 0001:0015edd0       ?getTreeLeafDepth@IncrementalAABBTree@Gu@physx@@QEAAIPEAVIncrementalAABBTreeNode@23@@Z 000000018015fdd0 f   GuIncrementalAABBTree.obj
 0001:0015edf0       ?growAndPushBack@?$PxArray@PEAVIncrementalAABBTreeNode@Gu@physx@@V?$PxReflectionAllocator@PEAVIncrementalAABBTreeNode@Gu@physx@@@3@@physx@@IEAAAEAPEAVIncrementalAABBTreeNode@Gu@2@AEBQEAV342@@Z 000000018015fdf0 f i GuIncrementalAABBTree.obj
 0001:0015ef10       ?growAndPushBack@?$PxArray@PEAXV?$PxReflectionAllocator@UAABBTreeIndices@Gu@physx@@@physx@@@physx@@IEAAAEAPEAXAEBQEAX@Z 000000018015ff10 f i GuIncrementalAABBTree.obj
 0001:0015efd0       ?growAndPushBack@?$PxArray@PEAXV?$PxReflectionAllocator@UIncrementalAABBTreeNodePair@Gu@physx@@@physx@@@physx@@IEAAAEAPEAXAEBQEAX@Z 000000018015ffd0 f i GuIncrementalAABBTree.obj
 0001:0015f090       ?hierarchyCheck@IncrementalAABBTree@Gu@physx@@QEAAXIPEBVPxBounds3@3@@Z 0000000180160090 f   GuIncrementalAABBTree.obj
 0001:0015f1f0       ?hierarchyCheck@IncrementalAABBTree@Gu@physx@@QEAAXPEBVPxBounds3@3@@Z 00000001801601f0 f   GuIncrementalAABBTree.obj
 0001:0015f350       ?insert@IncrementalAABBTree@Gu@physx@@QEAAPEAVIncrementalAABBTreeNode@23@IPEBVPxBounds3@3@AEAV?$PxArray@PEAVIncrementalAABBTreeNode@Gu@physx@@V?$PxReflectionAllocator@PEAVIncrementalAABBTreeNode@Gu@physx@@@3@@3@@Z 0000000180160350 f   GuIncrementalAABBTree.obj
 0001:0015fa40       ?recreate@?$PxArray@PEAXV?$PxReflectionAllocator@UAABBTreeIndices@Gu@physx@@@physx@@@physx@@IEAAXI@Z 0000000180160a40 f i GuIncrementalAABBTree.obj
 0001:0015fae0       ?recreate@?$PxArray@PEAXV?$PxReflectionAllocator@UIncrementalAABBTreeNodePair@Gu@physx@@@physx@@@physx@@IEAAXI@Z 0000000180160ae0 f i GuIncrementalAABBTree.obj
 0001:0015fb80       ?release@IncrementalAABBTree@Gu@physx@@QEAAXXZ 0000000180160b80 f   GuIncrementalAABBTree.obj
 0001:0015fbb0       ?releaseNode@IncrementalAABBTree@Gu@physx@@AEAAXPEAVIncrementalAABBTreeNode@23@@Z 0000000180160bb0 f   GuIncrementalAABBTree.obj
 0001:0015fc40       ?remove@IncrementalAABBTree@Gu@physx@@QEAAPEAVIncrementalAABBTreeNode@23@PEAV423@IPEBVPxBounds3@3@@Z 0000000180160c40 f   GuIncrementalAABBTree.obj
 0001:0015ff40       ?rotateTree@IncrementalAABBTree@Gu@physx@@AEAAXPEAVIncrementalAABBTreeNode@23@AEAV?$PxArray@PEAVIncrementalAABBTreeNode@Gu@physx@@V?$PxReflectionAllocator@PEAVIncrementalAABBTreeNode@Gu@physx@@@3@@3@IPEBVPxBounds3@3@_N@Z 0000000180160f40 f   GuIncrementalAABBTree.obj
 0001:001607f0       ?shiftOrigin@IncrementalAABBTree@Gu@physx@@QEAAXAEBV?$PxVec3T@M@3@@Z 00000001801617f0 f   GuIncrementalAABBTree.obj
 0001:00160850       ?splitLeafNode@IncrementalAABBTree@Gu@physx@@AEAAPEAVIncrementalAABBTreeNode@23@PEAV423@IAEBT__m128@@1PEBVPxBounds3@3@@Z 0000000180161850 f   GuIncrementalAABBTree.obj
 0001:00160b50       ?update@IncrementalAABBTree@Gu@physx@@QEAAPEAVIncrementalAABBTreeNode@23@PEAV423@IPEBVPxBounds3@3@AEAV?$PxArray@PEAVIncrementalAABBTreeNode@Gu@physx@@V?$PxReflectionAllocator@PEAVIncrementalAABBTreeNode@Gu@physx@@@3@@3@@Z 0000000180161b50 f   GuIncrementalAABBTree.obj
 0001:00160c10       ?updateFast@IncrementalAABBTree@Gu@physx@@QEAAPEAVIncrementalAABBTreeNode@23@PEAV423@IPEBVPxBounds3@3@AEAV?$PxArray@PEAVIncrementalAABBTreeNode@Gu@physx@@V?$PxReflectionAllocator@PEAVIncrementalAABBTreeNode@Gu@physx@@@3@@3@@Z 0000000180161c10 f   GuIncrementalAABBTree.obj
 0001:00160e10       ??0SAH_Buffers@Gu@physx@@QEAA@I@Z 0000000180161e10 f   GuSAH.obj
 0001:00160f20       ??1SAH_Buffers@Gu@physx@@QEAA@XZ 0000000180161f20 f   GuSAH.obj
 0001:00160ff0       ?split@SAH_Buffers@Gu@physx@@QEAA_NAEAIIPEIBIPEIBVPxBounds3@3@PEIBV?$PxVec3T@M@3@@Z 0000000180161ff0 f   GuSAH.obj
 0001:001616f0       ??0BVH@Gu@physx@@QEAA@AEBUPxBVHInternalData@2@@Z 00000001801626f0 f   GuBVH.obj
 0001:001617b0       ??0BVH@Gu@physx@@QEAA@PEAVMeshFactory@12@@Z 00000001801627b0 f   GuBVH.obj
 0001:00161820       ??0BVH@Gu@physx@@QEAA@PEAVMeshFactory@12@AEAVBVHData@12@@Z 0000000180162820 f   GuBVH.obj
 0001:001618d0       ??1BVHData@Gu@physx@@QEAA@XZ 00000001801628d0 f i GuBVH.obj
 0001:00165004       ??_EBVH@Gu@physx@@WBA@EAAPEAXI@Z 0000000180166004 f i GuBVH.obj
 0001:00165010       ??_EBVH@Gu@physx@@UEAAPEAXI@Z 0000000180166010 f i GuBVH.obj
 0001:00165010       ??_GBVH@Gu@physx@@UEAAPEAXI@Z 0000000180166010 f i GuBVH.obj
 0001:001650a0       ??_GRefCountable@Cm@physx@@UEAAPEAXI@Z 00000001801660a0 f i GuBVH.obj
 0001:001650a0       ??_ERefCountable@Cm@physx@@UEAAPEAXI@Z 00000001801660a0 f i GuBVH.obj
 0001:001652d0       ?allocate@?$PxArray@PEBUBVHNode@Gu@physx@@V?$PxInlineAllocator@$0IAA@V?$PxReflectionAllocator@PEBUBVHNode@Gu@physx@@@physx@@@3@@physx@@IEAAPEAPEBUBVHNode@Gu@2@I@Z 00000001801662d0 f i GuBVH.obj
 0001:00165390       ?build@BVHData@Gu@physx@@QEAA_NIPEBXIMIW4BVHBuildStrategy@23@@Z 0000000180166390 f   GuBVH.obj
 0001:00165790       ?cull@BVH@Gu@physx@@UEBA_NIPEBVPxPlane@3@AEAUOverlapCallback@PxBVH@3@V?$PxFlags@W4Enum@PxGeometryQueryFlag@physx@@I@3@@Z 0000000180166790 f   GuBVH.obj
 0001:001660c0       ?getConcreteTypeName@PxBVH@physx@@UEBAPEBDXZ 00000001801670c0 f i GuBVH.obj
 0001:001660d0       ?init@BVH@Gu@physx@@QEAA_NIPEAVAABBTreeBounds@23@PEBXIW4BVHBuildStrategy@23@IM@Z 00000001801670d0 f   GuBVH.obj
 0001:001664e0       ?isKindOf@PxBVH@physx@@MEBA_NPEBD@Z 00000001801674e0 f i GuBVH.obj
 0001:00166530       ?load@BVH@Gu@physx@@QEAA_NAEAVPxInputStream@3@@Z 0000000180167530 f   GuBVH.obj
 0001:001666d0       ?onRefCountZero@BVH@Gu@physx@@UEAAXXZ 00000001801676d0 f   GuBVH.obj
 0001:001667b0       ?onRefCountZero@RefCountable@Cm@physx@@UEAAXXZ 00000001801677b0 f i GuBVH.obj
 0001:001667d0       ?overlap@BVH@Gu@physx@@QEBA_NAEBVShapeData@23@AEAUOverlapCallback@PxBVH@3@V?$PxFlags@W4Enum@PxGeometryQueryFlag@physx@@I@3@@Z 00000001801677d0 f   GuBVH.obj
 0001:00167010       ?overlap@BVH@Gu@physx@@UEBA_NAEBVPxGeometry@3@AEBV?$PxTransformT@M@3@AEAUOverlapCallback@PxBVH@3@V?$PxFlags@W4Enum@PxGeometryQueryFlag@physx@@I@3@@Z 0000000180168010 f   GuBVH.obj
 0001:00167070       ?partialRefit@BVH@Gu@physx@@UEAAXXZ 0000000180168070 f   GuBVH.obj
 0001:00167080       ?raycast@BVH@Gu@physx@@UEBA_NAEBV?$PxVec3T@M@3@0MAEAURaycastCallback@PxBVH@3@V?$PxFlags@W4Enum@PxGeometryQueryFlag@physx@@I@3@@Z 0000000180168080 f   GuBVH.obj
 0001:001671b0       ?recreate@?$PxArray@PEBUBVHNode@Gu@physx@@V?$PxInlineAllocator@$0IAA@V?$PxReflectionAllocator@PEBUBVHNode@Gu@physx@@@physx@@@3@@physx@@IEAAXI@Z 00000001801681b0 f i GuBVH.obj
 0001:00167270       ?refit@BVH@Gu@physx@@UEAAXXZ 0000000180168270 f   GuBVH.obj
 0001:00167280       ?release@BVH@Gu@physx@@UEAAXXZ 0000000180168280 f   GuBVH.obj
 0001:001672b0       ?resizeUninitialized@?$PxArray@PEBUBVHNode@Gu@physx@@V?$PxInlineAllocator@$0IAA@V?$PxReflectionAllocator@PEBUBVHNode@Gu@physx@@@physx@@@3@@physx@@QEAAXI@Z 00000001801682b0 f i GuBVH.obj
 0001:00167300       ?save@BVHData@Gu@physx@@QEBA_NAEAVPxOutputStream@3@_N@Z 0000000180168300 f   GuBVH.obj
 0001:00167470       ?sweep@BVH@Gu@physx@@QEBA_NAEBVShapeData@23@AEBV?$PxVec3T@M@3@MAEAURaycastCallback@PxBVH@3@V?$PxFlags@W4Enum@PxGeometryQueryFlag@physx@@I@3@@Z 0000000180168470 f   GuBVH.obj
 0001:00167630       ?sweep@BVH@Gu@physx@@UEBA_NAEBVPxGeometry@3@AEBV?$PxTransformT@M@3@AEBV?$PxVec3T@M@3@MAEAURaycastCallback@PxBVH@3@V?$PxFlags@W4Enum@PxGeometryQueryFlag@physx@@I@3@@Z 0000000180168630 f   GuBVH.obj
 0001:001676b0       ?traverse@BVH@Gu@physx@@UEBA_NAEAUTraversalCallback@PxBVH@3@@Z 00000001801686b0 f   GuBVH.obj
 0001:00167820       ?updateBounds@BVH@Gu@physx@@UEAA_NIAEBVPxBounds3@3@@Z 0000000180168820 f   GuBVH.obj
 0001:001678d0       ?updateBoundsInternal@BVH@Gu@physx@@QEAA_NIAEBVPxBounds3@3@@Z 00000001801688d0 f   GuBVH.obj
 0001:00167980       PxFindOverlap              0000000180168980 f   GuBVH.obj
 0001:00167a70       PxGetBVHInternalData       0000000180168a70 f   GuBVH.obj
 0001:00167ab0       ??0IncrementalAABBPrunerCore@Gu@physx@@QEAA@PEBVPruningPool@12@@Z 0000000180168ab0 f   GuIncrementalAABBPrunerCore.obj
 0001:00167bc0       ??1IncrementalAABBPrunerCore@Gu@physx@@QEAA@XZ 0000000180168bc0 f   GuIncrementalAABBPrunerCore.obj
 0001:00167d30       ??R?$AABBTreeOverlap@$00U?$OBBAABBTests@$00@Gu@physx@@VIncrementalAABBTree@23@VIncrementalAABBTreeNode@23@UOverlapCallbackAdapter@23@@Gu@physx@@QEAA_NAEBVAABBTreeBounds@12@AEBVIncrementalAABBTree@12@AEBU?$OBBAABBTests@$00@12@AEAUOverlapCallbackAdapter@12@@Z 0000000180168d30 f i GuIncrementalAABBPrunerCore.obj
 0001:001682c0       ??R?$AABBTreeOverlap@$00UAABBAABBTest@Gu@physx@@VIncrementalAABBTree@23@VIncrementalAABBTreeNode@23@UOverlapCallbackAdapter@23@@Gu@physx@@QEAA_NAEBVAABBTreeBounds@12@AEBVIncrementalAABBTree@12@AEBUAABBAABBTest@12@AEAUOverlapCallbackAdapter@12@@Z 00000001801692c0 f i GuIncrementalAABBPrunerCore.obj
 0001:00168520       ??R?$AABBTreeOverlap@$00UCapsuleAABBTest@Gu@physx@@VIncrementalAABBTree@23@VIncrementalAABBTreeNode@23@UOverlapCallbackAdapter@23@@Gu@physx@@QEAA_NAEBVAABBTreeBounds@12@AEBVIncrementalAABBTree@12@AEBUCapsuleAABBTest@12@AEAUOverlapCallbackAdapter@12@@Z 0000000180169520 f i GuIncrementalAABBPrunerCore.obj
 0001:00168860       ??R?$AABBTreeRaycast@$00$00VIncrementalAABBTree@Gu@physx@@VIncrementalAABBTreeNode@23@URaycastCallbackAdapter@23@@Gu@physx@@QEAA_NAEBVAABBTreeBounds@12@AEBVIncrementalAABBTree@12@AEBV?$PxVec3T@M@2@2AEAM2AEAURaycastCallbackAdapter@12@@Z 0000000180169860 f i GuIncrementalAABBPrunerCore.obj
 0001:00168ee0       ??R?$AABBTreeRaycast@$0A@$00VIncrementalAABBTree@Gu@physx@@VIncrementalAABBTreeNode@23@URaycastCallbackAdapter@23@@Gu@physx@@QEAA_NAEBVAABBTreeBounds@12@AEBVIncrementalAABBTree@12@AEBV?$PxVec3T@M@2@2AEAM2AEAURaycastCallbackAdapter@12@@Z 0000000180169ee0 f i GuIncrementalAABBPrunerCore.obj
 0001:00169510       ?addObject@IncrementalAABBPrunerCore@Gu@physx@@QEAA_NII@Z 000000018016a510 f   GuIncrementalAABBPrunerCore.obj
 0001:00169600       ?allocate@?$PxArray@PEBVIncrementalAABBTreeNode@Gu@physx@@V?$PxInlineAllocator@$0IAA@V?$PxReflectionAllocator@PEBVIncrementalAABBTreeNode@Gu@physx@@@physx@@@3@@physx@@IEAAPEAPEBVIncrementalAABBTreeNode@Gu@2@I@Z 000000018016a600 f i GuIncrementalAABBPrunerCore.obj
 0001:001696c0       ?clear@?$PxHashMapBase@IPEAVIncrementalAABBTreeNode@Gu@physx@@U?$PxHash@I@3@VPxAllocator@3@@physx@@QEAAXXZ 000000018016a6c0 f i GuIncrementalAABBPrunerCore.obj
 0001:001696c0       ?clear@?$PxHashMapBase@UPrunerPayload@Gu@physx@@UExtendedBucketPrunerData@23@UExtendedBucketPrunerHash@23@VPxAllocator@3@@physx@@QEAAXXZ 000000018016a6c0 f i GuExtendedBucketPruner.obj
 0001:00169750       ?create@?$PxHashBase@V?$PxPair@$$CBIPEAVIncrementalAABBTreeNode@Gu@physx@@@physx@@IU?$PxHash@I@2@UGetKey@?$PxHashMapBase@IPEAVIncrementalAABBTreeNode@Gu@physx@@U?$PxHash@I@3@VPxAllocator@3@@2@VPxAllocator@2@$00@physx@@QEAAPEAV?$PxPair@$$CBIPEAVIncrementalAABBTreeNode@Gu@physx@@@2@AEBIAEA_N@Z 000000018016a750 f i GuIncrementalAABBPrunerCore.obj
 0001:001698a0       ?erase@?$PxHashBase@V?$PxPair@$$CBIPEAVIncrementalAABBTreeNode@Gu@physx@@@physx@@IU?$PxHash@I@2@UGetKey@?$PxHashMapBase@IPEAVIncrementalAABBTreeNode@Gu@physx@@U?$PxHash@I@3@VPxAllocator@3@@2@VPxAllocator@2@$00@physx@@QEAA_NAEBIAEAV?$PxPair@$$CBIPEAVIncrementalAABBTreeNode@Gu@physx@@@2@@Z 000000018016a8a0 f i GuIncrementalAABBPrunerCore.obj
 0001:00169a00       ?getCurrentWorldBoxes@PruningPool@Gu@physx@@QEBAPEBVPxBounds3@3@XZ 000000018016aa00 f i GuIncrementalAABBPrunerCore.obj
 0001:00169a00       ?getMesh@CollisionTetrahedronMeshData@Gu@physx@@UEBAPEBVPxTetrahedronMeshData@3@XZ 000000018016aa00 f i GuCookingTetrahedronMesh.obj
 0001:00169a00       ?getMesh@CollisionTetrahedronMeshData@Gu@physx@@UEAAPEAVPxTetrahedronMeshData@3@XZ 000000018016aa00 f i GuCookingTetrahedronMesh.obj
 0001:00169a00       ?getMesh@SimulationTetrahedronMeshData@Gu@physx@@UEAAPEAVPxTetrahedronMeshData@3@XZ 000000018016aa00 f i GuCookingTetrahedronMesh.obj
 0001:00169a00       ?getCurrentWorldBoxes@PruningPool@Gu@physx@@QEAAPEAVPxBounds3@3@XZ 000000018016aa00 f i GuIncrementalAABBPrunerCore.obj
 0001:00169a10       ?getGlobalBounds@IncrementalAABBPrunerCore@Gu@physx@@QEBAXAEAVPxBounds3@3@@Z 000000018016aa10 f   GuIncrementalAABBPrunerCore.obj
 0001:00169b30       ?getIndex@PruningPool@Gu@physx@@QEBAII@Z 000000018016ab30 f i GuIncrementalAABBPrunerCore.obj
 0001:00169b40       ?getPayloadData@PruningPool@Gu@physx@@QEBAAEBUPrunerPayload@23@IPEAUPrunerPayloadData@23@@Z 000000018016ab40 f i GuIncrementalAABBPrunerCore.obj
 0001:00169b90       ?overlap@IncrementalAABBPrunerCore@Gu@physx@@QEBA_NAEBVShapeData@23@AEAUPrunerOverlapCallback@23@@Z 000000018016ab90 f   GuIncrementalAABBPrunerCore.obj
 0001:0016a5b0       ?raycast@IncrementalAABBPrunerCore@Gu@physx@@QEBA_NAEBV?$PxVec3T@M@3@0AEAMAEAUPrunerRaycastCallback@23@@Z 000000018016b5b0 f   GuIncrementalAABBPrunerCore.obj
 0001:0016a690       ?recreate@?$PxArray@PEAVIncrementalAABBTreeNode@Gu@physx@@V?$PxReflectionAllocator@PEAVIncrementalAABBTreeNode@Gu@physx@@@3@@physx@@IEAAXI@Z 000000018016b690 f i GuIncrementalAABBPrunerCore.obj
 0001:0016a780       ?recreate@?$PxArray@PEBVIncrementalAABBTreeNode@Gu@physx@@V?$PxInlineAllocator@$0IAA@V?$PxReflectionAllocator@PEBVIncrementalAABBTreeNode@Gu@physx@@@physx@@@3@@physx@@IEAAXI@Z 000000018016b780 f i GuIncrementalAABBPrunerCore.obj
 0001:0016a840       ?release@IncrementalAABBPrunerCore@Gu@physx@@QEAAXXZ 000000018016b840 f   GuIncrementalAABBPrunerCore.obj
 0001:0016a940       ?removeMarkedObjects@IncrementalAABBPrunerCore@Gu@physx@@QEAAII@Z 000000018016b940 f   GuIncrementalAABBPrunerCore.obj
 0001:0016a9a0       ?removeObject@IncrementalAABBPrunerCore@Gu@physx@@QEAA_NIIAEAI@Z 000000018016b9a0 f   GuIncrementalAABBPrunerCore.obj
 0001:0016aba0       ?reserveInternal@?$PxHashBase@V?$PxPair@$$CBIPEAVIncrementalAABBTreeNode@Gu@physx@@@physx@@IU?$PxHash@I@2@UGetKey@?$PxHashMapBase@IPEAVIncrementalAABBTreeNode@Gu@physx@@U?$PxHash@I@3@VPxAllocator@3@@2@VPxAllocator@2@$00@physx@@AEAAXI@Z 000000018016bba0 f i GuIncrementalAABBPrunerCore.obj
 0001:0016ad60       ?resizeUninitialized@?$PxArray@PEBVIncrementalAABBTreeNode@Gu@physx@@V?$PxInlineAllocator@$0IAA@V?$PxReflectionAllocator@PEBVIncrementalAABBTreeNode@Gu@physx@@@physx@@@3@@physx@@QEAAXI@Z 000000018016bd60 f i GuIncrementalAABBPrunerCore.obj
 0001:0016adb0       ?setTransform@PruningPool@Gu@physx@@QEAA_NIAEBV?$PxTransformT@M@3@@Z 000000018016bdb0 f i GuIncrementalAABBPrunerCore.obj
 0001:0016ae10       ?shiftOrigin@IncrementalAABBPrunerCore@Gu@physx@@QEAAXAEBV?$PxVec3T@M@3@@Z 000000018016be10 f   GuIncrementalAABBPrunerCore.obj
 0001:0016ae60       ?swapIndex@IncrementalAABBPrunerCore@Gu@physx@@QEAAXII@Z 000000018016be60 f   GuIncrementalAABBPrunerCore.obj
 0001:0016af30       ?sweep@IncrementalAABBPrunerCore@Gu@physx@@QEBA_NAEBVShapeData@23@AEBV?$PxVec3T@M@3@AEAMAEAUPrunerRaycastCallback@23@@Z 000000018016bf30 f   GuIncrementalAABBPrunerCore.obj
 0001:0016b0c0       ?updateMapping@IncrementalAABBPrunerCore@Gu@physx@@AEAAXAEAV?$PxHashMap@IPEAVIncrementalAABBTreeNode@Gu@physx@@U?$PxHash@I@3@VPxAllocator@3@@3@IPEAVIncrementalAABBTreeNode@23@@Z 000000018016c0c0 f   GuIncrementalAABBPrunerCore.obj
 0001:0016b1f0       ?updateObject@IncrementalAABBPrunerCore@Gu@physx@@QEAA_NI@Z 000000018016c1f0 f   GuIncrementalAABBPrunerCore.obj
 0001:0016b390       ?visualize@IncrementalAABBPrunerCore@Gu@physx@@QEBAXAEAVPxRenderOutput@3@I@Z 000000018016c390 f   GuIncrementalAABBPrunerCore.obj
 0001:0016b3f0       ??0IncrementalAABBPruner@Gu@physx@@QEAA@I_K@Z 000000018016c3f0 f   GuIncrementalAABBPruner.obj
 0001:0016b4a0       ??R?$AABBTreeOverlap@$00USphereAABBTest@Gu@physx@@VIncrementalAABBTree@23@VIncrementalAABBTreeNode@23@UOverlapCallbackAdapter@23@@Gu@physx@@QEAA_NAEBVAABBTreeBounds@12@AEBVIncrementalAABBTree@12@AEBUSphereAABBTest@12@AEAUOverlapCallbackAdapter@12@@Z 000000018016c4a0 f i GuIncrementalAABBPruner.obj
 0001:0016b770       ??_EBasePruner@Gu@physx@@UEAAPEAXI@Z 000000018016c770 f i GuIncrementalAABBPruner.obj
 0001:0016b770       ??_GBasePruner@Gu@physx@@UEAAPEAXI@Z 000000018016c770 f i GuIncrementalAABBPruner.obj
 0001:0016b7c0       ??_EIncrementalAABBPruner@Gu@physx@@UEAAPEAXI@Z 000000018016c7c0 f i GuIncrementalAABBPruner.obj
 0001:0016b7c0       ??_GIncrementalAABBPruner@Gu@physx@@UEAAPEAXI@Z 000000018016c7c0 f i GuIncrementalAABBPruner.obj
 0001:0016b8d0       ?addObjects@IncrementalAABBPruner@Gu@physx@@UEAA_NPEAIPEBVPxBounds3@3@PEBUPrunerPayload@23@PEBV?$PxTransformT@M@3@I_N@Z 000000018016c8d0 f   GuIncrementalAABBPruner.obj
 0001:0016ba80       ?commit@IncrementalAABBPruner@Gu@physx@@UEAAXXZ 000000018016ca80 f   GuIncrementalAABBPruner.obj
 0001:0016bbd0       ?getGlobalBounds@IncrementalAABBPruner@Gu@physx@@UEBAXAEAVPxBounds3@3@@Z 000000018016cbd0 f   GuIncrementalAABBPruner.obj
 0001:0016bc40       ?getPayloadData@IncrementalAABBPruner@Gu@physx@@UEBAAEBUPrunerPayload@23@IPEAUPrunerPayloadData@23@@Z 000000018016cc40 f i GuIncrementalAABBPruner.obj
 0001:0016bc90       ?overlap@IncrementalAABBPruner@Gu@physx@@UEBA_NAEBVShapeData@23@AEAUPrunerOverlapCallback@23@@Z 000000018016cc90 f   GuIncrementalAABBPruner.obj
 0001:0016c230       ?preallocate@IncrementalAABBPruner@Gu@physx@@UEAAXI@Z 000000018016d230 f i GuIncrementalAABBPruner.obj
 0001:0016c240       ?purge@IncrementalAABBPruner@Gu@physx@@UEAAXXZ 000000018016d240 f   GuIncrementalAABBPruner.obj
 0001:0016c290       ?raycast@IncrementalAABBPruner@Gu@physx@@UEBA_NAEBV?$PxVec3T@M@3@0AEAMAEAUPrunerRaycastCallback@23@@Z 000000018016d290 f   GuIncrementalAABBPruner.obj
 0001:0016c310       ?removeObjects@IncrementalAABBPruner@Gu@physx@@UEAAXPEBIIPEAUPrunerPayloadRemovalCallback@23@@Z 000000018016d310 f   GuIncrementalAABBPruner.obj
 0001:0016c460       ?resize@?$PxArray@PEAVIncrementalAABBTreeNode@Gu@physx@@V?$PxReflectionAllocator@PEAVIncrementalAABBTreeNode@Gu@physx@@@3@@physx@@QEAAXIAEBQEAVIncrementalAABBTreeNode@Gu@2@@Z 000000018016d460 f i GuIncrementalAABBPruner.obj
 0001:0016c520       ?resizeUninitialized@?$PxArray@PEAVIncrementalAABBTreeNode@Gu@physx@@V?$PxReflectionAllocator@PEAVIncrementalAABBTreeNode@Gu@physx@@@3@@physx@@QEAAXI@Z 000000018016d520 f i GuIncrementalAABBPruner.obj
 0001:0016c560       ?setTransform@IncrementalAABBPruner@Gu@physx@@UEAA_NIAEBV?$PxTransformT@M@3@@Z 000000018016d560 f i GuIncrementalAABBPruner.obj
 0001:0016c5c0       ?shiftOrigin@IncrementalAABBPruner@Gu@physx@@UEAAXAEBV?$PxVec3T@M@3@@Z 000000018016d5c0 f   GuIncrementalAABBPruner.obj
 0001:0016c600       ?sweep@IncrementalAABBPruner@Gu@physx@@UEBA_NAEBVShapeData@23@AEBV?$PxVec3T@M@3@AEAMAEAUPrunerRaycastCallback@23@@Z 000000018016d600 f   GuIncrementalAABBPruner.obj
 0001:0016c720       ?updateObjects@IncrementalAABBPruner@Gu@physx@@UEAAXPEBIIM0PEBVPxBounds3@3@PEBUPxTransformPadded@3@@Z 000000018016d720 f   GuIncrementalAABBPruner.obj
 0001:0016c8f0       ?visualize@IncrementalAABBPruner@Gu@physx@@UEBAXAEAVPxRenderOutput@3@II@Z 000000018016d8f0 f   GuIncrementalAABBPruner.obj
 0001:0016cae0       ??0PruningPool@Gu@physx@@QEAA@_KW4TransformCacheMode@12@@Z 000000018016dae0 f   GuPruningPool.obj
 0001:0016cb10       ??1PruningPool@Gu@physx@@QEAA@XZ 000000018016db10 f   GuPruningPool.obj
 0001:0016cbe0       ?addObjects@PruningPool@Gu@physx@@QEAAIPEAIPEBVPxBounds3@3@PEBUPrunerPayload@23@PEBV?$PxTransformT@M@3@I@Z 000000018016dbe0 f   GuPruningPool.obj
 0001:0016cd90       ?preallocate@PruningPool@Gu@physx@@QEAAXI@Z 000000018016dd90 f   GuPruningPool.obj
 0001:0016cda0       ?removeObject@PruningPool@Gu@physx@@QEAAIIPEAUPrunerPayloadRemovalCallback@23@@Z 000000018016dda0 f   GuPruningPool.obj
 0001:0016cee0       ?resize@PruningPool@Gu@physx@@QEAA_NI@Z 000000018016dee0 f   GuPruningPool.obj
 0001:0016d1c0       ?shiftOrigin@PruningPool@Gu@physx@@QEAAXAEBV?$PxVec3T@M@3@@Z 000000018016e1c0 f   GuPruningPool.obj
 0001:0016d5d0       ?updateAndInflateBounds@PruningPool@Gu@physx@@QEAAXPEBI0PEBVPxBounds3@3@PEBUPxTransformPadded@3@IM@Z 000000018016e5d0 f   GuPruningPool.obj
 0001:0016efd0       ??0BucketPruner@Gu@physx@@QEAA@_K@Z 000000018016ffd0 f   GuBucketPruner.obj
 0001:0016f020       ??0BucketPrunerCore@Gu@physx@@QEAA@_N@Z 0000000180170020 f   GuBucketPruner.obj
 0001:0016f3a0       ??1BucketPrunerCore@Gu@physx@@QEAA@XZ 00000001801703a0 f   GuBucketPruner.obj
 0001:0016f4f0       ??R?$BucketPrunerOverlapTraversal@UBucketPrunerAABBAABBTest@@$00@@QEBA_NAEBVBucketPrunerCore@Gu@physx@@AEBUBucketPrunerAABBAABBTest@@AEAUPrunerOverlapCallback@23@AEBVPxBounds3@3@@Z 00000001801704f0 f i GuBucketPruner.obj
 0001:0016fad0       ??R?$BucketPrunerOverlapTraversal@UOBBAABBTest_SIMD@@$0A@@@QEBA_NAEBVBucketPrunerCore@Gu@physx@@AEBUOBBAABBTest_SIMD@@AEAUPrunerOverlapCallback@23@AEBVPxBounds3@3@@Z 0000000180170ad0 f i GuBucketPruner.obj
 0001:00170330       ??R?$BucketPrunerOverlapTraversal@USphereAABBTest_SIMD@@$00@@QEBA_NAEBVBucketPrunerCore@Gu@physx@@AEBUSphereAABBTest_SIMD@@AEAUPrunerOverlapCallback@23@AEBVPxBounds3@3@@Z 0000000180171330 f i GuBucketPruner.obj
 0001:00170910       ??_FBucketPrunerCore@Gu@physx@@QEAAXXZ 0000000180171910 f i GuBucketPruner.obj
 0001:00170920       ??_GBucketPruner@Gu@physx@@UEAAPEAXI@Z 0000000180171920 f i GuBucketPruner.obj
 0001:00170920       ??_EBucketPruner@Gu@physx@@UEAAPEAXI@Z 0000000180171920 f i GuBucketPruner.obj
 0001:001709b0       ?addObject@BucketPrunerCore@Gu@physx@@QEAA_NAEBUPrunerPayload@23@AEBVPxBounds3@3@AEBV?$PxTransformT@M@3@I@Z 00000001801719b0 f   GuBucketPruner.obj
 0001:00170cd0       ?addObjects@BucketPruner@Gu@physx@@UEAA_NPEAIPEBVPxBounds3@3@PEBUPrunerPayload@23@PEBV?$PxTransformT@M@3@I_N@Z 0000000180171cd0 f   GuBucketPruner.obj
 0001:00170d60       ?addPair@BucketPrunerMap@Gu@physx@@QEAAPEAUBucketPrunerPair@23@AEBUPrunerPayload@23@II@Z 0000000180171d60 f   GuBucketPruner.obj
 0001:00170f50       ?allocateSortedMemory@BucketPrunerCore@Gu@physx@@AEAAXI@Z 0000000180171f50 f   GuBucketPruner.obj
 0001:00171110       ?classifyBoxes@BucketPrunerCore@Gu@physx@@AEAAXXZ 0000000180172110 f   GuBucketPruner.obj
 0001:00171910       ?classifyBoxes@BucketPrunerNode@Gu@physx@@QEAAXMMIPEIAUBucketBox@23@PEIBUPrunerPayload@23@PEIBV?$PxTransformT@M@3@0PEIAU523@PEIAV63@_NI@Z 0000000180172910 f   GuBucketPruner.obj
 0001:00172200       ?build@CompanionPrunerBucket@@UEAAXXZ 0000000180173200 f   GuSecondaryPruner.obj
 0001:00172200       ?commit@BucketPruner@Gu@physx@@UEAAXXZ 0000000180173200 f   GuBucketPruner.obj
 0001:00172210       ?findPair@BucketPrunerMap@Gu@physx@@QEBAPEBUBucketPrunerPair@23@AEBUPrunerPayload@23@@Z 0000000180173210 f   GuBucketPruner.obj
 0001:00172610       ?getGlobalBounds@BucketPruner@Gu@physx@@UEBAXAEAVPxBounds3@3@@Z 0000000180173610 f   GuBucketPruner.obj
 0001:00172690       ?getGlobalBounds@BucketPrunerCore@Gu@physx@@QEBAXAEAVPxBounds3@3@@Z 0000000180173690 f   GuBucketPruner.obj
 0001:00172710       ?getPayloadData@BucketPruner@Gu@physx@@UEBAAEBUPrunerPayload@23@IPEAUPrunerPayloadData@23@@Z 0000000180173710 f i GuBucketPruner.obj
 0001:00172770       ?overlap@BucketPruner@Gu@physx@@UEBA_NAEBVShapeData@23@AEAUPrunerOverlapCallback@23@@Z 0000000180173770 f   GuBucketPruner.obj
 0001:00172790       ?overlap@BucketPrunerCore@Gu@physx@@QEBA_NAEBVShapeData@23@AEAUPrunerOverlapCallback@23@@Z 0000000180173790 f   GuBucketPruner.obj
 0001:00172a70       ?preallocate@BucketPruner@Gu@physx@@UEAAXI@Z 0000000180173a70 f i GuBucketPruner.obj
 0001:00172c50       ?purge@BucketPrunerMap@Gu@physx@@QEAAXXZ 0000000180173c50 f   GuBucketPruner.obj
 0001:00172ce0       ?raycast@BucketPruner@Gu@physx@@UEBA_NAEBV?$PxVec3T@M@3@0AEAMAEAUPrunerRaycastCallback@23@@Z 0000000180173ce0 f   GuBucketPruner.obj
 0001:00172d30       ?raycast@BucketPrunerCore@Gu@physx@@QEBA_NAEBV?$PxVec3T@M@3@0AEAMAEAUPrunerRaycastCallback@23@@Z 0000000180173d30 f   GuBucketPruner.obj
 0001:00172d70       ?reallocPairs@BucketPrunerMap@Gu@physx@@QEAAXXZ 0000000180173d70 f   GuBucketPruner.obj
 0001:00172fa0       ?release@BucketPrunerCore@Gu@physx@@QEAAXXZ 0000000180173fa0 f   GuBucketPruner.obj
 0001:001730e0       ?removeMarkedObjects@BucketPrunerCore@Gu@physx@@QEAAII@Z 00000001801740e0 f   GuBucketPruner.obj
 0001:00173490       ?removeObject@BucketPrunerCore@Gu@physx@@QEAA_NAEBUPrunerPayload@23@AEAI@Z 0000000180174490 f   GuBucketPruner.obj
 0001:00173750       ?removeObjects@BucketPruner@Gu@physx@@UEAAXPEBIIPEAUPrunerPayloadRemovalCallback@23@@Z 0000000180174750 f   GuBucketPruner.obj
 0001:00173800       ?removePair@BucketPrunerMap@Gu@physx@@QEAA_NAEBUPrunerPayload@23@AEAI1@Z 0000000180174800 f   GuBucketPruner.obj
 0001:00173980       ?removePairInternal@BucketPrunerMap@Gu@physx@@QEAAXAEBUPrunerPayload@23@II@Z 0000000180174980 f   GuBucketPruner.obj
 0001:00173af0       ?resizeCore@BucketPrunerCore@Gu@physx@@AEAAXXZ 0000000180174af0 f   GuBucketPruner.obj
 0001:00173d40       ?setTransform@BucketPruner@Gu@physx@@UEAA_NIAEBV?$PxTransformT@M@3@@Z 0000000180174d40 f i GuBucketPruner.obj
 0001:00173da0       ?shiftOrigin@CompanionPrunerBucket@@UEAAXAEBV?$PxVec3T@M@physx@@@Z 0000000180174da0 f   GuSecondaryPruner.obj
 0001:00173da0       ?shiftOrigin@BucketPruner@Gu@physx@@UEAAXAEBV?$PxVec3T@M@3@@Z 0000000180174da0 f   GuBucketPruner.obj
 0001:00173db0       ?shiftOrigin@BucketPrunerCore@Gu@physx@@QEAAXAEBV?$PxVec3T@M@3@@Z 0000000180174db0 f   GuBucketPruner.obj
 0001:00174cf0       ?sweep@BucketPruner@Gu@physx@@UEBA_NAEBVShapeData@23@AEBV?$PxVec3T@M@3@AEAMAEAUPrunerRaycastCallback@23@@Z 0000000180175cf0 f   GuBucketPruner.obj
 0001:00174d10       ?sweep@BucketPrunerCore@Gu@physx@@QEBA_NAEBVShapeData@23@AEBV?$PxVec3T@M@3@AEAMAEAUPrunerRaycastCallback@23@@Z 0000000180175d10 f   GuBucketPruner.obj
 0001:00174de0       ?updateObject@BucketPrunerCore@Gu@physx@@QEAA_NAEBVPxBounds3@3@AEBUPrunerPayload@23@AEBV?$PxTransformT@M@3@@Z 0000000180175de0 f   GuBucketPruner.obj
 0001:00174e40       ?updateObjects@BucketPruner@Gu@physx@@UEAAXPEBIIM0PEBVPxBounds3@3@PEBUPxTransformPadded@3@@Z 0000000180175e40 f   GuBucketPruner.obj
 0001:00174f50       ?visualize@BucketPruner@Gu@physx@@UEBAXAEAVPxRenderOutput@3@II@Z 0000000180175f50 f   GuBucketPruner.obj
 0001:00174f50       ?visualize@CompanionPrunerBucket@@UEBAXAEAVPxRenderOutput@physx@@I@Z 0000000180175f50 f   GuSecondaryPruner.obj
 0001:00174f60       ?visualize@BucketPrunerCore@Gu@physx@@QEBAXAEAVPxRenderOutput@3@I@Z 0000000180175f60 f   GuBucketPruner.obj
 0001:00175270       ?addObject@MaverickNode@Gu@physx@@QEAA_NAEBUPrunerPayload@23@IAEBVPxBounds3@3@AEBV?$PxTransformT@M@3@I@Z 0000000180176270 f   GuMaverickNode.obj
 0001:00175350       ?removeMarkedObjects@MaverickNode@Gu@physx@@QEAAII@Z 0000000180176350 f   GuMaverickNode.obj
 0001:001754d0       ?removeObject@MaverickNode@Gu@physx@@QEAA_NIAEAI@Z 00000001801764d0 f   GuMaverickNode.obj
 0001:00175640       ?shiftOrigin@MaverickNode@Gu@physx@@QEAAXAEBV?$PxVec3T@M@3@@Z 0000000180176640 f   GuMaverickNode.obj
 0001:00175730       ?updateObject@MaverickNode@Gu@physx@@QEAA_NIAEBVPxBounds3@3@AEBV?$PxTransformT@M@3@@Z 0000000180176730 f   GuMaverickNode.obj
 0001:00175810       ??0ExtendedBucketPruner@Gu@physx@@QEAA@_KW4CompanionPrunerType@12@PEBVPruningPool@12@@Z 0000000180176810 f   GuExtendedBucketPruner.obj
 0001:00175a50       ??1ExtendedBucketPruner@Gu@physx@@QEAA@XZ 0000000180176a50 f   GuExtendedBucketPruner.obj
 0001:00175bc0       ??R?$AABBTreeOverlap@$00U?$OBBAABBTests@$00@Gu@physx@@VAABBTree@23@UBVHNode@23@U?$MainTreeOverlapPrunerCallback@U?$OBBAABBTests@$00@Gu@physx@@@@@Gu@physx@@QEAA_NAEBVAABBTreeBounds@12@AEBVAABBTree@12@AEBU?$OBBAABBTests@$00@12@AEAU?$MainTreeOverlapPrunerCallback@U?$OBBAABBTests@$00@Gu@physx@@@@@Z 0000000180176bc0 f i GuExtendedBucketPruner.obj
 0001:001761b0       ??R?$AABBTreeOverlap@$00U?$OBBAABBTests@$00@Gu@physx@@VAABBTree@23@UBVHNode@23@UOverlapCallbackAdapter@23@@Gu@physx@@QEAA_NAEBVAABBTreeBounds@12@AEBVAABBTree@12@AEBU?$OBBAABBTests@$00@12@AEAUOverlapCallbackAdapter@12@@Z 00000001801771b0 f i GuExtendedBucketPruner.obj
 0001:00176770       ??R?$AABBTreeOverlap@$00UAABBAABBTest@Gu@physx@@VAABBTree@23@UBVHNode@23@U?$MainTreeOverlapPrunerCallback@UAABBAABBTest@Gu@physx@@@@@Gu@physx@@QEAA_NAEBVAABBTreeBounds@12@AEBVAABBTree@12@AEBUAABBAABBTest@12@AEAU?$MainTreeOverlapPrunerCallback@UAABBAABBTest@Gu@physx@@@@@Z 0000000180177770 f i GuExtendedBucketPruner.obj
 0001:00176a10       ??R?$AABBTreeOverlap@$00UAABBAABBTest@Gu@physx@@VAABBTree@23@UBVHNode@23@UOverlapCallbackAdapter@23@@Gu@physx@@QEAA_NAEBVAABBTreeBounds@12@AEBVAABBTree@12@AEBUAABBAABBTest@12@AEAUOverlapCallbackAdapter@12@@Z 0000000180177a10 f i GuExtendedBucketPruner.obj
 0001:00176ca0       ??R?$AABBTreeOverlap@$00UCapsuleAABBTest@Gu@physx@@VAABBTree@23@UBVHNode@23@U?$MainTreeOverlapPrunerCallback@UCapsuleAABBTest@Gu@physx@@@@@Gu@physx@@QEAA_NAEBVAABBTreeBounds@12@AEBVAABBTree@12@AEBUCapsuleAABBTest@12@AEAU?$MainTreeOverlapPrunerCallback@UCapsuleAABBTest@Gu@physx@@@@@Z 0000000180177ca0 f i GuExtendedBucketPruner.obj
 0001:00177040       ??R?$AABBTreeOverlap@$00UCapsuleAABBTest@Gu@physx@@VAABBTree@23@UBVHNode@23@UOverlapCallbackAdapter@23@@Gu@physx@@QEAA_NAEBVAABBTreeBounds@12@AEBVAABBTree@12@AEBUCapsuleAABBTest@12@AEAUOverlapCallbackAdapter@12@@Z 0000000180178040 f i GuExtendedBucketPruner.obj
 0001:001773d0       ??R?$AABBTreeOverlap@$00USphereAABBTest@Gu@physx@@VAABBTree@23@UBVHNode@23@U?$MainTreeOverlapPrunerCallback@USphereAABBTest@Gu@physx@@@@@Gu@physx@@QEAA_NAEBVAABBTreeBounds@12@AEBVAABBTree@12@AEBUSphereAABBTest@12@AEAU?$MainTreeOverlapPrunerCallback@USphereAABBTest@Gu@physx@@@@@Z 00000001801783d0 f i GuExtendedBucketPruner.obj
 0001:001776e0       ??R?$AABBTreeOverlap@$00USphereAABBTest@Gu@physx@@VAABBTree@23@UBVHNode@23@UOverlapCallbackAdapter@23@@Gu@physx@@QEAA_NAEBVAABBTreeBounds@12@AEBVAABBTree@12@AEBUSphereAABBTest@12@AEAUOverlapCallbackAdapter@12@@Z 00000001801786e0 f i GuExtendedBucketPruner.obj
 0001:001779d0       ??R?$AABBTreeRaycast@$00$00VAABBTree@Gu@physx@@UBVHNode@23@U?$MainTreeRaycastPrunerCallback@$00@@@Gu@physx@@QEAA_NAEBVAABBTreeBounds@12@AEBVAABBTree@12@AEBV?$PxVec3T@M@2@2AEAM2AEAU?$MainTreeRaycastPrunerCallback@$00@@@Z 00000001801789d0 f i GuExtendedBucketPruner.obj
 0001:001780c0       ??R?$AABBTreeRaycast@$00$00VAABBTree@Gu@physx@@UBVHNode@23@URaycastCallbackAdapter@23@@Gu@physx@@QEAA_NAEBVAABBTreeBounds@12@AEBVAABBTree@12@AEBV?$PxVec3T@M@2@2AEAM2AEAURaycastCallbackAdapter@12@@Z 00000001801790c0 f i GuExtendedBucketPruner.obj
 0001:00178760       ??R?$AABBTreeRaycast@$0A@$00VAABBTree@Gu@physx@@UBVHNode@23@U?$MainTreeRaycastPrunerCallback@$0A@@@@Gu@physx@@QEAA_NAEBVAABBTreeBounds@12@AEBVAABBTree@12@AEBV?$PxVec3T@M@2@2AEAM2AEAU?$MainTreeRaycastPrunerCallback@$0A@@@@Z 0000000180179760 f i GuExtendedBucketPruner.obj
 0001:00178e00       ??R?$AABBTreeRaycast@$0A@$00VAABBTree@Gu@physx@@UBVHNode@23@URaycastCallbackAdapter@23@@Gu@physx@@QEAA_NAEBVAABBTreeBounds@12@AEBVAABBTree@12@AEBV?$PxVec3T@M@2@2AEAM2AEAURaycastCallbackAdapter@12@@Z 0000000180179e00 f i GuExtendedBucketPruner.obj
 0001:00179460       ?addTree@ExtendedBucketPruner@Gu@physx@@QEAAXAEBVAABBTreeMergeData@23@I@Z 000000018017a460 f   GuExtendedBucketPruner.obj
 0001:00179720       ?buildMainAABBTree@ExtendedBucketPruner@Gu@physx@@AEAAXXZ 000000018017a720 f   GuExtendedBucketPruner.obj
 0001:001797d0       ?create@?$PxHashBase@V?$PxPair@$$CBUPrunerPayload@Gu@physx@@UExtendedBucketPrunerData@23@@physx@@UPrunerPayload@Gu@2@UExtendedBucketPrunerHash@42@UGetKey@?$PxHashMapBase@UPrunerPayload@Gu@physx@@UExtendedBucketPrunerData@23@UExtendedBucketPrunerHash@23@VPxAllocator@3@@2@VPxAllocator@2@$00@physx@@QEAAPEAV?$PxPair@$$CBUPrunerPayload@Gu@physx@@UExtendedBucketPrunerData@23@@2@AEBUPrunerPayload@Gu@2@AEA_N@Z 000000018017a7d0 f i GuExtendedBucketPruner.obj
 0001:00179990       ?eraseCurrentGetNext@PxEraseIterator@?$PxHashBase@V?$PxPair@$$CBUPrunerPayload@Gu@physx@@UExtendedBucketPrunerData@23@@physx@@UPrunerPayload@Gu@2@UExtendedBucketPrunerHash@42@UGetKey@?$PxHashMapBase@UPrunerPayload@Gu@physx@@UExtendedBucketPrunerData@23@UExtendedBucketPrunerHash@23@VPxAllocator@3@@2@VPxAllocator@2@$00@physx@@QEAAPEAV?$PxPair@$$CBUPrunerPayload@Gu@physx@@UExtendedBucketPrunerData@23@@3@_N@Z 000000018017a990 f i GuExtendedBucketPruner.obj
 0001:00179a80       ?eraseInternal@?$PxHashBase@V?$PxPair@$$CBUPrunerPayload@Gu@physx@@UExtendedBucketPrunerData@23@@physx@@UPrunerPayload@Gu@2@UExtendedBucketPrunerHash@42@UGetKey@?$PxHashMapBase@UPrunerPayload@Gu@physx@@UExtendedBucketPrunerData@23@UExtendedBucketPrunerHash@23@VPxAllocator@3@@2@VPxAllocator@2@$00@physx@@AEAA_NPEAI@Z 000000018017aa80 f i GuExtendedBucketPruner.obj
 0001:00179ba0       ?find@?$PxHashMapBase@UPrunerPayload@Gu@physx@@UExtendedBucketPrunerData@23@UExtendedBucketPrunerHash@23@VPxAllocator@3@@physx@@QEBAPEBV?$PxPair@$$CBUPrunerPayload@Gu@physx@@UExtendedBucketPrunerData@23@@2@AEBUPrunerPayload@Gu@2@@Z 000000018017aba0 f i GuExtendedBucketPruner.obj
 0001:00179c90       ?getGlobalBounds@ExtendedBucketPruner@Gu@physx@@QEBAXAEAVPxBounds3@3@@Z 000000018017ac90 f   GuExtendedBucketPruner.obj
 0001:00179d60       ?overlap@ExtendedBucketPruner@Gu@physx@@QEBA_NAEBVShapeData@23@AEAUPrunerOverlapCallback@23@@Z 000000018017ad60 f   GuExtendedBucketPruner.obj
 0001:0017a550       ?raycast@ExtendedBucketPruner@Gu@physx@@QEBA_NAEBV?$PxVec3T@M@3@0AEAMAEAUPrunerRaycastCallback@23@@Z 000000018017b550 f   GuExtendedBucketPruner.obj
 0001:0017a630       ?refitMarkedNodes@ExtendedBucketPruner@Gu@physx@@QEAAXPEBVPxBounds3@3@@Z 000000018017b630 f   GuExtendedBucketPruner.obj
 0001:0017ab30       ?release@ExtendedBucketPruner@Gu@physx@@QEAAXXZ 000000018017bb30 f   GuExtendedBucketPruner.obj
 0001:0017ac00       ?removeMarkedObjects@ExtendedBucketPruner@Gu@physx@@QEAAII@Z 000000018017bc00 f   GuExtendedBucketPruner.obj
 0001:0017af20       ?removeObject@ExtendedBucketPruner@Gu@physx@@QEAA_NAEBUPrunerPayload@23@II0I@Z 000000018017bf20 f   GuExtendedBucketPruner.obj
 0001:0017b1f0       ?reserveInternal@?$PxHashBase@V?$PxPair@$$CBUPrunerPayload@Gu@physx@@UExtendedBucketPrunerData@23@@physx@@UPrunerPayload@Gu@2@UExtendedBucketPrunerHash@42@UGetKey@?$PxHashMapBase@UPrunerPayload@Gu@physx@@UExtendedBucketPrunerData@23@UExtendedBucketPrunerHash@23@VPxAllocator@3@@2@VPxAllocator@2@$00@physx@@AEAAXI@Z 000000018017c1f0 f i GuExtendedBucketPruner.obj
 0001:0017b3f0       ?shiftOrigin@ExtendedBucketPruner@Gu@physx@@QEAAXAEBV?$PxVec3T@M@3@@Z 000000018017c3f0 f   GuExtendedBucketPruner.obj
 0001:0017b470       ?swapIndex@ExtendedBucketPruner@Gu@physx@@QEAAXIAEBUPrunerPayload@23@I_N@Z 000000018017c470 f   GuExtendedBucketPruner.obj
 0001:0017b540       ?sweep@ExtendedBucketPruner@Gu@physx@@QEBA_NAEBVShapeData@23@AEBV?$PxVec3T@M@3@AEAMAEAUPrunerRaycastCallback@23@@Z 000000018017c540 f   GuExtendedBucketPruner.obj
 0001:0017b6d0       ?traverseHashEntries@PxEraseIterator@?$PxHashBase@V?$PxPair@$$CBUPrunerPayload@Gu@physx@@UExtendedBucketPrunerData@23@@physx@@UPrunerPayload@Gu@2@UExtendedBucketPrunerHash@42@UGetKey@?$PxHashMapBase@UPrunerPayload@Gu@physx@@UExtendedBucketPrunerData@23@UExtendedBucketPrunerHash@23@VPxAllocator@3@@2@VPxAllocator@2@$00@physx@@AEAAPEAV?$PxPair@$$CBUPrunerPayload@Gu@physx@@UExtendedBucketPrunerData@23@@3@XZ 000000018017c6d0 f i GuExtendedBucketPruner.obj
 0001:0017b720       ?updateObject@ExtendedBucketPruner@Gu@physx@@QEAA_NAEBVPxBounds3@3@AEBV?$PxTransformT@M@3@AEBUPrunerPayload@23@II@Z 000000018017c720 f   GuExtendedBucketPruner.obj
 0001:0017b7f0       ?visualize@ExtendedBucketPruner@Gu@physx@@QEBAXAEAVPxRenderOutput@3@I@Z 000000018017c7f0 f   GuExtendedBucketPruner.obj
 0001:0017b880       ??0?$OBBAABBTests@$00@Gu@physx@@QEAA@AEBV?$PxVec3T@M@2@AEBV?$PxMat33T@M@2@0@Z 000000018017c880 f i GuSecondaryPruner.obj
 0001:0017d7b0       ??_GCompanionPruner@Gu@physx@@UEAAPEAXI@Z 000000018017e7b0 f i GuSecondaryPruner.obj
 0001:0017d7b0       ??_ECompanionPruner@Gu@physx@@UEAAPEAXI@Z 000000018017e7b0 f i GuSecondaryPruner.obj
 0001:0017d800       ??_ECompanionPrunerAABBTree@@UEAAPEAXI@Z 000000018017e800 f i GuSecondaryPruner.obj
 0001:0017d800       ??_GCompanionPrunerAABBTree@@UEAAPEAXI@Z 000000018017e800 f i GuSecondaryPruner.obj
 0001:0017d8b0       ??_GCompanionPrunerBucket@@UEAAPEAXI@Z 000000018017e8b0 f i GuSecondaryPruner.obj
 0001:0017d8b0       ??_ECompanionPrunerBucket@@UEAAPEAXI@Z 000000018017e8b0 f i GuSecondaryPruner.obj
 0001:0017d930       ??_GCompanionPrunerIncremental@@UEAAPEAXI@Z 000000018017e930 f i GuSecondaryPruner.obj
 0001:0017d930       ??_ECompanionPrunerIncremental@@UEAAPEAXI@Z 000000018017e930 f i GuSecondaryPruner.obj
 0001:0017d9b0       ?addObject@CompanionPrunerAABBTree@@UEAA_NAEBUPrunerPayload@Gu@physx@@IAEBVPxBounds3@4@AEBV?$PxTransformT@M@4@II@Z 000000018017e9b0 f   GuSecondaryPruner.obj
 0001:0017dbf0       ?addObject@CompanionPrunerBucket@@UEAA_NAEBUPrunerPayload@Gu@physx@@IAEBVPxBounds3@4@AEBV?$PxTransformT@M@4@II@Z 000000018017ebf0 f i GuSecondaryPruner.obj
 0001:0017dc10       ?addObject@CompanionPrunerIncremental@@UEAA_NAEBUPrunerPayload@Gu@physx@@IAEBVPxBounds3@4@AEBV?$PxTransformT@M@4@II@Z 000000018017ec10 f i GuSecondaryPruner.obj
 0001:0017dc30       ?addObjectInternal@CompanionPrunerAABBTree@@QEAA_NII@Z 000000018017ec30 f   GuSecondaryPruner.obj
 0001:0017ddd0       ?build@CompanionPrunerAABBTree@@UEAAXXZ 000000018017edd0 f   GuSecondaryPruner.obj
 0001:0017e290       ?createCompanionPruner@Gu@physx@@YAPEAVCompanionPruner@12@_KW4CompanionPrunerType@12@PEBVPruningPool@12@@Z 000000018017f290 f   GuSecondaryPruner.obj
 0001:0017e490       ?getGlobalBounds@CompanionPrunerAABBTree@@UEBAXAEAVPxBounds3@physx@@@Z 000000018017f490 f   GuSecondaryPruner.obj
 0001:0017e5a0       ?getGlobalBounds@CompanionPrunerBucket@@UEBAXAEAVPxBounds3@physx@@@Z 000000018017f5a0 f i GuSecondaryPruner.obj
 0001:0017e5b0       ?getGlobalBounds@CompanionPrunerIncremental@@UEBAXAEAVPxBounds3@physx@@@Z 000000018017f5b0 f i GuSecondaryPruner.obj
 0001:0017e5c0       ?getNbObjects@CompanionPrunerAABBTree@@UEBAIXZ 000000018017f5c0 f   GuSecondaryPruner.obj
 0001:0017e5d0       ?getNbObjects@CompanionPrunerBucket@@UEBAIXZ 000000018017f5d0 f i GuSecondaryPruner.obj
 0001:0017e5e0       ?getNbObjects@CompanionPrunerIncremental@@UEBAIXZ 000000018017f5e0 f i GuSecondaryPruner.obj
 0001:0017e5f0       ?growAndPushBack@?$PxArray@ULocalData@CompanionPrunerAABBTree@@V?$PxReflectionAllocator@ULocalData@CompanionPrunerAABBTree@@@physx@@@physx@@IEAAAEAULocalData@CompanionPrunerAABBTree@@AEBU34@@Z 000000018017f5f0 f i GuSecondaryPruner.obj
 0001:0017e710       ?overlap@CompanionPrunerAABBTree@@UEBA_NAEBVShapeData@Gu@physx@@AEAUPrunerOverlapCallback@34@@Z 000000018017f710 f   GuSecondaryPruner.obj
 0001:0017f870       ?overlap@CompanionPrunerBucket@@UEBA_NAEBVShapeData@Gu@physx@@AEAUPrunerOverlapCallback@34@@Z 0000000180180870 f i GuSecondaryPruner.obj
 0001:0017f890       ?overlap@CompanionPrunerIncremental@@UEBA_NAEBVShapeData@Gu@physx@@AEAUPrunerOverlapCallback@34@@Z 0000000180180890 f i GuSecondaryPruner.obj
 0001:0017f8b0       ?raycast@CompanionPrunerAABBTree@@UEBA_NAEBV?$PxVec3T@M@physx@@0AEAMAEAUPrunerRaycastCallback@Gu@3@@Z 00000001801808b0 f   GuSecondaryPruner.obj
 0001:0017fc90       ?raycast@CompanionPrunerBucket@@UEBA_NAEBV?$PxVec3T@M@physx@@0AEAMAEAUPrunerRaycastCallback@Gu@3@@Z 0000000180180c90 f i GuSecondaryPruner.obj
 0001:0017fcb0       ?raycast@CompanionPrunerIncremental@@UEBA_NAEBV?$PxVec3T@M@physx@@0AEAMAEAUPrunerRaycastCallback@Gu@3@@Z 0000000180180cb0 f i GuSecondaryPruner.obj
 0001:0017fcd0       ?release@CompanionPrunerAABBTree@@UEAAXXZ 0000000180180cd0 f   GuSecondaryPruner.obj
 0001:0017fce0       ?release@CompanionPrunerBucket@@UEAAXXZ 0000000180180ce0 f i GuSecondaryPruner.obj
 0001:0017fcf0       ?release@CompanionPrunerIncremental@@UEAAXXZ 0000000180180cf0 f i GuSecondaryPruner.obj
 0001:0017fd00       ?releaseInternal@CompanionPrunerAABBTree@@QEAAXXZ 0000000180180d00 f   GuSecondaryPruner.obj
 0001:0017fd80       ?removeMarkedObjects@CompanionPrunerAABBTree@@UEAAII@Z 0000000180180d80 f   GuSecondaryPruner.obj
 0001:0017fda0       ?removeMarkedObjects@CompanionPrunerBucket@@UEAAII@Z 0000000180180da0 f i GuSecondaryPruner.obj
 0001:0017fdb0       ?removeMarkedObjects@CompanionPrunerIncremental@@UEAAII@Z 0000000180180db0 f i GuSecondaryPruner.obj
 0001:0017fdc0       ?removeObject@CompanionPrunerAABBTree@@UEAA_NAEBUPrunerPayload@Gu@physx@@III@Z 0000000180180dc0 f   GuSecondaryPruner.obj
 0001:0017fe60       ?removeObject@CompanionPrunerBucket@@UEAA_NAEBUPrunerPayload@Gu@physx@@III@Z 0000000180180e60 f i GuSecondaryPruner.obj
 0001:0017fe80       ?removeObject@CompanionPrunerIncremental@@UEAA_NAEBUPrunerPayload@Gu@physx@@III@Z 0000000180180e80 f i GuSecondaryPruner.obj
 0001:0017fea0       ?shiftOrigin@CompanionPrunerAABBTree@@UEAAXAEBV?$PxVec3T@M@physx@@@Z 0000000180180ea0 f   GuSecondaryPruner.obj
 0001:0017ffd0       ?shiftOrigin@CompanionPrunerIncremental@@UEAAXAEBV?$PxVec3T@M@physx@@@Z 0000000180180fd0 f i GuSecondaryPruner.obj
 0001:0017ffe0       ?swapIndex@CompanionPrunerIncremental@@UEAAXII@Z 0000000180180fe0 f i GuSecondaryPruner.obj
 0001:0017fff0       ?sweep@CompanionPrunerAABBTree@@UEBA_NAEBVShapeData@Gu@physx@@AEBV?$PxVec3T@M@4@AEAMAEAUPrunerRaycastCallback@34@@Z 0000000180180ff0 f   GuSecondaryPruner.obj
 0001:00180520       ?sweep@CompanionPrunerBucket@@UEBA_NAEBVShapeData@Gu@physx@@AEBV?$PxVec3T@M@4@AEAMAEAUPrunerRaycastCallback@34@@Z 0000000180181520 f i GuSecondaryPruner.obj
 0001:00180540       ?sweep@CompanionPrunerIncremental@@UEBA_NAEBVShapeData@Gu@physx@@AEBV?$PxVec3T@M@4@AEAMAEAUPrunerRaycastCallback@34@@Z 0000000180181540 f i GuSecondaryPruner.obj
 0001:00180560       ?timeStampChange@CompanionPrunerIncremental@@UEAAXXZ 0000000180181560 f i GuSecondaryPruner.obj
 0001:00180580       ?updateObject@CompanionPrunerAABBTree@@UEAA_NAEBUPrunerPayload@Gu@physx@@IAEBVPxBounds3@4@AEBV?$PxTransformT@M@4@I@Z 0000000180181580 f   GuSecondaryPruner.obj
 0001:00180600       ?updateObject@CompanionPrunerBucket@@UEAA_NAEBUPrunerPayload@Gu@physx@@IAEBVPxBounds3@4@AEBV?$PxTransformT@M@4@I@Z 0000000180181600 f i GuSecondaryPruner.obj
 0001:00180620       ?updateObject@CompanionPrunerIncremental@@UEAA_NAEBUPrunerPayload@Gu@physx@@IAEBVPxBounds3@4@AEBV?$PxTransformT@M@4@I@Z 0000000180181620 f i GuSecondaryPruner.obj
 0001:00180630       ?visualize@CompanionPrunerAABBTree@@UEBAXAEAVPxRenderOutput@physx@@I@Z 0000000180181630 f   GuSecondaryPruner.obj
 0001:00180650       ?visualize@CompanionPrunerIncremental@@UEBAXAEAVPxRenderOutput@physx@@I@Z 0000000180181650 f i GuSecondaryPruner.obj
 0001:00180660       ??0AABBPruner@Gu@physx@@QEAA@_N_KW4CompanionPrunerType@12@W4BVHBuildStrategy@12@I@Z 0000000180181660 f   GuAABBPruner.obj
 0001:00180790       ??1AABBPruner@Gu@physx@@UEAA@XZ 0000000180181790 f   GuAABBPruner.obj
 0001:001808f0       ??_GAABBPruner@Gu@physx@@UEAAPEAXI@Z 00000001801818f0 f i GuAABBPruner.obj
 0001:001808f0       ??_EAABBPruner@Gu@physx@@UEAAPEAXI@Z 00000001801818f0 f i GuAABBPruner.obj
 0001:00180960       ?addObjects@AABBPruner@Gu@physx@@UEAA_NPEAIPEBVPxBounds3@3@PEBUPrunerPayload@23@PEBV?$PxTransformT@M@3@I_N@Z 0000000180181960 f   GuAABBPruner.obj
 0001:00180ac0       ?buildStep@AABBPruner@Gu@physx@@UEAA_N_N@Z 0000000180181ac0 f   GuAABBPruner.obj
 0001:00180d00       ?commit@AABBPruner@Gu@physx@@UEAAXXZ 0000000180181d00 f   GuAABBPruner.obj
 0001:001810d0       ?getGlobalBounds@AABBPruner@Gu@physx@@UEBAXAEAVPxBounds3@3@@Z 00000001801820d0 f   GuAABBPruner.obj
 0001:00181200       ?getPayloadData@AABBPruner@Gu@physx@@UEBAAEBUPrunerPayload@23@IPEAUPrunerPayloadData@23@@Z 0000000180182200 f i GuAABBPruner.obj
 0001:00181260       ?growAndPushBack@?$PxArray@UNewTreeFixup@AABBPruner@Gu@physx@@V?$PxReflectionAllocator@UNewTreeFixup@AABBPruner@Gu@physx@@@4@@physx@@IEAAAEAUNewTreeFixup@AABBPruner@Gu@2@AEBU3452@@Z 0000000180182260 f i GuAABBPruner.obj
 0001:00181380       ?isDynamic@AABBPruner@Gu@physx@@UEBA_NXZ 0000000180182380 f i GuAABBPruner.obj
 0001:00181390       ?merge@AABBPruner@Gu@physx@@UEAAXPEBX@Z 0000000180182390 f   GuAABBPruner.obj
 0001:00181410       ?overlap@AABBPruner@Gu@physx@@UEBA_NAEBVShapeData@23@AEAUPrunerOverlapCallback@23@@Z 0000000180182410 f   GuAABBPruner.obj
 0001:001819f0       ?preallocate@AABBPruner@Gu@physx@@UEAAXI@Z 00000001801829f0 f i GuAABBPruner.obj
 0001:00181a00       ?prepareBuild@AABBPruner@Gu@physx@@UEAA_NXZ 0000000180182a00 f   GuAABBPruner.obj
 0001:00181b90       ?purge@AABBPruner@Gu@physx@@UEAAXXZ 0000000180182b90 f   GuAABBPruner.obj
 0001:00181bb0       ?raycast@AABBPruner@Gu@physx@@UEBA_NAEBV?$PxVec3T@M@3@0AEAMAEAUPrunerRaycastCallback@23@@Z 0000000180182bb0 f   GuAABBPruner.obj
 0001:00181ca0       ?release@AABBPruner@Gu@physx@@QEAAXXZ 0000000180182ca0 f   GuAABBPruner.obj
 0001:00181dd0       ?removeObjects@AABBPruner@Gu@physx@@UEAAXPEBIIPEAUPrunerPayloadRemovalCallback@23@@Z 0000000180182dd0 f   GuAABBPruner.obj
 0001:00181fc0       ?setRebuildRateHint@AABBPruner@Gu@physx@@UEAAXI@Z 0000000180182fc0 f   GuAABBPruner.obj
 0001:00181fe0       ?setTransform@AABBPruner@Gu@physx@@UEAA_NIAEBV?$PxTransformT@M@3@@Z 0000000180182fe0 f i GuAABBPruner.obj
 0001:00182040       ?shiftOrigin@AABBPruner@Gu@physx@@UEAAXAEBV?$PxVec3T@M@3@@Z 0000000180183040 f   GuAABBPruner.obj
 0001:001820b0       ?sweep@AABBPruner@Gu@physx@@UEBA_NAEBVShapeData@23@AEBV?$PxVec3T@M@3@AEAMAEAUPrunerRaycastCallback@23@@Z 00000001801830b0 f   GuAABBPruner.obj
 0001:00182240       ?updateObjects@AABBPruner@Gu@physx@@UEAAXPEBIIM0PEBVPxBounds3@3@PEBUPxTransformPadded@3@@Z 0000000180183240 f   GuAABBPruner.obj
 0001:001823f0       ?visualize@AABBPruner@Gu@physx@@UEBAXAEAVPxRenderOutput@3@II@Z 00000001801833f0 f   GuAABBPruner.obj
 0001:001824a0       ??0ActorShapeMap@Gu@physx@@QEAA@XZ 00000001801834a0 f   GuActorShapeMap.obj
 0001:00182500       ??1ActorShapeMap@Gu@physx@@QEAA@XZ 0000000180183500 f   GuActorShapeMap.obj
 0001:00182560       ?add@ActorShapeMap@Gu@physx@@QEAA_NIPEBX0_K@Z 0000000180183560 f   GuActorShapeMap.obj
 0001:001826f0       ?create@?$PxHashBase@V?$PxPair@$$CBUActorShape@ActorShapeMap@Gu@physx@@_K@physx@@UActorShape@ActorShapeMap@Gu@2@U?$PxHash@UActorShape@ActorShapeMap@Gu@physx@@@2@UGetKey@?$PxHashMapBase@UActorShape@ActorShapeMap@Gu@physx@@_KU?$PxHash@UActorShape@ActorShapeMap@Gu@physx@@@4@VPxAllocator@4@@2@VPxAllocator@2@$00@physx@@QEAAPEAV?$PxPair@$$CBUActorShape@ActorShapeMap@Gu@physx@@_K@2@AEBUActorShape@ActorShapeMap@Gu@2@AEA_N@Z 00000001801836f0 f i GuActorShapeMap.obj
 0001:001828e0       ?erase@?$PxHashBase@V?$PxPair@$$CBUActorShape@ActorShapeMap@Gu@physx@@_K@physx@@UActorShape@ActorShapeMap@Gu@2@U?$PxHash@UActorShape@ActorShapeMap@Gu@physx@@@2@UGetKey@?$PxHashMapBase@UActorShape@ActorShapeMap@Gu@physx@@_KU?$PxHash@UActorShape@ActorShapeMap@Gu@physx@@@4@VPxAllocator@4@@2@VPxAllocator@2@$00@physx@@QEAA_NAEBUActorShape@ActorShapeMap@Gu@2@AEAV?$PxPair@$$CBUActorShape@ActorShapeMap@Gu@physx@@_K@2@@Z 00000001801838e0 f i GuActorShapeMap.obj
 0001:00182af0       ?find@ActorShapeMap@Gu@physx@@QEBA_KIPEBX0@Z 0000000180183af0 f   GuActorShapeMap.obj
 0001:00182be0       ?remove@ActorShapeMap@Gu@physx@@QEAA_NIPEBX0PEA_K@Z 0000000180183be0 f   GuActorShapeMap.obj
 0001:00182c70       ?reserveInternal@?$PxHashBase@V?$PxPair@$$CBUActorShape@ActorShapeMap@Gu@physx@@_K@physx@@UActorShape@ActorShapeMap@Gu@2@U?$PxHash@UActorShape@ActorShapeMap@Gu@physx@@@2@UGetKey@?$PxHashMapBase@UActorShape@ActorShapeMap@Gu@physx@@_KU?$PxHash@UActorShape@ActorShapeMap@Gu@physx@@@4@VPxAllocator@4@@2@VPxAllocator@2@$00@physx@@AEAAXI@Z 0000000180183c70 f i GuActorShapeMap.obj
 0001:00182e90       ??0QuerySystem@Gu@physx@@QEAA@_KMAEBVAdapter@12@_N@Z 0000000180183e90 f   GuQuerySystem.obj
 0001:00182f60       ??1QuerySystem@Gu@physx@@QEAA@XZ 0000000180183f60 f   GuQuerySystem.obj
 0001:001831b0       ??_GPrunerExt@QuerySystem@Gu@physx@@QEAAPEAXI@Z 00000001801841b0 f i GuQuerySystem.obj
 0001:001832c0       ?addPruner@QuerySystem@Gu@physx@@QEAAIPEAVPruner@23@I@Z 00000001801842c0 f   GuQuerySystem.obj
 0001:001833f0       ?addPrunerShape@QuerySystem@Gu@physx@@QEAA_KAEBUPrunerPayload@23@I_NAEBV?$PxTransformT@M@3@PEBVPxBounds3@3@@Z 00000001801843f0 f   GuQuerySystem.obj
 0001:00183530       ?addToDirtyList@PrunerExt@QuerySystem@Gu@physx@@QEAAXIIAEBV?$PxTransformT@M@4@PEBVPxBounds3@4@@Z 0000000180184530 f   GuQuerySystem.obj
 0001:00183780       ?commitUpdates@QuerySystem@Gu@physx@@QEAAXXZ 0000000180184780 f   GuQuerySystem.obj
 0001:00183830       ?createTreeOfPruners@QuerySystem@Gu@physx@@QEAAXXZ 0000000180184830 f   GuQuerySystem.obj
 0001:001839a0       ?flushMemory@QuerySystem@Gu@physx@@QEAAXXZ 00000001801849a0 f   GuQuerySystem.obj
 0001:00183a30       ?getPayloadData@QuerySystem@Gu@physx@@QEBAAEBUPrunerPayload@23@_KPEAUPrunerPayloadData@23@@Z 0000000180184a30 f   GuQuerySystem.obj
 0001:00183a50       ?growAndPushBack@?$PxArray@PEAUPrunerExt@QuerySystem@Gu@physx@@V?$PxReflectionAllocator@PEAUPrunerExt@QuerySystem@Gu@physx@@@4@@physx@@IEAAAEAPEAUPrunerExt@QuerySystem@Gu@2@AEBQEAU3452@@Z 0000000180184a50 f i GuQuerySystem.obj
 0001:00183b70       ?overlap@QuerySystem@Gu@physx@@QEBAXAEBVShapeData@23@AEAUPrunerOverlapCallback@23@PEBVPrunerFilter@23@@Z 0000000180184b70 f   GuQuerySystem.obj
 0001:00183c70       ?processDirtyLists@QuerySystem@Gu@physx@@AEAAXXZ 0000000180184c70 f   GuQuerySystem.obj
 0001:00183f50       ?raycast@QuerySystem@Gu@physx@@QEBAXAEBV?$PxVec3T@M@3@0AEAMAEAUPrunerRaycastCallback@23@PEBVPrunerFilter@23@@Z 0000000180184f50 f   GuQuerySystem.obj
 0001:00184090       ?recreate@?$PxArray@UData@PrunerExt@QuerySystem@Gu@physx@@V?$PxReflectionAllocator@UData@PrunerExt@QuerySystem@Gu@physx@@@5@@physx@@IEAAXI@Z 0000000180185090 f i GuQuerySystem.obj
 0001:00184380       ?removePruner@QuerySystem@Gu@physx@@QEAAXI@Z 0000000180185380 f   GuQuerySystem.obj
 0001:00184460       ?removePrunerShape@QuerySystem@Gu@physx@@QEAAX_KPEAUPrunerPayloadRemovalCallback@23@@Z 0000000180185460 f   GuQuerySystem.obj
 0001:00184680       ?sweep@QuerySystem@Gu@physx@@QEBAXAEBVShapeData@23@AEBV?$PxVec3T@M@3@AEAMAEAUPrunerRaycastCallback@23@PEBVPrunerFilter@23@@Z 0000000180185680 f   GuQuerySystem.obj
 0001:001847b0       ?sync@QuerySystem@Gu@physx@@QEAAXIPEBI0PEBVPxBounds3@3@PEBUPxTransformPadded@3@I@Z 00000001801857b0 f   GuQuerySystem.obj
 0001:00184860       ?update@QuerySystem@Gu@physx@@QEAAX_N0@Z 0000000180185860 f   GuQuerySystem.obj
 0001:00184930       ?updatePrunerShape@QuerySystem@Gu@physx@@QEAAX_K_NAEBV?$PxTransformT@M@3@PEBVPxBounds3@3@@Z 0000000180185930 f   GuQuerySystem.obj
 0001:00184b20       createAABBPruner           0000000180185b20 f   GuFactory.obj
 0001:00184be0       createBucketPruner         0000000180185be0 f   GuFactory.obj
 0001:00184c70       createIncrementalPruner    0000000180185c70 f   GuFactory.obj
 0001:00184d00       ??$PxSmallSort@I$$CBUSortBoundsPredicate@physx@@@physx@@YAXPEAIHHAEBUSortBoundsPredicate@0@@Z 0000000180185d00 f i GuRTreeCooking.obj
 0001:00184fd0       ??$PxSort@IU?$PxLess@I@physx@@V?$PxReflectionAllocator@I@2@@physx@@YAXPEAIIAEBU?$PxLess@I@0@AEBV?$PxReflectionAllocator@I@0@I@Z 0000000180185fd0 f i GuRTreeCooking.obj
 0001:00185420       ??$PxSort@IUSortBoundsPredicate@physx@@V?$PxReflectionAllocator@I@2@@physx@@YAXPEAIIAEBUSortBoundsPredicate@0@AEBV?$PxReflectionAllocator@I@0@I@Z 0000000180186420 f i GuRTreeCooking.obj
 0001:00185920       ??$quickSelectFirstK@UBoundsLTE@physx@@@quickSelect@physx@@YAXPEIAIIIIAEBUBoundsLTE@1@@Z 0000000180186920 f i GuRTreeCooking.obj
 0001:00185b00       ?allocate@?$PxArray@UInterval@physx@@V?$PxInlineAllocator@$0CAAA@V?$PxReflectionAllocator@UInterval@physx@@@physx@@@2@@physx@@IEAAPEAUInterval@2@I@Z 0000000180186b00 f i GuRTreeCooking.obj
 0001:00185bc0       ?allocate@?$PxArray@UPxBounds3V@physx@@V?$PxReflectionAllocator@UPxBounds3V@physx@@@2@@physx@@IEAAPEAUPxBounds3V@2@I@Z 0000000180186bc0 f i GuRTreeCooking.obj
 0001:00185c50       ?allocate@?$PxArray@URTreeNodeNQ@physx@@V?$PxReflectionAllocator@URTreeNodeNQ@physx@@@2@@physx@@IEAAPEAURTreeNodeNQ@2@I@Z 0000000180186c50 f i GuRTreeCooking.obj
 0001:00185ce0       ?allocate@?$PxArray@URTreeNodeQ@Gu@physx@@V?$PxReflectionAllocator@URTreeNodeQ@Gu@physx@@@3@@physx@@IEAAPEAURTreeNodeQ@Gu@2@I@Z 0000000180186ce0 f i GuRTreeCooking.obj
 0001:001869d0       ?buildFromTriangles@RTreeCooker@physx@@SAXAEAURTree@Gu@2@PEBV?$PxVec3T@M@2@IPEBGPEBIIAEAV?$PxArray@IV?$PxReflectionAllocator@I@physx@@@2@PEAURemapCallback@12@MW4Enum@PxMeshCookingHint@2@@Z 00000001801879d0 f   GuRTreeCooking.obj
 0001:00186c70       ?copy@?$PxArray@URTreeNodeNQ@physx@@V?$PxReflectionAllocator@URTreeNodeNQ@physx@@@2@@physx@@KAXPEAURTreeNodeNQ@2@0PEBU32@@Z 0000000180187c70 f i GuRTreeCooking.obj
 0001:00186e30       ?growAndPushBack@?$PxArray@UInterval@physx@@V?$PxInlineAllocator@$0CAAA@V?$PxReflectionAllocator@UInterval@physx@@@physx@@@2@@physx@@IEAAAEAUInterval@2@AEBU32@@Z 0000000180187e30 f i GuRTreeCooking.obj
 0001:00186f20       ?growAndPushBack@?$PxArray@UPxBounds3V@physx@@V?$PxReflectionAllocator@UPxBounds3V@physx@@@2@@physx@@IEAAAEAUPxBounds3V@2@AEBU32@@Z 0000000180187f20 f i GuRTreeCooking.obj
 0001:00187000       ?growAndPushBack@?$PxArray@URTreeNodeNQ@physx@@V?$PxReflectionAllocator@URTreeNodeNQ@physx@@@2@@physx@@IEAAAEAURTreeNodeNQ@2@AEBU32@@Z 0000000180188000 f i GuRTreeCooking.obj
 0001:001870e0       ?growAndPushBack@?$PxArray@URTreeNodeQ@Gu@physx@@V?$PxReflectionAllocator@URTreeNodeQ@Gu@physx@@@3@@physx@@IEAAAEAURTreeNodeQ@Gu@2@AEBU342@@Z 00000001801880e0 f i GuRTreeCooking.obj
 0001:001871d0       ?recreate@?$PxArray@UPxBounds3V@physx@@V?$PxReflectionAllocator@UPxBounds3V@physx@@@2@@physx@@IEAAXI@Z 00000001801881d0 f i GuRTreeCooking.obj
 0001:00187280       ?recreate@?$PxArray@URTreeNodeNQ@physx@@V?$PxReflectionAllocator@URTreeNodeNQ@physx@@@2@@physx@@IEAAXI@Z 0000000180188280 f i GuRTreeCooking.obj
 0001:00187310       ?recreate@?$PxArray@URTreeNodeQ@Gu@physx@@V?$PxReflectionAllocator@URTreeNodeQ@Gu@physx@@@3@@physx@@IEAAXI@Z 0000000180188310 f i GuRTreeCooking.obj
 0001:001873d0       ?resizeUninitialized@?$PxArray@URTreeNodeNQ@physx@@V?$PxReflectionAllocator@URTreeNodeNQ@physx@@@2@@physx@@QEAAXI@Z 00000001801883d0 f i GuRTreeCooking.obj
 0001:00187410       ?sort4@SubSortQuick@physx@@QEAAXPEIAIIAEAV?$PxArray@URTreeNodeNQ@physx@@V?$PxReflectionAllocator@URTreeNodeNQ@physx@@@2@@2@AEAIAEAUPxBounds3V@2@I@Z 0000000180188410 f i GuRTreeCooking.obj
 0001:001877a0       ?sort4@SubSortSAH@physx@@QEAAXPEAIIAEAV?$PxArray@URTreeNodeNQ@physx@@V?$PxReflectionAllocator@URTreeNodeNQ@physx@@@2@@2@AEAIIPEAURTreeNodeNQ@2@@Z 00000001801887a0 f i GuRTreeCooking.obj
 0001:00187ff0       ?split@SubSortSAH@physx@@QEAAIPEAII@Z 0000000180188ff0 f i GuRTreeCooking.obj
 0001:001889f0       cookBVH                    00000001801899f0 f   GuCookingBVH.obj
 0001:00188b80       createBVH                  0000000180189b80 f   GuCookingBVH.obj
 0001:00188d10       cookHeightField            0000000180189d10 f   GuCookingHF.obj
 0001:00188e20       createHeightField          0000000180189e20 f   GuCookingHF.obj
 0001:00189450       ?isFinite@?$PxVec3T@M@physx@@QEBA_NXZ 000000018018a450 f i GuCookingConvexMesh.obj
 0001:001894b0       computeHullPolygons        000000018018a4b0 f   GuCookingConvexMesh.obj
 0001:00189690       cookConvexMesh             000000018018a690 f   GuCookingConvexMesh.obj
 0001:00189800       createConvexMesh           000000018018a800 f   GuCookingConvexMesh.obj
 0001:001899a0       validateConvexMesh         000000018018a9a0 f   GuCookingConvexMesh.obj
 0001:00189ac0       ??1BV4TriangleMeshBuilder@physx@@UEAA@XZ 000000018018aac0 f   GuCookingTriangleMesh.obj
 0001:00189b50       ??1RTreeTriangleMeshBuilder@physx@@UEAA@XZ 000000018018ab50 f   GuCookingTriangleMesh.obj
 0001:00189bc0       ??_EBV4TriangleMeshBuilder@physx@@UEAAPEAXI@Z 000000018018abc0 f i GuCookingTriangleMesh.obj
 0001:00189bc0       ??_GBV4TriangleMeshBuilder@physx@@UEAAPEAXI@Z 000000018018abc0 f i GuCookingTriangleMesh.obj
 0001:00189c00       ??_GRTreeTriangleMeshBuilder@physx@@UEAAPEAXI@Z 000000018018ac00 f i GuCookingTriangleMesh.obj
 0001:00189c00       ??_ERTreeTriangleMeshBuilder@physx@@UEAAPEAXI@Z 000000018018ac00 f i GuCookingTriangleMesh.obj
 0001:00189c40       ??_GTriangleMeshBuilder@physx@@UEAAPEAXI@Z 000000018018ac40 f i GuCookingTriangleMesh.obj
 0001:00189c40       ??_ETriangleMeshBuilder@physx@@UEAAPEAXI@Z 000000018018ac40 f i GuCookingTriangleMesh.obj
 0001:0018a5f0       ?buildInertiaTensor@TriangleMeshBuilder@physx@@IEAAX_N@Z 000000018018b5f0 f   GuCookingTriangleMesh.obj
 0001:0018a750       ?buildInertiaTensorFromSDF@TriangleMeshBuilder@physx@@IEAAXXZ 000000018018b750 f   GuCookingTriangleMesh.obj
 0001:0018a990       ?cleanMesh@TriangleMeshBuilder@physx@@QEAA_N_NPEAW4Enum@PxTriangleMeshCookingResult@2@@Z 000000018018b990 f   GuCookingTriangleMesh.obj
 0001:0018ae20       ?createGRBMidPhaseAndData@TriangleMeshBuilder@physx@@QEAAXI@Z 000000018018be20 f   GuCookingTriangleMesh.obj
 0001:0018afd0       ?createMidPhaseStructure@BV32TriangleMeshBuilder@physx@@SAXAEBUPxCookingParams@2@AEAVTriangleMeshData@Gu@2@AEAVBV32Tree@52@@Z 000000018018bfd0 f   GuCookingTriangleMesh.obj
 0001:0018b200       ?createMidPhaseStructure@BV4TriangleMeshBuilder@physx@@UEAAXXZ 000000018018c200 f   GuCookingTriangleMesh.obj
 0001:0018b4d0       ?createMidPhaseStructure@RTreeTriangleMeshBuilder@physx@@UEAAXXZ 000000018018c4d0 f   GuCookingTriangleMesh.obj
 0001:0018b5c0       ?createSharedEdgeData@TriangleMeshBuilder@physx@@QEAAX_N0@Z 000000018018c5c0 f   GuCookingTriangleMesh.obj
 0001:0018bc60       ?createVertMapping@TriangleMeshBuilder@physx@@QEAAXXZ 000000018018cc60 f   GuCookingTriangleMesh.obj
 0001:0018bfe0       ?importMesh@TriangleMeshBuilder@physx@@IEAA_NAEBVPxTriangleMeshDesc@2@AEBUPxCookingParams@2@PEAW4Enum@PxTriangleMeshCookingResult@2@_N@Z 000000018018cfe0 f   GuCookingTriangleMesh.obj
 0001:0018c4d0       ?isValid@PxTriangleMeshDesc@physx@@QEBA_NXZ 000000018018d4d0 f i GuCookingTriangleMesh.obj
 0001:0018c5b0       ?loadFromDescInternal@TriangleMeshBuilder@physx@@IEAA_NAEAVPxTriangleMeshDesc@2@PEAW4Enum@PxTriangleMeshCookingResult@2@_N@Z 000000018018d5b0 f   GuCookingTriangleMesh.obj
 0001:0018c7e0       ?onMeshIndexFormatChange@BV4TriangleMeshBuilder@physx@@UEAAXXZ 000000018018d7e0 f   GuCookingTriangleMesh.obj
 0001:0018c820       ?remap@RTreeCookerRemap@@UEAAXPEAIII@Z 000000018018d820 f i GuCookingTriangleMesh.obj
 0001:0018c840       ?remapTopology@TriangleMeshBuilder@physx@@QEAAXPEBI@Z 000000018018d840 f   GuCookingTriangleMesh.obj
 0001:0018cae0       ?save@TriangleMeshBuilder@physx@@QEBA_NAEAVPxOutputStream@2@_NAEBUPxCookingParams@2@@Z 000000018018dae0 f   GuCookingTriangleMesh.obj
 0001:0018d2a0       ?saveMidPhaseStructure@BV32TriangleMeshBuilder@physx@@SAXPEAVBV32Tree@Gu@2@AEAVPxOutputStream@2@_N@Z 000000018018e2a0 f   GuCookingTriangleMesh.obj
 0001:0018d4a0       ?saveMidPhaseStructure@BV4TriangleMeshBuilder@physx@@UEBAXAEAVPxOutputStream@2@_N@Z 000000018018e4a0 f   GuCookingTriangleMesh.obj
 0001:0018d650       ?saveMidPhaseStructure@RTreeTriangleMeshBuilder@physx@@UEBAXAEAVPxOutputStream@2@_N@Z 000000018018e650 f   GuCookingTriangleMesh.obj
 0001:0018d890       cookTriangleMesh           000000018018e890 f   GuCookingTriangleMesh.obj
 0001:0018dba0       createTriangleMesh         000000018018eba0 f   GuCookingTriangleMesh.obj
 0001:0018ddc0       validateTriangleMesh       000000018018edc0 f   GuCookingTriangleMesh.obj
 0001:0018e080       ??0SoftBodyCollisionData@Gu@physx@@QEAA@XZ 000000018018f080 f i GuCookingTetrahedronMesh.obj
 0001:0018e0e0       ??_GCollisionTetrahedronMeshData@Gu@physx@@UEAAPEAXI@Z 000000018018f0e0 f i GuCookingTetrahedronMesh.obj
 0001:0018e0e0       ??_ECollisionTetrahedronMeshData@Gu@physx@@UEAAPEAXI@Z 000000018018f0e0 f i GuCookingTetrahedronMesh.obj
 0001:0018e1b0       ??_EPxCollisionTetrahedronMeshData@physx@@UEAAPEAXI@Z 000000018018f1b0 f i GuCookingTetrahedronMesh.obj
 0001:0018e1b0       ??_GPxCollisionTetrahedronMeshData@physx@@UEAAPEAXI@Z 000000018018f1b0 f i GuCookingTetrahedronMesh.obj
 0001:0018e200       ??_EPxSimulationTetrahedronMeshData@physx@@UEAAPEAXI@Z 000000018018f200 f i GuCookingTetrahedronMesh.obj
 0001:0018e200       ??_GPxSimulationTetrahedronMeshData@physx@@UEAAPEAXI@Z 000000018018f200 f i GuCookingTetrahedronMesh.obj
 0001:0018e250       ??_ESimulationTetrahedronMeshData@Gu@physx@@UEAAPEAXI@Z 000000018018f250 f i GuCookingTetrahedronMesh.obj
 0001:0018e250       ??_GSimulationTetrahedronMeshData@Gu@physx@@UEAAPEAXI@Z 000000018018f250 f i GuCookingTetrahedronMesh.obj
 0001:0018e320       ?combineGridModelPartitions@@YAXAEBVTetrahedronMeshData@Gu@physx@@AEAVSoftBodySimulationData@23@PEAPEAI@Z 000000018018f320 f   GuCookingTetrahedronMesh.obj
 0001:0018eb50       ?combineGridModelPartitionsHexMesh@@YAXAEBVTetrahedronMeshData@Gu@physx@@AEAVSoftBodySimulationData@23@PEAPEAI@Z 000000018018fb50 f   GuCookingTetrahedronMesh.obj
 0001:0018f4d0       ?computeCollisionData@TetrahedronMeshBuilder@physx@@SA_NAEBVPxTetrahedronMeshDesc@2@AEAVTetrahedronMeshData@Gu@2@AEAVSoftBodyCollisionData@52@AEBUPxCookingParams@2@_N@Z 00000001801904d0 f   GuCookingTetrahedronMesh.obj
 0001:0018f710       ?computeGridModelTetrahedronPartitions@@YAPEAIAEBVTetrahedronMeshData@Gu@physx@@AEAVSoftBodySimulationData@23@@Z 0000000180190710 f   GuCookingTetrahedronMesh.obj
 0001:0018fbb0       ?computeModelsMapping@TetrahedronMeshBuilder@physx@@SAXAEAVTetrahedronMeshData@Gu@2@AEBV342@AEBVSoftBodyCollisionData@42@AEAVCollisionMeshMappingData@42@_NPEBUPxBoundedData@2@@Z 0000000180190bb0 f   GuCookingTetrahedronMesh.obj
 0001:001907b0       ?computeRestPoseAndPointMass@@YAXPEAU?$TetrahedronT@I@Gu@physx@@IPEBV?$PxVec3T@M@3@PEAMPEAV?$PxMat33T@M@3@@Z 00000001801917b0 f   GuCookingTetrahedronMesh.obj
 0001:00190c30       ?computeSimData@TetrahedronMeshBuilder@physx@@SAXAEBVPxTetrahedronMeshDesc@2@AEAVTetrahedronMeshData@Gu@2@AEAVSoftBodySimulationData@52@AEBUPxCookingParams@2@@Z 0000000180191c30 f   GuCookingTetrahedronMesh.obj
 0001:00191300       ?computeTetData@TetrahedronMeshBuilder@physx@@SAXAEBVPxTetrahedronMeshDesc@2@AEAVTetrahedronMeshData@Gu@2@@Z 0000000180192300 f   GuCookingTetrahedronMesh.obj
 0001:001913f0       ?computeTetrahedronPartition@@YAIPEBU?$TetrahedronT@I@Gu@physx@@IPEAII@Z 00000001801923f0 f   GuCookingTetrahedronMesh.obj
 0001:001914f0       ?createCollisionModelMapping@TetrahedronMeshBuilder@physx@@SAXAEBVTetrahedronMeshData@Gu@2@AEBVSoftBodyCollisionData@42@AEAVCollisionMeshMappingData@42@@Z 00000001801924f0 f   GuCookingTetrahedronMesh.obj
 0001:00191b10       ?createGRBMidPhaseAndData@TetrahedronMeshBuilder@physx@@SAXIAEAVTetrahedronMeshData@Gu@2@AEAVSoftBodyCollisionData@42@AEBUPxCookingParams@2@@Z 0000000180192b10 f   GuCookingTetrahedronMesh.obj
 0001:00192880       ?createMidPhaseStructure@BV32TetrahedronMeshBuilder@physx@@SAXAEBUPxCookingParams@2@AEAVTetrahedronMeshData@Gu@2@AEAVBV32Tree@52@AEAVSoftBodyCollisionData@52@@Z 0000000180193880 f   GuCookingTetrahedronMesh.obj
 0001:00192b60       ?createMidPhaseStructure@TetrahedronMeshBuilder@physx@@SAXAEAVTetrahedronMeshData@Gu@2@AEAVSoftBodyCollisionData@42@AEBUPxCookingParams@2@@Z 0000000180193b60 f   GuCookingTetrahedronMesh.obj
 0001:00193830       ?getData@SimulationTetrahedronMeshData@Gu@physx@@UEAAPEAVPxSoftBodySimulationData@3@XZ 0000000180194830 f i GuCookingTetrahedronMesh.obj
 0001:00193830       ?getData@CollisionTetrahedronMeshData@Gu@physx@@UEBAPEBVPxSoftBodyCollisionData@3@XZ 0000000180194830 f i GuCookingTetrahedronMesh.obj
 0001:00193830       ?getData@CollisionTetrahedronMeshData@Gu@physx@@UEAAPEAVPxSoftBodyCollisionData@3@XZ 0000000180194830 f i GuCookingTetrahedronMesh.obj
 0001:00193850       ?importMesh@TetrahedronMeshBuilder@physx@@SA_NAEBVPxTetrahedronMeshDesc@2@AEBUPxCookingParams@2@AEAVTetrahedronMeshData@Gu@2@AEAVSoftBodyCollisionData@62@_N@Z 0000000180194850 f   GuCookingTetrahedronMesh.obj
 0001:00193b50       ?isValid@PxTetrahedronMeshDesc@physx@@QEBA_NXZ 0000000180194b50 f i GuCookingTetrahedronMesh.obj
 0001:00193bc0       ?loadFromDesc@TetrahedronMeshBuilder@physx@@SA_NAEBVPxTetrahedronMeshDesc@2@0VPxSoftBodySimulationDataDesc@2@AEAVTetrahedronMeshData@Gu@2@AEAVSoftBodySimulationData@62@2AEAVSoftBodyCollisionData@62@AEAVCollisionMeshMappingData@62@AEBUPxCookingParams@2@_N@Z 0000000180194bc0 f   GuCookingTetrahedronMesh.obj
 0001:00193d30       ?release@CollisionTetrahedronMeshData@Gu@physx@@UEAAXXZ 0000000180194d30 f i GuCookingTetrahedronMesh.obj
 0001:00193d50       ?reserveInternal@?$PxHashBase@V?$PxPair@$$CBVSortedTriangleInds@@I@physx@@VSortedTriangleInds@@USortedTriangleIndsHash@@UGetKey@?$PxHashMapBase@VSortedTriangleInds@@IUSortedTriangleIndsHash@@VPxAllocator@physx@@@2@VPxAllocator@2@$00@physx@@AEAAXI@Z 0000000180194d50 f i GuCookingTetrahedronMesh.obj
 0001:00193fa0       ?saveSoftBodyMeshData@TetrahedronMeshBuilder@physx@@SA_NAEAVPxOutputStream@2@_NAEBUPxCookingParams@2@AEBVTetrahedronMeshData@Gu@2@AEBVSoftBodySimulationData@62@3AEBVSoftBodyCollisionData@62@AEBVCollisionMeshMappingData@62@@Z 0000000180194fa0 f   GuCookingTetrahedronMesh.obj
 0001:001946b0       ?saveTetrahedronMeshData@TetrahedronMeshBuilder@physx@@SA_NAEAVPxOutputStream@2@_NAEBUPxCookingParams@2@AEBVTetrahedronMeshData@Gu@2@@Z 00000001801956b0 f   GuCookingTetrahedronMesh.obj
 0001:00194860       ?smoothMassRatiosWhilePreservingTotalMass@@YAXPEAMIPEBIHMM@Z 0000000180195860 f   GuCookingTetrahedronMesh.obj
 0001:00194cf0       ?support@?$LocalConvex@VTetrahedronV@Gu@physx@@@Gu@physx@@UEBA?AT__m128@@AEBT4@@Z 0000000180195cf0 f i GuCookingTetrahedronMesh.obj
 0001:00194db0       ?support@?$LocalConvex@VTetrahedronV@Gu@physx@@@Gu@physx@@UEBA?AT__m128@@AEBT4@AEAH@Z 0000000180195db0 f i GuCookingTetrahedronMesh.obj
 0001:00194f60       assembleSoftBodyMesh       0000000180195f60 f   GuCookingTetrahedronMesh.obj
 0001:00194fc0       assembleSoftBodyMesh_Sim   0000000180195fc0 f   GuCookingTetrahedronMesh.obj
 0001:00195070       computeCollisionData       0000000180196070 f   GuCookingTetrahedronMesh.obj
 0001:00195270       computeModelsMapping       0000000180196270 f   GuCookingTetrahedronMesh.obj
 0001:00195370       computeSimulationData      0000000180196370 f   GuCookingTetrahedronMesh.obj
 0001:00195540       cookSoftBodyMesh           0000000180196540 f   GuCookingTetrahedronMesh.obj
 0001:00195b60       cookTetrahedronMesh        0000000180196b60 f   GuCookingTetrahedronMesh.obj
 0001:00195c60       createSoftBodyMesh         0000000180196c60 f   GuCookingTetrahedronMesh.obj
 0001:00196300       createTetrahedronMesh      0000000180197300 f   GuCookingTetrahedronMesh.obj
 0001:001980e0       ?computeVolumeIntegrals@physx@@YA_NAEBVPxSimpleTriangleMesh@1@MAEAUPxIntegrals@1@@Z 00000001801990e0 f   GuCookingVolumeIntegration.obj
 0001:00198120       ?computeVolumeIntegralsEberly@physx@@YA_NAEBVPxConvexMeshDesc@1@MAEAUPxIntegrals@1@AEBV?$PxVec3T@M@1@_N@Z 0000000180199120 f   GuCookingVolumeIntegration.obj
 0001:00198770       ??0QuickHull@local@@QEAA@AEBUPxCookingParams@physx@@AEBVPxConvexMeshDesc@3@@Z 0000000180199770 f   GuCookingQuickHullConvexHullLib.obj
 0001:00198820       ??0QuickHullConvexHullLib@physx@@QEAA@AEBVPxConvexMeshDesc@1@AEBUPxCookingParams@1@@Z 0000000180199820 f   GuCookingQuickHullConvexHullLib.obj
 0001:00198900       ??1?$MemBlock@UQuickHullHalfEdge@local@@$0A@@local@@QEAA@XZ 0000000180199900 f i GuCookingQuickHullConvexHullLib.obj
 0001:00198900       ??1?$MemBlock@UQuickHullFace@local@@$00@local@@QEAA@XZ 0000000180199900 f i GuCookingQuickHullConvexHullLib.obj
 0001:001989c0       ??1QuickHull@local@@QEAA@XZ 00000001801999c0 f   GuCookingQuickHullConvexHullLib.obj
 0001:00198b20       ??_GConvexHull@physx@@QEAAPEAXI@Z 0000000180199b20 f i GuCookingQuickHullConvexHullLib.obj
 0001:00198c10       ??_EConvexHullLib@physx@@UEAAPEAXI@Z 0000000180199c10 f i GuCookingQuickHullConvexHullLib.obj
 0001:00198c10       ??_GConvexHullLib@physx@@UEAAPEAXI@Z 0000000180199c10 f i GuCookingQuickHullConvexHullLib.obj
 0001:00198c50       ??_GQuickHullConvexHullLib@physx@@UEAAPEAXI@Z 0000000180199c50 f i GuCookingQuickHullConvexHullLib.obj
 0001:00198c50       ??_EQuickHullConvexHullLib@physx@@UEAAPEAXI@Z 0000000180199c50 f i GuCookingQuickHullConvexHullLib.obj
 0001:00198d70       ?addPointToHull@QuickHull@local@@IEAA_NPEBUQuickHullVertex@2@AEAUQuickHullFace@2@AEA_N@Z 0000000180199d70 f   GuCookingQuickHullConvexHullLib.obj
 0001:00199040       ?addSimplex@QuickHull@local@@IEAAXPEAUQuickHullVertex@2@_N@Z 000000018019a040 f   GuCookingQuickHullConvexHullLib.obj
 0001:00199510       ?allocate@?$PxArray@PEAUQuickHullFace@local@@V?$PxReflectionAllocator@PEAUQuickHullFace@local@@@physx@@@physx@@IEAAPEAPEAUQuickHullFace@local@@I@Z 000000018019a510 f i GuCookingQuickHullConvexHullLib.obj
 0001:001995a0       ?allocate@?$PxArray@PEAUQuickHullHalfEdge@local@@V?$PxReflectionAllocator@PEAUQuickHullHalfEdge@local@@@physx@@@physx@@IEAAPEAPEAUQuickHullHalfEdge@local@@I@Z 000000018019a5a0 f i GuCookingQuickHullConvexHullLib.obj
 0001:00199630       ?allocate@?$PxArray@PEAUQuickHullVertex@local@@V?$PxReflectionAllocator@PEAUQuickHullVertex@local@@@physx@@@physx@@IEAAPEAPEAUQuickHullVertex@local@@I@Z 000000018019a630 f i GuCookingQuickHullConvexHullLib.obj
 0001:001996c0       ?allocate@?$PxArray@UExpandPoint@local@@V?$PxReflectionAllocator@UExpandPoint@local@@@physx@@@physx@@IEAAPEAUExpandPoint@local@@I@Z 000000018019a6c0 f i GuCookingQuickHullConvexHullLib.obj
 0001:00199750       ?allocate@?$PxArray@VPxPlane@physx@@V?$PxReflectionAllocator@VPxPlane@physx@@@2@@physx@@IEAAPEAVPxPlane@2@I@Z 000000018019a750 f i GuCookingQuickHullConvexHullLib.obj
 0001:001997e0       ?buildHull@QuickHull@local@@QEAA?AW4Enum@QuickHullResult@2@XZ 000000018019a7e0 f   GuCookingQuickHullConvexHullLib.obj
 0001:00199a30       ?calculateHorizon@QuickHull@local@@IEAAXAEBV?$PxVec3T@M@physx@@PEAUQuickHullHalfEdge@2@AEAUQuickHullFace@2@AEAV?$PxArray@PEAUQuickHullHalfEdge@local@@V?$PxReflectionAllocator@PEAUQuickHullHalfEdge@local@@@physx@@@4@AEAV?$PxArray@PEAUQuickHullFace@local@@V?$PxReflectionAllocator@PEAUQuickHullFace@local@@@physx@@@4@@Z 000000018019aa30 f   GuCookingQuickHullConvexHullLib.obj
 0001:00199be0       ?canMergeFaces@QuickHull@local@@IEAA_NAEBUQuickHullHalfEdge@2@@Z 000000018019abe0 f   GuCookingQuickHullConvexHullLib.obj
 0001:0019a420       ?cleanupForSimplex@QuickHullConvexHullLib@physx@@IEAA_NPEAV?$PxVec3T@M@2@IPEAUQuickHullVertex@local@@1AEAM2@Z 000000018019b420 f   GuCookingQuickHullConvexHullLib.obj
 0001:0019b000       ?computeMinMaxVerts@QuickHull@local@@IEAAXXZ 000000018019c000 f   GuCookingQuickHullConvexHullLib.obj
 0001:0019b3d0       ?connectHalfEdges@QuickHullFace@local@@AEAAPEAU12@PEAUQuickHullHalfEdge@2@0@Z 000000018019c3d0 f   GuCookingQuickHullConvexHullLib.obj
 0001:0019b740       ?copy@?$PxArray@UExpandPoint@local@@V?$PxReflectionAllocator@UExpandPoint@local@@@physx@@@physx@@KAXPEAUExpandPoint@local@@0PEBU34@@Z 000000018019c740 f i GuCookingQuickHullConvexHullLib.obj
 0001:0019b7f0       ?copy@?$PxArray@VPxPlane@physx@@V?$PxReflectionAllocator@VPxPlane@physx@@@2@@physx@@KAXPEAVPxPlane@2@0PEBV32@@Z 000000018019c7f0 f i GuCookingQuickHullConvexHullLib.obj
 0001:0019b8f0       ?createConvexHull@QuickHullConvexHullLib@physx@@UEAA?AW4Enum@PxConvexMeshCookingResult@2@XZ 000000018019c8f0 f   GuCookingQuickHullConvexHullLib.obj
 0001:0019bd00       ?createEdgeList@QuickHullConvexHullLib@physx@@UEAA_NIPEBEPEAPEAEPEAPEAG2@Z 000000018019cd00 f   GuCookingQuickHullConvexHullLib.obj
 0001:0019bf10       ?createTriangle@QuickHull@local@@IEAAPEAUQuickHullFace@2@AEBUQuickHullVertex@2@00@Z 000000018019cf10 f   GuCookingQuickHullConvexHullLib.obj
 0001:0019c2b0       ?doAdjacentMerge@QuickHull@local@@IEAA_NAEAUQuickHullFace@2@_NAEA_N@Z 000000018019d2b0 f   GuCookingQuickHullConvexHullLib.obj
 0001:0019c5f0       ?expandHull@QuickHullConvexHullLib@physx@@IEAA?AW4Enum@PxConvexMeshCookingResult@2@XZ 000000018019d5f0 f   GuCookingQuickHullConvexHullLib.obj
 0001:0019d350       ?expandHullOBB@QuickHullConvexHullLib@physx@@IEAA?AW4Enum@PxConvexMeshCookingResult@2@XZ 000000018019e350 f   GuCookingQuickHullConvexHullLib.obj
 0001:0019d7a0       ?fillConvexMeshDesc@QuickHullConvexHullLib@physx@@UEAAXAEAVPxConvexMeshDesc@2@@Z 000000018019e7a0 f   GuCookingQuickHullConvexHullLib.obj
 0001:0019d7f0       ?fillConvexMeshDescFromCroppedHull@QuickHullConvexHullLib@physx@@IEAAXAEAVPxConvexMeshDesc@2@@Z 000000018019e7f0 f   GuCookingQuickHullConvexHullLib.obj
 0001:0019d9f0       ?fillConvexMeshDescFromQuickHull@QuickHullConvexHullLib@physx@@IEAAXAEAVPxConvexMeshDesc@2@@Z 000000018019e9f0 f   GuCookingQuickHullConvexHullLib.obj
 0001:0019dd80       ?findSimplex@QuickHull@local@@IEAA_NXZ 000000018019ed80 f   GuCookingQuickHullConvexHullLib.obj
 0001:0019ea30       ?getFreeItem@?$MemBlock@UQuickHullFace@local@@$00@local@@QEAAPEAUQuickHullFace@2@XZ 000000018019fa30 f i GuCookingQuickHullConvexHullLib.obj
 0001:0019eb70       ?getFreeItem@?$MemBlock@UQuickHullHalfEdge@local@@$0A@@local@@QEAAPEAUQuickHullHalfEdge@2@XZ 000000018019fb70 f i GuCookingQuickHullConvexHullLib.obj
 0001:0019ec40       ?growAndPushBack@?$PxArray@PEAUQuickHullFace@local@@V?$PxReflectionAllocator@PEAUQuickHullFace@local@@@physx@@@physx@@IEAAAEAPEAUQuickHullFace@local@@AEBQEAU34@@Z 000000018019fc40 f i GuCookingQuickHullConvexHullLib.obj
 0001:0019ed00       ?growAndPushBack@?$PxArray@PEAUQuickHullHalfEdge@local@@V?$PxReflectionAllocator@PEAUQuickHullHalfEdge@local@@@physx@@@physx@@IEAAAEAPEAUQuickHullHalfEdge@local@@AEBQEAU34@@Z 000000018019fd00 f i GuCookingQuickHullConvexHullLib.obj
 0001:0019edc0       ?growAndPushBack@?$PxArray@PEAUQuickHullVertex@local@@V?$PxReflectionAllocator@PEAUQuickHullVertex@local@@@physx@@@physx@@IEAAAEAPEAUQuickHullVertex@local@@AEBQEAU34@@Z 000000018019fdc0 f i GuCookingQuickHullConvexHullLib.obj
 0001:0019ee80       ?growAndPushBack@?$PxArray@UExpandPoint@local@@V?$PxReflectionAllocator@UExpandPoint@local@@@physx@@@physx@@IEAAAEAUExpandPoint@local@@AEBU34@@Z 000000018019fe80 f i GuCookingQuickHullConvexHullLib.obj
 0001:0019ef80       ?growAndPushBack@?$PxArray@VPxPlane@physx@@V?$PxReflectionAllocator@VPxPlane@physx@@@2@@physx@@IEAAAEAVPxPlane@2@AEBV32@@Z 000000018019ff80 f i GuCookingQuickHullConvexHullLib.obj
 0001:0019f040       ?init@?$MemBlock@UQuickHullFace@local@@$00@local@@QEAAXI@Z 00000001801a0040 f i GuCookingQuickHullConvexHullLib.obj
 0001:0019f140       ?init@?$MemBlock@UQuickHullHalfEdge@local@@$0A@@local@@QEAAXI@Z 00000001801a0140 f i GuCookingQuickHullConvexHullLib.obj
 0001:0019f1e0       ?mergeAdjacentFace@QuickHullFace@local@@QEAA_NPEAUQuickHullHalfEdge@2@AEAV?$PxArray@PEAUQuickHullFace@local@@V?$PxReflectionAllocator@PEAUQuickHullFace@local@@@physx@@@physx@@@Z 00000001801a01e0 f   GuCookingQuickHullConvexHullLib.obj
 0001:0019f640       ?nextPointToAdd@QuickHull@local@@IEAAPEAUQuickHullVertex@2@AEAPEAUQuickHullFace@2@@Z 00000001801a0640 f   GuCookingQuickHullConvexHullLib.obj
 0001:0019f7c0       ?parseInputVertices@QuickHull@local@@QEAAXPEBV?$PxVec3T@M@physx@@I@Z 00000001801a07c0 f   GuCookingQuickHullConvexHullLib.obj
 0001:0019f950       ?postMergeHull@QuickHull@local@@IEAAXXZ 00000001801a0950 f   GuCookingQuickHullConvexHullLib.obj
 0001:0019fba0       ?preallocate@QuickHull@local@@QEAAXI@Z 00000001801a0ba0 f   GuCookingQuickHullConvexHullLib.obj
 0001:0019fce0       ?recreate@?$PxArray@PEAUQuickHullFace@local@@V?$PxReflectionAllocator@PEAUQuickHullFace@local@@@physx@@@physx@@IEAAXI@Z 00000001801a0ce0 f i GuCookingQuickHullConvexHullLib.obj
 0001:0019fd80       ?recreate@?$PxArray@PEAUQuickHullHalfEdge@local@@V?$PxReflectionAllocator@PEAUQuickHullHalfEdge@local@@@physx@@@physx@@IEAAXI@Z 00000001801a0d80 f i GuCookingQuickHullConvexHullLib.obj
 0001:0019fe20       ?recreate@?$PxArray@PEAUQuickHullVertex@local@@V?$PxReflectionAllocator@PEAUQuickHullVertex@local@@@physx@@@physx@@IEAAXI@Z 00000001801a0e20 f i GuCookingQuickHullConvexHullLib.obj
 0001:0019fec0       ?recreate@?$PxArray@UExpandPoint@local@@V?$PxReflectionAllocator@UExpandPoint@local@@@physx@@@physx@@IEAAXI@Z 00000001801a0ec0 f i GuCookingQuickHullConvexHullLib.obj
 0001:0019ff50       ?recreate@?$PxArray@VPxPlane@physx@@V?$PxReflectionAllocator@VPxPlane@physx@@@2@@physx@@IEAAXI@Z 00000001801a0f50 f i GuCookingQuickHullConvexHullLib.obj
 0001:0019ffe0       ?resolveUnclaimedPoints@QuickHull@local@@IEAAXAEBV?$PxArray@PEAUQuickHullFace@local@@V?$PxReflectionAllocator@PEAUQuickHullFace@local@@@physx@@@physx@@@Z 00000001801a0fe0 f   GuCookingQuickHullConvexHullLib.obj
 0001:001a0260       ??$copy@V?$PxReflectionAllocator@VPair@@@physx@@@?$PxArray@VPair@@V?$PxReflectionAllocator@VPair@@@physx@@@physx@@IEAAXAEBV01@@Z 00000001801a1260 f i GuCookingConvexPolygonsBuilder.obj
 0001:001a02e0       ??0ConvexPolygonsBuilder@physx@@QEAA@PEAUConvexHullData@Gu@1@_N@Z 00000001801a12e0 f   GuCookingConvexPolygonsBuilder.obj
 0001:001a0300       ??1ConvexPolygonsBuilder@physx@@QEAA@XZ 00000001801a1300 f   GuCookingConvexPolygonsBuilder.obj
 0001:001a0b50       ?allocate@?$PxArray@VPair@@V?$PxReflectionAllocator@VPair@@@physx@@@physx@@IEAAPEAVPair@@I@Z 00000001801a1b50 f i GuCookingConvexPolygonsBuilder.obj
 0001:001a1620       ?computeHullPolygons@ConvexPolygonsBuilder@physx@@QEAA_NAEBIPEBV?$PxVec3T@M@2@0PEBI@Z 00000001801a2620 f   GuCookingConvexPolygonsBuilder.obj
 0001:001a2680       ?createPolygonData@ConvexPolygonsBuilder@physx@@AEAA_NXZ 00000001801a3680 f   GuCookingConvexPolygonsBuilder.obj
 0001:001a3270       ?createTrianglesFromPolygons@ConvexPolygonsBuilder@physx@@AEAA_NXZ 00000001801a4270 f   GuCookingConvexPolygonsBuilder.obj
 0001:001a4920       ?growAndPushBack@?$PxArray@VPair@@V?$PxReflectionAllocator@VPair@@@physx@@@physx@@IEAAAEAVPair@@AEBV3@@Z 00000001801a5920 f i GuCookingConvexPolygonsBuilder.obj
 0001:001a4aa0       ??0ConvexMeshBuilder@physx@@QEAA@_N@Z 00000001801a5aa0 f   GuCookingConvexMeshBuilder.obj
 0001:001a4b10       ??1ConvexMeshBuilder@physx@@QEAA@XZ 00000001801a5b10 f   GuCookingConvexMeshBuilder.obj
 0001:001a4fa0       ?build@ConvexMeshBuilder@physx@@QEAA_NAEBVPxConvexMeshDesc@2@I_NPEAVConvexHullLib@2@@Z 00000001801a5fa0 f   GuCookingConvexMeshBuilder.obj
 0001:001a5330       ?computeHullPolygons@ConvexMeshBuilder@physx@@QEAA_NAEBIPEBV?$PxVec3T@M@2@0PEBIAEAVPxAllocatorCallback@2@AEAIAEAPEAV32@4AEAPEAI4AEAPEAUPxHullPolygon@2@@Z 00000001801a6330 f   GuCookingConvexMeshBuilder.obj
 0001:001a5530       ?computeMassInfo@ConvexMeshBuilder@physx@@QEAAX_N@Z 00000001801a6530 f   GuCookingConvexMeshBuilder.obj
 0001:001a58c0       ?computeSDF@ConvexMeshBuilder@physx@@QEAAXAEBVPxConvexMeshDesc@2@@Z 00000001801a68c0 f   GuCookingConvexMeshBuilder.obj
 0001:001a5cd0       ?copy@ConvexMeshBuilder@physx@@QEAA_NAEAUConvexHullInitData@Gu@2@@Z 00000001801a6cd0 f   GuCookingConvexMeshBuilder.obj
 0001:001a5e30       ?loadConvexHull@ConvexMeshBuilder@physx@@QEAA_NAEBVPxConvexMeshDesc@2@PEAVConvexHullLib@2@@Z 00000001801a6e30 f   GuCookingConvexMeshBuilder.obj
 0001:001a60a0       ?save@ConvexMeshBuilder@physx@@QEBA_NAEAVPxOutputStream@2@_N@Z 00000001801a70a0 f   GuCookingConvexMeshBuilder.obj
 0001:001a64c0       ??0ConvexHull@physx@@QEAA@AEBV?$PxVec3T@M@1@AEBV?$PxTransformT@M@1@AEBV?$PxArray@VPxPlane@physx@@V?$PxReflectionAllocator@VPxPlane@physx@@@2@@1@@Z 00000001801a74c0 f   GuCookingConvexHullUtils.obj
 0001:001a75e0       ?allocate@?$PxArray@VHalfEdge@ConvexHull@physx@@V?$PxReflectionAllocator@VHalfEdge@ConvexHull@physx@@@3@@physx@@IEAAPEAVHalfEdge@ConvexHull@2@I@Z 00000001801a85e0 f i GuCookingConvexHullUtils.obj
 0001:001a7670       ?assertIntact@ConvexHull@physx@@QEBA_NM@Z 00000001801a8670 f   GuCookingConvexHullUtils.obj
 0001:001a7980       ?computeOBBFromConvex@physx@@YA_NAEBVPxConvexMeshDesc@1@AEAV?$PxVec3T@M@1@AEAV?$PxTransformT@M@1@@Z 00000001801a8980 f   GuCookingConvexHullUtils.obj
 0001:001a8000       ?computeOBBSIMD@local@@YAXIPEBT__m128@@AEAT2@AEBT2@1@Z 00000001801a9000 f   GuCookingConvexHullUtils.obj
 0001:001a83e0       ?convexHullCrop@physx@@YAPEAVConvexHull@1@AEBV21@AEBVPxPlane@1@M@Z 00000001801a93e0 f   GuCookingConvexHullUtils.obj
 0001:001a9190       ?findCandidatePlane@ConvexHull@physx@@QEBAHMM@Z 00000001801aa190 f   GuCookingConvexHullUtils.obj
 0001:001a9600       ?growAndPushBack@?$PxArray@VHalfEdge@ConvexHull@physx@@V?$PxReflectionAllocator@VHalfEdge@ConvexHull@physx@@@3@@physx@@IEAAAEAVHalfEdge@ConvexHull@2@AEBV342@@Z 00000001801aa600 f i GuCookingConvexHullUtils.obj
 0001:001a96c0       ?maxNumVertsPerFace@ConvexHull@physx@@QEBAIXZ 00000001801aa6c0 f   GuCookingConvexHullUtils.obj
 0001:001a9730       ?recreate@?$PxArray@VHalfEdge@ConvexHull@physx@@V?$PxReflectionAllocator@VHalfEdge@ConvexHull@physx@@@3@@physx@@IEAAXI@Z 00000001801aa730 f i GuCookingConvexHullUtils.obj
 0001:001a97d0       ?resize@?$PxArray@VHalfEdge@ConvexHull@physx@@V?$PxReflectionAllocator@VHalfEdge@ConvexHull@physx@@@3@@physx@@QEAAXIAEBVHalfEdge@ConvexHull@2@@Z 00000001801aa7d0 f i GuCookingConvexHullUtils.obj
 0001:001a9890       ?resize@?$PxArray@VPxPlane@physx@@V?$PxReflectionAllocator@VPxPlane@physx@@@2@@physx@@QEAAXIAEBVPxPlane@2@@Z 00000001801aa890 f i GuCookingConvexHullUtils.obj
 0001:001a99b0       ??1ConvexHullLib@physx@@UEAA@XZ 00000001801aa9b0 f   GuCookingConvexHullLib.obj
 0001:001a9fd0       ?cleanupVertices@ConvexHullLib@physx@@IEAA_NIPEBV?$PxVec3T@M@2@IAEAIPEAV32@@Z 00000001801aafd0 f   GuCookingConvexHullLib.obj
 0001:001aa110       ?shiftAndcleanupVertices@ConvexHullLib@physx@@IEAA_NIPEBV?$PxVec3T@M@2@IAEAIPEAV32@@Z 00000001801ab110 f   GuCookingConvexHullLib.obj
 0001:001aa6f0       ?shiftConvexMeshDesc@ConvexHullLib@physx@@IEAAXAEAVPxConvexMeshDesc@2@@Z 00000001801ab6f0 f   GuCookingConvexHullLib.obj
 0001:001aa7b0       ?swapLargestFace@ConvexHullLib@physx@@IEAAXAEAVPxConvexMeshDesc@2@@Z 00000001801ab7b0 f   GuCookingConvexHullLib.obj
 0001:001aa9e0       ??0ConvexHullBuilder@physx@@QEAA@PEAUConvexHullData@Gu@1@_N@Z 00000001801ab9e0 f   GuCookingConvexHullBuilder.obj
 0001:001aaa10       ??1ConvexHullBuilder@physx@@QEAA@XZ 00000001801aba10 f   GuCookingConvexHullBuilder.obj
 0001:001aab20       ?calculateVertexMapTable@ConvexHullBuilder@physx@@QEAA_NI_N@Z 00000001801abb20 f   GuCookingConvexHullBuilder.obj
 0001:001aace0       ?checkHullPolygons@ConvexHullBuilder@physx@@QEBA_NXZ 00000001801abce0 f   GuCookingConvexHullBuilder.obj
 0001:001ab270       ?copy@ConvexHullBuilder@physx@@QEAA_NAEAUConvexHullData@Gu@2@AEAI@Z 00000001801ac270 f   GuCookingConvexHullBuilder.obj
 0001:001ab4f0       ?createEdgeList@ConvexHullBuilder@physx@@QEAA_N_NI@Z 00000001801ac4f0 f   GuCookingConvexHullBuilder.obj
 0001:001abc50       ?init@ConvexHullBuilder@physx@@QEAA_NIPEBV?$PxVec3T@M@2@PEBIIIPEBUPxHullPolygon@2@_NPEAVConvexHullLib@2@@Z 00000001801acc50 f   GuCookingConvexHullBuilder.obj
 0001:001ac580       ?save@ConvexHullBuilder@physx@@QEBA_NAEAVPxOutputStream@2@_N@Z 00000001801ad580 f   GuCookingConvexHullBuilder.obj
 0001:001ac8a0       ??0BigConvexDataBuilder@physx@@QEAA@PEBUConvexHullData@Gu@1@PEAVBigConvexData@1@PEBV?$PxVec3T@M@1@@Z 00000001801ad8a0 f   GuCookingBigConvexDataBuilder.obj
 0001:001ac8b0       ?computeValencies@BigConvexDataBuilder@physx@@QEAA_NAEBVConvexHullBuilder@2@@Z 00000001801ad8b0 f   GuCookingBigConvexDataBuilder.obj
 0001:001acca0       ?precompute@BigConvexDataBuilder@physx@@QEAA_NI@Z 00000001801adca0 f   GuCookingBigConvexDataBuilder.obj
 0001:001ad8a0       ?save@BigConvexDataBuilder@physx@@QEBA_NAEAVPxOutputStream@2@_N@Z 00000001801ae8a0 f   GuCookingBigConvexDataBuilder.obj
 0001:001ada91       __imp_load_PxGetFoundation 00000001801aea91 f   PhysXFoundation_64:PhysXFoundation_64.dll
 0001:001ada9d       __tailMerge_physxfoundation_64_dll 00000001801aea9d     PhysXFoundation_64:PhysXFoundation_64.dll
 0001:001adb16       __imp_load_PxGetBroadcastAllocator 00000001801aeb16 f   PhysXFoundation_64:PhysXFoundation_64.dll
 0001:001adb22       __imp_load_?PxAtomicIncrement@physx@@YAHPECH@Z 00000001801aeb22 f   PhysXFoundation_64:PhysXFoundation_64.dll
 0001:001adb2e       __imp_load_??0PxMutexImpl@physx@@QEAA@XZ 00000001801aeb2e f   PhysXFoundation_64:PhysXFoundation_64.dll
 0001:001adb3a       __imp_load_??1PxMutexImpl@physx@@QEAA@XZ 00000001801aeb3a f   PhysXFoundation_64:PhysXFoundation_64.dll
 0001:001adb46       __imp_load_?lock@PxMutexImpl@physx@@QEAAXXZ 00000001801aeb46 f   PhysXFoundation_64:PhysXFoundation_64.dll
 0001:001adb52       __imp_load_?unlock@PxMutexImpl@physx@@QEAAXXZ 00000001801aeb52 f   PhysXFoundation_64:PhysXFoundation_64.dll
 0001:001adb5e       __imp_load_?getSize@PxMutexImpl@physx@@SAIXZ 00000001801aeb5e f   PhysXFoundation_64:PhysXFoundation_64.dll
 0001:001adb6a       __imp_load_?PxAtomicDecrement@physx@@YAHPECH@Z 00000001801aeb6a f   PhysXFoundation_64:PhysXFoundation_64.dll
 0001:001adb76       __imp_load_?PxTransformFromSegment@physx@@YA?AV?$PxTransformT@M@1@AEBV?$PxVec3T@M@1@0PEAM@Z 00000001801aeb76 f   PhysXFoundation_64:PhysXFoundation_64.dll
 0001:001adb82       __imp_load_?PxAtomicAdd@physx@@YAHPECHH@Z 00000001801aeb82 f   PhysXFoundation_64:PhysXFoundation_64.dll
 0001:001adb8e       __imp_load_?getDefaultStackSize@PxThreadImpl@physx@@SAIXZ 00000001801aeb8e f   PhysXFoundation_64:PhysXFoundation_64.dll
 0001:001adb9a       __imp_load_??0PxThreadImpl@physx@@QEAA@P6APEAXPEAX@Z0PEBD@Z 00000001801aeb9a f   PhysXFoundation_64:PhysXFoundation_64.dll
 0001:001adba6       __imp_load_??1PxThreadImpl@physx@@QEAA@XZ 00000001801aeba6 f   PhysXFoundation_64:PhysXFoundation_64.dll
 0001:001adbb2       __imp_load_?start@PxThreadImpl@physx@@QEAAXIPEAVPxRunnable@2@@Z 00000001801aebb2 f   PhysXFoundation_64:PhysXFoundation_64.dll
 0001:001adbbe       __imp_load_?waitForQuit@PxThreadImpl@physx@@QEAA_NXZ 00000001801aebbe f   PhysXFoundation_64:PhysXFoundation_64.dll
 0001:001adbca       __imp_load_?getSize@PxThreadImpl@physx@@SAIXZ 00000001801aebca f   PhysXFoundation_64:PhysXFoundation_64.dll
 0001:001adbd6       __imp_load_?allocate@PxTempAllocator@physx@@QEAAPEAX_KPEBDH@Z 00000001801aebd6 f   PhysXFoundation_64:PhysXFoundation_64.dll
 0001:001adbe2       __imp_load_?deallocate@PxTempAllocator@physx@@QEAAXPEAX@Z 00000001801aebe2 f   PhysXFoundation_64:PhysXFoundation_64.dll
 0001:001adbee       __imp_load_?PxOptimizeBoundingBox@physx@@YA?AV?$PxVec3T@M@1@AEAV?$PxMat33T@M@1@@Z 00000001801aebee f   PhysXFoundation_64:PhysXFoundation_64.dll
 0001:001adbfa       __imp_load_??0PxFPUGuard@physx@@QEAA@XZ 00000001801aebfa f   PhysXFoundation_64:PhysXFoundation_64.dll
 0001:001adc06       __imp_load_??1PxFPUGuard@physx@@QEAA@XZ 00000001801aec06 f   PhysXFoundation_64:PhysXFoundation_64.dll
 0001:001adc12       __imp_load_?PxDiagonalize@physx@@YA?AV?$PxVec3T@M@1@AEBV?$PxMat33T@M@1@AEAV?$PxQuatT@M@1@@Z 00000001801aec12 f   PhysXFoundation_64:PhysXFoundation_64.dll
 0001:001adc20       ?DloadAcquireSectionWriteAccess@@YAXXZ 00000001801aec20 f i Delayimp:delayhlp.obj
 0001:001adccc       ?DloadGetSRWLockFunctionPointers@@YAEXZ 00000001801aeccc f i Delayimp:delayhlp.obj
 0001:001add68       ?DloadMakePermanentImageCommit@@YAXPEAX_K@Z 00000001801aed68 f i Delayimp:delayhlp.obj
 0001:001ade00       ?DloadObtainSection@@YAPEAXPEAK0@Z 00000001801aee00 f i Delayimp:delayhlp.obj
 0001:001ade9c       ?DloadProtectSection@@YAXKPEAK@Z 00000001801aee9c f i Delayimp:delayhlp.obj
 0001:001adf2c       ?DloadReleaseSectionWriteAccess@@YAXXZ 00000001801aef2c f i Delayimp:delayhlp.obj
 0001:001adfc0       __delayLoadHelper2         00000001801aefc0 f   Delayimp:delayhlp.obj
 0001:001ae294       ??_V@YAXPEAX@Z             00000001801af294 f   LIBCMT:delete_array.obj
 0001:001ae294       ??3@YAXPEAX_K@Z            00000001801af294 f   LIBCMT:delete_scalar_size.obj
 0001:001ae29c       ??_Etype_info@@UEAAPEAXI@Z 00000001801af29c f i LIBCMT:std_type_info_static.obj
 0001:001ae29c       ??_Gtype_info@@UEAAPEAXI@Z 00000001801af29c f i LIBCMT:std_type_info_static.obj
 0001:001ae2c8       ?__scrt_initialize_type_info@@YAXXZ 00000001801af2c8 f   LIBCMT:tncleanup.obj
 0001:001ae2d8       ?__scrt_uninitialize_type_info@@YAXXZ 00000001801af2d8 f   LIBCMT:tncleanup.obj
 0001:001ae300       __chkstk                   00000001801af300 f   LIBCMT:chkstk.obj
 0001:001ae300       _alloca_probe              00000001801af300 f   LIBCMT:chkstk.obj
 0001:001ae350       __vdecl_sinf4              00000001801af350 f   LIBCMT:svml_ssinf4_dispatch.obj
 0001:001ae370       __libm_sse2_sincosf_       00000001801af370 f   LIBCMT:svml_ssinf4_dispatch.obj
 0001:001ae3b3       __libm_sse2_sincosf4_      00000001801af3b3 f   LIBCMT:svml_ssinf4_dispatch.obj
 0001:001ae3c0       ??3@YAXPEAX@Z              00000001801af3c0 f   LIBCMT:delete_scalar.obj
 0001:001ae3c8       __scrt_acquire_startup_lock 00000001801af3c8 f   LIBCMT:utility.obj
 0001:001ae404       __scrt_dllmain_after_initialize_c 00000001801af404 f   LIBCMT:utility.obj
 0001:001ae438       __scrt_dllmain_before_initialize_c 00000001801af438 f   LIBCMT:utility.obj
 0001:001ae450       __scrt_dllmain_crt_thread_attach 00000001801af450 f   LIBCMT:utility.obj
 0001:001ae478       __scrt_dllmain_crt_thread_detach 00000001801af478 f   LIBCMT:utility.obj
 0001:001ae490       __scrt_dllmain_exception_filter 00000001801af490 f   LIBCMT:utility.obj
 0001:001ae4f0       __scrt_dllmain_uninitialize_c 00000001801af4f0 f   LIBCMT:utility.obj
 0001:001ae520       __scrt_dllmain_uninitialize_critical 00000001801af520 f   LIBCMT:utility.obj
 0001:001ae534       __scrt_initialize_crt      00000001801af534 f   LIBCMT:utility.obj
 0001:001ae580       __scrt_initialize_onexit_tables 00000001801af580 f   LIBCMT:utility.obj
 0001:001ae60c       __scrt_is_nonwritable_in_current_image 00000001801af60c f   LIBCMT:utility.obj
 0001:001ae6a4       __scrt_release_startup_lock 00000001801af6a4 f   LIBCMT:utility.obj
 0001:001ae6c8       __scrt_uninitialize_crt    00000001801af6c8 f   LIBCMT:utility.obj
 0001:001ae6f4       _onexit                    00000001801af6f4 f   LIBCMT:utility.obj
 0001:001ae730       atexit                     00000001801af730 f   LIBCMT:utility.obj
 0001:001ae748       __isa_available_init       00000001801af748 f   LIBCMT:cpu_disp.obj
 0001:001aec0c       _DllMainCRTStartup         00000001801afc0c f   LIBCMT:dll_dllmain.obj
 0001:001aec50       __sse2_sinf4@@16           00000001801afc50 f   LIBCMT:svml_ssinf4_sse2.obj
 0001:001af590       __sse4_sinf4@@16           00000001801b0590 f   LIBCMT:svml_ssinf4_sse4.obj
 0001:001afd04       __scrt_is_ucrt_dll_in_use  00000001801b0d04 f   LIBCMT:ucrt_detection.obj
 0001:001afd10       __crt_debugger_hook        00000001801b0d10 f   LIBCMT:utility_desktop.obj
 0001:001afd18       __scrt_fastfail            00000001801b0d18 f   LIBCMT:utility_desktop.obj
 0001:001afe64       __security_init_cookie     00000001801b0e64 f   LIBCMT:gs_support.obj
 0001:001aff10       __local_stdio_scanf_options 00000001801b0f10 f i LIBCMT:default_local_stdio_options.obj
 0001:001aff18       __scrt_initialize_default_local_stdio_options 00000001801b0f18 f   LIBCMT:default_local_stdio_options.obj
 0001:001aff34       __scrt_get_dyn_tls_init_callback 00000001801b0f34 f   LIBCMT:dyn_tls_init.obj
 0001:001aff3c       _RTC_Initialize            00000001801b0f3c f   LIBCMT:initsect.obj
 0001:001aff78       _RTC_Terminate             00000001801b0f78 f   LIBCMT:initsect.obj
 0001:001affc0       __common_ssin_cout_rare    00000001801b0fc0 f   LIBCMT:svml_s_sin_cout.obj
 0001:001b0040       memcpy_repmovs             00000001801b1040 f   libvcruntime:memcpy.obj
 0001:001b0060       memcpy                     00000001801b1060 f   libvcruntime:memcpy.obj
 0001:001b0060       memmove                    00000001801b1060 f   libvcruntime:memcpy.obj
 0001:001b06d8       _get_purecall_handler      00000001801b16d8 f   libvcruntime:purevirt.obj
 0001:001b06e4       _purecall                  00000001801b16e4 f   libvcruntime:purevirt.obj
 0001:001b0708       __std_type_info_compare    00000001801b1708 f   libvcruntime:std_type_info.obj
 0001:001b0730       __std_type_info_destroy_list 00000001801b1730 f   libvcruntime:std_type_info.obj
 0001:001b075c       __std_type_info_name       00000001801b175c f   libvcruntime:std_type_info.obj
 0001:001b0890       memset_repmovs             00000001801b1890 f   libvcruntime:memset.obj
 0001:001b08b0       memset                     00000001801b18b0 f   libvcruntime:memset.obj
 0001:001b0a40       strstr                     00000001801b1a40 f   libvcruntime:strstr.obj
 0001:001b0c3c       __vcrt_initialize          00000001801b1c3c f   libvcruntime:initialization.obj
 0001:001b0c64       __vcrt_thread_attach       00000001801b1c64 f   libvcruntime:initialization.obj
 0001:001b0c78       __vcrt_thread_detach       00000001801b1c78 f   libvcruntime:initialization.obj
 0001:001b0c8c       __vcrt_uninitialize        00000001801b1c8c f   libvcruntime:initialization.obj
 0001:001b0ca8       __vcrt_uninitialize_critical 00000001801b1ca8 f   libvcruntime:initialization.obj
 0001:001b0cb8       __C_specific_handler       00000001801b1cb8 f   libvcruntime:riscchandler.obj
 0001:001b0ec4       __DestructExceptionObject  00000001801b1ec4 f   libvcruntime:ehhelpers.obj
 0001:001b0f34       ?_CallMemberFunction0@@YAXQEAX0@Z 00000001801b1f34 f i libvcruntime:ehhelpers.obj
 0001:001b0f38       _IsExceptionObjectToBeDestroyed 00000001801b1f38 f   libvcruntime:ehhelpers.obj
 0001:001b0f68       __AdjustPointer            00000001801b1f68 f   libvcruntime:ehhelpers.obj
 0001:001b0f8c       __FrameUnwindFilter        00000001801b1f8c f   libvcruntime:ehhelpers.obj
 0001:001b0ff4       ??$?0$00@DName@@QEAA@PEBDU?$StringLifeSelector@$00@@@Z 00000001801b1ff4 f i libvcruntime:undname.obj
 0001:001b1034       ??$?0$01@DName@@QEAA@PEBDU?$StringLifeSelector@$01@@@Z 00000001801b2034 f i libvcruntime:undname.obj
 0001:001b1034       ??$?0$0A@@DName@@QEAA@PEBDU?$StringLifeSelector@$0A@@@@Z 00000001801b2034 f i libvcruntime:undname.obj
 0001:001b1074       ??$?0$01@pcharNode@@QEAA@PEBDHU?$StringLifeSelector@$01@@@Z 00000001801b2074 f i libvcruntime:undname.obj
 0001:001b1074       ??$?0$0A@@pcharNode@@QEAA@PEBDHU?$StringLifeSelector@$0A@@@@Z 00000001801b2074 f i libvcruntime:undname.obj
 0001:001b10e8       ??$append@VpcharNode@@@DName@@AEAAXPEBVpcharNode@@@Z 00000001801b20e8 f i libvcruntime:undname.obj
 0001:001b10e8       ??$append@VDNameStatusNode@@@DName@@AEAAXPEBVDNameStatusNode@@@Z 00000001801b20e8 f i libvcruntime:undname.obj
 0001:001b10e8       ??$append@VDNameNode@@@DName@@AEAAXPEBVDNameNode@@@Z 00000001801b20e8 f i libvcruntime:undname.obj
 0001:001b10e8       ??$append@VcharNode@@@DName@@AEAAXPEBVcharNode@@@Z 00000001801b20e8 f i libvcruntime:undname.obj
 0001:001b114c       ??$doPchar@$00@DName@@AEAAXPEBDH@Z 00000001801b214c f i libvcruntime:undname.obj
 0001:001b11f0       ??$doPchar@$01@DName@@AEAAXPEBDH@Z 00000001801b21f0 f i libvcruntime:undname.obj
 0001:001b11f0       ??$doPchar@$0A@@DName@@AEAAXPEBDH@Z 00000001801b21f0 f i libvcruntime:undname.obj
 0001:001b1288       ??0DName@@QEAA@AEAPEBDD@Z  00000001801b2288 f   libvcruntime:undname.obj
 0001:001b1338       ??0DName@@QEAA@AEBUStringLiteral@@@Z 00000001801b2338 f   libvcruntime:undname.obj
 0001:001b1364       ??0DName@@QEAA@PEAV0@@Z    00000001801b2364 f   libvcruntime:undname.obj
 0001:001b13e8       ??0DName@@QEAA@_J@Z        00000001801b23e8 f   libvcruntime:undname.obj
 0001:001b1490       ??0DName@@QEAA@_K@Z        00000001801b2490 f   libvcruntime:undname.obj
 0001:001b1520       ??2@YAPEAX_KAEAV_HeapManager@@H@Z 00000001801b2520 f   libvcruntime:undname.obj
 0001:001b154c       ??AReplicator@@QEBA?AVDName@@H@Z 00000001801b254c f   libvcruntime:undname.obj
 0001:001b158c       ??HDName@@QEBA?AV0@AEBUStringLiteral@@@Z 00000001801b258c f   libvcruntime:undname.obj
 0001:001b15b8       ??HDName@@QEBA?AV0@AEBV0@@Z 00000001801b25b8 f   libvcruntime:undname.obj
 0001:001b15e4       ??HDName@@QEBA?AV0@D@Z     00000001801b25e4 f   libvcruntime:undname.obj
 0001:001b1610       ??HDName@@QEBA?AV0@W4DNameStatus@@@Z 00000001801b2610 f   libvcruntime:undname.obj
 0001:001b163c       ??YDName@@QEAAAEAV0@AEBUStringLiteral@@@Z 00000001801b263c f   libvcruntime:undname.obj
 0001:001b16bc       ??YDName@@QEAAAEAV0@AEBV0@@Z 00000001801b26bc f   libvcruntime:undname.obj
 0001:001b1770       ??YDName@@QEAAAEAV0@D@Z    00000001801b2770 f   libvcruntime:undname.obj
 0001:001b17dc       ??YDName@@QEAAAEAV0@W4DNameStatus@@@Z 00000001801b27dc f   libvcruntime:undname.obj
 0001:001b1848       ??YReplicator@@QEAAAEAV0@AEBVDName@@@Z 00000001801b2848 f   libvcruntime:undname.obj
 0001:001b18a0       ?UScore@UnDecorator@@SA?AUStringLiteral@@W4Tokens@@@Z 00000001801b28a0 f   libvcruntime:undname.obj
 0001:001b18ec       ?composeDeclaration@UnDecorator@@CA?AVDName@@AEBV2@@Z 00000001801b28ec f i libvcruntime:undname.obj
 0001:001b2794       ?doPchar@DName@@AEAAXD@Z   00000001801b3794 f   libvcruntime:undname.obj
 0001:001b27e4       ?getAddressOf@UnDecorator@@CA?AVDName@@XZ 00000001801b37e4 f   libvcruntime:undname.obj
 0001:001b2874       ?getArgumentList@UnDecorator@@CA?AVDName@@XZ 00000001801b3874 f   libvcruntime:undname.obj
 0001:001b2a08       ?getArgumentTypes@UnDecorator@@CA?AVDName@@XZ 00000001801b3a08 f   libvcruntime:undname.obj
 0001:001b2b64       ?getArrayAccess@UnDecorator@@CA?AVDName@@XZ 00000001801b3b64 f   libvcruntime:undname.obj
 0001:001b2c00       ?getArrayObject@UnDecorator@@CA?AVDName@@XZ 00000001801b3c00 f   libvcruntime:undname.obj
 0001:001b2cc8       ?getArrayType@UnDecorator@@CA?AVDName@@AEBV2@@Z 00000001801b3cc8 f i libvcruntime:undname.obj
 0001:001b2f10       ?getBasedType@UnDecorator@@CA?AVDName@@XZ 00000001801b3f10 f   libvcruntime:undname.obj
 0001:001b3008       ?getBasicDataType@UnDecorator@@CA?AVDName@@AEBV2@@Z 00000001801b4008 f   libvcruntime:undname.obj
 0001:001b35b8       ?getCallingConvention@UnDecorator@@CA?AVDName@@XZ 00000001801b45b8 f   libvcruntime:undname.obj
 0001:001b36f8       ?getDataIndirectType@UnDecorator@@CA?AVDName@@AEBV2@W4IndirectionKind@@0H@Z 00000001801b46f8 f   libvcruntime:undname.obj
 0001:001b3f90       ?getDataType@UnDecorator@@CA?AVDName@@PEAV2@@Z 00000001801b4f90 f   libvcruntime:undname.obj
 0001:001b40a4       ?getDecoratedName@UnDecorator@@CA?AVDName@@XZ 00000001801b50a4 f   libvcruntime:undname.obj
 0001:001b4388       ?getDimension@UnDecorator@@CA?AVDName@@_N@Z 00000001801b5388 f   libvcruntime:undname.obj
 0001:001b44d4       ?getDispatchTarget@UnDecorator@@CA?AVDName@@XZ 00000001801b54d4 f   libvcruntime:undname.obj
 0001:001b4520       ?getECSUDataType@UnDecorator@@CA?AVDName@@XZ 00000001801b5520 f   libvcruntime:undname.obj
 0001:001b4700       ?getEnumType@UnDecorator@@CA?AVDName@@XZ 00000001801b5700 f i libvcruntime:undname.obj
 0001:001b4830       ?getExtendedDataIndirectType@UnDecorator@@CA?AVDName@@AEAW4IndirectionKind@@AEA_NH@Z 00000001801b5830 f   libvcruntime:undname.obj
 0001:001b4a38       ?getExternalDataType@UnDecorator@@CA?AVDName@@AEBV2@@Z 00000001801b5a38 f i libvcruntime:undname.obj
 0001:001b4af8       ?getFloatingPoint@UnDecorator@@CA?AVDName@@H@Z 00000001801b5af8 f   libvcruntime:undname.obj
 0001:001b4c20       ?getFunctionIndirectType@UnDecorator@@CA?AVDName@@AEBV2@@Z 00000001801b5c20 f   libvcruntime:undname.obj
 0001:001b5158       ?getLastChar@DNameStatusNode@@UEBADXZ 00000001801b6158 f i libvcruntime:undname.obj
 0001:001b5164       ?getLastChar@charNode@@UEBADXZ 00000001801b6164 f i libvcruntime:undname.obj
 0001:001b5168       ?getLastChar@pDNameNode@@UEBADXZ 00000001801b6168 f i libvcruntime:undname.obj
 0001:001b5194       ?getLastChar@pairNode@@UEBADXZ 00000001801b6194 f i libvcruntime:undname.obj
 0001:001b51cc       ?getLastChar@pcharNode@@UEBADXZ 00000001801b61cc f i libvcruntime:undname.obj
 0001:001b51e0       ?getLexicalFrame@UnDecorator@@CA?AVDName@@XZ 00000001801b61e0 f i libvcruntime:undname.obj
 0001:001b5244       ?getMemberAccess@UnDecorator@@CA?AVDName@@XZ 00000001801b6244 f   libvcruntime:undname.obj
 0001:001b52d8       ?getMemoryWithBuffer@_HeapManager@@QEAAPEAX_K@Z 00000001801b62d8 f   libvcruntime:undname.obj
 0001:001b5368       ?getNoexcept@UnDecorator@@CA?AVDName@@XZ 00000001801b6368 f   libvcruntime:undname.obj
 0001:001b53cc       ?getNumberOfDimensions@UnDecorator@@CAHXZ 00000001801b63cc f   libvcruntime:undname.obj
 0001:001b5440       ?getOperatorName@UnDecorator@@CA?AVDName@@_NPEA_N@Z 00000001801b6440 f i libvcruntime:undname.obj
 0001:001b5e34       ?getPointerToMember@UnDecorator@@CA?AVDName@@XZ 00000001801b6e34 f   libvcruntime:undname.obj
 0001:001b5f2c       ?getPrimaryDataType@UnDecorator@@CA?AVDName@@AEBV2@@Z 00000001801b6f2c f   libvcruntime:undname.obj
 0001:001b61e0       ?getPtrRefDataType@UnDecorator@@CA?AVDName@@AEBV2@H@Z 00000001801b71e0 f   libvcruntime:undname.obj
 0001:001b63ac       ?getPtrRefType@UnDecorator@@CA?AVDName@@AEBV2@0W4IndirectionKind@@@Z 00000001801b73ac f   libvcruntime:undname.obj
 0001:001b6584       ?getRestrictionSpec@UnDecorator@@CA?AVDName@@XZ 00000001801b7584 f   libvcruntime:undname.obj
 0001:001b6750       ?getReturnType@UnDecorator@@CA?AVDName@@PEAV2@@Z 00000001801b7750 f   libvcruntime:undname.obj
 0001:001b6784       ?getScope@UnDecorator@@CA?AVDName@@XZ 00000001801b7784 f   libvcruntime:undname.obj
 0001:001b6c38       ?getScopedName@UnDecorator@@CA?AVDName@@XZ 00000001801b7c38 f   libvcruntime:undname.obj
 0001:001b6d74       ?getSignedDimension@UnDecorator@@CA?AVDName@@XZ 00000001801b7d74 f   libvcruntime:undname.obj
 0001:001b6dfc       ?getString@DNameStatusNode@@UEBAPEADPEAD0@Z 00000001801b7dfc f i libvcruntime:undname.obj
 0001:001b6e44       ?getString@charNode@@UEBAPEADPEAD0@Z 00000001801b7e44 f i libvcruntime:undname.obj
 0001:001b6e58       ?getString@pDNameNode@@UEBAPEADPEAD0@Z 00000001801b7e58 f i libvcruntime:undname.obj
 0001:001b6e88       ?getString@pairNode@@UEBAPEADPEAD0@Z 00000001801b7e88 f i libvcruntime:undname.obj
 0001:001b6ed4       ?getString@pcharNode@@UEBAPEADPEAD0@Z 00000001801b7ed4 f i libvcruntime:undname.obj
 0001:001b6f0c       ?getStringEncoding@UnDecorator@@CA?AVDName@@W4PrefixKind@@H@Z 00000001801b7f0c f   libvcruntime:undname.obj
 0001:001b6ff0       ?getStringObject@UnDecorator@@CA?AVDName@@XZ 00000001801b7ff0 f   libvcruntime:undname.obj
 0001:001b7058       ?getSymbolName@UnDecorator@@CA?AVDName@@XZ 00000001801b8058 f i libvcruntime:undname.obj
 0001:001b70a4       ?getTemplateArgumentList@UnDecorator@@CA?AVDName@@XZ 00000001801b80a4 f   libvcruntime:undname.obj
 0001:001b7318       ?getTemplateName@UnDecorator@@CA?AVDName@@_N@Z 00000001801b8318 f   libvcruntime:undname.obj
 0001:001b75ac       ?getTemplateNonTypeArgument@UnDecorator@@CA?AVDName@@XZ 00000001801b85ac f   libvcruntime:undname.obj
 0001:001b7ae0       ?getTemplateTypeArgument@UnDecorator@@CA?AVDName@@XZ 00000001801b8ae0 f   libvcruntime:undname.obj
 0001:001b7c48       ?getThrowTypes@UnDecorator@@CA?AVDName@@XZ 00000001801b8c48 f   libvcruntime:undname.obj
 0001:001b7c6c       ?getTypeEncoding@UnDecorator@@CAHXZ 00000001801b8c6c f i libvcruntime:undname.obj
 0001:001b7ffc       ?getUndecoratedName@UnDecorator@@QEAAPEADPEADH@Z 00000001801b8ffc f i libvcruntime:undname.obj
 0001:001b8150       ?getUnionObject@UnDecorator@@CA?AVDName@@XZ 00000001801b9150 f   libvcruntime:undname.obj
 0001:001b8228       ?getVCallThunkType@UnDecorator@@CA?AVDName@@XZ 00000001801b9228 f i libvcruntime:undname.obj
 0001:001b82a0       ?getValue@UnDecorator@@CA?AV?$optional@_K@std@@XZ 00000001801b92a0 f   libvcruntime:undname.obj
 0001:001b8314       ?getValueObject@UnDecorator@@CA?AVDName@@XZ 00000001801b9314 f   libvcruntime:undname.obj
 0001:001b846c       ?getVdispMapType@UnDecorator@@CA?AVDName@@AEBV2@@Z 00000001801b946c f i libvcruntime:undname.obj
 0001:001b84e8       ?getVfTableType@UnDecorator@@CA?AVDName@@AEBV2@@Z 00000001801b94e8 f i libvcruntime:undname.obj
 0001:001b86f0       ?getZName@UnDecorator@@CA?AVDName@@_N0@Z 00000001801b96f0 f   libvcruntime:undname.obj
 0001:001b89d8       ?length@pDNameNode@@UEBAHXZ 00000001801b99d8 f i libvcruntime:undname.obj
 0001:001b8a00       ?length@pairNode@@UEBAHXZ  00000001801b9a00 f i libvcruntime:undname.obj
 0001:001b8a48       ?parseDecoratedName@UnDecorator@@CA?AVDName@@XZ 00000001801b9a48 f   libvcruntime:undname.obj
 0001:001b8b5c       ?raw_length@pDNameNode@@UEBAHXZ 00000001801b9b5c f i libvcruntime:undname.obj
 0001:001b8b60       ?raw_length@pairNode@@UEBAHXZ 00000001801b9b60 f i libvcruntime:undname.obj
 0001:001b8b64       __unDName                  00000001801b9b64 f   libvcruntime:undname.obj
 0001:001b8b8c       __unDNameEx                00000001801b9b8c f   libvcruntime:undname.obj
 0001:001b8cc0       sprintf_s                  00000001801b9cc0 f i libvcruntime:undname.obj
 0001:001b8d14       __vcrt_freefls             00000001801b9d14 f   libvcruntime:per_thread_data.obj
 0001:001b8d34       __vcrt_freeptd             00000001801b9d34 f   libvcruntime:per_thread_data.obj
 0001:001b8d84       __vcrt_getptd              00000001801b9d84 f   libvcruntime:per_thread_data.obj
 0001:001b8da0       __vcrt_getptd_noexit       00000001801b9da0 f   libvcruntime:per_thread_data.obj
 0001:001b8e60       __vcrt_initialize_ptd      00000001801b9e60 f   libvcruntime:per_thread_data.obj
 0001:001b8ea8       __vcrt_uninitialize_ptd    00000001801b9ea8 f   libvcruntime:per_thread_data.obj
 0001:001b8ecc       __vcrt_initialize_locks    00000001801b9ecc f   libvcruntime:locks.obj
 0001:001b8f00       __vcrt_lock                00000001801b9f00 f   libvcruntime:locks.obj
 0001:001b8f1c       __vcrt_uninitialize_locks  00000001801b9f1c f   libvcruntime:locks.obj
 0001:001b8f54       __vcrt_unlock              00000001801b9f54 f   libvcruntime:locks.obj
 0001:001b8f80       _NLG_Notify                00000001801b9f80 f   libvcruntime:notify.obj
 0001:001b8fa0       __NLG_Dispatch2            00000001801b9fa0 f   libvcruntime:notify.obj
 0001:001b8fb0       __NLG_Return2              00000001801b9fb0 f   libvcruntime:notify.obj
 0001:001b8fb4       __except_validate_context_record 00000001801b9fb4 f   libvcruntime:jbcxrval.obj
 0001:001b8fec       ??$_CallSETranslator@V__FrameHandler4@@@@YAHPEAUEHExceptionRecord@@PEA_KPEAU_CONTEXT@@PEAU_xDISPATCHER_CONTEXT@@PEAUFuncInfo4@FH4@@K1H@Z 00000001801b9fec f i libvcruntime:risctrnsctrl.obj
 0001:001b9040       ?DecompFuncInfo@FH4@@YA_JPEAEAEAUFuncInfo4@1@_KH_N@Z 00000001801ba040 f i libvcruntime:risctrnsctrl.obj
 0001:001b9164       ?ExecutionInCatch@__FrameHandler4@@SA_NPEAU_xDISPATCHER_CONTEXT@@PEAUFuncInfo4@FH4@@@Z 00000001801ba164 f   libvcruntime:risctrnsctrl.obj
 0001:001b916c       ?FrameUnwindToEmptyState@__FrameHandler4@@SAXPEA_KPEAU_xDISPATCHER_CONTEXT@@PEAUFuncInfo4@FH4@@@Z 00000001801ba16c f   libvcruntime:risctrnsctrl.obj
 0001:001b91a0       ?GetEstablisherFrame@__FrameHandler4@@SAPEA_KPEA_KPEAU_xDISPATCHER_CONTEXT@@PEAUFuncInfo4@FH4@@0@Z 00000001801ba1a0 f   libvcruntime:risctrnsctrl.obj
 0001:001b91c4       ?GetRangeOfTrysToCheck@__FrameHandler4@@SA?AU?$pair@Viterator@TryBlockMap4@FH4@@V123@@std@@AEAVTryBlockMap4@FH4@@HPEAU_xDISPATCHER_CONTEXT@@PEAUFuncInfo4@5@H@Z 00000001801ba1c4 f   libvcruntime:risctrnsctrl.obj
 0001:001b932c       ?UnwindNestedFrames@__FrameHandler4@@SAXPEA_KPEAUEHExceptionRecord@@PEAU_CONTEXT@@0PEAXPEAUFuncInfo4@FH4@@HHPEAUHandlerType4@5@PEAU_xDISPATCHER_CONTEXT@@E@Z 00000001801ba32c f   libvcruntime:risctrnsctrl.obj
 0001:001b944c       ?setBuffer@TryBlockMap4@FH4@@QEAAXViterator@12@@Z 00000001801ba44c f i libvcruntime:risctrnsctrl.obj
 0001:001b960c       _CreateFrameInfo           00000001801ba60c f   libvcruntime:risctrnsctrl.obj
 0001:001b9648       _FindAndUnlinkFrame        00000001801ba648 f   libvcruntime:risctrnsctrl.obj
 0001:001b969c       _GetImageBase              00000001801ba69c f   libvcruntime:risctrnsctrl.obj
 0001:001b96b0       _GetThrowImageBase         00000001801ba6b0 f   libvcruntime:risctrnsctrl.obj
 0001:001b96c4       _SetImageBase              00000001801ba6c4 f   libvcruntime:risctrnsctrl.obj
 0001:001b96dc       _SetThrowImageBase         00000001801ba6dc f   libvcruntime:risctrnsctrl.obj
 0001:001b96f4       __CxxFrameHandler4         00000001801ba6f4 f   libvcruntime:risctrnsctrl.obj
 0001:001b9904       __vcrt_FlsAlloc            00000001801ba904 f   libvcruntime:winapi_downlevel.obj
 0001:001b994c       __vcrt_FlsFree             00000001801ba94c f   libvcruntime:winapi_downlevel.obj
 0001:001b9994       __vcrt_FlsGetValue         00000001801ba994 f   libvcruntime:winapi_downlevel.obj
 0001:001b99dc       __vcrt_FlsSetValue         00000001801ba9dc f   libvcruntime:winapi_downlevel.obj
 0001:001b9a30       __vcrt_InitializeCriticalSectionEx 00000001801baa30 f   libvcruntime:winapi_downlevel.obj
 0001:001b9a94       ?StateFromControlPc@__FrameHandler4@@SAHPEAUFuncInfo4@FH4@@PEAU_xDISPATCHER_CONTEXT@@@Z 00000001801baa94 f   libvcruntime:ehstate.obj
 0001:001b9a9c       ?StateFromIp@__FrameHandler4@@SAHPEAUFuncInfo4@FH4@@PEAU_xDISPATCHER_CONTEXT@@_K@Z 00000001801baa9c f   libvcruntime:ehstate.obj
 0001:001ba70c       ??$TypeMatchHelper@V__FrameHandler3@@@@YAHPEBU_s_HandlerType@@PEBU_s_CatchableType@@PEBU_s_ThrowInfo@@@Z 00000001801bb70c f i libvcruntime:frame.obj
 0001:001ba84c       ??$TypeMatchHelper@V__FrameHandler4@@@@YAHPEAUHandlerType4@FH4@@PEBU_s_CatchableType@@PEBU_s_ThrowInfo@@@Z 00000001801bb84c f i libvcruntime:frame.obj
 0001:001ba990       ??$__InternalCxxFrameHandler@V__FrameHandler4@@@@YA?AW4_EXCEPTION_DISPOSITION@@PEAUEHExceptionRecord@@PEA_KPEAU_CONTEXT@@PEAU_xDISPATCHER_CONTEXT@@PEAUFuncInfo4@FH4@@H1E@Z 00000001801bb990 f i libvcruntime:frame.obj
 0001:001bac24       ??0HandlerMap4@FH4@@QEAA@PEBUTryBlockMapEntry4@1@_KH@Z 00000001801bbc24 f i libvcruntime:frame.obj
 0001:001baca0       ??0TryBlockMap4@FH4@@QEAA@PEBUFuncInfo4@1@_K@Z 00000001801bbca0 f i libvcruntime:frame.obj
 0001:001bad78       ??0bad_exception@std@@QEAA@AEBV01@@Z 00000001801bbd78 f i libvcruntime:frame.obj
 0001:001badb4       ??0bad_exception@std@@QEAA@XZ 00000001801bbdb4 f i libvcruntime:frame.obj
 0001:001badd4       ??0exception@std@@QEAA@AEBV01@@Z 00000001801bbdd4 f i libvcruntime:frame.obj
 0001:001bae08       ??1bad_exception@std@@UEAA@XZ 00000001801bbe08 f i libvcruntime:frame.obj
 0001:001bae1c       ??_Gbad_exception@std@@UEAAPEAXI@Z 00000001801bbe1c f i libvcruntime:frame.obj
 0001:001bae1c       ??_Ebad_exception@std@@UEAAPEAXI@Z 00000001801bbe1c f i libvcruntime:frame.obj
 0001:001bae1c       ??_Gexception@std@@UEAAPEAXI@Z 00000001801bbe1c f i libvcruntime:frame.obj
 0001:001bae1c       ??_Eexception@std@@UEAAPEAXI@Z 00000001801bbe1c f i libvcruntime:frame.obj
 0001:001bae60       ?CxxCallCatchBlock@__FrameHandler4@@SAPEAXPEAU_EXCEPTION_RECORD@@@Z 00000001801bbe60 f   libvcruntime:frame.obj
 0001:001bb0b0       ?DecompHandler@HandlerMap4@FH4@@AEAAXXZ 00000001801bc0b0 f i libvcruntime:frame.obj
 0001:001bb2f0       ?FrameUnwindToState@__FrameHandler4@@SAXPEA_KPEAU_xDISPATCHER_CONTEXT@@PEAUFuncInfo4@FH4@@H@Z 00000001801bc2f0 f   libvcruntime:frame.obj
 0001:001bb750       ?ReadEntry@UWMap4@FH4@@AEAAXPEAPEAE@Z 00000001801bc750 f i libvcruntime:frame.obj
 0001:001bb7f0       ?_CallMemberFunction1@@YAXQEAX00@Z 00000001801bc7f0 f i libvcruntime:frame.obj
 0001:001bb7fc       ?_CallMemberFunction2@@YAXQEAX00H@Z 00000001801bc7fc f i libvcruntime:frame.obj
 0001:001bb80c       ?getStartStop@UWMap4@FH4@@QEAAXHHAEAViterator@12@0@Z 00000001801bc80c f i libvcruntime:frame.obj
 0001:001bb8dc       ?getStateFromIterators@UWMap4@FH4@@SAHAEBViterator@12@H0H0@Z 00000001801bc8dc f i libvcruntime:frame.obj
 0001:001bb9a4       ?what@exception@std@@UEBAPEBDXZ 00000001801bc9a4 f i libvcruntime:frame.obj
 0001:001bb9d0       _CallSettingFrame          00000001801bc9d0 f   libvcruntime:handlers.obj
 0001:001bba20       _CallSettingFrame_LookupContinuationIndex 00000001801bca20 f   libvcruntime:handlers.obj
 0001:001bba50       _CallSettingFrame_NotifyContinuationAddr 00000001801bca50 f   libvcruntime:handlers.obj
 0001:001bba80       _CallSettingFrameEncoded   00000001801bca80 f   libvcruntime:handlers.obj
 0001:001bbac8       __std_exception_copy       00000001801bcac8 f   libvcruntime:std_exception.obj
 0001:001bbb58       __std_exception_destroy    00000001801bcb58 f   libvcruntime:std_exception.obj
 0001:001bbb80       _CxxThrowException         00000001801bcb80 f   libvcruntime:throw.obj
 0001:001bbc20       cosf                       00000001801bcc20 f   libucrt:cosf.obj
 0001:001bc120       sinf                       00000001801bd120 f   libucrt:sinf.obj
 0001:001bc820       tanf                       00000001801bd820 f   libucrt:tanf.obj
 0001:001bce94       __acrt_initialize_stdio    00000001801bde94 f   libucrt:_file.obj
 0001:001bcfb4       __acrt_iob_func            00000001801bdfb4 f   libucrt:_file.obj
 0001:001bcfc8       __acrt_uninitialize_stdio  00000001801bdfc8 f   libucrt:_file.obj
 0001:001bd024       _lock_file                 00000001801be024 f   libucrt:_file.obj
 0001:001bd030       _unlock_file               00000001801be030 f   libucrt:_file.obj
 0001:001bd248       ??$ensure_buffer_is_big_enough@D@formatting_buffer@__crt_stdio_output@@QEAA_N_K@Z 00000001801be248 f i libucrt:output.obj
 0001:001bd2f0       ??$type_case_integer_parse_into_buffer@I@?$output_processor@DV?$stream_output_adapter@D@__crt_stdio_output@@V?$standard_base@DV?$stream_output_adapter@D@__crt_stdio_output@@@2@@__crt_stdio_output@@AEAAXII_N@Z 00000001801be2f0 f i libucrt:output.obj
 0001:001bd2f0       ??$type_case_integer_parse_into_buffer@I@?$output_processor@DV?$string_output_adapter@D@__crt_stdio_output@@V?$format_validation_base@DV?$string_output_adapter@D@__crt_stdio_output@@@2@@__crt_stdio_output@@AEAAXII_N@Z 00000001801be2f0 f i libucrt:output.obj
 0001:001bd378       ??$type_case_integer_parse_into_buffer@_K@?$output_processor@DV?$string_output_adapter@D@__crt_stdio_output@@V?$format_validation_base@DV?$string_output_adapter@D@__crt_stdio_output@@@2@@__crt_stdio_output@@AEAAX_KI_N@Z 00000001801be378 f i libucrt:output.obj
 0001:001bd378       ??$type_case_integer_parse_into_buffer@_K@?$output_processor@DV?$stream_output_adapter@D@__crt_stdio_output@@V?$standard_base@DV?$stream_output_adapter@D@__crt_stdio_output@@@2@@__crt_stdio_output@@AEAAX_KI_N@Z 00000001801be378 f i libucrt:output.obj
 0001:001bd408       ??$write_multiple_characters@V?$stream_output_adapter@D@__crt_stdio_output@@D@__crt_stdio_output@@YAXAEBV?$stream_output_adapter@D@0@DHQEAH@Z 00000001801be408 f i libucrt:output.obj
 0001:001bd494       ??$write_multiple_characters@V?$string_output_adapter@D@__crt_stdio_output@@D@__crt_stdio_output@@YAXAEBV?$string_output_adapter@D@0@DHQEAH@Z 00000001801be494 f i libucrt:output.obj
 0001:001bd50c       ??0_LocaleUpdate@@QEAA@QEAU__crt_locale_pointers@@@Z 00000001801be50c f i libucrt:output.obj
 0001:001bd6e0       ?crop_zeroes@__crt_stdio_output@@YAXPEADQEAU__crt_locale_pointers@@@Z 00000001801be6e0 f i libucrt:output.obj
 0001:001bd780       ?force_decimal_point@__crt_stdio_output@@YAXPEADQEAU__crt_locale_pointers@@@Z 00000001801be780 f i libucrt:output.obj
 0001:001bd7f8       ?parse_int_from_format_string@?$output_processor@DV?$stream_output_adapter@D@__crt_stdio_output@@V?$standard_base@DV?$stream_output_adapter@D@__crt_stdio_output@@@2@@__crt_stdio_output@@AEAA_NQEAH@Z 00000001801be7f8 f i libucrt:output.obj
 0001:001bd7f8       ?parse_int_from_format_string@?$output_processor@DV?$string_output_adapter@D@__crt_stdio_output@@V?$format_validation_base@DV?$string_output_adapter@D@__crt_stdio_output@@@2@@__crt_stdio_output@@AEAA_NQEAH@Z 00000001801be7f8 f i libucrt:output.obj
 0001:001bd89c       ?process@?$output_processor@DV?$stream_output_adapter@D@__crt_stdio_output@@V?$standard_base@DV?$stream_output_adapter@D@__crt_stdio_output@@@2@@__crt_stdio_output@@QEAAHXZ 00000001801be89c f i libucrt:output.obj
 0001:001bdab0       ?process@?$output_processor@DV?$string_output_adapter@D@__crt_stdio_output@@V?$format_validation_base@DV?$string_output_adapter@D@__crt_stdio_output@@@2@@__crt_stdio_output@@QEAAHXZ 00000001801beab0 f i libucrt:output.obj
 0001:001bdcc4       ?state_case_normal@?$output_processor@DV?$stream_output_adapter@D@__crt_stdio_output@@V?$standard_base@DV?$stream_output_adapter@D@__crt_stdio_output@@@2@@__crt_stdio_output@@AEAA_NXZ 00000001801becc4 f i libucrt:output.obj
 0001:001bdd34       ?state_case_normal@?$output_processor@DV?$string_output_adapter@D@__crt_stdio_output@@V?$format_validation_base@DV?$string_output_adapter@D@__crt_stdio_output@@@2@@__crt_stdio_output@@AEAA_NXZ 00000001801bed34 f i libucrt:output.obj
 0001:001bdda8       ?state_case_normal_tchar@?$output_processor@DV?$stream_output_adapter@D@__crt_stdio_output@@V?$standard_base@DV?$stream_output_adapter@D@__crt_stdio_output@@@2@@__crt_stdio_output@@AEAA_ND@Z 00000001801beda8 f i libucrt:output.obj
 0001:001bde4c       ?state_case_normal_tchar@?$output_processor@DV?$string_output_adapter@D@__crt_stdio_output@@V?$format_validation_base@DV?$string_output_adapter@D@__crt_stdio_output@@@2@@__crt_stdio_output@@AEAA_ND@Z 00000001801bee4c f i libucrt:output.obj
 0001:001bdef4       ?state_case_size@?$output_processor@DV?$stream_output_adapter@D@__crt_stdio_output@@V?$standard_base@DV?$stream_output_adapter@D@__crt_stdio_output@@@2@@__crt_stdio_output@@AEAA_NXZ 00000001801beef4 f i libucrt:output.obj
 0001:001be064       ?state_case_size@?$output_processor@DV?$string_output_adapter@D@__crt_stdio_output@@V?$format_validation_base@DV?$string_output_adapter@D@__crt_stdio_output@@@2@@__crt_stdio_output@@AEAA_NXZ 00000001801bf064 f i libucrt:output.obj
 0001:001be1d4       ?state_case_type@?$output_processor@DV?$stream_output_adapter@D@__crt_stdio_output@@V?$standard_base@DV?$stream_output_adapter@D@__crt_stdio_output@@@2@@__crt_stdio_output@@AEAA_NXZ 00000001801bf1d4 f i libucrt:output.obj
 0001:001be458       ?state_case_type@?$output_processor@DV?$string_output_adapter@D@__crt_stdio_output@@V?$format_validation_base@DV?$string_output_adapter@D@__crt_stdio_output@@@2@@__crt_stdio_output@@AEAA_NXZ 00000001801bf458 f i libucrt:output.obj
 0001:001be6c0       ?to_integer_size@__crt_stdio_output@@YA_KW4length_modifier@1@@Z 00000001801bf6c0 f i libucrt:output.obj
 0001:001be728       ?type_case_Z@?$output_processor@DV?$stream_output_adapter@D@__crt_stdio_output@@V?$standard_base@DV?$stream_output_adapter@D@__crt_stdio_output@@@2@@__crt_stdio_output@@AEAA_NXZ 00000001801bf728 f i libucrt:output.obj
 0001:001be728       ?type_case_Z@?$output_processor@DV?$string_output_adapter@D@__crt_stdio_output@@V?$format_validation_base@DV?$string_output_adapter@D@__crt_stdio_output@@@2@@__crt_stdio_output@@AEAA_NXZ 00000001801bf728 f i libucrt:output.obj
 0001:001be79c       ?type_case_a@?$output_processor@DV?$string_output_adapter@D@__crt_stdio_output@@V?$format_validation_base@DV?$string_output_adapter@D@__crt_stdio_output@@@2@@__crt_stdio_output@@AEAA_NXZ 00000001801bf79c f i libucrt:output.obj
 0001:001be79c       ?type_case_a@?$output_processor@DV?$stream_output_adapter@D@__crt_stdio_output@@V?$standard_base@DV?$stream_output_adapter@D@__crt_stdio_output@@@2@@__crt_stdio_output@@AEAA_NXZ 00000001801bf79c f i libucrt:output.obj
 0001:001be958       ?type_case_c_tchar@?$output_processor@DV?$string_output_adapter@D@__crt_stdio_output@@V?$format_validation_base@DV?$string_output_adapter@D@__crt_stdio_output@@@2@@__crt_stdio_output@@AEAA_ND@Z 00000001801bf958 f i libucrt:output.obj
 0001:001be958       ?type_case_c_tchar@?$output_processor@DV?$stream_output_adapter@D@__crt_stdio_output@@V?$standard_base@DV?$stream_output_adapter@D@__crt_stdio_output@@@2@@__crt_stdio_output@@AEAA_ND@Z 00000001801bf958 f i libucrt:output.obj
 0001:001bea20       ?type_case_integer@?$output_processor@DV?$string_output_adapter@D@__crt_stdio_output@@V?$format_validation_base@DV?$string_output_adapter@D@__crt_stdio_output@@@2@@__crt_stdio_output@@AEAA_NI_N@Z 00000001801bfa20 f i libucrt:output.obj
 0001:001bea20       ?type_case_integer@?$output_processor@DV?$stream_output_adapter@D@__crt_stdio_output@@V?$standard_base@DV?$stream_output_adapter@D@__crt_stdio_output@@@2@@__crt_stdio_output@@AEAA_NI_N@Z 00000001801bfa20 f i libucrt:output.obj
 0001:001beba0       ?type_case_n@?$output_processor@DV?$stream_output_adapter@D@__crt_stdio_output@@V?$standard_base@DV?$stream_output_adapter@D@__crt_stdio_output@@@2@@__crt_stdio_output@@AEAA_NXZ 00000001801bfba0 f i libucrt:output.obj
 0001:001beba0       ?type_case_n@?$output_processor@DV?$string_output_adapter@D@__crt_stdio_output@@V?$format_validation_base@DV?$string_output_adapter@D@__crt_stdio_output@@@2@@__crt_stdio_output@@AEAA_NXZ 00000001801bfba0 f i libucrt:output.obj
 0001:001bec28       ?type_case_s@?$output_processor@DV?$stream_output_adapter@D@__crt_stdio_output@@V?$standard_base@DV?$stream_output_adapter@D@__crt_stdio_output@@@2@@__crt_stdio_output@@AEAA_NXZ 00000001801bfc28 f i libucrt:output.obj
 0001:001bec28       ?type_case_s@?$output_processor@DV?$string_output_adapter@D@__crt_stdio_output@@V?$format_validation_base@DV?$string_output_adapter@D@__crt_stdio_output@@@2@@__crt_stdio_output@@AEAA_NXZ 00000001801bfc28 f i libucrt:output.obj
 0001:001becc0       ?validate_stream_is_ansi_if_required@?$__acrt_stdio_char_traits@D@@SA_NQEAU_iobuf@@@Z 00000001801bfcc0 f i libucrt:output.obj
 0001:001bed5c       ?write_stored_string_tchar@?$output_processor@DV?$stream_output_adapter@D@__crt_stdio_output@@V?$standard_base@DV?$stream_output_adapter@D@__crt_stdio_output@@@2@@__crt_stdio_output@@AEAA_ND@Z 00000001801bfd5c f i libucrt:output.obj
 0001:001bee80       ?write_stored_string_tchar@?$output_processor@DV?$string_output_adapter@D@__crt_stdio_output@@V?$format_validation_base@DV?$string_output_adapter@D@__crt_stdio_output@@@2@@__crt_stdio_output@@AEAA_ND@Z 00000001801bfe80 f i libucrt:output.obj
 0001:001bef5c       ?write_string@?$string_output_adapter@D@__crt_stdio_output@@QEBAXQEBDHQEAHAEAV__crt_deferred_errno_cache@@@Z 00000001801bff5c f i libucrt:output.obj
 0001:001bf000       ?write_string_impl@?$output_adapter_common@DV?$stream_output_adapter@D@__crt_stdio_output@@@__crt_stdio_output@@IEBAXQEBDHQEAHAEAV__crt_deferred_errno_cache@@@Z 00000001801c0000 f i libucrt:output.obj
 0001:001bf0f8       __stdio_common_vfprintf    00000001801c00f8 f   libucrt:output.obj
 0001:001bf184       __stdio_common_vsprintf_s  00000001801c0184 f   libucrt:output.obj
 0001:001bf1e8       _fpclass                   00000001801c01e8 f   libucrt:ieeemisc.obj
 0001:001bf270       powf                       00000001801c0270 f   libucrt:powf.obj
 0001:001c0138       atan2f                     00000001801c1138 f   libucrt:atan2f.obj
 0001:001c0540       strcmp                     00000001801c1540 f   libucrt:strcmp.obj
 0001:001c05a8       acosf                      00000001801c15a8 f   libucrt:acosf.obj
 0001:001c07d4       free                       00000001801c17d4 f   libucrt:free.obj
 0001:001c07e8       _seh_filter_dll            00000001801c17e8 f   libucrt:exception_filter.obj
 0001:001c07fc       _seh_filter_exe            00000001801c17fc f   libucrt:exception_filter.obj
 0001:001c0bec       __acrt_initialize_thread_local_exit_callback 00000001801c1bec f   libucrt:exit.obj
 0001:001c0bf4       _cexit                     00000001801c1bf4 f   libucrt:exit.obj
 0001:001c0c04       _exit                      00000001801c1c04 f   libucrt:exit.obj
 0001:001c0c10       _is_c_termination_complete 00000001801c1c10 f   libucrt:exit.obj
 0001:001c0dd8       __acrt_allocate_buffer_for_argv 00000001801c1dd8 f   libucrt:argv_parsing.obj
 0001:001c0e38       _configure_narrow_argv     00000001801c1e38 f   libucrt:argv_parsing.obj
 0001:001c11b0       __dcrt_uninitialize_environments_nolock 00000001801c21b0 f   libucrt:environment_initialization.obj
 0001:001c11e8       _initialize_narrow_environment 00000001801c21e8 f   libucrt:environment_initialization.obj
 0001:001c1530       _crt_atexit                00000001801c2530 f   libucrt:onexit.obj
 0001:001c1540       _execute_onexit_table      00000001801c2540 f   libucrt:onexit.obj
 0001:001c157c       _initialize_onexit_table   00000001801c257c f   libucrt:onexit.obj
 0001:001c15a4       _register_onexit_function  00000001801c25a4 f   libucrt:onexit.obj
 0001:001c1624       __acrt_uninitialize_command_line 00000001801c2624 f   libucrt:argv_data.obj
 0001:001c171c       __acrt_initialize          00000001801c271c f   libucrt:initialization.obj
 0001:001c1730       __acrt_thread_attach       00000001801c2730 f   libucrt:initialization.obj
 0001:001c1744       __acrt_thread_detach       00000001801c2744 f   libucrt:initialization.obj
 0001:001c1754       __acrt_uninitialize        00000001801c2754 f   libucrt:initialization.obj
 0001:001c178c       __acrt_uninitialize_critical 00000001801c278c f   libucrt:initialization.obj
 0001:001c179c       _initterm                  00000001801c279c f   libucrt:initterm.obj
 0001:001c1800       _initterm_e                00000001801c2800 f   libucrt:initterm.obj
 0001:001c1840       terminate                  00000001801c2840 f   libucrt:terminate.obj
 0001:001c1860       abort                      00000001801c2860 f   libucrt:abort.obj
 0001:001c18b8       malloc                     00000001801c28b8 f   libucrt:malloc.obj
 0001:001c18c0       strcpy_s                   00000001801c28c0 f   libucrt:strcpy_s.obj
 0001:001c1920       ??$parse_integer@KV?$c_string_character_source@D@__crt_strtox@@@__crt_strtox@@YAKQEAU__crt_locale_pointers@@V?$c_string_character_source@D@0@H_N@Z 00000001801c2920 f i libucrt:atox.obj
 0001:001c1c24       _ischartype_l              00000001801c2c24 f i libucrt:atox.obj
 0001:001c1c9c       atol                       00000001801c2c9c f   libucrt:atox.obj
 0001:001c1ce0       strncmp                    00000001801c2ce0 f   libucrt:strncmp.obj
 0001:001c1d60       calloc                     00000001801c2d60 f   libucrt:calloc.obj
 0001:001c1d68       wcsncmp                    00000001801c2d68 f   libucrt:wcsncmp.obj
 0001:001c1da0       __remainder_piby2d2f_forAsm 00000001801c2da0 f   libucrt:remainder_piby2f_forasm.obj
 0001:001c1ef0       __remainder_piby2_fma3     00000001801c2ef0 f   libucrt:remainder_piby2_forfma3.obj
 0001:001c20e0       __remainder_piby2_fma3_bdl 00000001801c30e0 f   libucrt:remainder_piby2_forfma3.obj
 0001:001c2158       _cosf_special              00000001801c3158 f   libucrt:sincos_special.obj
 0001:001c21f8       _sinf_special              00000001801c31f8 f   libucrt:sincos_special.obj
 0001:001c220c       _tanf_special              00000001801c320c f   libucrt:sincos_special.obj
 0001:001c2220       _clrfp                     00000001801c3220 f   libucrt:fpctrl.obj
 0001:001c2240       _ctrlfp                    00000001801c3240 f   libucrt:fpctrl.obj
 0001:001c22bc       _set_statfp                00000001801c32bc f   libucrt:fpctrl.obj
 0001:001c22dc       _statfp                    00000001801c32dc f   libucrt:fpctrl.obj
 0001:001c22f0       __acrt_initialize_fma3     00000001801c32f0 f   libucrt:fma3_available.obj
 0001:001c2360       __remainder_piby2d2f_forC  00000001801c3360 f   libucrt:remainder_piby2f_forc.obj
 0001:001c24ec       __acrt_call_reportfault    00000001801c34ec f   libucrt:invalid_parameter.obj
 0001:001c2648       __acrt_initialize_invalid_parameter_handler 00000001801c3648 f   libucrt:invalid_parameter.obj
 0001:001c2650       _invalid_parameter         00000001801c3650 f   libucrt:invalid_parameter.obj
 0001:001c2700       _invalid_parameter_noinfo  00000001801c3700 f   libucrt:invalid_parameter.obj
 0001:001c2720       _invoke_watson             00000001801c3720 f   libucrt:invalid_parameter.obj
 0001:001c2768       __acrt_errno_from_os_error 00000001801c3768 f   libucrt:errno.obj
 0001:001c27b0       __acrt_errno_map_os_error  00000001801c37b0 f   libucrt:errno.obj
 0001:001c2800       __doserrno                 00000001801c3800 f   libucrt:errno.obj
 0001:001c2820       _errno                     00000001801c3820 f   libucrt:errno.obj
 0001:001c2840       _calloc_base               00000001801c3840 f   libucrt:calloc_base.obj
 0001:001c28b8       _free_base                 00000001801c38b8 f   libucrt:free_base.obj
 0001:001c2ad0       __acrt_AppPolicyGetProcessTerminationMethodInternal 00000001801c3ad0 f   libucrt:winapi_thunks.obj
 0001:001c2b20       __acrt_AreFileApisANSI     00000001801c3b20 f   libucrt:winapi_thunks.obj
 0001:001c2b5c       __acrt_FlsAlloc            00000001801c3b5c f   libucrt:winapi_thunks.obj
 0001:001c2ba4       __acrt_FlsFree             00000001801c3ba4 f   libucrt:winapi_thunks.obj
 0001:001c2bec       __acrt_FlsGetValue         00000001801c3bec f   libucrt:winapi_thunks.obj
 0001:001c2c34       __acrt_FlsSetValue         00000001801c3c34 f   libucrt:winapi_thunks.obj
 0001:001c2c88       __acrt_InitializeCriticalSectionEx 00000001801c3c88 f   libucrt:winapi_thunks.obj
 0001:001c2cec       __acrt_LCMapStringEx       00000001801c3cec f   libucrt:winapi_thunks.obj
 0001:001c2dc8       __acrt_LocaleNameToLCID    00000001801c3dc8 f   libucrt:winapi_thunks.obj
 0001:001c2e18       __acrt_initialize_winapi_thunks 00000001801c3e18 f   libucrt:winapi_thunks.obj
 0001:001c2e4c       __acrt_uninitialize_winapi_thunks 00000001801c3e4c f   libucrt:winapi_thunks.obj
 0001:001c2e90       _fcloseall                 00000001801c3e90 f   libucrt:closeall.obj
 0001:001c3120       __acrt_stdio_flush_nolock  00000001801c4120 f   libucrt:fflush.obj
 0001:001c319c       _fflush_nolock             00000001801c419c f   libucrt:fflush.obj
 0001:001c31e8       _flushall                  00000001801c41e8 f   libucrt:fflush.obj
 0001:001c31f0       __acrt_stdio_free_buffer_nolock 00000001801c41f0 f   libucrt:_freebuf.obj
 0001:001c342c       __acrt_initialize_lowio    00000001801c442c f   libucrt:ioinit.obj
 0001:001c3468       __acrt_uninitialize_lowio  00000001801c4468 f   libucrt:ioinit.obj
 0001:001c34a8       _malloc_base               00000001801c44a8 f   libucrt:malloc_base.obj
 0001:001c3508       strtol                     00000001801c4508 f   libucrt:strtox.obj
 0001:001c3534       _mbtowc_l                  00000001801c4534 f   libucrt:mbtowc.obj
 0001:001c36b4       mbtowc                     00000001801c46b4 f   libucrt:mbtowc.obj
 0001:001c36bc       _wctomb_s_l                00000001801c46bc f   libucrt:wctomb.obj
 0001:001c3858       strnlen                    00000001801c4858 f   libucrt:strnlen.obj
 0001:001c39a8       wcsnlen                    00000001801c49a8 f   libucrt:strnlen.obj
 0001:001c3ef8       __acrt_freeptd             00000001801c4ef8 f   libucrt:per_thread_data.obj
 0001:001c3f3c       __acrt_getptd              00000001801c4f3c f   libucrt:per_thread_data.obj
 0001:001c4010       __acrt_getptd_head         00000001801c5010 f   libucrt:per_thread_data.obj
 0001:001c40b8       __acrt_getptd_noexit       00000001801c50b8 f   libucrt:per_thread_data.obj
 0001:001c4184       __acrt_initialize_ptd      00000001801c5184 f   libucrt:per_thread_data.obj
 0001:001c41c0       __acrt_uninitialize_ptd    00000001801c51c0 f   libucrt:per_thread_data.obj
 0001:001c41e4       __acrt_update_locale_info  00000001801c51e4 f   libucrt:locale_update.obj
 0001:001c4218       __acrt_update_multibyte_info 00000001801c5218 f   libucrt:locale_update.obj
 0001:001c4c58       __acrt_fp_format           00000001801c5c58 f   libucrt:cvt.obj
 0001:001c4f90       _fileno                    00000001801c5f90 f   libucrt:fileno.obj
 0001:001c4fb8       _fputc_nolock              00000001801c5fb8 f   libucrt:fputc.obj
 0001:001c4fd0       _get_printf_count_output   00000001801c5fd0 f   libucrt:printf_count_output.obj
 0001:001c4fe8       __acrt_should_use_temporary_buffer 00000001801c5fe8 f   libucrt:_sftbuf.obj
 0001:001c5030       __acrt_stdio_begin_temporary_buffering_nolock 00000001801c6030 f   libucrt:_sftbuf.obj
 0001:001c50f8       __acrt_stdio_end_temporary_buffering_nolock 00000001801c60f8 f   libucrt:_sftbuf.obj
 0001:001c51a4       __acrt_set_locale_changed  00000001801c61a4 f   libucrt:wsetlocale.obj
 0001:001c51b0       __acrt_uninitialize_locale 00000001801c61b0 f   libucrt:wsetlocale.obj
 0001:001c5304       _handle_error              00000001801c6304 f   libucrt:libm_error.obj
 0001:001c542c       _handle_errorf             00000001801c642c f   libucrt:libm_error.obj
 0001:001c5560       _handle_nan                00000001801c6560 f   libucrt:libm_error.obj
 0001:001c557c       _handle_nanf               00000001801c657c f   libucrt:libm_error.obj
 0001:001c5590       _powf_special              00000001801c6590 f   libucrt:pow_special.obj
 0001:001c571c       __acrt_initialize_locks    00000001801c671c f   libucrt:locks.obj
 0001:001c5764       __acrt_lock                00000001801c6764 f   libucrt:locks.obj
 0001:001c5780       __acrt_uninitialize_locks  00000001801c6780 f   libucrt:locks.obj
 0001:001c57b8       __acrt_unlock              00000001801c67b8 f   libucrt:locks.obj
 0001:001c57d4       __acrt_get_process_end_policy 00000001801c67d4 f   libucrt:win_policies.obj
 0001:001c5824       ??$__acrt_mbs_to_wcs_cp@U__crt_win32_buffer_internal_dynamic_resizing@@@@YAHQEBDAEAV?$__crt_win32_buffer@_WU__crt_win32_buffer_internal_dynamic_resizing@@@@I@Z 00000001801c6824 f i libucrt:argv_wildcards.obj
 0001:001c599c       ??$__acrt_wcs_to_mbs_cp@U__crt_win32_buffer_internal_dynamic_resizing@@@@YAHQEB_WAEAV?$__crt_win32_buffer@DU__crt_win32_buffer_internal_dynamic_resizing@@@@I@Z 00000001801c699c f i libucrt:argv_wildcards.obj
 0001:001c61cc       __acrt_expand_narrow_argv_wildcards 00000001801c71cc f   libucrt:argv_wildcards.obj
 0001:001c61d4       ??$__acrt_wcs_to_mbs_cp@U__crt_win32_buffer_no_resizing@@@@YAHQEB_WAEAV?$__crt_win32_buffer@DU__crt_win32_buffer_no_resizing@@@@I@Z 00000001801c71d4 f i libucrt:getmodulefilenamea.obj
 0001:001c62e8       __acrt_GetModuleFileNameA  00000001801c72e8 f   libucrt:getmodulefilenamea.obj
 0001:001c6b30       __acrt_initialize_multibyte 00000001801c7b30 f   libucrt:mbctype.obj
 0001:001c6b90       __acrt_update_thread_multibyte_data 00000001801c7b90 f   libucrt:mbctype.obj
 0001:001c6bac       _setmbcp_nolock            00000001801c7bac f   libucrt:mbctype.obj
 0001:001c6ee0       _ismbblead                 00000001801c7ee0 f   libucrt:ismbbyte.obj
 0001:001c6ef4       __acrt_initialize_command_line 00000001801c7ef4 f   libucrt:argv_data.obj
 0001:001c6f1c       __acrt_MultiByteToWideChar 00000001801c7f1c f   libucrt:multibytetowidechar.obj
 0001:001c6f78       __acrt_WideCharToMultiByte 00000001801c7f78 f   libucrt:widechartomultibyte.obj
 0001:001c7028       __dcrt_get_narrow_environment_from_os 00000001801c8028 f   libucrt:get_environment_from_os.obj
 0001:001c712c       _recalloc_base             00000001801c812c f   libucrt:recalloc.obj
 0001:001c71c4       __acrt_initialize_heap     00000001801c81c4 f   libucrt:heap_handle.obj
 0001:001c71e0       __acrt_uninitialize_heap   00000001801c81e0 f   libucrt:heap_handle.obj
 0001:001c71ec       __acrt_execute_initializers 00000001801c81ec f   libucrt:shared_initialization.obj
 0001:001c726c       __acrt_execute_uninitializers 00000001801c826c f   libucrt:shared_initialization.obj
 0001:001c72a8       __acrt_initialize_new_handler 00000001801c82a8 f   libucrt:new_handler.obj
 0001:001c72b0       _callnewh                  00000001801c82b0 f   libucrt:new_handler.obj
 0001:001c72e0       _query_new_handler         00000001801c82e0 f   libucrt:new_handler.obj
 0001:001c735c       __acrt_get_sigabrt_handler 00000001801c835c f   libucrt:signal.obj
 0001:001c738c       __acrt_initialize_signal_handlers 00000001801c838c f   libucrt:signal.obj
 0001:001c73ac       raise                      00000001801c83ac f   libucrt:signal.obj
 0001:001c7618       __acrt_has_user_matherr    00000001801c8618 f   libucrt:matherr.obj
 0001:001c7638       __acrt_initialize_user_matherr 00000001801c8638 f   libucrt:matherr.obj
 0001:001c7640       __acrt_invoke_user_matherr 00000001801c8640 f   libucrt:matherr.obj
 0001:001c7670       __pctype_func              00000001801c8670 f   libucrt:ctype.obj
 0001:001c76a0       _isctype_l                 00000001801c86a0 f   libucrt:isctype.obj
 0001:001c77c0       _get_fpsr                  00000001801c87c0 f   libucrt:fpsr.obj
 0001:001c77d0       _set_fpsr                  00000001801c87d0 f   libucrt:fpsr.obj
 0001:001c77da       _fclrf                     00000001801c87da f   libucrt:fpsr.obj
 0001:001c77ee       _frnd                      00000001801c87ee f   libucrt:fpsr.obj
 0001:001c7810       _query_new_mode            00000001801c8810 f   libucrt:new_mode.obj
 0001:001c7818       __acrt_DownlevelLocaleNameToLCID 00000001801c8818 f   libucrt:lcidtoname_downlevel.obj
 0001:001c78c8       _fclose_nolock             00000001801c88c8 f   libucrt:fclose.obj
 0001:001c794c       fclose                     00000001801c894c f   libucrt:fclose.obj
 0001:001c7a3c       _commit                    00000001801c8a3c f   libucrt:commit.obj
 0001:001c834c       _write                     00000001801c934c f   libucrt:write.obj
 0001:001c8438       _write_nolock              00000001801c9438 f   libucrt:write.obj
 0001:001c871c       __acrt_lowio_create_handle_array 00000001801c971c f   libucrt:osfinfo.obj
 0001:001c87c4       __acrt_lowio_destroy_handle_array 00000001801c97c4 f   libucrt:osfinfo.obj
 0001:001c8814       __acrt_lowio_ensure_fh_exists 00000001801c9814 f   libucrt:osfinfo.obj
 0001:001c88bc       __acrt_lowio_lock_fh       00000001801c98bc f   libucrt:osfinfo.obj
 0001:001c88e4       __acrt_lowio_unlock_fh     00000001801c98e4 f   libucrt:osfinfo.obj
 0001:001c890c       _free_osfhnd               00000001801c990c f   libucrt:osfinfo.obj
 0001:001c89c8       _get_osfhandle             00000001801c99c8 f   libucrt:osfinfo.obj
 0001:001c8a40       _isleadbyte_l              00000001801c9a40 f i libucrt:_wctype.obj
 0001:001c8a8c       ?__mbrtowc_utf8@__crt_mbstring@@YA_KPEA_WPEBD_KPEAU_Mbstatet@@@Z 00000001801c9a8c f   libucrt:mbrtowc.obj
 0001:001c8ac8       ?__mbsrtowcs_utf8@__crt_mbstring@@YA_KPEA_WPEAPEBD_KPEAU_Mbstatet@@@Z 00000001801c9ac8 f   libucrt:mbrtowc.obj
 0001:001c8c40       ?__c32rtomb_utf8@__crt_mbstring@@YA_KPEAD_UPEAU_Mbstatet@@@Z 00000001801c9c40 f   libucrt:c32rtomb.obj
 0001:001c8cf4       __acrt_add_locale_ref      00000001801c9cf4 f   libucrt:locale_refcounting.obj
 0001:001c8d80       __acrt_free_locale         00000001801c9d80 f   libucrt:locale_refcounting.obj
 0001:001c8ef8       __acrt_locale_add_lc_time_reference 00000001801c9ef8 f   libucrt:locale_refcounting.obj
 0001:001c8f20       __acrt_locale_free_lc_time_if_unreferenced 00000001801c9f20 f   libucrt:locale_refcounting.obj
 0001:001c8f58       __acrt_locale_release_lc_time_reference 00000001801c9f58 f   libucrt:locale_refcounting.obj
 0001:001c8f80       __acrt_release_locale_ref  00000001801c9f80 f   libucrt:locale_refcounting.obj
 0001:001c9028       __acrt_update_thread_locale_data 00000001801ca028 f   libucrt:locale_refcounting.obj
 0001:001c9098       _updatetlocinfoEx_nolock   00000001801ca098 f   libucrt:locale_refcounting.obj
 0001:001c9100       __acrt_fp_strflt_to_string 00000001801ca100 f   libucrt:_fptostr.obj
 0001:001c9260       ?divide@__crt_strtox@@YA_KAEAUbig_integer@1@AEBU21@@Z 00000001801ca260 f i libucrt:cfout.obj
 0001:001c968c       __acrt_fltout              00000001801ca68c f   libucrt:cfout.obj
 0001:001ca958       fegetround                 00000001801cb958 f   libucrt:fegetround.obj
 0001:001caacc       __acrt_stdio_flush_and_write_narrow_nolock 00000001801cbacc f   libucrt:_flsbuf.obj
 0001:001cab84       _isatty                    00000001801cbb84 f   libucrt:isatty.obj
 0001:001cabe4       __acrt_locale_free_monetary 00000001801cbbe4 f   libucrt:initmon.obj
 0001:001cacf0       __acrt_locale_free_numeric 00000001801cbcf0 f   libucrt:initnum.obj
 0001:001cadb4       __acrt_locale_free_time    00000001801cbdb4 f   libucrt:inittime.obj
 0001:001caebc       __acrt_GetStringTypeA      00000001801cbebc f   libucrt:getstringtypea.obj
 0001:001cb04c       _raise_exc                 00000001801cc04c f   libucrt:fpexcept.obj
 0001:001cb074       _raise_exc_ex              00000001801cc074 f   libucrt:fpexcept.obj
 0001:001cb384       _raise_excf                00000001801cc384 f   libucrt:fpexcept.obj
 0001:001cb3b0       _set_errno_from_matherr    00000001801cc3b0 f   libucrt:fpexcept.obj
 0001:001cb3e0       qsort                      00000001801cc3e0 f   libucrt:qsort.obj
 0001:001cb780       strncpy_s                  00000001801cc780 f   libucrt:strncpy_s.obj
 0001:001cb900       strpbrk                    00000001801cc900 f   libucrt:strpbrk.obj
 0001:001cbcc8       _mbsdec                    00000001801cccc8 f   libucrt:mbsdec.obj
 0001:001cbcd0       _mbsdec_l                  00000001801cccd0 f   libucrt:mbsdec.obj
 0001:001cc07c       __acrt_LCMapStringA        00000001801cd07c f   libucrt:lcmapstringa.obj
 0001:001cc12c       _msize_base                00000001801cd12c f   libucrt:msize.obj
 0001:001cc168       _realloc_base              00000001801cd168 f   libucrt:realloc_base.obj
 0001:001cc1e4       __ascii_wcsnicmp           00000001801cd1e4 f   libucrt:wcsnicmp.obj
 0001:001cc2a4       _close                     00000001801cd2a4 f   libucrt:close.obj
 0001:001cc348       _close_nolock              00000001801cd348 f   libucrt:close.obj
 0001:001cc408       ?__acrt_stdio_free_stream@@YAXV__crt_stdio_stream@@@Z 00000001801cd408 f   libucrt:stream.obj
 0001:001cc5b0       _lseeki64                  00000001801cd5b0 f   libucrt:lseek.obj
 0001:001cc5b8       _lseeki64_nolock           00000001801cd5b8 f   libucrt:lseek.obj
 0001:001cc5c0       _putwch_nolock             00000001801cd5c0 f   libucrt:putwch.obj
 0001:001cc5fc       _query_app_type            00000001801cd5fc f   libucrt:report_runtime_error.obj
 0001:001cc604       ?__mbrtoc32_utf8@__crt_mbstring@@YA_KPEA_UPEBD_KPEAU_Mbstatet@@@Z 00000001801cd604 f   libucrt:mbrtoc32.obj
 0001:001cc7dc       _controlfp_s               00000001801cd7dc f   libucrt:contrlfp.obj
 0001:001cc840       fegetenv                   00000001801cd840 f   libucrt:fegetenv.obj
 0001:001cc860       fesetenv                   00000001801cd860 f   libucrt:fesetenv.obj
 0001:001cc8ac       feholdexcept               00000001801cd8ac f   libucrt:feholdexcept.obj
 0001:001cc8fc       ceil                       00000001801cd8fc f   libucrt:ceil.obj
 0001:001cc9c0       log10                      00000001801cd9c0 f   libucrt:log10.obj
 0001:001ccf6c       __acrt_fenv_get_common_round_control 00000001801cdf6c f   libucrt:_fenvutils.obj
 0001:001ccf78       __acrt_fenv_get_control    00000001801cdf78 f   libucrt:_fenvutils.obj
 0001:001cd06c       __acrt_fenv_get_status     00000001801ce06c f   libucrt:_fenvutils.obj
 0001:001cd0c0       __acrt_fenv_set_control    00000001801ce0c0 f   libucrt:_fenvutils.obj
 0001:001cd208       __acrt_fenv_set_status     00000001801ce208 f   libucrt:_fenvutils.obj
 0001:001cd28c       __acrt_stdio_allocate_buffer_nolock 00000001801ce28c f   libucrt:_getbuf.obj
 0001:001cd2f8       __strncnt                  00000001801ce2f8 f   libucrt:strncnt.obj
 0001:001cd310       __dcrt_lowio_ensure_console_output_initialized 00000001801ce310 f   libucrt:initcon.obj
 0001:001cd364       __dcrt_terminate_console_output 00000001801ce364 f   libucrt:initcon.obj
 0001:001cd380       __dcrt_write_console       00000001801ce380 f   libucrt:initcon.obj
 0001:001cd440       _clearfp                   00000001801ce440 f   libucrt:ieee.obj
 0001:001cd4b0       _control87                 00000001801ce4b0 f   libucrt:ieee.obj
 0001:001cd780       _log10_special             00000001801ce780 f   libucrt:log_special.obj
 0001:001cd840       _FindPESection             00000001801ce840 f   LIBCMT:pesect.obj
 0001:001cd890       _IsNonwritableInCurrentImage 00000001801ce890 f   LIBCMT:pesect.obj
 0001:001cd8e0       _ValidateImageBase         00000001801ce8e0 f   LIBCMT:pesect.obj
 0001:001cd910       __GSHandlerCheck           00000001801ce910 f   LIBCMT:gshandler.obj
 0001:001cd930       __GSHandlerCheckCommon     00000001801ce930 f   LIBCMT:gshandler.obj
 0001:001cd9a0       __security_check_cookie    00000001801ce9a0 f   LIBCMT:amdsecgs.obj
 0001:001cd9c0       __GSHandlerCheck_SEH       00000001801ce9c0 f   LIBCMT:gshandlerseh.obj
 0001:001cda48       __raise_securityfailure    00000001801cea48 f   LIBCMT:gs_report.obj
 0001:001cda7c       __report_gsfailure         00000001801cea7c f   LIBCMT:gs_report.obj
 0001:001cdb50       __report_rangecheckfailure 00000001801ceb50 f   LIBCMT:gs_report.obj
 0001:001cdb64       __report_securityfailure   00000001801ceb64 f   LIBCMT:gs_report.obj
 0001:001cdce4       strrchr                    00000001801cece4 f   libvcruntime:strrchr.obj
 0001:001cde20       memcmp                     00000001801cee20 f   libvcruntime:memcmp.obj
 0001:001cdf00       _guard_dispatch_icall_nop  00000001801cef00 f   LIBCMT:guard_dispatch.obj
 0001:001cdf20       _guard_xfg_dispatch_icall_nop 00000001801cef20 f   LIBCMT:guard_xfg_dispatch.obj
 0002:00000000       __imp_GetLastError         00000001801d0000     kernel32:KERNEL32.dll
 0002:00000008       __imp_FreeLibrary          00000001801d0008     kernel32:KERNEL32.dll
 0002:00000010       __imp_GetProcAddress       00000001801d0010     kernel32:KERNEL32.dll
 0002:00000018       __imp_LoadLibraryA         00000001801d0018     kernel32:KERNEL32.dll
 0002:00000020       __imp_RaiseException       00000001801d0020     kernel32:KERNEL32.dll
 0002:00000028       __imp_GetSystemInfo        00000001801d0028     kernel32:KERNEL32.dll
 0002:00000030       __imp_VirtualProtect       00000001801d0030     kernel32:KERNEL32.dll
 0002:00000038       __imp_VirtualQuery         00000001801d0038     kernel32:KERNEL32.dll
 0002:00000040       __imp_GetModuleHandleW     00000001801d0040     kernel32:KERNEL32.dll
 0002:00000048       __imp_LoadLibraryExA       00000001801d0048     kernel32:KERNEL32.dll
 0002:00000050       __imp_InitializeSListHead  00000001801d0050     kernel32:KERNEL32.dll
 0002:00000058       __imp_RtlCaptureContext    00000001801d0058     kernel32:KERNEL32.dll
 0002:00000060       __imp_RtlLookupFunctionEntry 00000001801d0060     kernel32:KERNEL32.dll
 0002:00000068       __imp_RtlVirtualUnwind     00000001801d0068     kernel32:KERNEL32.dll
 0002:00000070       __imp_IsDebuggerPresent    00000001801d0070     kernel32:KERNEL32.dll
 0002:00000078       __imp_UnhandledExceptionFilter 00000001801d0078     kernel32:KERNEL32.dll
 0002:00000080       __imp_SetUnhandledExceptionFilter 00000001801d0080     kernel32:KERNEL32.dll
 0002:00000088       __imp_GetStartupInfoW      00000001801d0088     kernel32:KERNEL32.dll
 0002:00000090       __imp_IsProcessorFeaturePresent 00000001801d0090     kernel32:KERNEL32.dll
 0002:00000098       __imp_QueryPerformanceCounter 00000001801d0098     kernel32:KERNEL32.dll
 0002:000000a0       __imp_GetCurrentProcessId  00000001801d00a0     kernel32:KERNEL32.dll
 0002:000000a8       __imp_GetCurrentThreadId   00000001801d00a8     kernel32:KERNEL32.dll
 0002:000000b0       __imp_GetSystemTimeAsFileTime 00000001801d00b0     kernel32:KERNEL32.dll
 0002:000000b8       __imp_InterlockedPushEntrySList 00000001801d00b8     kernel32:KERNEL32.dll
 0002:000000c0       __imp_InterlockedFlushSList 00000001801d00c0     kernel32:KERNEL32.dll
 0002:000000c8       __imp_RtlUnwindEx          00000001801d00c8     kernel32:KERNEL32.dll
 0002:000000d0       __imp_SetLastError         00000001801d00d0     kernel32:KERNEL32.dll
 0002:000000d8       __imp_EnterCriticalSection 00000001801d00d8     kernel32:KERNEL32.dll
 0002:000000e0       __imp_LeaveCriticalSection 00000001801d00e0     kernel32:KERNEL32.dll
 0002:000000e8       __imp_DeleteCriticalSection 00000001801d00e8     kernel32:KERNEL32.dll
 0002:000000f0       __imp_InitializeCriticalSectionAndSpinCount 00000001801d00f0     kernel32:KERNEL32.dll
 0002:000000f8       __imp_TlsAlloc             00000001801d00f8     kernel32:KERNEL32.dll
 0002:00000100       __imp_TlsGetValue          00000001801d0100     kernel32:KERNEL32.dll
 0002:00000108       __imp_TlsSetValue          00000001801d0108     kernel32:KERNEL32.dll
 0002:00000110       __imp_TlsFree              00000001801d0110     kernel32:KERNEL32.dll
 0002:00000118       __imp_LoadLibraryExW       00000001801d0118     kernel32:KERNEL32.dll
 0002:00000120       __imp_EncodePointer        00000001801d0120     kernel32:KERNEL32.dll
 0002:00000128       __imp_RtlPcToFileHeader    00000001801d0128     kernel32:KERNEL32.dll
 0002:00000130       __imp_GetCurrentProcess    00000001801d0130     kernel32:KERNEL32.dll
 0002:00000138       __imp_ExitProcess          00000001801d0138     kernel32:KERNEL32.dll
 0002:00000140       __imp_TerminateProcess     00000001801d0140     kernel32:KERNEL32.dll
 0002:00000148       __imp_GetModuleHandleExW   00000001801d0148     kernel32:KERNEL32.dll
 0002:00000150       __imp_GetModuleFileNameW   00000001801d0150     kernel32:KERNEL32.dll
 0002:00000158       __imp_HeapAlloc            00000001801d0158     kernel32:KERNEL32.dll
 0002:00000160       __imp_HeapFree             00000001801d0160     kernel32:KERNEL32.dll
 0002:00000168       __imp_LCMapStringW         00000001801d0168     kernel32:KERNEL32.dll
 0002:00000170       __imp_GetStdHandle         00000001801d0170     kernel32:KERNEL32.dll
 0002:00000178       __imp_GetFileType          00000001801d0178     kernel32:KERNEL32.dll
 0002:00000180       __imp_FindClose            00000001801d0180     kernel32:KERNEL32.dll
 0002:00000188       __imp_FindFirstFileExW     00000001801d0188     kernel32:KERNEL32.dll
 0002:00000190       __imp_FindNextFileW        00000001801d0190     kernel32:KERNEL32.dll
 0002:00000198       __imp_IsValidCodePage      00000001801d0198     kernel32:KERNEL32.dll
 0002:000001a0       __imp_GetACP               00000001801d01a0     kernel32:KERNEL32.dll
 0002:000001a8       __imp_GetOEMCP             00000001801d01a8     kernel32:KERNEL32.dll
 0002:000001b0       __imp_GetCPInfo            00000001801d01b0     kernel32:KERNEL32.dll
 0002:000001b8       __imp_GetCommandLineA      00000001801d01b8     kernel32:KERNEL32.dll
 0002:000001c0       __imp_GetCommandLineW      00000001801d01c0     kernel32:KERNEL32.dll
 0002:000001c8       __imp_MultiByteToWideChar  00000001801d01c8     kernel32:KERNEL32.dll
 0002:000001d0       __imp_WideCharToMultiByte  00000001801d01d0     kernel32:KERNEL32.dll
 0002:000001d8       __imp_GetEnvironmentStringsW 00000001801d01d8     kernel32:KERNEL32.dll
 0002:000001e0       __imp_FreeEnvironmentStringsW 00000001801d01e0     kernel32:KERNEL32.dll
 0002:000001e8       __imp_GetProcessHeap       00000001801d01e8     kernel32:KERNEL32.dll
 0002:000001f0       __imp_FlushFileBuffers     00000001801d01f0     kernel32:KERNEL32.dll
 0002:000001f8       __imp_WriteFile            00000001801d01f8     kernel32:KERNEL32.dll
 0002:00000200       __imp_GetConsoleOutputCP   00000001801d0200     kernel32:KERNEL32.dll
 0002:00000208       __imp_GetConsoleMode       00000001801d0208     kernel32:KERNEL32.dll
 0002:00000210       __imp_SetStdHandle         00000001801d0210     kernel32:KERNEL32.dll
 0002:00000218       __imp_GetFileSizeEx        00000001801d0218     kernel32:KERNEL32.dll
 0002:00000220       __imp_SetFilePointerEx     00000001801d0220     kernel32:KERNEL32.dll
 0002:00000228       __imp_GetStringTypeW       00000001801d0228     kernel32:KERNEL32.dll
 0002:00000230       __imp_HeapSize             00000001801d0230     kernel32:KERNEL32.dll
 0002:00000238       __imp_HeapReAlloc          00000001801d0238     kernel32:KERNEL32.dll
 0002:00000240       __imp_CloseHandle          00000001801d0240     kernel32:KERNEL32.dll
 0002:00000248       __imp_CreateFileW          00000001801d0248     kernel32:KERNEL32.dll
 0002:00000250       __imp_WriteConsoleW        00000001801d0250     kernel32:KERNEL32.dll
 0002:00000258       \177KERNEL32_NULL_THUNK_DATA 00000001801d0258     kernel32:KERNEL32.dll
 0002:00000260       __guard_check_icall_fptr   00000001801d0260     LIBCMT:guard_support.obj
 0002:00000268       __guard_xfg_check_icall_fptr 00000001801d0268     LIBCMT:guard_support.obj
 0002:00000270       __guard_dispatch_icall_fptr 00000001801d0270     LIBCMT:guard_support.obj
 0002:00000278       __guard_xfg_dispatch_icall_fptr 00000001801d0278     LIBCMT:guard_support.obj
 0002:00000280       __guard_xfg_table_dispatch_icall_fptr 00000001801d0280     LIBCMT:guard_support.obj
 0002:00000288       __xc_a                     00000001801d0288     LIBCMT:initializers.obj
 0002:00001c30       __xc_z                     00000001801d1c30     LIBCMT:initializers.obj
 0002:00001c38       __xi_a                     00000001801d1c38     LIBCMT:initializers.obj
 0002:00001c40       __acrt_stdio_initializer   00000001801d1c40     libucrt:stdio_initializer.obj
 0002:00001c48       __acrt_tran_fma3_initializer 00000001801d1c48     libucrt:fma3_initializer.obj
 0002:00001c50       __acrt_multibyte_initializer 00000001801d1c50     libucrt:multibyte_initializer.obj
 0002:00001c58       __xi_z                     00000001801d1c58     LIBCMT:initializers.obj
 0002:00001c60       __xp_a                     00000001801d1c60     LIBCMT:initializers.obj
 0002:00001c68       __acrt_locale_terminator   00000001801d1c68     libucrt:locale_initializer.obj
 0002:00001c70       __dcrt_console_output_terminator 00000001801d1c70     libucrt:console_output_initializer.obj
 0002:00001c78       __acrt_stdio_terminator    00000001801d1c78     libucrt:stdio_initializer.obj
 0002:00001c80       __xp_z                     00000001801d1c80     LIBCMT:initializers.obj
 0002:00001c88       __xt_a                     00000001801d1c88     LIBCMT:initializers.obj
 0002:00001c90       __xt_z                     00000001801d1c90     LIBCMT:initializers.obj
 0002:00001ca0       ??_C@_08MDGMHCHN@PtrTable@ 00000001801d1ca0     CmPtrTable.obj
 0002:00001cac       ??_C@_04GKJNKENE@void@     00000001801d1cac     CmPtrTable.obj
 0002:00001cb8       ??_C@_07DFEBJDHE@mSingle@  00000001801d1cb8     CmPtrTable.obj
 0002:00001cc0       ??_C@_05NLHHBMOH@PxU16@    00000001801d1cc0     CmPtrTable.obj
 0002:00001cc8       ??_C@_06EPKHJPIM@mCount@   00000001801d1cc8     CmPtrTable.obj
 0002:00001cd0       ??_C@_04DDKJGDCM@bool@     00000001801d1cd0     CmPtrTable.obj
 0002:00001cd8       ??_C@_0M@DAGELID@mOwnsMemory@ 00000001801d1cd8     CmPtrTable.obj
 0002:00001ce8       ??_C@_0M@MMPOMMLP@mBufferUsed@ 00000001801d1ce8     CmPtrTable.obj
 0002:00001cf4       ??_C@_05LMJPANIN@PxU32@    00000001801d1cf4     CmPtrTable.obj
 0002:00001d00       ??_C@_09PMLNMEMN@mFreeSlot@ 00000001801d1d00     CmPtrTable.obj
 0002:00001d10       ??_7PxCollection@physx@@6B@ 00000001801d1d10     CmCollection.obj
 0002:00001d90       ??_C@_00CNPNBAHC@@         00000001801d1d90     CmCollection.obj
 0002:00001d98       ??_7Collection@Cm@physx@@6B@ 00000001801d1d98     CmCollection.obj
 0002:00001e20       ??_C@_0GE@GBACBMOC@PxCollection?3?3add?5called?5for?5an@ 00000001801d1e20     CmCollection.obj
 0002:00001e90       ??_C@_0FE@KEEBJOCB@C?3?2Users?2msi?2Desktop?2PhysX?9main@ 00000001801d1e90     CmCollection.obj
 0002:00001ef0       ??_C@_0EM@OMMGDOMK@PxCollection?3?3add?5called?5with?5a@ 00000001801d1ef0     CmCollection.obj
 0002:00001f40       ??_C@_0FG@FOIHEKH@C?3?2Users?2msi?2Desktop?2PhysX?9main@ 00000001801d1f40     CmCollection.obj
 0002:00001f98       ??_C@_0BM@OIFKLHDN@?$DMallocation?5names?5disabled?$DO@ 00000001801d1f98     CmCollection.obj
 0002:00001fb8       ??_7RadixSort@Cm@physx@@6B@ 00000001801d1fb8     CmRadixSort.obj
 0002:00001fc0       ??_7RadixSortBuffered@Cm@physx@@6B@ 00000001801d1fc0     CmRadixSort.obj
 0002:00001fd0       ??_C@_0FD@EIMKCOFH@C?3?2Users?2msi?2Desktop?2PhysX?9main@ 00000001801d1fd0     CmRadixSort.obj
 0002:00002030       __xmm@00000001000000010000000100000001 00000001801d2030     CmRadixSort.obj
 0002:00002040       __xmm@00000003000000020000000100000000 00000001801d2040     CmRadixSort.obj
 0002:00002050       __real@3d4ccccd            00000001801d2050     CmVisualization.obj
 0002:00002054       __real@3e19999a            00000001801d2054     CmVisualization.obj
 0002:00002058       __real@3e490fdb            00000001801d2058     CmVisualization.obj
 0002:0000205c       __real@3e800000            00000001801d205c     CmVisualization.obj
 0002:00002060       __real@3e99999a            00000001801d2060     CmVisualization.obj
 0002:00002064       __real@3ea0d97c            00000001801d2064     CmVisualization.obj
 0002:00002068       __real@3eddb3d7            00000001801d2068     CmVisualization.obj
 0002:0000206c       __real@3f000000            00000001801d206c     CmVisualization.obj
 0002:00002070       __real@3f3504f3            00000001801d2070     CmVisualization.obj
 0002:00002074       __real@3f800000            00000001801d2074     CmVisualization.obj
 0002:00002078       __real@3fc00000            00000001801d2078     CmVisualization.obj
 0002:0000207c       __real@3fddb3d7            00000001801d207c     CmVisualization.obj
 0002:00002080       __real@40100000            00000001801d2080     CmVisualization.obj
 0002:00002084       __real@40c90fdb            00000001801d2084     CmVisualization.obj
 0002:00002088       __real@beddb3d7            00000001801d2088     CmVisualization.obj
 0002:0000208c       __real@c0000000            00000001801d208c     CmVisualization.obj
 0002:00002090       __xmm@3f800000000000000000000000000000 00000001801d2090     CmVisualization.obj
 0002:000020a0       __xmm@7fffffff7fffffff7fffffff7fffffff 00000001801d20a0     CmVisualization.obj
 0002:000020b0       __xmm@80000000800000008000000080000000 00000001801d20b0     CmVisualization.obj
 0002:000020c0       ??_C@_0BB@CPDDPFKD@GetUpdatedModule@ 00000001801d20c0     CmWindowsModuleUpdateLoader.obj
 0002:000020e0       ??_C@_0GL@OAPPHMOP@C?3?2Users?2msi?2Desktop?2PhysX?9main@ 00000001801d20e0     CmWindowsModuleUpdateLoader.obj
 0002:00002150       ??_C@_0CP@PGOIOJOO@?$CFs?3?$CFi?3?5loadLibrary?5error?5when?5l@ 00000001801d2150     CmWindowsModuleUpdateLoader.obj
 0002:00002180       ??_C@_0BA@EGLNOO@PhysXFoundation@ 00000001801d2180     CmWindowsDelayLoadHook.obj
 0002:00002190       ??_C@_0M@ILKNCJKN@PhysXCommon@ 00000001801d2190     CmWindowsDelayLoadHook.obj
 0002:000021c0       __real@3f7ff972            00000001801d21c0     GuBox.obj
 0002:000021d0       __xmm@000000003a83126f3a83126f3a83126f 00000001801d21d0     GuBox.obj
 0002:000021e0       __xmm@00000000ba83126fba83126fba83126f 00000001801d21e0     GuBox.obj
 0002:000021f0       __xmm@3a83126f3a83126f3a83126f3a83126f 00000001801d21f0     GuBox.obj
 0002:00002200       __xmm@ba83126fba83126fba83126fba83126f 00000001801d2200     GuBox.obj
 0002:00002230       ??_7RaycastCallback@PxBVH@physx@@6B@ 00000001801d2230     GuQuerySystem.obj
 0002:00002230       ??_7EntityReport@Gu@physx@@6B@ 00000001801d2230     GuSweepsHF.obj
 0002:00002230       ??_7OverlapCallback@PxBVH@physx@@6B@ 00000001801d2230     GuQuerySystem.obj
 0002:00002230       ??_7RemapCallback@RTreeCooker@physx@@6B@ 00000001801d2230     GuCookingTriangleMesh.obj
 0002:00002230       ??_7OverlapReport@Gu@physx@@6B@ 00000001801d2230     GuCCTSweepTests.obj
 0002:00002250       __real@3b03126f            00000001801d2250     GuCCTSweepTests.obj
 0002:00002254       __real@40000000            00000001801d2254     GuCCTSweepTests.obj
 0002:00002290       ??_7SupportLocal@Gu@physx@@6B@ 00000001801d2290     GuGeometryQuery.obj
 0002:000022b0       ??_7?$SupportLocalImpl@VBoxV@Gu@physx@@@Gu@physx@@6B@ 00000001801d22b0     GuGeometryQuery.obj
 0002:000022d0       ??_7?$SupportLocalImpl@VConvexHullV@Gu@physx@@@Gu@physx@@6B@ 00000001801d22d0     GuGeometryQuery.obj
 0002:000022f0       ??_C@_0EO@IJDIOKOC@C?3?2Users?2msi?2Desktop?2PhysX?9main@ 00000001801d22f0     GuGeometryQuery.obj
 0002:00002340       __real@30d1b7e9            00000001801d2340     GuGeometryQuery.obj
 0002:00002344       __real@322bcc77            00000001801d2344     GuGeometryQuery.obj
 0002:00002348       __real@358637bd            00000001801d2348     GuGeometryQuery.obj
 0002:0000234c       __real@3a83126f            00000001801d234c     GuGeometryQuery.obj
 0002:00002350       __real@3ccccccd            00000001801d2350     GuGeometryQuery.obj
 0002:00002354       __real@3dcccccd            00000001801d2354     GuGeometryQuery.obj
 0002:00002358       __real@49742400            00000001801d2358     GuGeometryQuery.obj
 0002:0000235c       __real@7f7fffff            00000001801d235c     GuGeometryQuery.obj
 0002:00002360       __real@bf800000            00000001801d2360     GuGeometryQuery.obj
 0002:00002370       __xmm@0000000000000000000000003f800000 00000001801d2370     GuGeometryQuery.obj
 0002:00002380       __xmm@00000000000000003f80000000000000 00000001801d2380     GuGeometryQuery.obj
 0002:00002390       __xmm@00000000000000003f8000003f800000 00000001801d2390     GuGeometryQuery.obj
 0002:000023a0       __xmm@000000003f8000000000000000000000 00000001801d23a0     GuGeometryQuery.obj
 0002:000023b0       __xmm@000000003f8000003f8000003f800000 00000001801d23b0     GuGeometryQuery.obj
 0002:000023c0       __xmm@00000000ffffffffffffffffffffffff 00000001801d23c0     GuGeometryQuery.obj
 0002:000023d0       __xmm@3d4ccccd3d4ccccd3d4ccccd3d4ccccd 00000001801d23d0     GuGeometryQuery.obj
 0002:000023e0       __xmm@3e19999a3e19999a3e19999a3e19999a 00000001801d23e0     GuGeometryQuery.obj
 0002:000023f0       __xmm@3e4ccccd3e4ccccd3e4ccccd3e4ccccd 00000001801d23f0     GuGeometryQuery.obj
 0002:00002400       __xmm@3e8000003e8000003e8000003e800000 00000001801d2400     GuGeometryQuery.obj
 0002:00002410       __xmm@3f7ef9db3f7ef9db3f7ef9db3f7ef9db 00000001801d2410     GuGeometryQuery.obj
 0002:00002420       __xmm@3f7ff2e53f7ff2e53f7ff2e53f7ff2e5 00000001801d2420     GuGeometryQuery.obj
 0002:00002430       __xmm@7f7fffff7f7fffff7f7fffff7f7fffff 00000001801d2430     GuGeometryQuery.obj
 0002:00002440       __xmm@bf000000bf000000bf000000bf000000 00000001801d2440     GuGeometryQuery.obj
 0002:00002480       ??_C@_0EM@BDFDGBD@Inserting?5object?5failed?3?5Object@ 00000001801d2480     GuMeshFactory.obj
 0002:000024f0       ??_7PxInsertionCallback@physx@@6B@ 00000001801d24f0     GuMeshFactory.obj
 0002:000024f0       ??_7CallbackRefit@RTree@Gu@physx@@6B@ 00000001801d24f0     GuTriangleMeshRTree.obj
 0002:000024f0       ??_7CallbackRaycast@RTree@Gu@physx@@6B@ 00000001801d24f0     GuMidphaseRTree.obj
 0002:00002500       ??_C@_0FI@DEFIJIDB@C?3?2Users?2msi?2Desktop?2PhysX?9main@ 00000001801d2500     GuMeshFactory.obj
 0002:00002558       ??_7PxCollisionMeshMappingData@physx@@6B@ 00000001801d2558     GuMeshFactory.obj
 0002:00002568       ??_7MeshFactory@Gu@physx@@6B@ 00000001801d2568     GuMeshFactory.obj
 0002:00002570       ??_7MeshDataBase@Gu@physx@@6B@ 00000001801d2570     GuMeshFactory.obj
 0002:00002580       ??_C@_0FI@NKIOJGLG@C?3?2Users?2msi?2Desktop?2PhysX?9main@ 00000001801d2580     GuMeshFactory.obj
 0002:000025d8       ??_7TriangleMeshData@Gu@physx@@6B@ 00000001801d25d8     GuMeshFactory.obj
 0002:000025e0       ??_7RTreeTriangleData@Gu@physx@@6B@ 00000001801d25e0     GuMeshFactory.obj
 0002:000025e8       ??_7BV4TriangleData@Gu@physx@@6B@ 00000001801d25e8     GuMeshFactory.obj
 0002:000025f0       ??_7SoftBodyCollisionData@Gu@physx@@6B@ 00000001801d25f0     GuMeshFactory.obj
 0002:000025f8       ??_7CollisionMeshMappingData@Gu@physx@@6B@ 00000001801d25f8     GuMeshFactory.obj
 0002:00002608       ??_7SoftBodySimulationData@Gu@physx@@6B@ 00000001801d2608     GuMeshFactory.obj
 0002:00002610       ??_C@_0GP@NHELMDAL@Loading?5triangle?5mesh?5failed?3?5D@ 00000001801d2610     GuMeshFactory.obj
 0002:00002680       ??_C@_0BP@CDOKDACA@RTree?5binary?5image?5load?5error?4@ 00000001801d2680     GuMeshFactory.obj
 0002:000026a0       ??_C@_0BN@MJPNIELF@BV4?5binary?5image?5load?5error?4@ 00000001801d26a0     GuMeshFactory.obj
 0002:000026c0       ??_C@_0BO@JDPABAOF@BV32?5binary?5image?5load?5error?4@ 00000001801d26c0     GuMeshFactory.obj
 0002:000026e0       ??_C@_0EO@IAFFODJL@C?3?2Users?2msi?2Desktop?2PhysX?9main@ 00000001801d26e0     GuMeshFactory.obj
 0002:00002730       __xmm@fe7fffff7e7fffff7e7fffff7e7fffff 00000001801d2730     GuMeshFactory.obj
 0002:00002760       ??_C@_06EJKDJEDO@PxBase@   00000001801d2760     GuMetaData.obj
 0002:00002768       ??_C@_07GFCEJNGM@Valency@  00000001801d2768     GuMetaData.obj
 0002:00002770       ??_C@_07NHGKEEIN@mOffset@  00000001801d2770     GuMetaData.obj
 0002:00002778       ??_C@_0BB@BAGHBMNJ@BigConvexRawData@ 00000001801d2778     GuMetaData.obj
 0002:00002790       ??_C@_07PBDEJAAC@mSubdiv@  00000001801d2790     GuMetaData.obj
 0002:00002798       ??_C@_0L@HNPACPGH@mNbSamples@ 00000001801d2798     GuMetaData.obj
 0002:000027a4       ??_C@_04NCKNBPPK@PxU8@     00000001801d27a4     GuMetaData.obj
 0002:000027b0       ??_C@_08DEPEKJNI@mSamples@ 00000001801d27b0     GuMetaData.obj
 0002:000027c0       ??_C@_08IJDNJBMI@mNbVerts@ 00000001801d27c0     GuMetaData.obj
 0002:000027d0       ??_C@_0M@MMKMIJAF@mNbAdjVerts@ 00000001801d27d0     GuMetaData.obj
 0002:000027e0       ??_C@_0L@EOKMNILC@mValencies@ 00000001801d27e0     GuMetaData.obj
 0002:000027f0       ??_C@_0P@DLGEAMHJ@mAdjacentVerts@ 00000001801d27f0     GuMetaData.obj
 0002:00002800       ??_C@_03NGLDENDA@SDF@      00000001801d2800     GuMetaData.obj
 0002:00002804       ??_C@_06KDGGGLIJ@PxVec3@   00000001801d2804     GuMetaData.obj
 0002:0000280c       ??_C@_06GIEBFILM@PxReal@   00000001801d280c     GuMetaData.obj
 0002:00002818       ??_C@_0O@PFOPBKAM@BigConvexData@ 00000001801d2818     GuMetaData.obj
 0002:00002828       ??_C@_05PLKALGFN@mData@    00000001801d2828     GuMetaData.obj
 0002:00002830       ??_C@_08PEMCLHEM@mVBuffer@ 00000001801d2830     GuMetaData.obj
 0002:00002840       ??_C@_09FBMAGD@Alignment@  00000001801d2840     GuMetaData.obj
 0002:00002850       ??_C@_0BE@KFHIBEEA@InternalObjectsData@ 00000001801d2850     GuMetaData.obj
 0002:00002868       ??_C@_07NKGFFIBH@mRadius@  00000001801d2868     GuMetaData.obj
 0002:00002870       ??_C@_08EHFCACAE@mExtents@ 00000001801d2870     GuMetaData.obj
 0002:00002880       ??_C@_0BA@LFMGGCBK@HullPolygonData@ 00000001801d2880     GuMetaData.obj
 0002:00002890       ??_C@_06BOHHGLB@mPlane@    00000001801d2890     GuMetaData.obj
 0002:00002898       ??_C@_06EHMLHGLN@mVRef8@   00000001801d2898     GuMetaData.obj
 0002:000028a0       ??_C@_09BAHHHINI@mMinIndex@ 00000001801d28a0     GuMetaData.obj
 0002:000028b0       ??_C@_0P@GBLBPIPB@ConvexHullData@ 00000001801d28b0     GuMetaData.obj
 0002:000028c0       ??_C@_09JDCJAPKD@PxBounds3@ 00000001801d28c0     GuMetaData.obj
 0002:000028cc       ??_C@_05NDNHIFA@mAABB@     00000001801d28cc     GuMetaData.obj
 0002:000028d8       ??_C@_0O@LNOGEMJI@mCenterOfMass@ 00000001801d28d8     GuMetaData.obj
 0002:000028e8       ??_C@_09CNMCBBKH@mPolygons@ 00000001801d28e8     GuMetaData.obj
 0002:000028f8       ??_C@_0BC@KKPDCFJC@mBigConvexRawData@ 00000001801d28f8     GuMetaData.obj
 0002:00002910       ??_C@_08MPNAAJLD@mSdfData@ 00000001801d2910     GuMetaData.obj
 0002:00002920       ??_C@_08ELDMKGKH@mNbEdges@ 00000001801d2920     GuMetaData.obj
 0002:00002930       ??_C@_0BA@CGLOHBAC@mNbHullVertices@ 00000001801d2930     GuMetaData.obj
 0002:00002940       ??_C@_0M@HGFFLLDM@mNbPolygons@ 00000001801d2940     GuMetaData.obj
 0002:00002950       ??_C@_09BHJEMDGO@mInternal@ 00000001801d2950     GuMetaData.obj
 0002:00002960       ??_C@_0L@GMFHOMKA@ConvexMesh@ 00000001801d2960     GuMetaData.obj
 0002:00002970       ??_C@_09ILEBDLJH@mHullData@ 00000001801d2970     GuMetaData.obj
 0002:0000297c       ??_C@_03DKDIKGNC@mNb@      00000001801d297c     GuMetaData.obj
 0002:00002980       ??_C@_0P@ENLHFHMD@mBigConvexData@ 00000001801d2980     GuMetaData.obj
 0002:00002990       ??_C@_05ILALLCHK@mMass@    00000001801d2990     GuMetaData.obj
 0002:00002998       ??_C@_07DBPDADGB@PxMat33@  00000001801d2998     GuMetaData.obj
 0002:000029a0       ??_C@_08FNBHNDBI@mInertia@ 00000001801d29a0     GuMetaData.obj
 0002:000029b0       ??_C@_0O@FCKNKLMJ@GuMeshFactory@ 00000001801d29b0     GuMetaData.obj
 0002:000029c0       ??_C@_0N@EGBCLMAK@mMeshFactory@ 00000001801d29c0     GuMetaData.obj
 0002:000029d0       ??_C@_0BE@CJJAMAMK@PxHeightFieldSample@ 00000001801d29d0     GuMetaData.obj
 0002:000029e4       ??_C@_05MBLIPEMA@PxI16@    00000001801d29e4     GuMetaData.obj
 0002:000029ec       ??_C@_06LNLHEAAG@height@   00000001801d29ec     GuMetaData.obj
 0002:000029f8       ??_C@_0N@HHDGHJN@PxBitAndByte@ 00000001801d29f8     GuMetaData.obj
 0002:00002a08       ??_C@_0P@MBBMLBO@materialIndex0@ 00000001801d2a08     GuMetaData.obj
 0002:00002a18       ??_C@_0P@BFAKPKFP@materialIndex1@ 00000001801d2a18     GuMetaData.obj
 0002:00002a28       ??_C@_0BD@EBLPJEOE@PxHeightFieldFlags@ 00000001801d2a28     GuMetaData.obj
 0002:00002a40       ??_C@_0BK@FNNCFFCN@PxHeightFieldFormat?3?3Enum@ 00000001801d2a40     GuMetaData.obj
 0002:00002a60       ??_C@_0BA@CLNFMAAA@HeightFieldData@ 00000001801d2a60     GuMetaData.obj
 0002:00002a70       ??_C@_04IMCGAIPI@rows@     00000001801d2a70     GuMetaData.obj
 0002:00002a78       ??_C@_07HIFEPIJN@columns@  00000001801d2a78     GuMetaData.obj
 0002:00002a80       ??_C@_08MOAGOABI@rowLimit@ 00000001801d2a80     GuMetaData.obj
 0002:00002a90       ??_C@_08BAGEHOBO@colLimit@ 00000001801d2a90     GuMetaData.obj
 0002:00002aa0       ??_C@_09LKDBLADF@nbColumns@ 00000001801d2aa0     GuMetaData.obj
 0002:00002ab0       ??_C@_07ODIFGGLK@samples@  00000001801d2ab0     GuMetaData.obj
 0002:00002ab8       ??_C@_0BE@POHEGOJG@convexEdgeThreshold@ 00000001801d2ab8     GuMetaData.obj
 0002:00002acc       ??_C@_05GECEPKB@flags@     00000001801d2acc     GuMetaData.obj
 0002:00002ad4       ??_C@_06DLEPGFEF@format@   00000001801d2ad4     GuMetaData.obj
 0002:00002ae0       ??_C@_0BF@MOGDNMPL@PxMaterialTableIndex@ 00000001801d2ae0     GuMetaData.obj
 0002:00002af8       ??_C@_0M@JMJICJJO@HeightField@ 00000001801d2af8     GuMetaData.obj
 0002:00002b08       ??_C@_0O@ENGHMLJP@mSampleStride@ 00000001801d2b08     GuMetaData.obj
 0002:00002b18       ??_C@_0L@EBEEMFFB@mMinHeight@ 00000001801d2b18     GuMetaData.obj
 0002:00002b28       ??_C@_0L@EAEIFPOF@mMaxHeight@ 00000001801d2b28     GuMetaData.obj
 0002:00002b38       ??_C@_0N@FEFJOKKE@mModifyCount@ 00000001801d2b38     GuMetaData.obj
 0002:00002b48       ??_C@_09PHDKHCK@RTreePage@ 00000001801d2b48     GuMetaData.obj
 0002:00002b54       ??_C@_04LLPOBGED@minx@     00000001801d2b54     GuMetaData.obj
 0002:00002b5c       ??_C@_04KCOFCHAC@miny@     00000001801d2b5c     GuMetaData.obj
 0002:00002b64       ??_C@_04IJMIHEMB@minz@     00000001801d2b64     GuMetaData.obj
 0002:00002b6c       ??_C@_04GGOBOBGO@maxx@     00000001801d2b6c     GuMetaData.obj
 0002:00002b74       ??_C@_04HPPKNACP@maxy@     00000001801d2b74     GuMetaData.obj
 0002:00002b7c       ??_C@_04FENHIDOM@maxz@     00000001801d2b7c     GuMetaData.obj
 0002:00002b84       ??_C@_04HHDFEJON@ptrs@     00000001801d2b84     GuMetaData.obj
 0002:00002b8c       ??_C@_05FFEIGAJF@RTree@    00000001801d2b8c     GuMetaData.obj
 0002:00002b94       ??_C@_06OMCHPNEO@PxVec4@   00000001801d2b94     GuMetaData.obj
 0002:00002ba0       ??_C@_0L@NBIFEFLN@mBoundsMin@ 00000001801d2ba0     GuMetaData.obj
 0002:00002bb0       ??_C@_0L@MDAOKBNC@mBoundsMax@ 00000001801d2bb0     GuMetaData.obj
 0002:00002bc0       ??_C@_0N@NJEHLCOF@mInvDiagonal@ 00000001801d2bc0     GuMetaData.obj
 0002:00002bd0       ??_C@_0BA@BEFIGPFG@mDiagonalScaler@ 00000001801d2bd0     GuMetaData.obj
 0002:00002be0       ??_C@_09DICGGKGO@mPageSize@ 00000001801d2be0     GuMetaData.obj
 0002:00002bf0       ??_C@_0O@BOFFCNOL@mNumRootPages@ 00000001801d2bf0     GuMetaData.obj
 0002:00002c00       ??_C@_0L@JKLGBKAE@mNumLevels@ 00000001801d2c00     GuMetaData.obj
 0002:00002c10       ??_C@_0M@PHDOHJGK@mTotalNodes@ 00000001801d2c10     GuMetaData.obj
 0002:00002c20       ??_C@_0M@GDGHALAO@mTotalPages@ 00000001801d2c20     GuMetaData.obj
 0002:00002c2c       ??_C@_06MHCBBJGP@mFlags@   00000001801d2c2c     GuMetaData.obj
 0002:00002c34       ??_C@_06MMNBLHOK@mPages@   00000001801d2c34     GuMetaData.obj
 0002:00002c40       ??_C@_0P@JNLGHJNH@SourceMeshBase@ 00000001801d2c40     GuMetaData.obj
 0002:00002c50       ??_C@_06JFCLJMNN@mVerts@   00000001801d2c50     GuMetaData.obj
 0002:00002c58       ??_C@_05GNIIDDHH@mType@    00000001801d2c58     GuMetaData.obj
 0002:00002c60       ??_C@_06DHAAKLFK@mRemap@   00000001801d2c60     GuMetaData.obj
 0002:00002c68       ??_C@_0L@LEOGNOEC@SourceMesh@ 00000001801d2c68     GuMetaData.obj
 0002:00002c78       ??_C@_07MPIKOOAP@mNbTris@  00000001801d2c78     GuMetaData.obj
 0002:00002c80       ??_C@_0N@FBMOMEHF@mTriangles32@ 00000001801d2c80     GuMetaData.obj
 0002:00002c90       ??_C@_0N@DGCGNFBP@mTriangles16@ 00000001801d2c90     GuMetaData.obj
 0002:00002ca0       ??_C@_0O@NLNHFNO@QuantizedAABB@ 00000001801d2ca0     GuMetaData.obj
 0002:00002cb0       ??_C@_0BC@OOGBEMHH@mData?$FL0?$FN?4mExtents@ 00000001801d2cb0     GuMetaData.obj
 0002:00002cc8       ??_C@_0BB@OCEDKIEF@mData?$FL0?$FN?4mCenter@ 00000001801d2cc8     GuMetaData.obj
 0002:00002ce0       ??_C@_0BC@HFMEAABI@mData?$FL1?$FN?4mExtents@ 00000001801d2ce0     GuMetaData.obj
 0002:00002cf8       ??_C@_0BB@CDMNHHIF@mData?$FL1?$FN?4mCenter@ 00000001801d2cf8     GuMetaData.obj
 0002:00002d10       ??_C@_0BC@CFKNCOI@mData?$FL2?$FN?4mExtents@ 00000001801d2d10     GuMetaData.obj
 0002:00002d28       ??_C@_0BB@LKCPBBIE@mData?$FL2?$FN?4mCenter@ 00000001801d2d28     GuMetaData.obj
 0002:00002d40       ??_C@_0O@MJJKKPFN@BVDataPackedQ@ 00000001801d2d40     GuMetaData.obj
 0002:00002d50       ??_C@_0O@JFMLAIPJ@CenterExtents@ 00000001801d2d50     GuMetaData.obj
 0002:00002d60       ??_C@_07GNKDIIKJ@mCenter@  00000001801d2d60     GuMetaData.obj
 0002:00002d68       ??_C@_0P@KBMJDPLO@BVDataPackedNQ@ 00000001801d2d68     GuMetaData.obj
 0002:00002d78       ??_C@_0M@PNCEBOG@LocalBounds@ 00000001801d2d78     GuMetaData.obj
 0002:00002d84       ??_C@_05KNFBNCOH@float@    00000001801d2d84     GuMetaData.obj
 0002:00002d90       ??_C@_0BC@LADJKHPL@mExtentsMagnitude@ 00000001801d2d90     GuMetaData.obj
 0002:00002da8       ??_C@_07HELIOLAF@BV4Tree@  00000001801d2da8     GuMetaData.obj
 0002:00002db0       ??_C@_0P@EMMDNPMH@mMeshInterface@ 00000001801d2db0     GuMetaData.obj
 0002:00002dc0       ??_C@_0N@DCKMHLCL@mLocalBounds@ 00000001801d2dc0     GuMetaData.obj
 0002:00002dd0       ??_C@_08EEJOMIJL@mNbNodes@ 00000001801d2dd0     GuMetaData.obj
 0002:00002ddc       ??_C@_06FIIIMFIO@mNodes@   00000001801d2ddc     GuMetaData.obj
 0002:00002de8       ??_C@_09FGKNPI@mInitData@  00000001801d2de8     GuMetaData.obj
 0002:00002df8       ??_C@_0BC@CLDEHKCO@mCenterOrMinCoeff@ 00000001801d2df8     GuMetaData.obj
 0002:00002e10       ??_C@_0BD@LAOLBNJ@mExtentsOrMaxCoeff@ 00000001801d2e10     GuMetaData.obj
 0002:00002e28       ??_C@_0P@JEECKKBL@mUserAllocated@ 00000001801d2e28     GuMetaData.obj
 0002:00002e38       ??_C@_0L@GLIMNECG@mQuantized@ 00000001801d2e38     GuMetaData.obj
 0002:00002e48       ??_C@_0L@CCOJDAID@mIsEdgeSet@ 00000001801d2e48     GuMetaData.obj
 0002:00002e58       ??_C@_08BNDBAGDH@mPadding@ 00000001801d2e58     GuMetaData.obj
 0002:00002e68       ??_C@_0N@OJNNNLIB@TriangleMesh@ 00000001801d2e68     GuMetaData.obj
 0002:00002e78       ??_C@_0M@OGEDMEAL@mNbVertices@ 00000001801d2e78     GuMetaData.obj
 0002:00002e88       ??_C@_0N@MGGDNHNI@mNbTriangles@ 00000001801d2e88     GuMetaData.obj
 0002:00002e98       ??_C@_09LNNEGOJA@mVertices@ 00000001801d2e98     GuMetaData.obj
 0002:00002ea8       ??_C@_0L@KBOFAKLO@mTriangles@ 00000001801d2ea8     GuMetaData.obj
 0002:00002eb8       ??_C@_0P@MHDFIHLD@mExtraTrigData@ 00000001801d2eb8     GuMetaData.obj
 0002:00002ec8       ??_C@_0N@MGIKKCI@mGeomEpsilon@ 00000001801d2ec8     GuMetaData.obj
 0002:00002ed8       ??_C@_0BB@IFLOOCNA@mMaterialIndices@ 00000001801d2ed8     GuMetaData.obj
 0002:00002ef0       ??_C@_0L@OPJMBFMI@mFaceRemap@ 00000001801d2ef0     GuMetaData.obj
 0002:00002f00       ??_C@_0N@BIOECAPM@mAdjacencies@ 00000001801d2f00     GuMetaData.obj
 0002:00002f10       ??_C@_09CICJHLPI@mEdgeList@ 00000001801d2f10     GuMetaData.obj
 0002:00002f20       ??_C@_0BD@IPKCNNIK@mLocalCenterOfMass@ 00000001801d2f20     GuMetaData.obj
 0002:00002f38       ??_C@_0BA@OCOIGPII@mGRB_triIndices@ 00000001801d2f38     GuMetaData.obj
 0002:00002f48       ??_C@_0BE@JPINNDAH@mGRB_triAdjacencies@ 00000001801d2f48     GuMetaData.obj
 0002:00002f60       ??_C@_0P@EDFJJHEF@mGRB_faceRemap@ 00000001801d2f60     GuMetaData.obj
 0002:00002f70       ??_C@_0BG@EEALPPCP@mGRB_faceRemapInverse@ 00000001801d2f70     GuMetaData.obj
 0002:00002f88       ??_C@_0O@CKMBAIFN@mGRB_BV32Tree@ 00000001801d2f88     GuMetaData.obj
 0002:00002f98       ??_C@_0BE@MGIOIICI@mSdfData?4mMeshLower@ 00000001801d2f98     GuMetaData.obj
 0002:00002fb0       ??_C@_0BC@NNEDELGI@mSdfData?4mSpacing@ 00000001801d2fb0     GuMetaData.obj
 0002:00002fc8       ??_C@_0BB@OHOFDAIL@mSdfData?4mDims?4x@ 00000001801d2fc8     GuMetaData.obj
 0002:00002fe0       ??_C@_0BB@POPOABMK@mSdfData?4mDims?4y@ 00000001801d2fe0     GuMetaData.obj
 0002:00002ff8       ??_C@_0BB@NFNDFCAJ@mSdfData?4mDims?4z@ 00000001801d2ff8     GuMetaData.obj
 0002:00003010       ??_C@_0BC@GMPBGGPI@mSdfData?4mNumSdfs@ 00000001801d3010     GuMetaData.obj
 0002:00003028       ??_C@_0O@BCEBBLNE@mSdfData?4mSdf@ 00000001801d3028     GuMetaData.obj
 0002:00003038       ??_C@_0BG@HMHEFHIE@mSdfData?4mSubgridSize@ 00000001801d3038     GuMetaData.obj
 0002:00003050       ??_C@_0BI@OFJBKPGB@mSdfData?4mNumStartSlots@ 00000001801d3050     GuMetaData.obj
 0002:00003068       ??_C@_0BM@MGEPBEON@mSdfData?4mSubgridStartSlots@ 00000001801d3068     GuMetaData.obj
 0002:00003088       ??_C@_0BJ@PKKGJLNM@mSdfData?4mNumSubgridSdfs@ 00000001801d3088     GuMetaData.obj
 0002:000030a8       ??_C@_0BF@HLMPGIBH@mSdfData?4mSubgridSdf@ 00000001801d30a8     GuMetaData.obj
 0002:000030c0       ??_C@_0CF@GMJNHGOK@mSdfData?4mSdfSubgrids3DTexBlock@ 00000001801d30c0     GuMetaData.obj
 0002:000030e8       ??_C@_0CF@HFIGEHKL@mSdfData?4mSdfSubgrids3DTexBlock@ 00000001801d30e8     GuMetaData.obj
 0002:00003110       ??_C@_0CF@FOKLBEGI@mSdfData?4mSdfSubgrids3DTexBlock@ 00000001801d3110     GuMetaData.obj
 0002:00003138       ??_C@_0BO@EIPCIOJH@mSdfData?4mSubgridsMinSdfValue@ 00000001801d3138     GuMetaData.obj
 0002:00003158       ??_C@_0BO@NIIBJOHN@mSdfData?4mSubgridsMaxSdfValue@ 00000001801d3158     GuMetaData.obj
 0002:00003178       ??_C@_0BO@GKGODKFG@mSdfData?4mBytesPerSparsePixel@ 00000001801d3178     GuMetaData.obj
 0002:00003198       ??_C@_0BJ@LEBGJKBE@mAccumulatedTrianglesRef@ 00000001801d3198     GuMetaData.obj
 0002:000031b8       ??_C@_0BF@OJMCNCDP@mTrianglesReferences@ 00000001801d31b8     GuMetaData.obj
 0002:000031d0       ??_C@_0BH@LDGPOFA@mNbTrianglesReferences@ 00000001801d31d0     GuMetaData.obj
 0002:000031e8       ??_C@_0BC@IFGECKF@RTreeTriangleMesh@ 00000001801d31e8     GuMetaData.obj
 0002:000031fc       ??_C@_06JDIHDDGN@mRTree@   00000001801d31fc     GuMetaData.obj
 0002:00003208       ??_C@_0BA@LNNFPOKA@BV4TriangleMesh@ 00000001801d3208     GuMetaData.obj
 0002:00003218       ??_C@_08FKLPEGDB@mBV4Tree@ 00000001801d3218     GuMetaData.obj
 0002:00003250       ??_7?$SupportLocalImpl@VConvexHullNoScaleV@Gu@physx@@@Gu@physx@@6B@ 00000001801d3250     GuMTD.obj
 0002:00003270       ?absMask@?1??FAbs@aos@physx@@YA?AT__m128@@T4@@Z@4QBIB 00000001801d3270     GuMTD.obj
 0002:00003280       ??_7GjkConvex@Gu@physx@@6B@ 00000001801d3280     GuMTD.obj
 0002:000032b0       ??_7?$LocalConvex@VCapsuleV@Gu@physx@@@Gu@physx@@6B@ 00000001801d32b0     GuMTD.obj
 0002:000032e0       ??_7?$LocalConvex@VConvexHullV@Gu@physx@@@Gu@physx@@6B@ 00000001801d32e0     GuMTD.obj
 0002:00003310       __real@2edbe6ff            00000001801d3310     GuMTD.obj
 0002:00003314       __real@34000000            00000001801d3314     GuMTD.obj
 0002:00003318       __real@ff7fffff            00000001801d3318     GuMTD.obj
 0002:00003320       __xmm@34000000340000003400000034000000 00000001801d3320     GuMTD.obj
 0002:00003330       __xmm@358637bd358637bd358637bd358637bd 00000001801d3330     GuMTD.obj
 0002:00003340       __xmm@3dcccccd3dcccccd3dcccccd3dcccccd 00000001801d3340     GuMTD.obj
 0002:00003350       __xmm@3f7ff1413f7ff1413f7ff1413f7ff141 00000001801d3350     GuMTD.obj
 0002:00003360       __xmm@3f8000003f8000003f8000003f800000 00000001801d3360     GuMTD.obj
 0002:00003390       ??_7?$RelativeConvex@VBoxV@Gu@physx@@@Gu@physx@@6B@ 00000001801d3390     GuOverlapTests.obj
 0002:000033c0       ??_7?$RelativeConvex@VConvexHullV@Gu@physx@@@Gu@physx@@6B@ 00000001801d33c0     GuOverlapTests.obj
 0002:00003420       __real@1e3ce508            00000001801d3420     GuRaycastTests.obj
 0002:00003424       __real@28800000            00000001801d3424     GuRaycastTests.obj
 0002:00003428       __real@33d6bf95            00000001801d3428     GuRaycastTests.obj
 0002:0000342c       __real@3727c5ac            00000001801d342c     GuRaycastTests.obj
 0002:00003430       __real@38d1b717            00000001801d3430     GuRaycastTests.obj
 0002:00003434       __real@3f0147ae            00000001801d3434     GuRaycastTests.obj
 0002:00003438       __real@3f7ffffe            00000001801d3438     GuRaycastTests.obj
 0002:0000343c       __real@3f800347            00000001801d343c     GuRaycastTests.obj
 0002:00003440       __real@41200000            00000001801d3440     GuRaycastTests.obj
 0002:00003444       __real@80000000            00000001801d3444     GuRaycastTests.obj
 0002:00003448       __real@b3d6bf95            00000001801d3448     GuRaycastTests.obj
 0002:0000344c       __real@b8d1b717            00000001801d344c     GuRaycastTests.obj
 0002:00003450       __real@c1200000            00000001801d3450     GuRaycastTests.obj
 0002:00003490       ??_7?$MeshHitCallback@UPxGeomRaycastHit@physx@@@Gu@physx@@6B@ 00000001801d3490     GuSweepMTD.obj
 0002:000034a0       ??_7MeshMTDGenerationCallback@@6B@ 00000001801d34a0     GuSweepMTD.obj
 0002:000034b0       ??_7MidPhaseQueryLocalReport@@6B@ 00000001801d34b0     GuSweepMTD.obj
 0002:000034c0       __real@3f8147ae            00000001801d34c0     GuSweepMTD.obj
 0002:000034c4       __real@3f933333            00000001801d34c4     GuSweepMTD.obj
 0002:000034f0       __real@3c23d70a            00000001801d34f0     GuSweepSharedTests.obj
 0002:000034f4       __real@42c80000            00000001801d34f4     GuSweepSharedTests.obj
 0002:00003500       __xmm@ffffffffffffffffffffffffffffffff 00000001801d3500     GuSweepSharedTests.obj
 0002:00003530       ??_7?$LocalConvex@VBoxV@Gu@physx@@@Gu@physx@@6B@ 00000001801d3530     GuSweepTests.obj
 0002:00003560       ??_7?$LocalConvex@VTriangleV@Gu@physx@@@Gu@physx@@6B@ 00000001801d3560     GuSweepTests.obj
 0002:00003590       __xmm@00000002000000020000000200000002 00000001801d3590     GuSweepTests.obj
 0002:000035a0       __xmm@3eaaaa9f3eaaaa9f3eaaaa9f3eaaaa9f 00000001801d35a0     GuSweepTests.obj
 0002:00003658       ??_7PxRunnable@physx@@6B@  00000001801d3658     GuSDF.obj
 0002:00003670       ??_C@_0FA@FNDJPJAJ@C?3?2Users?2msi?2Desktop?2PhysX?9main@ 00000001801d3670     GuSDF.obj
 0002:000036c0       ??_7PointOntoTriangleMeshProjector@Gu@physx@@6B@ 00000001801d36c0     GuSDF.obj
 0002:000036d8       ??_7?$PxThreadT@V?$PxReflectionAllocator@VPxThreadImpl@physx@@@physx@@@physx@@6B@ 00000001801d36d8     GuSDF.obj
 0002:000036e8       ??_C@_06FJHNOCKE@thread@   00000001801d36e8     GuSDF.obj
 0002:000036f0       ??_C@_0LB@PNCFCFJO@SDF?5creation?3?5Fixing?5of?5the?5inp@ 00000001801d36f0     GuSDF.obj
 0002:000037b0       ??_C@_0GH@OCDHPNNL@SDF?5creation?3?5Input?5mesh?5is?5not@ 00000001801d37b0     GuSDF.obj
 0002:00003820       ??_C@_0EP@KDDKKHLC@C?3?2Users?2msi?2Desktop?2PhysX?9main@ 00000001801d3820     GuSDF.obj
 0002:00003870       ??_C@_0EN@EPLGAAEK@C?3?2Users?2msi?2Desktop?2PhysX?9main@ 00000001801d3870     GuSDF.obj
 0002:000038c0       ??_C@_0FG@OHNFIHKG@C?3?2Users?2msi?2Desktop?2PhysX?9main@ 00000001801d38c0     GuSDF.obj
 0002:00003918       __real@37800080            00000001801d3918     GuSDF.obj
 0002:0000391c       __real@3b808081            00000001801d391c     GuSDF.obj
 0002:00003920       __real@3e2aaaab            00000001801d3920     GuSDF.obj
 0002:00003924       __real@3eaaaaab            00000001801d3924     GuSDF.obj
 0002:00003928       __real@3f400000            00000001801d3928     GuSDF.obj
 0002:0000392c       __real@3f7d70a4            00000001801d392c     GuSDF.obj
 0002:00003930       __real@4996b438            00000001801d3930     GuSDF.obj
 0002:00003934       __real@7e7fffff            00000001801d3934     GuSDF.obj
 0002:00003938       __real@bf000000            00000001801d3938     GuSDF.obj
 0002:0000393c       __real@fe7fffff            00000001801d393c     GuSDF.obj
 0002:00003940       __xmm@00000001000000000000000000000000 00000001801d3940     GuSDF.obj
 0002:00003950       __xmm@80000000800000000000000000000000 00000001801d3950     GuSDF.obj
 0002:00003960       __real@437f0000            00000001801d3960     GuCookingSDF.obj
 0002:00003964       __real@477fff00            00000001801d3964     GuCookingSDF.obj
 0002:00003990       ??_7?$RelativeConvex@UCustomConvexV@@@Gu@physx@@6B@ 00000001801d3990     GuGjkQuery.obj
 0002:000039c0       ??_7?$LocalConvex@UCustomConvexV@@@Gu@physx@@6B@ 00000001801d39c0     GuGjkQuery.obj
 0002:000039f0       ??_7?$LocalConvex@UPointConvexV@@@Gu@physx@@6B@ 00000001801d39f0     GuGjkQuery.obj
 0002:00003a20       __xmm@3f0000003f0000003f0000003f000000 00000001801d3a20     GuGjkQuery.obj
 0002:00003a50       __real@3da2f983            00000001801d3a50     GuWindingNumber.obj
 0002:00003a54       __real@3e22f983            00000001801d3a54     GuWindingNumber.obj
 0002:00003a58       __real@3f99999a            00000001801d3a58     GuWindingNumber.obj
 0002:00003ac0       __real@3c343958            00000001801d3ac0     GuCCDSweepConvexMesh.obj
 0002:00003ac4       __real@3ca3d70a            00000001801d3ac4     GuCCDSweepConvexMesh.obj
 0002:00003ac8       __real@3f0ccccd            00000001801d3ac8     GuCCDSweepConvexMesh.obj
 0002:00003acc       __real@3f8ccccd            00000001801d3acc     GuCCDSweepConvexMesh.obj
 0002:00003ad0       __real@b58637bd            00000001801d3ad0     GuCCDSweepConvexMesh.obj
 0002:00003b00       ??_7?$RelativeConvex@VCapsuleV@Gu@physx@@@Gu@physx@@6B@ 00000001801d3b00     GuCCDSweepPrimitives.obj
 0002:00003b30       ??_7?$RelativeConvex@VTriangleV@Gu@physx@@@Gu@physx@@6B@ 00000001801d3b30     GuCCDSweepPrimitives.obj
 0002:00003b60       __real@3ba3d70a            00000001801d3b60     GuCCDSweepPrimitives.obj
 0002:00003b64       __real@501502f9            00000001801d3b64     GuCCDSweepPrimitives.obj
 0002:00003b90       ??_C@_0FP@MKJOFNIK@C?3?2Users?2msi?2Desktop?2PhysX?9main@ 00000001801d3b90     GuAdjacencies.obj
 0002:00003bf0       ??_C@_0DA@FMEHLBKI@Adjacencies?3?3UpdateLink?3?5invali@ 00000001801d3bf0     GuAdjacencies.obj
 0002:00003c20       ??_C@_0EA@CPHOACLK@Adjacencies?3?3CreateDatabase?3?5ca@ 00000001801d3c20     GuAdjacencies.obj
 0002:00003c60       ??_C@_0FM@DKILCENF@C?3?2Users?2msi?2Desktop?2PhysX?9main@ 00000001801d3c60     GuEdgeList.obj
 0002:00003cc0       ??_C@_0CO@GBNJFPN@EdgeList?3?3CreateFacesToEdges?3?5N@ 00000001801d3cc0     GuEdgeList.obj
 0002:00003cf0       ??_C@_0CO@EHJBBMNK@EdgeList?3?3ComputeActiveEdges?3?5N@ 00000001801d3cf0     GuEdgeList.obj
 0002:00003d20       ??_C@_0DI@GBHLFOFP@ActiveEdges?3?3ComputeConvexEdges@ 00000001801d3d20     GuEdgeList.obj
 0002:00003d58       ??_C@_0DM@JOGBLHDI@ActiveEdges?3?3ComputeConvexEdges@ 00000001801d3d58     GuEdgeList.obj
 0002:00003da0       ??_C@_0ED@FEMJKPEL@ActiveEdges?3?3ComputeConvexEdges@ 00000001801d3da0     GuEdgeList.obj
 0002:00003df0       ??_C@_0EB@BFDPMFCD@ActiveEdges?3?3ComputeConvexEdges@ 00000001801d3df0     GuEdgeList.obj
 0002:00003e34       __real@bf7fbe77            00000001801d3e34     GuEdgeList.obj
 0002:00003e38       ??_7Quantizer@Gu@physx@@6B@ 00000001801d3e38     GuQuantizer.obj
 0002:00003e60       ??_7QuantizerImpl@@6B@     00000001801d3e60     GuQuantizer.obj
 0002:00003e90       ??_C@_0FN@DPGONIJN@C?3?2Users?2msi?2Desktop?2PhysX?9main@ 00000001801d3e90     GuQuantizer.obj
 0002:00003ef0       __real@3f0020c5            00000001801d3ef0     GuQuantizer.obj
 0002:00003ef4       __real@3f8020c5            00000001801d3ef4     GuQuantizer.obj
 0002:00003f00       ??_C@_0FP@OPMFHANO@C?3?2Users?2msi?2Desktop?2PhysX?9main@ 00000001801d3f00     GuMeshCleaner.obj
 0002:00003f60       ??_C@_0GB@JJHBCGMC@C?3?2Users?2msi?2Desktop?2PhysX?9main@ 00000001801d3f60     GuVertexReducer.obj
 0002:000040c0       __real@3f7fbe77            00000001801d40c0     GuContactBoxBox.obj
 0002:00004110       __real@3f7ff2e5            00000001801d4110     GuContactCapsuleCapsule.obj
 0002:00004114       __real@40800000            00000001801d4114     GuContactCapsuleCapsule.obj
 0002:000041a0       __real@358637be            00000001801d41a0     GuContactCapsuleMesh.obj
 0002:000041a4       __real@ba83126f            00000001801d41a4     GuContactCapsuleMesh.obj
 0002:00004200       ??_7ConvexMeshContactGenerationCallback@@6B@ 00000001801d4200     GuContactConvexMesh.obj
 0002:00004280       __real@3ec90fdb            00000001801d4280     GuContactPolygonPolygon.obj
 0002:00004284       __real@3f490fdb            00000001801d4284     GuContactPolygonPolygon.obj
 0002:00004288       __real@3f96cbe4            00000001801d4288     GuContactPolygonPolygon.obj
 0002:0000428c       __real@3fc90fdb            00000001801d428c     GuContactPolygonPolygon.obj
 0002:00004290       __real@3ffb53d2            00000001801d4290     GuContactPolygonPolygon.obj
 0002:00004294       __real@4016cbe4            00000001801d4294     GuContactPolygonPolygon.obj
 0002:00004298       __real@402feddf            00000001801d4298     GuContactPolygonPolygon.obj
 0002:000042a0       __xmm@ff7fffffff7fffffff7fffffff7fffff 00000001801d42a0     GuContactPolygonPolygon.obj
 0002:00004310       ??_C@_0GB@MLPCECOG@C?3?2Users?2msi?2Desktop?2PhysX?9main@ 00000001801d4310     GuBigConvexData.obj
 0002:000043a0       ??_C@_0N@CDGINLLF@PxConvexMesh@ 00000001801d43a0     GuConvexMesh.obj
 0002:000043b0       ??_7PxBase@physx@@6B@      00000001801d43b0     GuConvexMesh.obj
 0002:000043d8       ??_C@_0N@OPPDBGAG@PxRefCounted@ 00000001801d43d8     GuConvexMesh.obj
 0002:000043e8       ??_7ConvexMesh@Gu@physx@@6B@ 00000001801d43e8     GuConvexMesh.obj
 0002:00004480       ??_C@_0FO@FBLNAAFN@C?3?2Users?2msi?2Desktop?2PhysX?9main@ 00000001801d4480     GuConvexMesh.obj
 0002:000044e0       ??_C@_0DM@NEJKOFIP@Loading?5convex?5mesh?5failed?3?5Dep@ 00000001801d44e0     GuConvexMesh.obj
 0002:00004520       ??_C@_0DB@PAHEPIEL@PxConvexMesh?3?3release?3?5double?5d@ 00000001801d4520     GuConvexMesh.obj
 0002:00004560       ??_C@_0FG@PBHGDHCN@C?3?2Users?2msi?2Desktop?2PhysX?9main@ 00000001801d4560     GuConvexMesh.obj
 0002:000045e0       __xmm@000000000000000000000000ffffffff 00000001801d45e0     GuConvexSupportTable.obj
 0002:000045f0       __xmm@0000000000000000ffffffff00000000 00000001801d45f0     GuConvexSupportTable.obj
 0002:00004600       __xmm@0000000000000000ffffffffffffffff 00000001801d4600     GuConvexSupportTable.obj
 0002:00004610       __xmm@00000000ffffffff0000000000000000 00000001801d4610     GuConvexSupportTable.obj
 0002:00004620       __xmm@00000000ffffffff00000000ffffffff 00000001801d4620     GuConvexSupportTable.obj
 0002:00004630       __xmm@00000000ffffffffffffffff00000000 00000001801d4630     GuConvexSupportTable.obj
 0002:00004720       __real@2b8cbccc            00000001801d4720     GuDistanceSegmentTriangle.obj
 0002:00004730       __xmm@3f8000013f8000013f8000013f800001 00000001801d4730     GuDistanceSegmentTriangle.obj
 0002:00004740       __xmm@b4000000b4000000b4000000b4000000 00000001801d4740     GuDistanceSegmentTriangle.obj
 0002:000047c0       __xmm@38d1b71738d1b71738d1b71738d1b717 00000001801d47c0     GuGJKSimplex.obj
 0002:000047f0       ??_C@_0O@PBAKPCEC@PxHeightField@ 00000001801d47f0     GuHeightField.obj
 0002:00004800       ??_7HeightField@Gu@physx@@6B@ 00000001801d4800     GuHeightField.obj
 0002:000048b8       ??_C@_0DC@BDMMBOKH@PxHeightField?3?3release?3?5double?5@ 00000001801d48b8     GuHeightField.obj
 0002:000048f0       ??_C@_0FL@KNMJMLHC@C?3?2Users?2msi?2Desktop?2PhysX?9main@ 00000001801d48f0     GuHeightField.obj
 0002:00004950       ??_C@_0CI@DMKEKGNK@Gu?3?3HeightField?3?3load?3?5PX_ALLOC@ 00000001801d4950     GuHeightField.obj
 0002:00004980       ??_C@_0EP@OHBOOOHO@C?3?2Users?2msi?2Desktop?2PhysX?9main@ 00000001801d4980     GuHeightField.obj
 0002:000049f0       __real@3a03126f            00000001801d49f0     GuHeightFieldUtil.obj
 0002:000049f4       __real@3f19999a            00000001801d49f4     GuHeightFieldUtil.obj
 0002:00004a00       __xmm@40000000000000000000000000000000 00000001801d4a00     GuHeightFieldUtil.obj
 0002:00004a90       ??_7HeightFieldTraceSegmentReport@@6B@ 00000001801d4a90     GuSweepsHF.obj
 0002:00004aa0       ??_7CapsuleTraceSegmentReport@@6B@ 00000001801d4aa0     GuSweepsHF.obj
 0002:00004ab0       ??_7ConvexTraceSegmentReport@@6B@ 00000001801d4ab0     GuSweepsHF.obj
 0002:00004ac0       ??_7BoxTraceSegmentReport@@6B@ 00000001801d4ac0     GuSweepsHF.obj
 0002:00004ad0       __real@aedbe6ff            00000001801d4ad0     GuSweepsHF.obj
 0002:00004b00       __real@3089705f            00000001801d4b00     GuIntersectionRayBox.obj
 0002:00004b04       __real@b4000000            00000001801d4b04     GuIntersectionRayBox.obj
 0002:00004b10       __xmm@000000003089705f3089705f3089705f 00000001801d4b10     GuIntersectionRayBox.obj
 0002:00004b20       __xmm@00000000bf800000bf800000bf800000 00000001801d4b20     GuIntersectionRayBox.obj
 0002:00004b50       __real@ffc00000            00000001801d4b50     GuIntersectionTriangleTriangle.obj
 0002:00004b60       __xmm@ffc00000ffc00000ffc00000ffc00000 00000001801d4b60     GuIntersectionTriangleTriangle.obj
 0002:00004b90       ??_7SourceMeshBase@Gu@physx@@6B@ 00000001801d4b90     GuBV4.obj
 0002:00004bb8       ??_7SourceMesh@Gu@physx@@6B@ 00000001801d4bb8     GuBV4.obj
 0002:00004be0       ??_7TetrahedronSourceMesh@Gu@physx@@6B@ 00000001801d4be0     GuBV4.obj
 0002:00004c10       ??_C@_0FF@JDFPCJAP@C?3?2Users?2msi?2Desktop?2PhysX?9main@ 00000001801d4c10     GuBV4.obj
 0002:00004c90       ??_C@_0FK@KKEFBOM@C?3?2Users?2msi?2Desktop?2PhysX?9main@ 00000001801d4c90     GuBV4Build.obj
 0002:00004cec       __real@38000100            00000001801d4cec     GuBV4Build.obj
 0002:00004cf0       __real@3e93cd3a            00000001801d4cf0     GuBV4Build.obj
 0002:00004cf4       __real@46fffe00            00000001801d4cf4     GuBV4Build.obj
 0002:00004cf8       __real@be93cd3a            00000001801d4cf8     GuBV4Build.obj
 0002:00004d20       __xmm@0000ffff0000ffff0000ffff0000ffff 00000001801d4d20     GuBV4_AABBSweep.obj
 0002:00004d30       __xmm@3089705f3089705f3089705f3089705f 00000001801d4d30     GuBV4_AABBSweep.obj
 0002:00004d40       __xmm@33d6bf9533d6bf9533d6bf9533d6bf95 00000001801d4d40     GuBV4_AABBSweep.obj
 0002:00004d50       __xmm@40000000400000004000000040000000 00000001801d4d50     GuBV4_AABBSweep.obj
 0002:00004e20       __real@00000000            00000001801d4e20     GuBV4_Raycast.obj
 0002:00004e50       __real@4f7fffff            00000001801d4e50     GuBV4_SphereOverlap.obj
 0002:00004ea0       __xmm@000000007f7fffff0000000000000000 00000001801d4ea0     GuMidphaseBV4.obj
 0002:00004f10       ??_C@_0FD@EHCCILIF@Adjacency?5information?5not?5creat@ 00000001801d4f10     GuMeshQuery.obj
 0002:00004f70       ??_C@_0FL@KOCBDDBJ@C?3?2Users?2msi?2Desktop?2PhysX?9main@ 00000001801d4f70     GuMeshQuery.obj
 0002:00004fd0       ??_C@_0FL@BKNMAHIA@PxMeshQuery?3?3findOverlapTriangl@ 00000001801d4fd0     GuMeshQuery.obj
 0002:0000502c       __real@4cbebc20            00000001801d502c     GuMeshQuery.obj
 0002:00005050       ??_7Callback@RTree@Gu@physx@@6B@ 00000001801d5050     GuMidphaseRTree.obj
 0002:00005068       ??_7?$RayRTreeCallback@$0A@$0A@@@6BCallbackRaycast@RTree@Gu@physx@@@ 00000001801d5068     GuMidphaseRTree.obj
 0002:00005068       ??_7?$RayRTreeCallback@$00$0A@@@6BCallbackRaycast@RTree@Gu@physx@@@ 00000001801d5068     GuMidphaseRTree.obj
 0002:00005078       ??_7?$RayRTreeCallback@$0A@$0A@@@6BCallback@RTree@Gu@physx@@@ 00000001801d5078     GuMidphaseRTree.obj
 0002:00005078       ??_7?$RayRTreeCallback@$00$0A@@@6BCallback@RTree@Gu@physx@@@ 00000001801d5078     GuMidphaseRTree.obj
 0002:00005090       ??_7RayMeshColliderCallback@@6B@ 00000001801d5090     GuMidphaseRTree.obj
 0002:000050a0       ??_C@_0EN@DPPFLBLF@Point?9mesh?5distance?5query?5not?5s@ 00000001801d50a0     GuMidphaseRTree.obj
 0002:000050f0       ??_C@_0FP@IOEGLDPI@C?3?2Users?2msi?2Desktop?2PhysX?9main@ 00000001801d50f0     GuMidphaseRTree.obj
 0002:00005150       ??_7?$RayRTreeCallback@$0A@$00@@6BCallbackRaycast@RTree@Gu@physx@@@ 00000001801d5150     GuMidphaseRTree.obj
 0002:00005160       ??_7?$RayRTreeCallback@$0A@$00@@6BCallback@RTree@Gu@physx@@@ 00000001801d5160     GuMidphaseRTree.obj
 0002:00005178       ??_7?$RayRTreeCallback@$00$00@@6BCallbackRaycast@RTree@Gu@physx@@@ 00000001801d5178     GuMidphaseRTree.obj
 0002:00005188       ??_7?$RayRTreeCallback@$00$00@@6BCallback@RTree@Gu@physx@@@ 00000001801d5188     GuMidphaseRTree.obj
 0002:00005200       __xmm@7f7fffff000000000000000000000000 00000001801d5200     GuMidphaseRTree.obj
 0002:00005280       ??_7?$PxReportCallback@UPxGeomIndexPair@physx@@@physx@@6B@ 00000001801d5280     GuOverlapTestsMesh.obj
 0002:000052a0       ??_C@_0EP@CEFGCJKJ@PxGeometryQuery?3?3overlap?$CI?$CJ?3?5onl@ 00000001801d52a0     GuOverlapTestsMesh.obj
 0002:000052f0       ??_C@_0GC@NBNKNKNL@C?3?2Users?2msi?2Desktop?2PhysX?9main@ 00000001801d52f0     GuOverlapTestsMesh.obj
 0002:00005360       ?MN@RTreePage@Gu@physx@@2MB 00000001801d5360     GuRTree.obj
 0002:00005364       ?MX@RTreePage@Gu@physx@@2MB 00000001801d5364     GuRTree.obj
 0002:00005390       ??_C@_0FH@NJECPBL@C?3?2Users?2msi?2Desktop?2PhysX?9main@ 00000001801d5390     GuRTree.obj
 0002:00005460       ??_7SweepShapeMeshHitCallback@Gu@physx@@6B@ 00000001801d5460     GuSweepsMesh.obj
 0002:00005470       ??_7SweepCapsuleMeshHitCallback@Gu@physx@@6B@ 00000001801d5470     GuSweepsMesh.obj
 0002:00005480       ??_7SweepBoxMeshHitCallback@Gu@physx@@6B@ 00000001801d5480     GuSweepsMesh.obj
 0002:00005490       ??_7SweepConvexMeshHitCallback@Gu@physx@@6B@ 00000001801d5490     GuSweepsMesh.obj
 0002:000054c0       ??_C@_0P@GGNFNHKF@PxTriangleMesh@ 00000001801d54c0     GuTriangleMesh.obj
 0002:000054d0       ??_7TriangleMesh@Gu@physx@@6B@ 00000001801d54d0     GuTriangleMesh.obj
 0002:000055a8       ??_C@_0DD@LOOPMCGG@PxTriangleMesh?3?3release?3?5double@ 00000001801d55a8     GuTriangleMesh.obj
 0002:000055e0       ??_C@_0FH@PMPAJDGI@PxTriangleMesh?3?3getVerticesForM@ 00000001801d55e0     GuTriangleMesh.obj
 0002:00005640       ??_C@_0FO@GPONKPLM@C?3?2Users?2msi?2Desktop?2PhysX?9main@ 00000001801d5640     GuTriangleMesh.obj
 0002:000056a0       ??_C@_0EF@GMNFLDH@PxTriangleMesh?3?3refitBVH?$CI?$CJ?5is?5n@ 00000001801d56a0     GuTriangleMesh.obj
 0002:000056f0       __xmm@38383838383838383838383838383838 00000001801d56f0     GuTriangleMesh.obj
 0002:00005720       ??_C@_0BE@CNJKIINO@PxBVH34TriangleMesh@ 00000001801d5720     GuTriangleMeshBV4.obj
 0002:00005738       ??_7BV4TriangleMesh@Gu@physx@@6B@ 00000001801d5738     GuTriangleMeshBV4.obj
 0002:00005810       ??_C@_0EF@JLFNNPLP@BVH34?5trees?3?5refit?5operation?5on@ 00000001801d5810     GuTriangleMeshBV4.obj
 0002:00005860       ??_C@_0GB@HMIHGGC@C?3?2Users?2msi?2Desktop?2PhysX?9main@ 00000001801d5860     GuTriangleMeshBV4.obj
 0002:000058c4       __real@3951b717            00000001801d58c4     GuTriangleMeshBV4.obj
 0002:000058f0       ??_C@_0BE@EIFHCCBO@PxBVH33TriangleMesh@ 00000001801d58f0     GuTriangleMeshRTree.obj
 0002:00005908       ??_7RTreeTriangleMesh@Gu@physx@@6B@ 00000001801d5908     GuTriangleMeshRTree.obj
 0002:000059e0       ??_7?$RefitCallback@G@physx@@6B@ 00000001801d59e0     GuTriangleMeshRTree.obj
 0002:000059f0       ??_7?$RefitCallback@I@physx@@6B@ 00000001801d59f0     GuTriangleMeshRTree.obj
 0002:00005a20       ??_C@_0FG@OMGPKDKJ@C?3?2Users?2msi?2Desktop?2PhysX?9main@ 00000001801d5a20     GuBV32.obj
 0002:00005aa0       ??_C@_0FL@PLOLONCM@C?3?2Users?2msi?2Desktop?2PhysX?9main@ 00000001801d5aa0     GuBV32Build.obj
 0002:00005b20       ??_C@_0BC@FDAIDHBP@PxTetrahedronMesh@ 00000001801d5b20     GuTetrahedronMesh.obj
 0002:00005b38       ??_C@_0BC@FBICGJIB@PxSoftBodyAuxData@ 00000001801d5b38     GuTetrahedronMesh.obj
 0002:00005b50       ??_C@_0P@CLLFGFAA@PxSoftBodyMesh@ 00000001801d5b50     GuTetrahedronMesh.obj
 0002:00005b60       ??_7SoftBodyAuxData@Gu@physx@@6B@ 00000001801d5b60     GuTetrahedronMesh.obj
 0002:00005ba8       ??_7TetrahedronMesh@Gu@physx@@6B@ 00000001801d5ba8     GuTetrahedronMesh.obj
 0002:00005c20       ??_7BVTetrahedronMesh@Gu@physx@@6B@ 00000001801d5c20     GuTetrahedronMesh.obj
 0002:00005c98       ??_7SoftBodyMesh@Gu@physx@@6B@ 00000001801d5c98     GuTetrahedronMesh.obj
 0002:00005d18       ??_C@_0DG@JJNMDPMD@PxTetrahedronMesh?3?3release?3?5dou@ 00000001801d5d18     GuTetrahedronMesh.obj
 0002:00005d50       ??_C@_0DD@GGFGEPII@PxSoftBodyMesh?3?3release?3?5double@ 00000001801d5d50     GuTetrahedronMesh.obj
 0002:00005d90       ??_C@_0GB@OFILJMPG@C?3?2Users?2msi?2Desktop?2PhysX?9main@ 00000001801d5d90     GuTetrahedronMesh.obj
 0002:00005e40       __xmm@00000000358637bd358637bd358637bd 00000001801d5e40     GuPCMContactBoxBox.obj
 0002:00005e50       __xmm@3f4ccccd3f4ccccd3f4ccccd3f4ccccd 00000001801d5e50     GuPCMContactBoxBox.obj
 0002:00005e60       __xmm@3f8003473f8003473f8003473f800347 00000001801d5e60     GuPCMContactBoxBox.obj
 0002:00005e70       __xmm@ffffffff00000000ffffffffffffffff 00000001801d5e70     GuPCMContactBoxBox.obj
 0002:00005ea0       ??_7?$LocalConvex@VConvexHullNoScaleV@Gu@physx@@@Gu@physx@@6B@ 00000001801d5ea0     GuPCMContactBoxConvex.obj
 0002:00005ed0       __xmm@3f3504f33f3504f33f3504f33f3504f3 00000001801d5ed0     GuPCMContactBoxConvex.obj
 0002:00005f20       __xmm@ffffffffffffffffffffffff00000000 00000001801d5f20     GuPCMContactCapsuleCapsule.obj
 0002:00005f50       __xmm@3fa000003fa000003fa000003fa00000 00000001801d5f50     GuPCMContactCapsuleConvex.obj
 0002:00005f80       ??_7PCMCapsuleVsHeightfieldContactGenerationCallback@@6B@ 00000001801d5f80     GuPCMContactCapsuleHeightField.obj
 0002:00005f90       __real@3f7f3b64            00000001801d5f90     GuPCMContactCapsuleHeightField.obj
 0002:00005fe0       __xmm@3f7ff9723f7ff9723f7ff9723f7ff972 00000001801d5fe0     GuPCMContactCapsuleMesh.obj
 0002:00005ff0       __xmm@3f7fffef3f7fffef3f7fffef3f7fffef 00000001801d5ff0     GuPCMContactCapsuleMesh.obj
 0002:00006000       __xmm@60ad78ec60ad78ec60ad78ec60ad78ec 00000001801d6000     GuPCMContactCapsuleMesh.obj
 0002:00006030       ??_7?$SupportLocalImpl@VTriangleV@Gu@physx@@@Gu@physx@@6B@ 00000001801d6030     GuPCMContactConvexCommon.obj
 0002:00006050       __xmm@3cf5c2803cf5c2803cf5c2803cf5c280 00000001801d6050     GuPCMContactConvexCommon.obj
 0002:00006060       __xmm@3f7851ec3f7851ec3f7851ec3f7851ec 00000001801d6060     GuPCMContactConvexCommon.obj
 0002:00006090       ??_7?$RelativeConvex@VConvexHullNoScaleV@Gu@physx@@@Gu@physx@@6B@ 00000001801d6090     GuPCMContactConvexConvex.obj
 0002:000060e0       ??_7PCMConvexVsHeightfieldContactGenerationCallback@physx@@6B@ 00000001801d60e0     GuPCMContactConvexHeightField.obj
 0002:000060f0       __xmm@3f19999a3f19999a3f19999a3f19999a 00000001801d60f0     GuPCMContactConvexHeightField.obj
 0002:00006130       ??_7PCMConvexVsMeshContactGenerationCallback@physx@@6B@ 00000001801d6130     GuPCMContactConvexMesh.obj
 0002:00006160       __xmm@3f34fdf43f34fdf43f34fdf43f34fdf4 00000001801d6160     GuPCMContactGenBoxConvex.obj
 0002:00006190       __xmm@3f80a3d73f80a3d73f80a3d73f80a3d7 00000001801d6190     GuPCMContactGenSphereCapsule.obj
 0002:000061a0       __xmm@bba3d70abba3d70abba3d70abba3d70a 00000001801d61a0     GuPCMContactGenSphereCapsule.obj
 0002:000061d0       __xmm@3f7ffd613f7ffd613f7ffd613f7ffd61 00000001801d61d0     GuPCMContactPlaneBox.obj
 0002:00006200       __real@3b23d70b            00000001801d6200     GuPCMContactPlaneCapsule.obj
 0002:00006210       __xmm@3ca3d70a3ca3d70a3ca3d70a3ca3d70a 00000001801d6210     GuPCMContactPlaneCapsule.obj
 0002:00006240       __xmm@3a03126f3a03126f3a03126f3a03126f 00000001801d6240     GuPCMContactPlaneConvex.obj
 0002:000062d0       ??_7PCMSphereVsHeightfieldContactGenerationCallback@physx@@6B@ 00000001801d62d0     GuPCMContactSphereHeightField.obj
 0002:00006360       __xmm@3727c5ac3727c5ac3727c5ac3727c5ac 00000001801d6360     GuPCMContactSphereSphere.obj
 0002:00006390       __xmm@3f7f06f73f7f06f73f7f06f73f7f06f7 00000001801d6390     GuPCMContactCustomGeometry.obj
 0002:000063b0       ?gPCMBoxPolygonData@Gu@physx@@3QBEB 00000001801d63b0     GuPCMShapeConvex.obj
 0002:00006400       ?invalidateThresholds@Gu@physx@@3QBMB 00000001801d6400     GuPersistentContactManifold.obj
 0002:00006418       ?invalidateQuatThresholds@Gu@physx@@3QBMB 00000001801d6418     GuPersistentContactManifold.obj
 0002:00006430       ?invalidateThresholds2@Gu@physx@@3QBMB 00000001801d6430     GuPersistentContactManifold.obj
 0002:00006440       ?invalidateQuatThresholds2@Gu@physx@@3QBMB 00000001801d6440     GuPersistentContactManifold.obj
 0002:00006470       __xmm@00000000340000003400000034000000 00000001801d6470     GuPersistentContactManifold.obj
 0002:00006480       __xmm@000000003f8000003f80000000000000 00000001801d6480     GuPersistentContactManifold.obj
 0002:00006490       __xmm@00000000bf8000003f80000000000000 00000001801d6490     GuPersistentContactManifold.obj
 0002:000064a0       __xmm@ffffffffffffffff00000000ffffffff 00000001801d64a0     GuPersistentContactManifold.obj
 0002:000064d0       __xmm@c1200000c1200000c1200000c1200000 00000001801d64d0     GuPCMContactGenUtil.obj
 0002:00006520       __real@b727c5ac            00000001801d6520     GuSweepBoxSphere.obj
 0002:00006590       ??_C@_0GC@BDPALPIJ@C?3?2Users?2msi?2Desktop?2PhysX?9main@ 00000001801d6590     GuSweepCapsuleBox.obj
 0002:00006640       __real@3f7fff58            00000001801d6640     GuSweepCapsuleTriangle.obj
 0002:000066b0       ??_C@_0CH@DHJGKCPD@Gu?3?3computeBounds?3?5Unknown?5shap@ 00000001801d66b0     GuBounds.obj
 0002:000066e0       ??_C@_0FD@OFADEADJ@C?3?2Users?2msi?2Desktop?2PhysX?9main@ 00000001801d66e0     GuBounds.obj
 0002:00006734       __real@34800000            00000001801d6734     GuBounds.obj
 0002:00006738       __real@3f7fffef            00000001801d6738     GuBounds.obj
 0002:00006740       __xmm@3f8147ae3f8147ae3f8147ae3f8147ae 00000001801d6740     GuBounds.obj
 0002:00006770       ??_C@_0FF@KMCNGKGP@C?3?2Users?2msi?2Desktop?2PhysX?9main@ 00000001801d6770     GuAABBTree.obj
 0002:000067d0       __xmm@5a60b17f5a60b17f5a60b17f5a60b17f 00000001801d67d0     GuAABBTree.obj
 0002:000067e0       __xmm@da60b17fda60b17fda60b17fda60b17f 00000001801d67e0     GuAABBTree.obj
 0002:00006850       ??_C@_0GA@MFHFEHFD@C?3?2Users?2msi?2Desktop?2PhysX?9main@ 00000001801d6850     GuIncrementalAABBTree.obj
 0002:000068b0       ??_C@_0EN@HDIDDGJE@C?3?2Users?2msi?2Desktop?2PhysX?9main@ 00000001801d68b0     GuIncrementalAABBTree.obj
 0002:00006900       __real@40400000            00000001801d6900     GuIncrementalAABBTree.obj
 0002:00006910       ??_C@_0FA@DFALLHNO@C?3?2Users?2msi?2Desktop?2PhysX?9main@ 00000001801d6910     GuSAH.obj
 0002:00006980       ??_7PxBVH@physx@@6B@       00000001801d6980     GuBVH.obj
 0002:000069f8       ??_C@_05OKJNPKBM@PxBVH@    00000001801d69f8     GuBVH.obj
 0002:00006a00       ??_7RefCountable@Cm@physx@@6B@ 00000001801d6a00     GuBVH.obj
 0002:00006a10       ??_7BVH@Gu@physx@@6BPxBVH@2@@ 00000001801d6a10     GuBVH.obj
 0002:00006a88       ??_7BVH@Gu@physx@@6BRefCountable@Cm@2@@ 00000001801d6a88     GuBVH.obj
 0002:00006aa0       ??_C@_0FA@CHGDCECL@C?3?2Users?2msi?2Desktop?2PhysX?9main@ 00000001801d6aa0     GuBVH.obj
 0002:00006af0       ??_C@_0CK@HAIOEINI@PxBVH?3?3release?3?5double?5deletion@ 00000001801d6af0     GuBVH.obj
 0002:00006b40       ??_C@_0GG@GEOFLBJK@C?3?2Users?2msi?2Desktop?2PhysX?9main@ 00000001801d6b40     GuIncrementalAABBPrunerCore.obj
 0002:00006ba8       __real@3f80a3d7            00000001801d6ba8     GuIncrementalAABBPrunerCore.obj
 0002:00006bd0       ??_7BasePruner@Gu@physx@@6B@ 00000001801d6bd0     GuIncrementalAABBPruner.obj
 0002:00006be8       ??_7IncrementalAABBPruner@Gu@physx@@6B@ 00000001801d6be8     GuIncrementalAABBPruner.obj
 0002:00006c70       ??_C@_0GC@IJKFKLE@C?3?2Users?2msi?2Desktop?2PhysX?9main@ 00000001801d6c70     GuIncrementalAABBPruner.obj
 0002:00006d00       ??_C@_0FI@CGMIENHE@C?3?2Users?2msi?2Desktop?2PhysX?9main@ 00000001801d6d00     GuPruningPool.obj
 0002:00006da0       ??_7BucketPruner@Gu@physx@@6B@ 00000001801d6da0     GuBucketPruner.obj
 0002:00006e30       ??_C@_0FJ@GLONMADC@C?3?2Users?2msi?2Desktop?2PhysX?9main@ 00000001801d6e30     GuBucketPruner.obj
 0002:00006e90       __xmm@000000007e7fffff7e7fffff7e7fffff 00000001801d6e90     GuBucketPruner.obj
 0002:00006ea0       __xmm@00000000fe7ffffffe7ffffffe7fffff 00000001801d6ea0     GuBucketPruner.obj
 0002:00006eb0       __xmm@3f13cd3a3f13cd3a3f13cd3a3f13cd3a 00000001801d6eb0     GuBucketPruner.obj
 0002:00006ec0       __xmm@bf13cd3abf13cd3abf13cd3a3f13cd3a 00000001801d6ec0     GuBucketPruner.obj
 0002:00006ed0       ?mIndices@MaverickNode@Gu@physx@@2QBIB 00000001801d6ed0     GuMaverickNode.obj
 0002:00006f30       ??_C@_0GB@LBMBFPBL@C?3?2Users?2msi?2Desktop?2PhysX?9main@ 00000001801d6f30     GuExtendedBucketPruner.obj
 0002:00006fc0       ??_7CompanionPruner@Gu@physx@@6B@ 00000001801d6fc0     GuSecondaryPruner.obj
 0002:00007040       ??_7CompanionPrunerBucket@@6B@ 00000001801d7040     GuSecondaryPruner.obj
 0002:000070c0       ??_7CompanionPrunerIncremental@@6B@ 00000001801d70c0     GuSecondaryPruner.obj
 0002:00007140       ??_7CompanionPrunerAABBTree@@6B@ 00000001801d7140     GuSecondaryPruner.obj
 0002:000071c0       ??_C@_0FM@PDNLFBHG@C?3?2Users?2msi?2Desktop?2PhysX?9main@ 00000001801d71c0     GuSecondaryPruner.obj
 0002:00007240       ??_7AABBPruner@Gu@physx@@6B@ 00000001801d7240     GuAABBPruner.obj
 0002:000072e0       ??_C@_0LA@IHBEIKND@SceneQuery?5static?5AABB?5Tree?5reb@ 00000001801d72e0     GuAABBPruner.obj
 0002:00007390       ??_C@_0FH@DOLGBGGG@C?3?2Users?2msi?2Desktop?2PhysX?9main@ 00000001801d7390     GuAABBPruner.obj
 0002:000073f0       ??_C@_0FK@IBDALDP@C?3?2Users?2msi?2Desktop?2PhysX?9main@ 00000001801d73f0     GuActorShapeMap.obj
 0002:00007470       ??_C@_0BF@DNABLJAF@Invalid?5pruner?5index@ 00000001801d7470     GuQuerySystem.obj
 0002:00007490       ??_C@_0FI@HIKOLFPO@C?3?2Users?2msi?2Desktop?2PhysX?9main@ 00000001801d7490     GuQuerySystem.obj
 0002:00007540       ??_C@_0FE@DKKIJAKD@C?3?2Users?2msi?2Desktop?2PhysX?9main@ 00000001801d7540     GuFactory.obj
 0002:000075c0       ?reductionFactors@SubSortQuick@physx@@2QBMB 00000001801d75c0     GuRTreeCooking.obj
 0002:000075d0       ?stopAtTrisPerLeaf1@SubSortQuick@physx@@2QBIB 00000001801d75d0     GuRTreeCooking.obj
 0002:00007680       ??_C@_0GB@FHBFBFOO@C?3?2Users?2msi?2Desktop?2PhysX?9main@ 00000001801d7680     GuRTreeCooking.obj
 0002:000076e4       __real@41100000            00000001801d76e4     GuRTreeCooking.obj
 0002:000076e8       __real@41700000            00000001801d76e8     GuRTreeCooking.obj
 0002:000076ec       __real@42200000            00000001801d76ec     GuRTreeCooking.obj
 0002:000076f0       __xmm@00000004000000030000000200000001 00000001801d76f0     GuRTreeCooking.obj
 0002:00007720       ??_C@_0FP@EIDHMKII@C?3?2Users?2msi?2Desktop?2PhysX?9main@ 00000001801d7720     GuCookingBVH.obj
 0002:00007780       ??_C@_0DL@JHPKHGFA@Cooking?3?3cookBVH?3?5user?9provided@ 00000001801d7780     GuCookingBVH.obj
 0002:000077c0       ??_C@_0DN@PLNPGFEB@Cooking?3?3createBVH?3?5user?9provid@ 00000001801d77c0     GuCookingBVH.obj
 0002:00007800       ??_C@_0EL@JCJBAPHL@Cooking?3?3cookHeightField?3?5user?9@ 00000001801d7800     GuCookingHF.obj
 0002:00007850       ??_C@_0FO@BDDDPAGK@C?3?2Users?2msi?2Desktop?2PhysX?9main@ 00000001801d7850     GuCookingHF.obj
 0002:000078b0       ??_C@_0EN@FCEPCAFC@Cooking?3?3createHeightField?3?5use@ 00000001801d78b0     GuCookingHF.obj
 0002:00007900       ??_C@_0EK@EKAIJEBL@Cooking?3?3cookConvexMesh?3?5user?9p@ 00000001801d7900     GuCookingConvexMesh.obj
 0002:00007950       ??_C@_0FA@GFFGAPML@Cooking?3?3cookConvexMesh?3?5provid@ 00000001801d7950     GuCookingConvexMesh.obj
 0002:000079a0       ??_C@_0EP@PKDCPNNO@Cooking?3?3cookConvexMesh?3?5provid@ 00000001801d79a0     GuCookingConvexMesh.obj
 0002:000079f0       ??_C@_0EO@LKFMMDE@Cooking?3?3cookConvexMesh?3?5user?9p@ 00000001801d79f0     GuCookingConvexMesh.obj
 0002:00007a40       ??_C@_0EL@KJEPJALG@Cooking?3?3cookConvexMesh?3?5user?9p@ 00000001801d7a40     GuCookingConvexMesh.obj
 0002:00007a90       ??_C@_0FM@LHMEBKMM@Cooking?3?3cookConvexMesh?3?5GPU?9co@ 00000001801d7a90     GuCookingConvexMesh.obj
 0002:00007af0       ??_C@_0FJ@FHCFFABE@Cooking?3?3cookConvexMesh?3?5GPU?9co@ 00000001801d7af0     GuCookingConvexMesh.obj
 0002:00007b50       ??_C@_0GG@HKCAMJIH@C?3?2Users?2msi?2Desktop?2PhysX?9main@ 00000001801d7b50     GuCookingConvexMesh.obj
 0002:00007be0       ??_7TriangleMeshBuilder@physx@@6B@ 00000001801d7be0     GuCookingTriangleMesh.obj
 0002:00007c08       ??_7RTreeTriangleMeshBuilder@physx@@6B@ 00000001801d7c08     GuCookingTriangleMesh.obj
 0002:00007c30       ??_7BV4TriangleMeshBuilder@physx@@6B@ 00000001801d7c30     GuCookingTriangleMesh.obj
 0002:00007c60       ??_C@_0GI@ODIPHNJO@C?3?2Users?2msi?2Desktop?2PhysX?9main@ 00000001801d7c60     GuCookingTriangleMesh.obj
 0002:00007cc8       ??_C@_0DJ@IGODLHLP@TriangleMesh?3?5Enable?5mesh?5weldi@ 00000001801d7cc8     GuCookingTriangleMesh.obj
 0002:00007d10       ??_C@_0FJ@HHJLKGDF@TriangleMesh?3?5triangles?5are?5too@ 00000001801d7d10     GuCookingTriangleMesh.obj
 0002:00007d70       ??_C@_0CN@KGPHHHLK@TriangleMesh?3?5mesh?5is?5too?5big?5f@ 00000001801d7d70     GuCookingTriangleMesh.obj
 0002:00007da0       ??_C@_0DD@CMJGDCNN@TriangleMesh?3?3loadFromDesc?3?5des@ 00000001801d7da0     GuCookingTriangleMesh.obj
 0002:00007de0       ??_C@_0ED@ILJJNHIP@TriangleMesh?3?3loadFromDesc?3?5mPa@ 00000001801d7de0     GuCookingTriangleMesh.obj
 0002:00007e28       ??_C@_0BJ@BKHDBBHO@cleaning?5the?5mesh?5failed@ 00000001801d7e28     GuCookingTriangleMesh.obj
 0002:00007e48       ??_C@_0BK@JIDHMMCE@BV4?5tree?5failed?5to?5build?4@ 00000001801d7e48     GuCookingTriangleMesh.obj
 0002:00007e68       ??_C@_0BL@DHNECNBE@BV32?5tree?5failed?5to?5build?4@ 00000001801d7e68     GuCookingTriangleMesh.obj
 0002:00007e88       ??_7RTreeCookerRemap@@6B@  00000001801d7e88     GuCookingTriangleMesh.obj
 0002:00007ea0       ??_C@_0FC@PJIHAFK@Cooking?3?3validateTriangleMesh?3?5@ 00000001801d7ea0     GuCookingTriangleMesh.obj
 0002:00007ef4       __real@48742400            00000001801d7ef4     GuCookingTriangleMesh.obj
 0002:00007f20       ??_7PxCollisionTetrahedronMeshData@physx@@6B@ 00000001801d7f20     GuCookingTetrahedronMesh.obj
 0002:00007f50       ??_7PxSimulationTetrahedronMeshData@physx@@6B@ 00000001801d7f50     GuCookingTetrahedronMesh.obj
 0002:00007f70       ??_7CollisionTetrahedronMeshData@Gu@physx@@6B@ 00000001801d7f70     GuCookingTetrahedronMesh.obj
 0002:00007fa0       ??_7SimulationTetrahedronMeshData@Gu@physx@@6B@ 00000001801d7fa0     GuCookingTetrahedronMesh.obj
 0002:00007fc0       ??_C@_0GL@MOPAKJBN@C?3?2Users?2msi?2Desktop?2PhysX?9main@ 00000001801d7fc0     GuCookingTetrahedronMesh.obj
 0002:00008030       ??_7?$LocalConvex@VTetrahedronV@Gu@physx@@@Gu@physx@@6B@ 00000001801d8030     GuCookingTetrahedronMesh.obj
 0002:00008060       ??_C@_0CD@OJGNHLOE@BV4_AABBTree?5tree?5failed?5to?5bui@ 00000001801d8060     GuCookingTetrahedronMesh.obj
 0002:00008088       ??_C@_0DG@NCNIEEHB@TetrahedronMesh?3?3loadFromDesc?3?5@ 00000001801d8088     GuCookingTetrahedronMesh.obj
 0002:000080c0       ??_C@_0EG@CJIFGLMC@TetrahedronMesh?3?3loadFromDesc?3?5@ 00000001801d80c0     GuCookingTetrahedronMesh.obj
 0002:00008108       __real@be2aaaab            00000001801d8108     GuCookingTetrahedronMesh.obj
 0002:00008110       __xmm@00000003000000030000000300000003 00000001801d8110     GuCookingTetrahedronMesh.obj
 0002:00008140       __real@3bc79ca10c924223    00000001801d8140     GuCookingVolumeIntegration.obj
 0002:00008148       __real@3f91111111111111    00000001801d8148     GuCookingVolumeIntegration.obj
 0002:00008150       __real@3fa5555555555555    00000001801d8150     GuCookingVolumeIntegration.obj
 0002:00008158       __real@3fa999999999999a    00000001801d8158     GuCookingVolumeIntegration.obj
 0002:00008160       __real@3fb5555555555555    00000001801d8160     GuCookingVolumeIntegration.obj
 0002:00008168       __real@3fc5555555555555    00000001801d8168     GuCookingVolumeIntegration.obj
 0002:00008170       __real@3fd5555555555555    00000001801d8170     GuCookingVolumeIntegration.obj
 0002:00008178       __real@3fe0000000000000    00000001801d8178     GuCookingVolumeIntegration.obj
 0002:00008180       __real@3ff0000000000000    00000001801d8180     GuCookingVolumeIntegration.obj
 0002:00008188       __real@4008000000000000    00000001801d8188     GuCookingVolumeIntegration.obj
 0002:00008190       __real@4010000000000000    00000001801d8190     GuCookingVolumeIntegration.obj
 0002:00008198       __real@bf91111111111111    00000001801d8198     GuCookingVolumeIntegration.obj
 0002:000081a0       __real@bfa999999999999a    00000001801d81a0     GuCookingVolumeIntegration.obj
 0002:000081a8       __real@bfb5555555555555    00000001801d81a8     GuCookingVolumeIntegration.obj
 0002:000081b0       __real@bfc5555555555555    00000001801d81b0     GuCookingVolumeIntegration.obj
 0002:000081c0       __xmm@3c0888893c0888893c0888893c088889 00000001801d81c0     GuCookingVolumeIntegration.obj
 0002:000081d0       __xmm@3c8888893c8888893c8888893c888889 00000001801d81d0     GuCookingVolumeIntegration.obj
 0002:000081e0       __xmm@3d2aaaab3d2aaaab3d2aaaab3d2aaaab 00000001801d81e0     GuCookingVolumeIntegration.obj
 0002:000081f0       __xmm@3e2aaaab3e2aaaab3e2aaaab3e2aaaab 00000001801d81f0     GuCookingVolumeIntegration.obj
 0002:00008200       __xmm@3f811111111111113f81111111111111 00000001801d8200     GuCookingVolumeIntegration.obj
 0002:00008210       __xmm@3f811111111111113f91111111111111 00000001801d8210     GuCookingVolumeIntegration.obj
 0002:00008220       __xmm@3f911111111111113f91111111111111 00000001801d8220     GuCookingVolumeIntegration.obj
 0002:00008230       __xmm@3fa55555555555553fa5555555555555 00000001801d8230     GuCookingVolumeIntegration.obj
 0002:00008240       __xmm@3fa55555555555553fc5555555555555 00000001801d8240     GuCookingVolumeIntegration.obj
 0002:00008250       __xmm@7fffffffffffffff7fffffffffffffff 00000001801d8250     GuCookingVolumeIntegration.obj
 0002:00008260       __xmm@80000000000000008000000000000000 00000001801d8260     GuCookingVolumeIntegration.obj
 0002:00008270       ??_7ConvexHullLib@physx@@6B@ 00000001801d8270     GuCookingQuickHullConvexHullLib.obj
 0002:00008290       ??_7QuickHullConvexHullLib@physx@@6B@ 00000001801d8290     GuCookingQuickHullConvexHullLib.obj
 0002:000082b0       ??_C@_0HC@NLLHJOIM@C?3?2Users?2msi?2Desktop?2PhysX?9main@ 00000001801d82b0     GuCookingQuickHullConvexHullLib.obj
 0002:00008330       ??_C@_0GA@EPPAEJPM@QuickHullConvexHullLib?3?3findSim@ 00000001801d8330     GuCookingQuickHullConvexHullLib.obj
 0002:00008390       ??_C@_0FB@NEBIJMML@QuickHullConvexHullLib?3?3findSim@ 00000001801d8390     GuCookingQuickHullConvexHullLib.obj
 0002:000083f0       ??_C@_0FB@CLLCBEMM@QuickHullConvexHullLib?3?3findSim@ 00000001801d83f0     GuCookingQuickHullConvexHullLib.obj
 0002:00008444       __real@34c00000            00000001801d8444     GuCookingQuickHullConvexHullLib.obj
 0002:00008448       ??_C@_0DP@PJBJBEGF@Meshmerizer?3?3extractHullPolygon@ 00000001801d8448     GuCookingConvexPolygonsBuilder.obj
 0002:00008490       ??_C@_0HB@IDEKHBOP@C?3?2Users?2msi?2Desktop?2PhysX?9main@ 00000001801d8490     GuCookingConvexPolygonsBuilder.obj
 0002:00008508       ??_C@_0DL@IAFKOCCK@ConvexHullBuilder?3?5convex?5hull?5@ 00000001801d8508     GuCookingConvexPolygonsBuilder.obj
 0002:00008550       ??_C@_0GF@OJLJHAMH@ConvexHullBuilder?3?3CreateTriang@ 00000001801d8550     GuCookingConvexPolygonsBuilder.obj
 0002:000085e0       ??_C@_0DF@LLFJIJGM@Gu?3?3ConvexMesh?3?3loadFromDesc?3?5d@ 00000001801d85e0     GuCookingConvexMeshBuilder.obj
 0002:00008620       ??_C@_0HK@JOGKIEAA@Gu?3?3ConvexMesh?3?5Mesh?5has?5a?5nega@ 00000001801d8620     GuCookingConvexMeshBuilder.obj
 0002:000086a0       ??_C@_0DH@NJPPHFFD@Gu?3?3ConvexMesh?3?5Error?5computing@ 00000001801d86a0     GuCookingConvexMeshBuilder.obj
 0002:000086d8       ??_C@_0DJ@LJDLGLDJ@Gu?3?3ConvexMesh?3?3loadConvexHull?3@ 00000001801d86d8     GuCookingConvexMeshBuilder.obj
 0002:00008720       ??_C@_0HJ@KJANPPOE@ConvexMeshBuilder?3?3computeHullP@ 00000001801d8720     GuCookingConvexMeshBuilder.obj
 0002:000087a0       ??_C@_0GN@KDCIHJFN@C?3?2Users?2msi?2Desktop?2PhysX?9main@ 00000001801d87a0     GuCookingConvexMeshBuilder.obj
 0002:00008810       ??_C@_0O@JMAGMMGG@PxHullPolygon@ 00000001801d8810     GuCookingConvexMeshBuilder.obj
 0002:00008820       __real@3f13cd3a            00000001801d8820     GuCookingConvexMeshBuilder.obj
 0002:00008850       ??_C@_0GL@LPHHPJAG@C?3?2Users?2msi?2Desktop?2PhysX?9main@ 00000001801d8850     GuCookingConvexHullUtils.obj
 0002:000088bc       __real@3e20d97c            00000001801d88bc     GuCookingConvexHullUtils.obj
 0002:000088c0       ??_C@_0GJ@NFOOBKPL@C?3?2Users?2msi?2Desktop?2PhysX?9main@ 00000001801d88c0     GuCookingConvexHullLib.obj
 0002:00008930       ??_C@_0JE@PABBNGEL@ConvexHullLib?3?3cleanupVertices?3@ 00000001801d8930     GuCookingConvexHullLib.obj
 0002:000089f0       ??_C@_0GN@GNIMNJAI@C?3?2Users?2msi?2Desktop?2PhysX?9main@ 00000001801d89f0     GuCookingConvexHullBuilder.obj
 0002:00008a60       ??_C@_0EB@DCEIFDGC@ConvexHullBuilder?3?3init?3?5convex@ 00000001801d8a60     GuCookingConvexHullBuilder.obj
 0002:00008ab0       ??_C@_0FM@KICBLCBH@Gu?3?3ConvexMesh?3?3checkHullPolygo@ 00000001801d8ab0     GuCookingConvexHullBuilder.obj
 0002:00008b10       ??_C@_0GO@HBFIOGLL@Gu?3?3ConvexMesh?3?3checkHullPolygo@ 00000001801d8b10     GuCookingConvexHullBuilder.obj
 0002:00008b80       ??_C@_0HF@OLJFBIEL@ConvexHullBuilder?3?5convex?5hull?5@ 00000001801d8b80     GuCookingConvexHullBuilder.obj
 0002:00008c00       ??_C@_0OG@JNHFOIL@ConvexHullBuilder?3?5convex?5hull?5@ 00000001801d8c00     GuCookingConvexHullBuilder.obj
 0002:00008cf0       ??_C@_0EJ@NIOIBAKH@Cooking?3?3cookConvexMesh?3?5non?9ma@ 00000001801d8cf0     GuCookingConvexHullBuilder.obj
 0002:00008d60       ??_C@_0HA@IJANLJAE@C?3?2Users?2msi?2Desktop?2PhysX?9main@ 00000001801d8d60     GuCookingBigConvexDataBuilder.obj
 0002:00008dd0       __sz_PhysXFoundation_64_dll 00000001801d8dd0     PhysXFoundation_64:PhysXFoundation_64.dll
 0002:00008de8       ??_C@_1BK@DBDEIDLH@?$AAK?$AAE?$AAR?$AAN?$AAE?$AAL?$AA3?$AA2?$AA?4?$AAD?$AAL?$AAL@ 00000001801d8de8     Delayimp:delayhlp.obj
 0002:00008e08       ??_C@_0BI@OMNLIJDB@AcquireSRWLockExclusive@ 00000001801d8e08     Delayimp:delayhlp.obj
 0002:00008e20       ??_C@_0BI@HMIEPCNJ@ReleaseSRWLockExclusive@ 00000001801d8e20     Delayimp:delayhlp.obj
 0002:00008e38       __pfnDliFailureHook2       00000001801d8e38     Delayimp:delayhk1.obj
 0002:00008e48       ??_7type_info@@6B@         00000001801d8e48     LIBCMT:std_type_info_static.obj
 0002:00008eb0       _pDefaultRawDllMain        00000001801d8eb0     LIBCMT:dll_dllmain.obj
 0002:00008eb0       _pRawDllMain               00000001801d8eb0     LIBCMT:dll_dllmain.obj
 0002:00008ec0       _load_config_used          00000001801d8ec0     LIBCMT:loadcfg.obj
 0002:00008ff8       _pDestructExceptionObject  00000001801d8ff8     libvcruntime:ehhelpers.obj
 0002:00009700       ??_C@_08EHJDFFNH@__based?$CI@ 00000001801d9700     libvcruntime:undname.obj
 0002:00009710       ??_C@_07KOLFKCDI@__cdecl@  00000001801d9710     libvcruntime:undname.obj
 0002:00009718       ??_C@_08GHMPAG@__pascal@   00000001801d9718     libvcruntime:undname.obj
 0002:00009728       ??_C@_09IFJBGAPI@__stdcall@ 00000001801d9728     libvcruntime:undname.obj
 0002:00009738       ??_C@_0L@NPHFGOKO@__thiscall@ 00000001801d9738     libvcruntime:undname.obj
 0002:00009748       ??_C@_0L@JMKHOMEK@__fastcall@ 00000001801d9748     libvcruntime:undname.obj
 0002:00009758       ??_C@_0N@BCKKPABJ@__vectorcall@ 00000001801d9758     libvcruntime:undname.obj
 0002:00009768       ??_C@_09HIJEGCPM@__clrcall@ 00000001801d9768     libvcruntime:undname.obj
 0002:00009774       ??_C@_06GHPCKEAG@__eabi@   00000001801d9774     libvcruntime:undname.obj
 0002:00009780       ??_C@_09IOPIDJLG@__swift_1@ 00000001801d9780     libvcruntime:undname.obj
 0002:00009790       ??_C@_09KFNFGKHF@__swift_2@ 00000001801d9790     libvcruntime:undname.obj
 0002:000097a0       ??_C@_07JOMMBBKO@__ptr64@  00000001801d97a0     libvcruntime:undname.obj
 0002:000097a8       ??_C@_0L@PILCLIHE@__restrict@ 00000001801d97a8     libvcruntime:undname.obj
 0002:000097b8       ??_C@_0M@GFIIJFMG@__unaligned@ 00000001801d97b8     libvcruntime:undname.obj
 0002:000097c8       ??_C@_09DHDLOLLB@restrict?$CI@ 00000001801d97c8     libvcruntime:undname.obj
 0002:000097d4       ??_C@_04NIHEBCM@?5new@     00000001801d97d4     libvcruntime:undname.obj
 0002:000097e0       ??_C@_07FPCDHGMM@?5delete@ 00000001801d97e0     libvcruntime:undname.obj
 0002:000097e8       ??_C@_01NEMOKFLO@?$DN@     00000001801d97e8     libvcruntime:undname.obj
 0002:000097ec       ??_C@_02GPIOPFAK@?$DO?$DO@ 00000001801d97ec     libvcruntime:undname.obj
 0002:000097f0       ??_C@_02FODMEDOG@?$DM?$DM@ 00000001801d97f0     libvcruntime:undname.obj
 0002:000097f4       ??_C@_01DCLJPIOD@?$CB@     00000001801d97f4     libvcruntime:undname.obj
 0002:000097f8       ??_C@_02EGOFBIJA@?$DN?$DN@ 00000001801d97f8     libvcruntime:undname.obj
 0002:000097fc       ??_C@_02FDNJECIE@?$CB?$DN@ 00000001801d97fc     libvcruntime:undname.obj
 0002:00009800       ??_C@_02GPECMEKF@?$FL?$FN@ 00000001801d9800     libvcruntime:undname.obj
 0002:00009808       ??_C@_08LHJFAFGD@operator@ 00000001801d9808     libvcruntime:undname.obj
 0002:00009814       ??_C@_02HBOOOICD@?9?$DO@   00000001801d9814     libvcruntime:undname.obj
 0002:00009818       ??_C@_01NBENCBCI@?$CK@     00000001801d9818     libvcruntime:undname.obj
 0002:0000981c       ??_C@_02ECNGHCIF@?$CL?$CL@ 00000001801d981c     libvcruntime:undname.obj
 0002:00009820       ??_C@_02BAABKJLB@?9?9@     00000001801d9820     libvcruntime:undname.obj
 0002:00009824       ??_C@_01JOAMLHOP@?9@       00000001801d9824     libvcruntime:undname.obj
 0002:00009828       ??_C@_01MIFGBAGJ@?$CL@     00000001801d9828     libvcruntime:undname.obj
 0002:0000982c       ??_C@_01HNPIGOCE@?$CG@     00000001801d982c     libvcruntime:undname.obj
 0002:00009830       ??_C@_03MNHNFDLC@?9?$DO?$CK@ 00000001801d9830     libvcruntime:undname.obj
 0002:00009834       ??_C@_01KMDKNFGN@?1@       00000001801d9834     libvcruntime:undname.obj
 0002:00009838       ??_C@_01FGNFDNOH@?$CF@     00000001801d9838     libvcruntime:undname.obj
 0002:0000983c       ??_C@_01MNNFJEPP@?$DM@     00000001801d983c     libvcruntime:undname.obj
 0002:00009840       ??_C@_02EHCHHCKH@?$DM?$DN@ 00000001801d9840     libvcruntime:undname.obj
 0002:00009844       ??_C@_01PPODPGHN@?$DO@     00000001801d9844     libvcruntime:undname.obj
 0002:00009848       ??_C@_02EEKDKGMJ@?$DO?$DN@ 00000001801d9848     libvcruntime:undname.obj
 0002:0000984c       ??_C@_01IHBHIGKO@?0@       00000001801d984c     libvcruntime:undname.obj
 0002:00009850       ??_C@_02HCKGKOFO@?$CI?$CJ@ 00000001801d9850     libvcruntime:undname.obj
 0002:00009854       ??_C@_01PJKLJHI@?$HO@      00000001801d9854     libvcruntime:undname.obj
 0002:00009858       ??_C@_01JKBOJNNK@?$FO@     00000001801d9858     libvcruntime:undname.obj
 0002:0000985c       ??_C@_01DNKMNLPK@?$HM@     00000001801d985c     libvcruntime:undname.obj
 0002:00009860       ??_C@_02PPKAJPJL@?$CG?$CG@ 00000001801d9860     libvcruntime:undname.obj
 0002:00009864       ??_C@_02NONPIBCD@?$HM?$HM@ 00000001801d9864     libvcruntime:undname.obj
 0002:00009868       ??_C@_02FPIMKNGF@?$CK?$DN@ 00000001801d9868     libvcruntime:undname.obj
 0002:0000986c       ??_C@_02FOEOMHFC@?$CL?$DN@ 00000001801d986c     libvcruntime:undname.obj
 0002:00009870       ??_C@_02FKMDLLOA@?9?$DN@   00000001801d9870     libvcruntime:undname.obj
 0002:00009874       ??_C@_02FJEHGPIO@?1?$DN@   00000001801d9874     libvcruntime:undname.obj
 0002:00009878       ??_C@_02FENAOKFI@?$CF?$DN@ 00000001801d9878     libvcruntime:undname.obj
 0002:0000987c       ??_C@_03IKFCCPFF@?$DO?$DO?$DN@ 00000001801d987c     libvcruntime:undname.obj
 0002:00009880       ??_C@_03CDNPDDLA@?$DM?$DM?$DN@ 00000001801d9880     libvcruntime:undname.obj
 0002:00009884       ??_C@_02FGJGFEAB@?$CG?$DN@ 00000001801d9884     libvcruntime:undname.obj
 0002:00009888       ??_C@_02DHLNPPGH@?$HM?$DN@ 00000001801d9888     libvcruntime:undname.obj
 0002:0000988c       ??_C@_02MHEGNOJ@?$FO?$DN@  00000001801d988c     libvcruntime:undname.obj
 0002:00009890       ??_C@_09IFPLHPGF@?$GAvftable?8@ 00000001801d9890     libvcruntime:undname.obj
 0002:000098a0       ??_C@_09BLBHBJP@?$GAvbtable?8@ 00000001801d98a0     libvcruntime:undname.obj
 0002:000098b0       ??_C@_07FEEIOKP@?$GAvcall?8@ 00000001801d98b0     libvcruntime:undname.obj
 0002:000098b8       ??_C@_08LLFFHHDJ@?$GAtypeof?8@ 00000001801d98b8     libvcruntime:undname.obj
 0002:000098c8       ??_C@_0BF@KDPPACIK@?$GAlocal?5static?5guard?8@ 00000001801d98c8     libvcruntime:undname.obj
 0002:000098e0       ??_C@_08OBABFOLI@?$GAstring?8@ 00000001801d98e0     libvcruntime:undname.obj
 0002:000098f0       ??_C@_0BD@JDLKDPAB@?$GAvbase?5destructor?8@ 00000001801d98f0     libvcruntime:undname.obj
 0002:00009908       ??_C@_0BN@DEGPLNFK@?$GAvector?5deleting?5destructor?8@ 00000001801d9908     libvcruntime:undname.obj
 0002:00009928       ??_C@_0BO@OBMKPJIG@?$GAdefault?5constructor?5closure?8@ 00000001801d9928     libvcruntime:undname.obj
 0002:00009948       ??_C@_0BN@IMDCHIKM@?$GAscalar?5deleting?5destructor?8@ 00000001801d9948     libvcruntime:undname.obj
 0002:00009968       ??_C@_0BO@PFGOCPJJ@?$GAvector?5constructor?5iterator?8@ 00000001801d9968     libvcruntime:undname.obj
 0002:00009988       ??_C@_0BN@LFPFMEDL@?$GAvector?5destructor?5iterator?8@ 00000001801d9988     libvcruntime:undname.obj
 0002:000099a8       ??_C@_0CE@IKBNEHA@?$GAvector?5vbase?5constructor?5itera@ 00000001801d99a8     libvcruntime:undname.obj
 0002:000099d0       ??_C@_0BL@NILFHHPC@?$GAvirtual?5displacement?5map?8@ 00000001801d99d0     libvcruntime:undname.obj
 0002:000099f0       ??_C@_0CB@JONCMFFK@?$GAeh?5vector?5constructor?5iterator@ 00000001801d99f0     libvcruntime:undname.obj
 0002:00009a18       ??_C@_0CA@GCEOPDGL@?$GAeh?5vector?5destructor?5iterator?8@ 00000001801d9a18     libvcruntime:undname.obj
 0002:00009a38       ??_C@_0CH@OOJPLCPH@?$GAeh?5vector?5vbase?5constructor?5it@ 00000001801d9a38     libvcruntime:undname.obj
 0002:00009a60       ??_C@_0BL@LLKPOHJI@?$GAcopy?5constructor?5closure?8@ 00000001801d9a60     libvcruntime:undname.obj
 0002:00009a80       ??_C@_0BA@KBCDOMBN@?$GAudt?5returning?8@ 00000001801d9a80     libvcruntime:undname.obj
 0002:00009a90       ??_C@_03KLGMFNMG@?$GAEH@   00000001801d9a90     libvcruntime:undname.obj
 0002:00009a94       ??_C@_05KHLCHHI@?$GARTTI@  00000001801d9a94     libvcruntime:undname.obj
 0002:00009aa0       ??_C@_0BA@KKLDJDLB@?$GAlocal?5vftable?8@ 00000001801d9aa0     libvcruntime:undname.obj
 0002:00009ab0       ??_C@_0CE@IIHCMGGL@?$GAlocal?5vftable?5constructor?5clos@ 00000001801d9ab0     libvcruntime:undname.obj
 0002:00009ad4       ??_C@_06FHBGPFGH@?5new?$FL?$FN@ 00000001801d9ad4     libvcruntime:undname.obj
 0002:00009ae0       ??_C@_09LBNFPBCA@?5delete?$FL?$FN@ 00000001801d9ae0     libvcruntime:undname.obj
 0002:00009af0       ??_C@_0P@HJKNJFNN@?$GAomni?5callsig?8@ 00000001801d9af0     libvcruntime:undname.obj
 0002:00009b00       ??_C@_0BL@CNOONJFP@?$GAplacement?5delete?5closure?8@ 00000001801d9b00     libvcruntime:undname.obj
 0002:00009b20       ??_C@_0BN@CKNJLHMB@?$GAplacement?5delete?$FL?$FN?5closure?8@ 00000001801d9b20     libvcruntime:undname.obj
 0002:00009b40       ??_C@_0CG@CFDHKGGD@?$GAmanaged?5vector?5constructor?5ite@ 00000001801d9b40     libvcruntime:undname.obj
 0002:00009b68       ??_C@_0CF@IMGKMJNO@?$GAmanaged?5vector?5destructor?5iter@ 00000001801d9b68     libvcruntime:undname.obj
 0002:00009b90       ??_C@_0CG@HLDDJMAG@?$GAeh?5vector?5copy?5constructor?5ite@ 00000001801d9b90     libvcruntime:undname.obj
 0002:00009bb8       ??_C@_0CM@FCBBDIGB@?$GAeh?5vector?5vbase?5copy?5construct@ 00000001801d9bb8     libvcruntime:undname.obj
 0002:00009be8       ??_C@_0BL@CLIPGLGB@?$GAdynamic?5initializer?5for?5?8@ 00000001801d9be8     libvcruntime:undname.obj
 0002:00009c08       ??_C@_0CB@PDBIFEP@?$GAdynamic?5atexit?5destructor?5for?5@ 00000001801d9c08     libvcruntime:undname.obj
 0002:00009c30       ??_C@_0CD@CGAJBKEJ@?$GAvector?5copy?5constructor?5iterat@ 00000001801d9c30     libvcruntime:undname.obj
 0002:00009c58       ??_C@_0CJ@GJELGAMM@?$GAvector?5vbase?5copy?5constructor?5@ 00000001801d9c58     libvcruntime:undname.obj
 0002:00009c88       ??_C@_0CL@FGIJHLCE@?$GAmanaged?5vector?5copy?5constructo@ 00000001801d9c88     libvcruntime:undname.obj
 0002:00009cb8       ??_C@_0BM@PMGGMLDN@?$GAlocal?5static?5thread?5guard?8@ 00000001801d9cb8     libvcruntime:undname.obj
 0002:00009cd8       ??_C@_0N@BDNMDMOL@operator?5?$CC?$CC?5@ 00000001801d9cd8     libvcruntime:undname.obj
 0002:00009ce8       ??_C@_0BC@GGEBGALA@operator?5co_await@ 00000001801d9ce8     libvcruntime:undname.obj
 0002:00009d00       ??_C@_0M@GAAIMMOH@operator?$DM?$DN?$DO@ 00000001801d9d00     libvcruntime:undname.obj
 0002:00009d10       ??_C@_0BC@DAFEJGAK@?5Type?5Descriptor?8@ 00000001801d9d10     libvcruntime:undname.obj
 0002:00009d28       ??_C@_0BM@LDKODKLH@?5Base?5Class?5Descriptor?5at?5?$CI@ 00000001801d9d28     libvcruntime:undname.obj
 0002:00009d48       ??_C@_0BD@LGICGFMM@?5Base?5Class?5Array?8@ 00000001801d9d48     libvcruntime:undname.obj
 0002:00009d60       ??_C@_0BN@MECKDCOJ@?5Class?5Hierarchy?5Descriptor?8@ 00000001801d9d60     libvcruntime:undname.obj
 0002:00009d80       ??_C@_0BK@CFCOFLF@?5Complete?5Object?5Locator?8@ 00000001801d9d80     libvcruntime:undname.obj
 0002:00009da0       ??_C@_0BG@JNJLAMPM@?$GAanonymous?5namespace?8@ 00000001801d9da0     libvcruntime:undname.obj
 0002:00009db8       ??_C@_04HEJADOOB@CV?3?5@   00000001801d9db8     libvcruntime:undname.obj
 0002:00009dc0       ??_C@_02MOLJINC@?3?3@      00000001801d9dc0     libvcruntime:undname.obj
 0002:00009dc8       ??_C@_0BE@JAEOCHPE@template?9parameter?9@ 00000001801d9dc8     libvcruntime:undname.obj
 0002:00009de0       ??_C@_0BF@LNLGBBNL@?$GAtemplate?9parameter?9@ 00000001801d9de0     libvcruntime:undname.obj
 0002:00009df8       ??_C@_0O@KHGCOMHP@generic?9type?9@ 00000001801d9df8     libvcruntime:undname.obj
 0002:00009e08       ??_C@_0P@ODDENDLM@?$GAgeneric?9type?9@ 00000001801d9e08     libvcruntime:undname.obj
 0002:00009e18       ??_C@_02OHHJMEON@?8?8@     00000001801d9e18     libvcruntime:undname.obj
 0002:00009e20       ??_C@_0BN@IBLMMFAP@?$GAnon?9type?9template?9parameter@ 00000001801d9e20     libvcruntime:undname.obj
 0002:00009e40       ??_C@_03DLDNIBIK@?$CFlf@   00000001801d9e40     libvcruntime:undname.obj
 0002:00009e44       ??_C@_04OFALKAJ@?$DP?$DP_C@ 00000001801d9e44     libvcruntime:undname.obj
 0002:00009e4c       ??_C@_03KHICJKCI@?4?4?4@   00000001801d9e4c     libvcruntime:undname.obj
 0002:00009e50       ??_C@_04HIBGFPH@NULL@      00000001801d9e50     libvcruntime:undname.obj
 0002:00009e58       ??_C@_02DPKJAMEF@?$CFd@    00000001801d9e58     libvcruntime:undname.obj
 0002:00009e60       ??_C@_0BK@IHCCFNEL@?$GAtemplate?9type?9parameter?9@ 00000001801d9e60     libvcruntime:undname.obj
 0002:00009e80       ??_C@_0BK@OFCNNNKO@?$GAgeneric?9class?9parameter?9@ 00000001801d9e80     libvcruntime:undname.obj
 0002:00009ea0       ??_C@_0BL@NGJBLFIL@?$GAgeneric?9method?9parameter?9@ 00000001801d9ea0     libvcruntime:undname.obj
 0002:00009ec0       ??_C@_07OHNGEDJK@nullptr@  00000001801d9ec0     libvcruntime:undname.obj
 0002:00009ec8       ??_C@_0BE@EODMJLIF@?$GAtemplate?9parameter@ 00000001801d9ec8     libvcruntime:undname.obj
 0002:00009edc       ??_C@_03OPGICMGF@?$HN?8?5@ 00000001801d9edc     libvcruntime:undname.obj
 0002:00009ee0       ??_C@_02IGFCGPIL@?$HN?8@   00000001801d9ee0     libvcruntime:undname.obj
 0002:00009ee8       ??_C@_0N@CBHHHENL@?$GAvtordispex?$HL@ 00000001801d9ee8     libvcruntime:undname.obj
 0002:00009ef8       ??_C@_0L@GHPFDFH@?$GAvtordisp?$HL@ 00000001801d9ef8     libvcruntime:undname.obj
 0002:00009f08       ??_C@_0L@HNGCOGAE@?$GAadjustor?$HL@ 00000001801d9f08     libvcruntime:undname.obj
 0002:00009f18       ??_C@_0CB@KJDOOODE@?$GAlocal?5static?5destructor?5helper@ 00000001801d9f18     libvcruntime:undname.obj
 0002:00009f40       ??_C@_0DB@ILEFOCIJ@?$GAtemplate?5static?5data?5member?5co@ 00000001801d9f40     libvcruntime:undname.obj
 0002:00009f78       ??_C@_0DA@HGFJFBBE@?$GAtemplate?5static?5data?5member?5de@ 00000001801d9f78     libvcruntime:undname.obj
 0002:00009fa8       ??_C@_07PGOEDBHP@static?5@ 00000001801d9fa8     libvcruntime:undname.obj
 0002:00009fb0       ??_C@_08NIEOINHE@virtual?5@ 00000001801d9fb0     libvcruntime:undname.obj
 0002:00009fc0       ??_C@_09LAPHOOG@private?3?5@ 00000001801d9fc0     libvcruntime:undname.obj
 0002:00009fd0       ??_C@_0M@GAIFPFIP@protected?3?5@ 00000001801d9fd0     libvcruntime:undname.obj
 0002:00009fe0       ??_C@_08GPDDCMKI@public?3?5@ 00000001801d9fe0     libvcruntime:undname.obj
 0002:00009ff0       ??_C@_08KJLFOPNE@?$FLthunk?$FN?3@ 00000001801d9ff0     libvcruntime:undname.obj
 0002:0000a000       ??_C@_0M@DHNBOJMP@extern?5?$CCC?$CC?5@ 00000001801da000     libvcruntime:undname.obj
 0002:0000a00c       ??_C@_02KCKGHPCA@?$CJ?5@   00000001801da00c     libvcruntime:undname.obj
 0002:0000a010       ??_C@_05CIHEBHNO@char?5@   00000001801da010     libvcruntime:undname.obj
 0002:0000a018       ??_C@_06EHJMALKF@short?5@  00000001801da018     libvcruntime:undname.obj
 0002:0000a020       ??_C@_04LAHKHJMA@int?5@    00000001801da020     libvcruntime:undname.obj
 0002:0000a028       ??_C@_05CJIMAING@long?5@   00000001801da028     libvcruntime:undname.obj
 0002:0000a030       ??_C@_09EBBEKKIH@unsigned?5@ 00000001801da030     libvcruntime:undname.obj
 0002:0000a03c       ??_C@_05BEFAKPML@void?5@   00000001801da03c     libvcruntime:undname.obj
 0002:0000a048       ??_C@_09GAIEOBLP@volatile?5@ 00000001801da048     libvcruntime:undname.obj
 0002:0000a058       ??_C@_08PABEKFH@volatile@  00000001801da058     libvcruntime:undname.obj
 0002:0000a068       ??_C@_0BA@LKIJLKPP@std?3?3nullptr_t?5@ 00000001801da068     libvcruntime:undname.obj
 0002:0000a078       ??_C@_0P@GCOCNKDM@std?3?3nullptr_t@ 00000001801da078     libvcruntime:undname.obj
 0002:0000a088       ??_C@_0L@EGPHHEKN@?$DMellipsis?$DO@ 00000001801da088     libvcruntime:undname.obj
 0002:0000a094       ??_C@_04EENFHACM@?0?4?4?4@ 00000001801da094     libvcruntime:undname.obj
 0002:0000a0a0       ??_C@_0M@ELJOJFFH@?0?$DMellipsis?$DO@ 00000001801da0a0     libvcruntime:undname.obj
 0002:0000a0b0       ??_C@_09DNHFEOJI@?5noexcept@ 00000001801da0b0     libvcruntime:undname.obj
 0002:0000a0bc       ??_C@_03PBJBJNON@cpu@      00000001801da0bc     libvcruntime:undname.obj
 0002:0000a0c0       ??_C@_03DCBBJBAA@amp@      00000001801da0c0     libvcruntime:undname.obj
 0002:0000a0c4       ??_C@_02KEGNLNML@?0?5@     00000001801da0c4     libvcruntime:undname.obj
 0002:0000a0c8       ??_C@_04ENMBGAPA@char@     00000001801da0c8     libvcruntime:undname.obj
 0002:0000a0d0       ??_C@_05BFKKPKCG@short@    00000001801da0d0     libvcruntime:undname.obj
 0002:0000a0d8       ??_C@_03JBIPMCLC@int@      00000001801da0d8     libvcruntime:undname.obj
 0002:0000a0dc       ??_C@_04GOKPGOLB@long@     00000001801da0dc     libvcruntime:undname.obj
 0002:0000a0e4       ??_C@_06BNJCAIGJ@double@   00000001801da0e4     libvcruntime:undname.obj
 0002:0000a0ec       ??_C@_06EBGKOKIG@__int8@   00000001801da0ec     libvcruntime:undname.obj
 0002:0000a0f8       ??_C@_07ICFHOGAF@__int16@  00000001801da0f8     libvcruntime:undname.obj
 0002:0000a100       ??_C@_07OFLPPHGP@__int32@  00000001801da100     libvcruntime:undname.obj
 0002:0000a108       ??_C@_07LFCOJCAC@__int64@  00000001801da108     libvcruntime:undname.obj
 0002:0000a110       ??_C@_08GAHOLHEO@__int128@ 00000001801da110     libvcruntime:undname.obj
 0002:0000a120       ??_C@_09EEKGDCPH@?$DMunknown?$DO@ 00000001801da120     libvcruntime:undname.obj
 0002:0000a130       ??_C@_07CFHGOPCN@char8_t@  00000001801da130     libvcruntime:undname.obj
 0002:0000a138       ??_C@_08HBIPOFJB@char16_t@ 00000001801da138     libvcruntime:undname.obj
 0002:0000a148       ??_C@_08IECNCBKG@char32_t@ 00000001801da148     libvcruntime:undname.obj
 0002:0000a158       ??_C@_07CLGGIAMF@wchar_t@  00000001801da158     libvcruntime:undname.obj
 0002:0000a160       ??_C@_04HAPDLBFF@auto@     00000001801da160     libvcruntime:undname.obj
 0002:0000a168       ??_C@_0P@LHCGKIGK@decltype?$CIauto?$CJ@ 00000001801da168     libvcruntime:undname.obj
 0002:0000a178       ??_C@_06GCICPBLB@__w64?5@  00000001801da178     libvcruntime:undname.obj
 0002:0000a180       ??_C@_07NFANNNEC@UNKNOWN@  00000001801da180     libvcruntime:undname.obj
 0002:0000a188       ??_C@_07EDHNAJHC@signed?5@ 00000001801da188     libvcruntime:undname.obj
 0002:0000a190       ??_C@_05BNCCCJPP@const@    00000001801da190     libvcruntime:undname.obj
 0002:0000a198       ??_C@_09EFNPDFFP@?5volatile@ 00000001801da198     libvcruntime:undname.obj
 0002:0000a1a8       ??_C@_0P@GCIFDJCJ@?$GAunknown?5ecsu?8@ 00000001801da1a8     libvcruntime:undname.obj
 0002:0000a1b8       ??_C@_06MOJHIBMG@union?5@  00000001801da1b8     libvcruntime:undname.obj
 0002:0000a1c0       ??_C@_07DIBCDNGL@struct?5@ 00000001801da1c0     libvcruntime:undname.obj
 0002:0000a1c8       ??_C@_06LJBABKPM@class?5@  00000001801da1c8     libvcruntime:undname.obj
 0002:0000a1d0       ??_C@_08KOFANOFK@coclass?5@ 00000001801da1d0     libvcruntime:undname.obj
 0002:0000a1e0       ??_C@_0N@DLIEFKNA@cointerface?5@ 00000001801da1e0     libvcruntime:undname.obj
 0002:0000a1f0       ??_C@_05LJGMCFOG@enum?5@   00000001801da1f0     libvcruntime:undname.obj
 0002:0000a1f8       ??_C@_06LIJLOJAG@const?5@  00000001801da1f8     libvcruntime:undname.obj
 0002:0000a200       ??_C@_02KJPKDIBN@?$CG?5@   00000001801da200     libvcruntime:undname.obj
 0002:0000a204       ??_C@_03PCKGMOPB@?$CG?$CG?5@ 00000001801da204     libvcruntime:undname.obj
 0002:0000a208       ??_C@_0M@EALIELKG@cli?3?3array?$DM@ 00000001801da208     libvcruntime:undname.obj
 0002:0000a218       ??_C@_0O@GKABPPIF@cli?3?3pin_ptr?$DM@ 00000001801da218     libvcruntime:undname.obj
 0002:0000a228       ??_C@_02GOGNNPBN@?$CJ?$FL@ 00000001801da228     libvcruntime:undname.obj
 0002:0000a22c       ??_C@_06EEGAIFAK@?$HLflat?$HN@ 00000001801da22c     libvcruntime:undname.obj
 0002:0000a234       ??_C@_05JIBOFOHK@?$HLfor?5@ 00000001801da234     libvcruntime:undname.obj
 0002:0000a23c       ??_C@_02MDINNEEG@s?5@      00000001801da23c     libvcruntime:undname.obj
 0002:0000a248       ??_7charNode@@6B@          00000001801da248     libvcruntime:undname.obj
 0002:0000a270       ??_7pcharNode@@6B@         00000001801da270     libvcruntime:undname.obj
 0002:0000a298       ??_7pDNameNode@@6B@        00000001801da298     libvcruntime:undname.obj
 0002:0000a2c0       ??_7DNameStatusNode@@6B@   00000001801da2c0     libvcruntime:undname.obj
 0002:0000a2e8       ??_7pairNode@@6B@          00000001801da2e8     libvcruntime:undname.obj
 0002:0000a410       ??_C@_04OKOHEJBO@?5?$DP?$DP?5@ 00000001801da410     libvcruntime:undname.obj
 0002:0000a420       ?nodes@?1??make@DNameStatusNode@@SAPEBV2@W4DNameStatus@@@Z@4QBV2@B 00000001801da420     libvcruntime:undname.obj
 0002:0000a460       ?s_negLengthTab@FH4@@3QBCB 00000001801da460     libvcruntime:risctrnsctrl.obj
 0002:0000a470       ?s_shiftTab@FH4@@3QBEB     00000001801da470     libvcruntime:risctrnsctrl.obj
 0002:0000a530       ??_C@_1DM@KHCHBNEB@?$AAa?$AAp?$AAi?$AA?9?$AAm?$AAs?$AA?9?$AAw?$AAi?$AAn?$AA?9?$AAc?$AAo?$AAr?$AAe@ 00000001801da530     libvcruntime:winapi_downlevel.obj
 0002:0000a570       ??_C@_1DK@LPPGFMPP@?$AAa?$AAp?$AAi?$AA?9?$AAm?$AAs?$AA?9?$AAw?$AAi?$AAn?$AA?9?$AAc?$AAo?$AAr?$AAe@ 00000001801da570     libvcruntime:winapi_downlevel.obj
 0002:0000a5b0       ??_C@_1BC@GDMECMAK@?$AAk?$AAe?$AAr?$AAn?$AAe?$AAl?$AA3?$AA2@ 00000001801da5b0     libvcruntime:winapi_downlevel.obj
 0002:0000a5c8       ??_C@_1BA@PFFKHIOG@?$AAa?$AAp?$AAi?$AA?9?$AAm?$AAs?$AA?9@ 00000001801da5c8     libvcruntime:winapi_downlevel.obj
 0002:0000a5e0       ??_C@_08KNHFBNJ@FlsAlloc@  00000001801da5e0     libvcruntime:winapi_downlevel.obj
 0002:0000a5f8       ??_C@_07PEJMOBNF@FlsFree@  00000001801da5f8     libvcruntime:winapi_downlevel.obj
 0002:0000a608       ??_C@_0M@GDNOONDI@FlsGetValue@ 00000001801da608     libvcruntime:winapi_downlevel.obj
 0002:0000a620       ??_C@_0M@JCPCPOEF@FlsSetValue@ 00000001801da620     libvcruntime:winapi_downlevel.obj
 0002:0000a638       ??_C@_0BM@HCFOFFN@InitializeCriticalSectionEx@ 00000001801da638     libvcruntime:winapi_downlevel.obj
 0002:0000a660       ??_7exception@std@@6B@     00000001801da660     libvcruntime:frame.obj
 0002:0000a670       ??_C@_0BC@EOODALEL@Unknown?5exception@ 00000001801da670     libvcruntime:frame.obj
 0002:0000a690       ??_7bad_exception@std@@6B@ 00000001801da690     libvcruntime:frame.obj
 0002:0000a6a0       ??_C@_0O@DPKOEFFH@bad?5exception@ 00000001801da6a0     libvcruntime:frame.obj
 0002:0000a9f0       ?standard_lookup_table_spectre@__crt_stdio_output@@3V?$spectre_mitigated_lookup_table@Ustate_transition_pair@__crt_stdio_output@@$0IA@@1@B 00000001801da9f0     libucrt:output.obj
 0002:0000adf0       ?format_validation_lookup_table_spectre@__crt_stdio_output@@3V?$spectre_mitigated_lookup_table@Ustate_transition_pair@__crt_stdio_output@@$0IA@@1@B 00000001801dadf0     libucrt:output.obj
 0002:0000b1f0       ??_C@_1O@CEDCILHN@?$AA?$CI?$AAn?$AAu?$AAl?$AAl?$AA?$CJ@ 00000001801db1f0     libucrt:output.obj
 0002:0000b200       ??_C@_06OJHGLDPL@?$CInull?$CJ@ 00000001801db200     libucrt:output.obj
 0002:0000c298       __real@3f1a36e2eb1c432d    00000001801dc298     libucrt:atan2f.obj
 0002:0000c2a0       __real@3fb0000000000000    00000001801dc2a0     libucrt:atan2f.obj
 0002:0000c2a8       __real@3fc2492482bd6be1    00000001801dc2a8     libucrt:atan2f.obj
 0002:0000c2b0       __real@3fc99999999643a3    00000001801dc2b0     libucrt:atan2f.obj
 0002:0000c2b8       __real@3fd5555555550877    00000001801dc2b8     libucrt:atan2f.obj
 0002:0000c2c0       __real@3fd5555555555538    00000001801dc2c0     libucrt:atan2f.obj
 0002:0000c2c8       __real@3ff921fb54442d18    00000001801dc2c8     libucrt:atan2f.obj
 0002:0000c2d0       __real@400921fb54442d18    00000001801dc2d0     libucrt:atan2f.obj
 0002:0000c2d8       __real@40490fdb            00000001801dc2d8     libucrt:atan2f.obj
 0002:0000c2e0       __real@4070000000000000    00000001801dc2e0     libucrt:atan2f.obj
 0002:0000c2e8       __real@bf490fdb            00000001801dc2e8     libucrt:atan2f.obj
 0002:0000c2ec       __real@bfc90fdb            00000001801dc2ec     libucrt:atan2f.obj
 0002:0000c2f0       __real@c016cbe4            00000001801dc2f0     libucrt:atan2f.obj
 0002:0000c2f4       __real@c0490fdb            00000001801dc2f4     libucrt:atan2f.obj
 0002:0000c2f8       ??_C@_05FFFCHCED@acosf@    00000001801dc2f8     libucrt:acosf.obj
 0002:0000c300       __real@3b81ce6b            00000001801dc300     libucrt:acosf.obj
 0002:0000c308       __real@3c91a62633145c07    00000001801dc308     libucrt:acosf.obj
 0002:0000c310       __real@3d678bdd            00000001801dc310     libucrt:acosf.obj
 0002:0000c314       __real@3e3c94dc            00000001801dc314     libucrt:acosf.obj
 0002:0000c318       __real@3f561f0d            00000001801dc318     libucrt:acosf.obj
 0002:0000c31c       __real@3f8d6fa5            00000001801dc31c     libucrt:acosf.obj
 0002:0000c320       __real@bc5b3fe1            00000001801dc320     libucrt:acosf.obj
 0002:0000c330       __acrt_exception_action_table 00000001801dc330     libucrt:exception_filter.obj
 0002:0000c3f0       __acrt_signal_action_table_count 00000001801dc3f0     libucrt:exception_filter.obj
 0002:0000c3f8       __acrt_signal_action_first_fpe_index 00000001801dc3f8     libucrt:exception_filter.obj
 0002:0000c400       __acrt_signal_action_fpe_count 00000001801dc400     libucrt:exception_filter.obj
 0002:0000c408       ??_C@_1BI@BGOHAHKC@?$AAm?$AAs?$AAc?$AAo?$AAr?$AAe?$AAe?$AA?4?$AAd?$AAl?$AAl@ 00000001801dc408     libucrt:exit.obj
 0002:0000c420       ??_C@_0P@MIGLKIOC@CorExitProcess@ 00000001801dc420     libucrt:exit.obj
 0002:0000c6a0       ??_C@_04LAGPAAHP@sinf@     00000001801dc6a0     libucrt:sincos_special.obj
 0002:0000c6a8       ??_C@_04OBBKPIAC@cosf@     00000001801dc6a8     libucrt:sincos_special.obj
 0002:0000c6b0       ??_C@_04MHPLPEIA@tanf@     00000001801dc6b0     libucrt:sincos_special.obj
 0002:0000c6c0       __Lcosfarray               00000001801dc6c0     libucrt:lsincosf_array.obj
 0002:0000c6f0       __Lsinfarray               00000001801dc6f0     libucrt:lsincosf_array.obj
 0002:0000c710       __L_2_by_pi_bits           00000001801dc710     libucrt:l2_by_pi_bits.obj
 0002:0000ca70       ??_C@_1EA@JGEFHKEI@?$AAa?$AAp?$AAi?$AA?9?$AAm?$AAs?$AA?9?$AAw?$AAi?$AAn?$AA?9?$AAc?$AAo?$AAr?$AAe@ 00000001801dca70     libucrt:winapi_thunks.obj
 0002:0000cab0       ??_C@_1DI@IJCEHOCB@?$AAa?$AAp?$AAi?$AA?9?$AAm?$AAs?$AA?9?$AAw?$AAi?$AAn?$AA?9?$AAc?$AAo?$AAr?$AAe@ 00000001801dcab0     libucrt:winapi_thunks.obj
 0002:0000caf0       ??_C@_1EI@MPIAOHOC@?$AAa?$AAp?$AAi?$AA?9?$AAm?$AAs?$AA?9?$AAw?$AAi?$AAn?$AA?9?$AAc?$AAo?$AAr?$AAe@ 00000001801dcaf0     libucrt:winapi_thunks.obj
 0002:0000cb40       ??_C@_1FK@FPHCKFIE@?$AAa?$AAp?$AAi?$AA?9?$AAm?$AAs?$AA?9?$AAw?$AAi?$AAn?$AA?9?$AAc?$AAo?$AAr?$AAe@ 00000001801dcb40     libucrt:winapi_thunks.obj
 0002:0000cba0       ??_C@_1EM@DILCGIIO@?$AAa?$AAp?$AAi?$AA?9?$AAm?$AAs?$AA?9?$AAw?$AAi?$AAn?$AA?9?$AAc?$AAo?$AAr?$AAe@ 00000001801dcba0     libucrt:winapi_thunks.obj
 0002:0000cbf0       ??_C@_1DM@LNCGDDPN@?$AAa?$AAp?$AAi?$AA?9?$AAm?$AAs?$AA?9?$AAw?$AAi?$AAn?$AA?9?$AAc?$AAo?$AAr?$AAe@ 00000001801dcbf0     libucrt:winapi_thunks.obj
 0002:0000cc30       ??_C@_1DO@FPAPJEMD@?$AAa?$AAp?$AAi?$AA?9?$AAm?$AAs?$AA?9?$AAw?$AAi?$AAn?$AA?9?$AAc?$AAo?$AAr?$AAe@ 00000001801dcc30     libucrt:winapi_thunks.obj
 0002:0000cc70       ??_C@_1DK@NDHNAHIO@?$AAa?$AAp?$AAi?$AA?9?$AAm?$AAs?$AA?9?$AAw?$AAi?$AAn?$AA?9?$AAc?$AAo?$AAr?$AAe@ 00000001801dcc70     libucrt:winapi_thunks.obj
 0002:0000ccb0       ??_C@_1DM@KGHDGBCM@?$AAa?$AAp?$AAi?$AA?9?$AAm?$AAs?$AA?9?$AAw?$AAi?$AAn?$AA?9?$AAc?$AAo?$AAr?$AAe@ 00000001801dccb0     libucrt:winapi_thunks.obj
 0002:0000ccf0       ??_C@_1EO@IJIOEFOH@?$AAa?$AAp?$AAi?$AA?9?$AAm?$AAs?$AA?9?$AAw?$AAi?$AAn?$AA?9?$AAr?$AAt?$AAc?$AAo@ 00000001801dccf0     libucrt:winapi_thunks.obj
 0002:0000cd40       ??_C@_1FG@HHGEKANL@?$AAa?$AAp?$AAi?$AA?9?$AAm?$AAs?$AA?9?$AAw?$AAi?$AAn?$AA?9?$AAs?$AAe?$AAc?$AAu@ 00000001801dcd40     libucrt:winapi_thunks.obj
 0002:0000cda0       ??_C@_1EG@DBIOJECG@?$AAe?$AAx?$AAt?$AA?9?$AAm?$AAs?$AA?9?$AAw?$AAi?$AAn?$AA?9?$AAn?$AAt?$AAu?$AAs@ 00000001801dcda0     libucrt:winapi_thunks.obj
 0002:0000cdf0       ??_C@_1EO@FIHMJCLF@?$AAe?$AAx?$AAt?$AA?9?$AAm?$AAs?$AA?9?$AAw?$AAi?$AAn?$AA?9?$AAn?$AAt?$AAu?$AAs@ 00000001801dcdf0     libucrt:winapi_thunks.obj
 0002:0000ce40       ??_C@_1BC@DNHGCMLG@?$AAa?$AAd?$AAv?$AAa?$AAp?$AAi?$AA3?$AA2@ 00000001801dce40     libucrt:winapi_thunks.obj
 0002:0000ce58       ??_C@_1M@OAIMIKLP@?$AAn?$AAt?$AAd?$AAl?$AAl@ 00000001801dce58     libucrt:winapi_thunks.obj
 0002:0000ce70       ??_C@_1EG@DPGNFKGC@?$AAa?$AAp?$AAi?$AA?9?$AAm?$AAs?$AA?9?$AAw?$AAi?$AAn?$AA?9?$AAa?$AAp?$AAp?$AAm@ 00000001801dce70     libucrt:winapi_thunks.obj
 0002:0000ceb8       ??_C@_1O@BCCLBEOE@?$AAu?$AAs?$AAe?$AAr?$AA3?$AA2@ 00000001801dceb8     libucrt:winapi_thunks.obj
 0002:0000cec8       ??_C@_1BA@IAIFMGEF@?$AAe?$AAx?$AAt?$AA?9?$AAm?$AAs?$AA?9@ 00000001801dcec8     libucrt:winapi_thunks.obj
 0002:0000cee0       ??_C@_0BA@FHFNEAED@AreFileApisANSI@ 00000001801dcee0     libucrt:winapi_thunks.obj
 0002:0000cf20       ??_C@_0O@KKBNKAPF@LCMapStringEx@ 00000001801dcf20     libucrt:winapi_thunks.obj
 0002:0000cf38       ??_C@_0BB@HBDEELFH@LocaleNameToLCID@ 00000001801dcf38     libucrt:winapi_thunks.obj
 0002:0000cf50       ??_C@_0CF@OJOFEIGO@AppPolicyGetProcessTerminationM@ 00000001801dcf50     libucrt:winapi_thunks.obj
 0002:0000d000       ??_C@_03OEIAHPBN@INF@      00000001801dd000     libucrt:cvt.obj
 0002:0000d004       ??_C@_03OJHLLCGB@inf@      00000001801dd004     libucrt:cvt.obj
 0002:0000d008       ??_C@_03LKNCIKJB@NAN@      00000001801dd008     libucrt:cvt.obj
 0002:0000d00c       ??_C@_03LHCJEHON@nan@      00000001801dd00c     libucrt:cvt.obj
 0002:0000d010       ??_C@_09OFJJIMPC@NAN?$CISNAN?$CJ@ 00000001801dd010     libucrt:cvt.obj
 0002:0000d020       ??_C@_09IPFBKMDL@nan?$CIsnan?$CJ@ 00000001801dd020     libucrt:cvt.obj
 0002:0000d030       ??_C@_08IKHNHAJ@NAN?$CIIND?$CJ@ 00000001801dd030     libucrt:cvt.obj
 0002:0000d040       ??_C@_08OFCDMILK@nan?$CIind?$CJ@ 00000001801dd040     libucrt:cvt.obj
 0002:0000d04c       ??_C@_05KLBDPFGC@e?$CL000@ 00000001801dd04c     libucrt:cvt.obj
 0002:0000d060       __lc_time_c                00000001801dd060     libucrt:nlsdata.obj
 0002:0000d320       ??_C@_03KOEHGMDN@Sun@      00000001801dd320     libucrt:nlsdata.obj
 0002:0000d324       ??_C@_03PDAGKDH@Mon@       00000001801dd324     libucrt:nlsdata.obj
 0002:0000d328       ??_C@_03NAGEINEP@Tue@      00000001801dd328     libucrt:nlsdata.obj
 0002:0000d32c       ??_C@_03MHOMLAJA@Wed@      00000001801dd32c     libucrt:nlsdata.obj
 0002:0000d330       ??_C@_03IOFIKPDN@Thu@      00000001801dd330     libucrt:nlsdata.obj
 0002:0000d334       ??_C@_03IDIOELNC@Fri@      00000001801dd334     libucrt:nlsdata.obj
 0002:0000d338       ??_C@_03FEFJNEK@Sat@       00000001801dd338     libucrt:nlsdata.obj
 0002:0000d33c       ??_C@_06OOPIFAJ@Sunday@    00000001801dd33c     libucrt:nlsdata.obj
 0002:0000d344       ??_C@_06JLEDEDGH@Monday@   00000001801dd344     libucrt:nlsdata.obj
 0002:0000d350       ??_C@_07BAAGCFCM@Tuesday@  00000001801dd350     libucrt:nlsdata.obj
 0002:0000d358       ??_C@_09DLIGFAKA@Wednesday@ 00000001801dd358     libucrt:nlsdata.obj
 0002:0000d368       ??_C@_08HACCIKIA@Thursday@ 00000001801dd368     libucrt:nlsdata.obj
 0002:0000d374       ??_C@_06JECMNKMI@Friday@   00000001801dd374     libucrt:nlsdata.obj
 0002:0000d380       ??_C@_08INBOOONO@Saturday@ 00000001801dd380     libucrt:nlsdata.obj
 0002:0000d38c       ??_C@_03JIHJHPIE@Jan@      00000001801dd38c     libucrt:nlsdata.obj
 0002:0000d390       ??_C@_03HJBDCHOM@Feb@      00000001801dd390     libucrt:nlsdata.obj
 0002:0000d394       ??_C@_03ODNJBKGA@Mar@      00000001801dd394     libucrt:nlsdata.obj
 0002:0000d398       ??_C@_03LEOLGMJP@Apr@      00000001801dd398     libucrt:nlsdata.obj
 0002:0000d39c       ??_C@_03CNMDKL@May@        00000001801dd39c     libucrt:nlsdata.obj
 0002:0000d3a0       ??_C@_03IDFGHECI@Jun@      00000001801dd3a0     libucrt:nlsdata.obj
 0002:0000d3a4       ??_C@_03LBGABGKK@Jul@      00000001801dd3a4     libucrt:nlsdata.obj
 0002:0000d3a8       ??_C@_03IFJFEIGA@Aug@      00000001801dd3a8     libucrt:nlsdata.obj
 0002:0000d3ac       ??_C@_03GGCAPAJC@Sep@      00000001801dd3ac     libucrt:nlsdata.obj
 0002:0000d3b0       ??_C@_03BMAOKBAD@Oct@      00000001801dd3b0     libucrt:nlsdata.obj
 0002:0000d3b4       ??_C@_03JPJOFNIA@Nov@      00000001801dd3b4     libucrt:nlsdata.obj
 0002:0000d3b8       ??_C@_03MKABNOCG@Dec@      00000001801dd3b8     libucrt:nlsdata.obj
 0002:0000d3c0       ??_C@_07CGJPFGJA@January@  00000001801dd3c0     libucrt:nlsdata.obj
 0002:0000d3c8       ??_C@_08GNJGEPFN@February@ 00000001801dd3c8     libucrt:nlsdata.obj
 0002:0000d3d4       ??_C@_05HPCKOFNC@March@    00000001801dd3d4     libucrt:nlsdata.obj
 0002:0000d3dc       ??_C@_05DMJDNLEJ@April@    00000001801dd3dc     libucrt:nlsdata.obj
 0002:0000d3e4       ??_C@_04CNLMGBGM@June@     00000001801dd3e4     libucrt:nlsdata.obj
 0002:0000d3ec       ??_C@_04MIEPOIFP@July@     00000001801dd3ec     libucrt:nlsdata.obj
 0002:0000d3f4       ??_C@_06LBBHFDDG@August@   00000001801dd3f4     libucrt:nlsdata.obj
 0002:0000d400       ??_C@_09BHHEALKD@September@ 00000001801dd400     libucrt:nlsdata.obj
 0002:0000d410       ??_C@_07JJNFCEND@October@  00000001801dd410     libucrt:nlsdata.obj
 0002:0000d418       ??_C@_08HCHEGEOA@November@ 00000001801dd418     libucrt:nlsdata.obj
 0002:0000d428       ??_C@_08EDHMEBNP@December@ 00000001801dd428     libucrt:nlsdata.obj
 0002:0000d434       ??_C@_02DEDBPAFC@AM@       00000001801dd434     libucrt:nlsdata.obj
 0002:0000d438       ??_C@_02CJNFDJBF@PM@       00000001801dd438     libucrt:nlsdata.obj
 0002:0000d440       ??_C@_08BPBNCDIB@MM?1dd?1yy@ 00000001801dd440     libucrt:nlsdata.obj
 0002:0000d450       ??_C@_0BE@CKGJFCPC@dddd?0?5MMMM?5dd?0?5yyyy@ 00000001801dd450     libucrt:nlsdata.obj
 0002:0000d468       ??_C@_08JCCMCCIL@HH?3mm?3ss@ 00000001801dd468     libucrt:nlsdata.obj
 0002:0000d478       ??_C@_17MBGCMIPB@?$AAS?$AAu?$AAn@ 00000001801dd478     libucrt:nlsdata.obj
 0002:0000d480       ??_C@_17KBOMKBF@?$AAM?$AAo?$AAn@ 00000001801dd480     libucrt:nlsdata.obj
 0002:0000d488       ??_C@_17BMKGEGOJ@?$AAT?$AAu?$AAe@ 00000001801dd488     libucrt:nlsdata.obj
 0002:0000d490       ??_C@_17CJEDCEPE@?$AAW?$AAe?$AAd@ 00000001801dd490     libucrt:nlsdata.obj
 0002:0000d498       ??_C@_17PDPHAADD@?$AAT?$AAh?$AAu@ 00000001801dd498     libucrt:nlsdata.obj
 0002:0000d4a0       ??_C@_17HFOLPPLP@?$AAF?$AAr?$AAi@ 00000001801dd4a0     libucrt:nlsdata.obj
 0002:0000d4a8       ??_C@_17GGIBDPIH@?$AAS?$AAa?$AAt@ 00000001801dd4a8     libucrt:nlsdata.obj
 0002:0000d4b0       ??_C@_1O@IHNHDHPB@?$AAS?$AAu?$AAn?$AAd?$AAa?$AAy@ 00000001801dd4b0     libucrt:nlsdata.obj
 0002:0000d4c0       ??_C@_1O@MMNBFLIA@?$AAM?$AAo?$AAn?$AAd?$AAa?$AAy@ 00000001801dd4c0     libucrt:nlsdata.obj
 0002:0000d4d0       ??_C@_1BA@ENFBFFEK@?$AAT?$AAu?$AAe?$AAs?$AAd?$AAa?$AAy@ 00000001801dd4d0     libucrt:nlsdata.obj
 0002:0000d4e0       ??_C@_1BE@EBOGMDOH@?$AAW?$AAe?$AAd?$AAn?$AAe?$AAs?$AAd?$AAa?$AAy@ 00000001801dd4e0     libucrt:nlsdata.obj
 0002:0000d4f8       ??_C@_1BC@HHMNLIHE@?$AAT?$AAh?$AAu?$AAr?$AAs?$AAd?$AAa?$AAy@ 00000001801dd4f8     libucrt:nlsdata.obj
 0002:0000d510       ??_C@_1O@PDICJHAG@?$AAF?$AAr?$AAi?$AAd?$AAa?$AAy@ 00000001801dd510     libucrt:nlsdata.obj
 0002:0000d520       ??_C@_1BC@ENMNNPAJ@?$AAS?$AAa?$AAt?$AAu?$AAr?$AAd?$AAa?$AAy@ 00000001801dd520     libucrt:nlsdata.obj
 0002:0000d538       ??_C@_17DKNBKCHM@?$AAJ?$AAa?$AAn@ 00000001801dd538     libucrt:nlsdata.obj
 0002:0000d540       ??_C@_17LMDJEKJN@?$AAF?$AAe?$AAb@ 00000001801dd540     libucrt:nlsdata.obj
 0002:0000d548       ??_C@_17CKNLEDEC@?$AAM?$AAa?$AAr@ 00000001801dd548     libucrt:nlsdata.obj
 0002:0000d550       ??_C@_17LFPOIHDD@?$AAA?$AAp?$AAr@ 00000001801dd550     libucrt:nlsdata.obj
 0002:0000d558       ??_C@_17PNNKMEED@?$AAM?$AAa?$AAy@ 00000001801dd558     libucrt:nlsdata.obj
 0002:0000d560       ??_C@_17KCJGOCPB@?$AAJ?$AAu?$AAn@ 00000001801dd560     libucrt:nlsdata.obj
 0002:0000d568       ??_C@_17IJPCKHK@?$AAJ?$AAu?$AAl@ 00000001801dd568     libucrt:nlsdata.obj
 0002:0000d570       ??_C@_17ICPELBCN@?$AAA?$AAu?$AAg@ 00000001801dd570     libucrt:nlsdata.obj
 0002:0000d578       ??_C@_17HCHCOKMG@?$AAS?$AAe?$AAp@ 00000001801dd578     libucrt:nlsdata.obj
 0002:0000d580       ??_C@_17FNLKOI@?$AAO?$AAc?$AAt@ 00000001801dd580     libucrt:nlsdata.obj
 0002:0000d588       ??_C@_17BBDMLCIG@?$AAN?$AAo?$AAv@ 00000001801dd588     libucrt:nlsdata.obj
 0002:0000d590       ??_C@_17EGKACKIF@?$AAD?$AAe?$AAc@ 00000001801dd590     libucrt:nlsdata.obj
 0002:0000d598       ??_C@_1BA@EFMEIEBA@?$AAJ?$AAa?$AAn?$AAu?$AAa?$AAr?$AAy@ 00000001801dd598     libucrt:nlsdata.obj
 0002:0000d5a8       ??_C@_1BC@JGDDFFAM@?$AAF?$AAe?$AAb?$AAr?$AAu?$AAa?$AAr?$AAy@ 00000001801dd5a8     libucrt:nlsdata.obj
 0002:0000d5c0       ??_C@_1M@IKEENEDF@?$AAM?$AAa?$AAr?$AAc?$AAh@ 00000001801dd5c0     libucrt:nlsdata.obj
 0002:0000d5d0       ??_C@_1M@GJNLMHFD@?$AAA?$AAp?$AAr?$AAi?$AAl@ 00000001801dd5d0     libucrt:nlsdata.obj
 0002:0000d5e0       ??_C@_19EPFLPGAP@?$AAJ?$AAu?$AAn?$AAe@ 00000001801dd5e0     libucrt:nlsdata.obj
 0002:0000d5f0       ??_C@_19BIFMLPCD@?$AAJ?$AAu?$AAl?$AAy@ 00000001801dd5f0     libucrt:nlsdata.obj
 0002:0000d600       ??_C@_1O@PAHLKOAC@?$AAA?$AAu?$AAg?$AAu?$AAs?$AAt@ 00000001801dd600     libucrt:nlsdata.obj
 0002:0000d610       ??_C@_1BE@DKAAMBJL@?$AAS?$AAe?$AAp?$AAt?$AAe?$AAm?$AAb?$AAe?$AAr@ 00000001801dd610     libucrt:nlsdata.obj
 0002:0000d628       ??_C@_1BA@EPANDLNG@?$AAO?$AAc?$AAt?$AAo?$AAb?$AAe?$AAr@ 00000001801dd628     libucrt:nlsdata.obj
 0002:0000d638       ??_C@_1BC@BGLIFPF@?$AAN?$AAo?$AAv?$AAe?$AAm?$AAb?$AAe?$AAr@ 00000001801dd638     libucrt:nlsdata.obj
 0002:0000d650       ??_C@_1BC@FEMKIFH@?$AAD?$AAe?$AAc?$AAe?$AAm?$AAb?$AAe?$AAr@ 00000001801dd650     libucrt:nlsdata.obj
 0002:0000d664       ??_C@_15ODEHAHHF@?$AAA?$AAM@ 00000001801dd664     libucrt:nlsdata.obj
 0002:0000d66c       ??_C@_15CLMNNGEL@?$AAP?$AAM@ 00000001801dd66c     libucrt:nlsdata.obj
 0002:0000d678       ??_C@_1BC@IEBCMHCM@?$AAM?$AAM?$AA?1?$AAd?$AAd?$AA?1?$AAy?$AAy@ 00000001801dd678     libucrt:nlsdata.obj
 0002:0000d690       ??_C@_1CI@KNAKOEBC@?$AAd?$AAd?$AAd?$AAd?$AA?0?$AA?5?$AAM?$AAM?$AAM?$AAM?$AA?5?$AAd?$AAd?$AA?0?$AA?5@ 00000001801dd690     libucrt:nlsdata.obj
 0002:0000d6b8       ??_C@_1BC@GDGBMEMK@?$AAH?$AAH?$AA?3?$AAm?$AAm?$AA?3?$AAs?$AAs@ 00000001801dd6b8     libucrt:nlsdata.obj
 0002:0000d6d0       ??_C@_1M@BMHNFIME@?$AAe?$AAn?$AA?9?$AAU?$AAS@ 00000001801dd6d0     libucrt:nlsdata.obj
 0002:0000d6e0       __two_to_jby64_table       00000001801dd6e0     libucrt:two_to_jby64_table.obj
 0002:0000d8e0       __log_F_inv_qword          00000001801dd8e0     libucrt:log_f_inv_qword_table.obj
 0002:0000e0f0       ??_C@_04MBFDLNIM@powf@     00000001801de0f0     libucrt:pow_special.obj
 0002:0000e118       ??_C@_1M@HPNHIDJI@?$AAj?$AAa?$AA?9?$AAJ?$AAP@ 00000001801de118     libucrt:mbctype.obj
 0002:0000e128       ??_C@_1M@BIBDDEMK@?$AAz?$AAh?$AA?9?$AAC?$AAN@ 00000001801de128     libucrt:mbctype.obj
 0002:0000e138       ??_C@_1M@JLOOOEGK@?$AAk?$AAo?$AA?9?$AAK?$AAR@ 00000001801de138     libucrt:mbctype.obj
 0002:0000e148       ??_C@_1M@CLNBBOPM@?$AAz?$AAh?$AA?9?$AAT?$AAW@ 00000001801de148     libucrt:mbctype.obj
 0002:0000e160       __newctype                 00000001801de160     libucrt:ctype.obj
 0002:0000e460       __newclmap                 00000001801de460     libucrt:ctype.obj
 0002:0000e5e0       __newcumap                 00000001801de5e0     libucrt:ctype.obj
 0002:0000f5b0       ??_C@_15EMKDOKLE@?$AAa?$AAr@ 00000001801df5b0     libucrt:lcidtoname_downlevel.obj
 0002:0000f5b8       ??_C@_15KNPADPLH@?$AAb?$AAg@ 00000001801df5b8     libucrt:lcidtoname_downlevel.obj
 0002:0000f5c0       ??_C@_15EDMHLDMO@?$AAc?$AAa@ 00000001801df5c0     libucrt:lcidtoname_downlevel.obj
 0002:0000f5c8       ??_C@_1O@BPEAJADD@?$AAz?$AAh?$AA?9?$AAC?$AAH?$AAS@ 00000001801df5c8     libucrt:lcidtoname_downlevel.obj
 0002:0000f5d8       ??_C@_15LJNHCMNK@?$AAc?$AAs@ 00000001801df5d8     libucrt:lcidtoname_downlevel.obj
 0002:0000f5e0       ??_C@_15FOMCIDHG@?$AAd?$AAa@ 00000001801df5e0     libucrt:lcidtoname_downlevel.obj
 0002:0000f5e8       ??_C@_15NBKABECB@?$AAd?$AAe@ 00000001801df5e8     libucrt:lcidtoname_downlevel.obj
 0002:0000f5f0       ??_C@_15GHPEIIAO@?$AAe?$AAl@ 00000001801df5f0     libucrt:lcidtoname_downlevel.obj
 0002:0000f5f8       ??_C@_15MNPNEAIF@?$AAe?$AAn@ 00000001801df5f8     libucrt:lcidtoname_downlevel.obj
 0002:0000f600       ??_C@_15GPIOMPMH@?$AAe?$AAs@ 00000001801df600     libucrt:lcidtoname_downlevel.obj
 0002:0000f608       ??_C@_15NGLOAKJC@?$AAf?$AAi@ 00000001801df608     libucrt:lcidtoname_downlevel.obj
 0002:0000f610       ??_C@_15FBKGNKAM@?$AAf?$AAr@ 00000001801df610     libucrt:lcidtoname_downlevel.obj
 0002:0000f618       ??_C@_15KGGCNEFK@?$AAh?$AAe@ 00000001801df618     libucrt:lcidtoname_downlevel.obj
 0002:0000f620       ??_C@_15PGHLIDMF@?$AAh?$AAu@ 00000001801df620     libucrt:lcidtoname_downlevel.obj
 0002:0000f628       ??_C@_15BIEMAPLM@?$AAi?$AAs@ 00000001801df628     libucrt:lcidtoname_downlevel.obj
