 NvCloth_x64

 Timestamp is 64f75521 (Wed Sep  6 01:19:45 2023)

 Preferred load address is 0000000180000000

 Start         Length     Name                   Class
 0001:00000000 00000140H .text$di                CODE
 0001:00000140 0009c1a0H .text$mn                CODE
 0001:0009c2e0 00000020H .text$mn$00             CODE
 0001:0009c300 00000660H .text$x                 CODE
 0002:00000000 00000298H .idata$5                DATA
 0002:00000298 00000010H .00cfg                  DATA
 0002:000002a8 00000008H .CRT$XCA                DATA
 0002:000002b0 00000068H .CRT$XCU                DATA
 0002:00000318 00000008H .CRT$XCZ                DATA
 0002:00000320 00000008H .CRT$XIA                DATA
 0002:00000328 00000018H .CRT$XIC                DATA
 0002:00000340 00000008H .CRT$XIZ                DATA
 0002:00000348 00000008H .CRT$XPA                DATA
 0002:00000350 00000010H .CRT$XPX                DATA
 0002:00000360 00000008H .CRT$XPXA               DATA
 0002:00000368 00000008H .CRT$XPZ                DATA
 0002:00000370 00000008H .CRT$XTA                DATA
 0002:00000378 00000008H .CRT$XTZ                DATA
 0002:00000380 00031c88H .rdata                  DATA
 0002:00032008 000004ecH .rdata$r                DATA
 0002:000324f4 00000374H .rdata$zzzdbg           DATA
 0002:00032868 00000008H .rtc$IAA                DATA
 0002:00032870 00000008H .rtc$IZZ                DATA
 0002:00032878 00000008H .rtc$TAA                DATA
 0002:00032880 00000008H .rtc$TZZ                DATA
 0002:00032888 0000a5c0H .xdata                  DATA
 0002:0003ce48 000000f8H .xdata$x                DATA
 0002:0003cf40 000008a0H .edata                  DATA
 0002:0003d7e0 00000014H .idata$2                DATA
 0002:0003d7f4 00000014H .idata$3                DATA
 0002:0003d808 00000298H .idata$4                DATA
 0002:0003daa0 00000624H .idata$6                DATA
 0003:00000000 00000b10H .data                   DATA
 0003:00000b10 00000170H .data$r                 DATA
 0003:00000c80 00001c78H .bss                    DATA
 0004:00000000 00007ff8H .pdata                  DATA
 0005:00000000 00000174H .gfids$y                DATA
 0006:00000000 00000018H .gehcont$y              DATA
 0007:00000000 00000060H .rsrc$01                DATA
 0007:00000060 00000180H .rsrc$02                DATA

  Address         Publics by Value              Rva+Base               Lib:Object

 0000:00000000       __guard_iat_table          0000000000000000     <absolute>
 0000:00000000       __guard_fids_table         0000000000000000     <absolute>
 0000:00000000       __guard_longjmp_table      0000000000000000     <absolute>
 0000:00000000       __guard_iat_count          0000000000000000     <absolute>
 0000:00000000       __guard_longjmp_count      0000000000000000     <absolute>
 0000:00000000       __dynamic_value_reloc_table 0000000000000000     <absolute>
 0000:00000000       ___safe_se_handler_count   0000000000000000     <absolute>
 0000:00000000       __guard_fids_count         0000000000000000     <absolute>
 0000:00000000       ___safe_se_handler_table   0000000000000000     <absolute>
 0000:00000100       __guard_flags              0000000000000100     <absolute>
 0000:00000000       __ImageBase                0000000180000000     <linker-defined>
 0001:00000140       ?selectMin@intrinsics@physx@@YAMMM@Z 0000000180001140 f i DxCloth.obj
 0001:00000150       ?selectMax@intrinsics@physx@@YAMMM@Z 0000000180001150 f i DxCloth.obj
 0001:00000160       ??2@YAPEAX_KPEAX@Z         0000000180001160 f i DxCloth.obj
 0001:00000170       ??0Allocator@ps@cloth@nv@@QEAA@PEBD@Z 0000000180001170 f i DxCloth.obj
 0001:00000180       ??4Allocator@ps@cloth@nv@@QEAAAEAV0123@AEBV0123@@Z 0000000180001180 f i DxCloth.obj
 0001:00000190       ??4Allocator@ps@cloth@nv@@QEAAAEAV0123@$$QEAV0123@@Z 0000000180001190 f i DxCloth.obj
 0001:000001a0       ??_FAllocator@ps@cloth@nv@@QEAAXXZ 00000001800011a0 f i DxCloth.obj
 0001:000001b0       ??0NonTrackingAllocator@ps@cloth@nv@@QEAA@PEBD@Z 00000001800011b0 f i DxCloth.obj
 0001:000001c0       ?allocate@NonTrackingAllocator@ps@cloth@nv@@QEAAPEAX_KPEBDH@Z 00000001800011c0 f i DxCloth.obj
 0001:00000200       ?deallocate@NonTrackingAllocator@ps@cloth@nv@@QEAAXPEAX@Z 0000000180001200 f i DxCloth.obj
 0001:00000220       ??3UserAllocated@cloth@nv@@SAXPEAX@Z 0000000180001220 f i DxCloth.obj
 0001:00000240       ??0MovingAverage@cloth@nv@@QEAA@I@Z 0000000180001240 f i DxCloth.obj
 0001:00000290       ??4MovingAverage@cloth@nv@@QEAAAEAU012@AEBU012@@Z 0000000180001290 f i DxCloth.obj
 0001:00000320       ??1MovingAverage@cloth@nv@@QEAA@XZ 0000000180001320 f i DxCloth.obj
 0001:00000340       ?size@MovingAverage@cloth@nv@@QEBAIXZ 0000000180001340 f i DxCloth.obj
 0001:00000350       ?resize@MovingAverage@cloth@nv@@QEAAXI@Z 0000000180001350 f i DxCloth.obj
 0001:00000490       ?reset@MovingAverage@cloth@nv@@QEAAXXZ 0000000180001490 f i DxCloth.obj
 0001:000004a0       ??$PxMax@M@physx@@YAMMM@Z  00000001800014a0 f i DxCloth.obj
 0001:000004b0       ??$PxMin@M@physx@@YAMMM@Z  00000001800014b0 f i DxCloth.obj
 0001:000004c0       ??0PxVec3@physx@@QEAA@XZ   00000001800014c0 f i DxCloth.obj
 0001:000004d0       ??0PxVec3@physx@@QEAA@W4PxZERO@1@@Z 00000001800014d0 f i DxCloth.obj
 0001:000004e0       ??0PxVec3@physx@@QEAA@M@Z  00000001800014e0 f i DxCloth.obj
 0001:00000500       ??0PxVec3@physx@@QEAA@MMM@Z 0000000180001500 f i DxCloth.obj
 0001:00000520       ??0PxVec3@physx@@QEAA@AEBV01@@Z 0000000180001520 f i DxCloth.obj
 0001:00000540       ??4PxVec3@physx@@QEAAAEAV01@AEBV01@@Z 0000000180001540 f i DxCloth.obj
 0001:00000560       ??8PxVec3@physx@@QEBA_NAEBV01@@Z 0000000180001560 f i DxCloth.obj
 0001:00000590       ?magnitudeSquared@PxVec3@physx@@QEBAMXZ 0000000180001590 f i DxCloth.obj
 0001:000005c0       ??GPxVec3@physx@@QEBA?AV01@AEBV01@@Z 00000001800015c0 f i DxCloth.obj
 0001:00000600       ??YPxVec3@physx@@QEAAAEAV01@AEBV01@@Z 0000000180001600 f i DxCloth.obj
 0001:00000630       ??0PxVec4@physx@@QEAA@XZ   0000000180001630 f i DxCloth.obj
 0001:00000640       ??0PxVec4@physx@@QEAA@M@Z  0000000180001640 f i DxCloth.obj
 0001:00000650       ??0PxVec4@physx@@QEAA@MMMM@Z 0000000180001650 f i DxCloth.obj
 0001:00000670       ??0PxVec4@physx@@QEAA@AEBV01@@Z 0000000180001670 f i DxCloth.obj
 0001:00000690       ??4PxVec4@physx@@QEAAAEAV01@AEBV01@@Z 0000000180001690 f i DxCloth.obj
 0001:000006b0       ??GPxVec4@physx@@QEBA?AV01@XZ 00000001800016b0 f i DxCloth.obj
 0001:000006d0       ??HPxVec4@physx@@QEBA?AV01@AEBV01@@Z 00000001800016d0 f i DxCloth.obj
 0001:000006f0       ??GPxVec4@physx@@QEBA?AV01@AEBV01@@Z 00000001800016f0 f i DxCloth.obj
 0001:00000710       ??DPxVec4@physx@@QEBA?AV01@M@Z 0000000180001710 f i DxCloth.obj
 0001:00000730       ?minimum@PxVec4@physx@@QEBA?AV12@AEBV12@@Z 0000000180001730 f i DxCloth.obj
 0001:00000780       ?maximum@PxVec4@physx@@QEBA?AV12@AEBV12@@Z 0000000180001780 f i DxCloth.obj
 0001:000007d0       ??0Simd4fScalarFactory@cloth@nv@@QEAA@AEBM@Z 00000001800017d0 f i DxCloth.obj
 0001:000007e0       ??0Simd4fTupleFactory@cloth@nv@@QEAA@IIII@Z 00000001800017e0 f i DxCloth.obj
 0001:00000800       ?simd4f@cloth@nv@@YA?AUSimd4fScalarFactory@12@AEBM@Z 0000000180001800 f i DxCloth.obj
 0001:00000810       ??0Simd4iScalarFactory@cloth@nv@@QEAA@AEBH@Z 0000000180001810 f i DxCloth.obj
 0001:00000820       ?simd4i@cloth@nv@@YA?AUSimd4iScalarFactory@12@AEBH@Z 0000000180001820 f i DxCloth.obj
 0001:00000830       ??0CD3D11_BOX@@QEAA@JJJJJJ@Z 0000000180001830 f i DxCloth.obj
 0001:00000860       ??1CD3D11_BOX@@QEAA@XZ     0000000180001860 f i DxCloth.obj
 0001:00000870       ??0CD3D11_BUFFER_DESC@@QEAA@IIW4D3D11_USAGE@@III@Z 0000000180001870 f i DxCloth.obj
 0001:000008a0       ??1CD3D11_BUFFER_DESC@@QEAA@XZ 00000001800018a0 f i DxCloth.obj
 0001:000008b0       ?isRawBuffer@DxBufferFlags@cloth@nv@@QEAA_NXZ 00000001800018b0 f i DxCloth.obj
 0001:000008c0       ??0PxQuat@physx@@QEAA@XZ   00000001800018c0 f i DxCloth.obj
 0001:000008d0       ??0PxQuat@physx@@QEAA@W4PxIDENTITY@1@@Z 00000001800018d0 f i DxCloth.obj
 0001:000008f0       ??0PxQuat@physx@@QEAA@MMMM@Z 00000001800018f0 f i DxCloth.obj
 0001:00000910       ?magnitudeSquared@PxQuat@physx@@QEBAMXZ 0000000180001910 f i DxCloth.obj
 0001:00000940       ??4PxQuat@physx@@QEAAAEAV01@AEBV01@@Z 0000000180001940 f i DxCloth.obj
 0001:00000960       ??GPxQuat@physx@@QEBA?AV01@AEBV01@@Z 0000000180001960 f i DxCloth.obj
 0001:00000980       ??0PxTransform@physx@@QEAA@XZ 0000000180001980 f i DxCloth.obj
 0001:00000990       ??0PxTransform@physx@@QEAA@W4PxIDENTITY@1@@Z 0000000180001990 f i DxCloth.obj
 0001:000009b0       ??4PxTransform@physx@@QEAAAEAV01@$$QEAV01@@Z 00000001800019b0 f i DxCloth.obj
 0001:000009e0       ?incRefCount@Fabric@cloth@nv@@QEAAXXZ 00000001800019e0 f i DxCloth.obj
 0001:000009f0       ?decRefCount@Fabric@cloth@nv@@QEAA_NXZ 00000001800019f0 f i DxCloth.obj
 0001:00000a20       ??0Cloth@cloth@nv@@IEAA@XZ 0000000180001a20 f i DxCloth.obj
 0001:00000a30       ??1Cloth@cloth@nv@@UEAA@XZ 0000000180001a30 f i DxCloth.obj
 0001:00000a40       ??_ECloth@cloth@nv@@UEAAPEAXI@Z 0000000180001a40 f i * CIL library *:* CIL module *
 0001:00000a40       ??_GCloth@cloth@nv@@UEAAPEAXI@Z 0000000180001a40 f i DxCloth.obj
 0001:00000a90       ?exp2@ps@cloth@nv@@YAMM@Z  0000000180001a90 f i DxCloth.obj
 0001:00000aa0       ?log2@ps@cloth@nv@@YAMM@Z  0000000180001aa0 f i DxCloth.obj
 0001:00000ac0       ?safeLog2@cloth@nv@@YAMM@Z 0000000180001ac0 f i DxCloth.obj
 0001:00000af0       ?safeLog2@cloth@nv@@YA?AVPxVec3@physx@@AEBV34@@Z 0000000180001af0 f i DxCloth.obj
 0001:00000bc0       ?safeExp2@cloth@nv@@YAMM@Z 0000000180001bc0 f i DxCloth.obj
 0001:00000be0       ?safeExp2@cloth@nv@@YA?AVPxVec3@physx@@AEBV34@@Z 0000000180001be0 f i DxCloth.obj
 0001:00000ca0       ?updateIndex@cloth@nv@@YA_NAEAIIH@Z 0000000180001ca0 f i DxCloth.obj
 0001:00000cc0       ??0DxConstraints@cloth@nv@@QEAA@AEAV?$DxBatchedStorage@VPxVec4@physx@@@12@@Z 0000000180001cc0 f i DxCloth.obj
 0001:00000d90       ?pop@DxConstraints@cloth@nv@@QEAAXXZ 0000000180001d90 f i DxCloth.obj
 0001:00000dd0       ??4TripletSchedulerTestInterface@cloth@nv@@QEAAAEAU012@AEBU012@@Z 0000000180001dd0 f i DxCloth.obj
 0001:00000de0       ??_EDxCloth@cloth@nv@@UEAAPEAXI@Z 0000000180001de0 f i * CIL library *:* CIL module *
 0001:00000de0       ??_GDxCloth@cloth@nv@@UEAAPEAXI@Z 0000000180001de0 f i DxCloth.obj
 0001:00000e40       ??1?$ClothImpl@VDxCloth@cloth@nv@@@cloth@nv@@UEAA@XZ 0000000180001e40 f i DxCloth.obj
 0001:00000e70       ??1DxConstraints@cloth@nv@@QEAA@XZ 0000000180001e70 f i DxCloth.obj
 0001:00000ec0       ??0DxConstraints@cloth@nv@@QEAA@AEBU012@@Z 0000000180001ec0 f i DxCloth.obj
 0001:00000f00       ??1TripletScheduler@cloth@nv@@QEAA@XZ 0000000180001f00 f i DxCloth.obj
 0001:00000f80       ?__empty_global_delete@@YAXPEAX@Z 0000000180001f80 f i DxCloth.obj
 0001:00000f90       ?__empty_global_delete@@YAXPEAX_K@Z 0000000180001f90 f i DxCloth.obj
 0001:00000fa0       ?reserve@?$Array@UDxPhaseConfig@cloth@nv@@VNonTrackingAllocator@ps@23@@ps@cloth@nv@@QEAAXI@Z 0000000180001fa0 f i DxCloth.obj
 0001:00000fb0       ?pushBack@?$Array@UDxPhaseConfig@cloth@nv@@VNonTrackingAllocator@ps@23@@ps@cloth@nv@@QEAAAEAUDxPhaseConfig@34@AEBU534@@Z 0000000180001fb0 f i DxCloth.obj
 0001:00001010       ?size@?$Array@UDxPhaseConfig@cloth@nv@@VNonTrackingAllocator@ps@23@@ps@cloth@nv@@QEBAIXZ 0000000180002010 f i DxCloth.obj
 0001:00001020       ?begin@?$Array@UDxPhaseConfig@cloth@nv@@VNonTrackingAllocator@ps@23@@ps@cloth@nv@@QEAAPEAUDxPhaseConfig@34@XZ 0000000180002020 f i DxCloth.obj
 0001:00001030       ??1?$Array@UDxPhaseConfig@cloth@nv@@VNonTrackingAllocator@ps@23@@ps@cloth@nv@@QEAA@XZ 0000000180002030 f i DxCloth.obj
 0001:00001060       ??0?$Array@UDxPhaseConfig@cloth@nv@@VNonTrackingAllocator@ps@23@@ps@cloth@nv@@QEAA@AEBVNonTrackingAllocator@123@@Z 0000000180002060 f i DxCloth.obj
 0001:00001070       ?reserve@?$Array@U?$Vec4T@G@cloth@nv@@VNonTrackingAllocator@ps@23@@ps@cloth@nv@@QEAAXI@Z 0000000180002070 f i DxCloth.obj
 0001:00001080       ?pushBack@?$Array@U?$Vec4T@G@cloth@nv@@VNonTrackingAllocator@ps@23@@ps@cloth@nv@@QEAAAEAU?$Vec4T@G@34@AEBU534@@Z 0000000180002080 f i DxCloth.obj
 0001:000010c0       ??1?$Array@U?$Vec4T@G@cloth@nv@@VNonTrackingAllocator@ps@23@@ps@cloth@nv@@QEAA@XZ 00000001800020c0 f i DxCloth.obj
 0001:000010f0       ??0?$Array@U?$Vec4T@G@cloth@nv@@VNonTrackingAllocator@ps@23@@ps@cloth@nv@@QEAA@AEBVNonTrackingAllocator@123@@Z 00000001800020f0 f i DxCloth.obj
 0001:00001100       ?end@?$Array@U?$Vec4T@I@cloth@nv@@VNonTrackingAllocator@ps@23@@ps@cloth@nv@@QEAAPEAU?$Vec4T@I@34@XZ 0000000180002100 f i DxCloth.obj
 0001:00001110       ?begin@?$Array@U?$Vec4T@I@cloth@nv@@VNonTrackingAllocator@ps@23@@ps@cloth@nv@@QEAAPEAU?$Vec4T@I@34@XZ 0000000180002110 f i DxCloth.obj
 0001:00001120       ?begin@?$Array@U?$Vec4T@I@cloth@nv@@VNonTrackingAllocator@ps@23@@ps@cloth@nv@@QEBAPEBU?$Vec4T@I@34@XZ 0000000180002120 f i DxCloth.obj
 0001:00001130       ??1?$Array@U?$Vec4T@I@cloth@nv@@VNonTrackingAllocator@ps@23@@ps@cloth@nv@@QEAA@XZ 0000000180002130 f i DxCloth.obj
 0001:00001160       ?assign@?$Array@UPhaseConfig@cloth@nv@@VNonTrackingAllocator@ps@23@@ps@cloth@nv@@QEAAXPEBUPhaseConfig@34@0@Z 0000000180002160 f i DxCloth.obj
 0001:000011d0       ?reserve@?$Array@UPhaseConfig@cloth@nv@@VNonTrackingAllocator@ps@23@@ps@cloth@nv@@QEAAXI@Z 00000001800021d0 f i DxCloth.obj
 0001:000011e0       ?pushBack@?$Array@UPhaseConfig@cloth@nv@@VNonTrackingAllocator@ps@23@@ps@cloth@nv@@QEAAAEAUPhaseConfig@34@AEBU534@@Z 00000001800021e0 f i DxCloth.obj
 0001:00001230       ?size@?$Array@UPhaseConfig@cloth@nv@@VNonTrackingAllocator@ps@23@@ps@cloth@nv@@QEBAIXZ 0000000180002230 f i DxCloth.obj
 0001:00001240       ?begin@?$Array@UPhaseConfig@cloth@nv@@VNonTrackingAllocator@ps@23@@ps@cloth@nv@@QEAAPEAUPhaseConfig@34@XZ 0000000180002240 f i DxCloth.obj
 0001:00001250       ??1?$Array@UPhaseConfig@cloth@nv@@VNonTrackingAllocator@ps@23@@ps@cloth@nv@@QEAA@XZ 0000000180002250 f i DxCloth.obj
 0001:00001280       ??0?$Array@UPhaseConfig@cloth@nv@@VNonTrackingAllocator@ps@23@@ps@cloth@nv@@QEAA@AEBV0123@AEBVNonTrackingAllocator@123@@Z 0000000180002280 f i DxCloth.obj
 0001:000012a0       ??0?$Array@UPhaseConfig@cloth@nv@@VNonTrackingAllocator@ps@23@@ps@cloth@nv@@QEAA@AEBVNonTrackingAllocator@123@@Z 00000001800022a0 f i DxCloth.obj
 0001:000012b0       ??0?$ClothImpl@VDxCloth@cloth@nv@@@cloth@nv@@QEAA@XZ 00000001800022b0 f i DxCloth.obj
 0001:00001310       ?swap@?$Array@VPxVec4@physx@@VNonTrackingAllocator@ps@cloth@nv@@@ps@cloth@nv@@QEAAXAEAV1234@@Z 0000000180002310 f i DxCloth.obj
 0001:00001340       ?capacity@?$Array@VPxVec4@physx@@VNonTrackingAllocator@ps@cloth@nv@@@ps@cloth@nv@@QEBAIXZ 0000000180002340 f i DxCloth.obj
 0001:00001350       ?reserve@?$Array@VPxVec4@physx@@VNonTrackingAllocator@ps@cloth@nv@@@ps@cloth@nv@@QEAAXI@Z 0000000180002350 f i DxCloth.obj
 0001:00001360       ?pushBack@?$Array@VPxVec4@physx@@VNonTrackingAllocator@ps@cloth@nv@@@ps@cloth@nv@@QEAAAEAVPxVec4@physx@@AEBV56@@Z 0000000180002360 f i DxCloth.obj
 0001:000013b0       ?empty@?$Array@VPxVec4@physx@@VNonTrackingAllocator@ps@cloth@nv@@@ps@cloth@nv@@QEBA_NXZ 00000001800023b0 f i DxCloth.obj
 0001:000013c0       ?size@?$Array@VPxVec4@physx@@VNonTrackingAllocator@ps@cloth@nv@@@ps@cloth@nv@@QEBAIXZ 00000001800023c0 f i DxCloth.obj
 0001:000013d0       ?front@?$Array@VPxVec4@physx@@VNonTrackingAllocator@ps@cloth@nv@@@ps@cloth@nv@@QEAAAEAVPxVec4@physx@@XZ 00000001800023d0 f i DxCloth.obj
 0001:000013e0       ?end@?$Array@VPxVec4@physx@@VNonTrackingAllocator@ps@cloth@nv@@@ps@cloth@nv@@QEAAPEAVPxVec4@physx@@XZ 00000001800023e0 f i DxCloth.obj
 0001:000013f0       ?begin@?$Array@VPxVec4@physx@@VNonTrackingAllocator@ps@cloth@nv@@@ps@cloth@nv@@QEAAPEAVPxVec4@physx@@XZ 00000001800023f0 f i DxCloth.obj
 0001:00001400       ??1?$Array@VPxVec4@physx@@VNonTrackingAllocator@ps@cloth@nv@@@ps@cloth@nv@@QEAA@XZ 0000000180002400 f i DxCloth.obj
 0001:00001430       ??0?$Array@VPxVec4@physx@@VNonTrackingAllocator@ps@cloth@nv@@@ps@cloth@nv@@QEAA@AEBV0123@AEBVNonTrackingAllocator@123@@Z 0000000180002430 f i DxCloth.obj
 0001:00001450       ??0?$Array@VPxVec4@physx@@VNonTrackingAllocator@ps@cloth@nv@@@ps@cloth@nv@@QEAA@AEBVNonTrackingAllocator@123@@Z 0000000180002450 f i DxCloth.obj
 0001:00001460       ??1?$MappedRange@$$CBVPxVec4@physx@@@cloth@nv@@QEAA@XZ 0000000180002460 f i DxCloth.obj
 0001:00001470       ??1?$MappedRange@VPxVec4@physx@@@cloth@nv@@QEAA@XZ 0000000180002470 f i DxCloth.obj
 0001:00001480       ?assign@?$Array@IVNonTrackingAllocator@ps@cloth@nv@@@ps@cloth@nv@@QEAAXPEBI0@Z 0000000180002480 f i DxCloth.obj
 0001:000014e0       ?end@?$Array@IVNonTrackingAllocator@ps@cloth@nv@@@ps@cloth@nv@@QEBAPEBIXZ 00000001800024e0 f i DxCloth.obj
 0001:000014f0       ?begin@?$Array@IVNonTrackingAllocator@ps@cloth@nv@@@ps@cloth@nv@@QEBAPEBIXZ 00000001800024f0 f i DxCloth.obj
 0001:00001500       ??A?$Array@IVNonTrackingAllocator@ps@cloth@nv@@@ps@cloth@nv@@QEAAAEAII@Z 0000000180002500 f i DxCloth.obj
 0001:00001510       ??1?$Array@IVNonTrackingAllocator@ps@cloth@nv@@@ps@cloth@nv@@QEAA@XZ 0000000180002510 f i DxCloth.obj
 0001:00001540       ??0?$Array@IVNonTrackingAllocator@ps@cloth@nv@@@ps@cloth@nv@@QEAA@AEBVNonTrackingAllocator@123@@Z 0000000180002540 f i DxCloth.obj
 0001:00001550       ?size@?$DxBatchedVector@U?$Vec4T@G@cloth@nv@@@cloth@nv@@QEBAIXZ 0000000180002550 f i DxCloth.obj
 0001:00001560       ??0?$DxBatchedVector@U?$Vec4T@G@cloth@nv@@@cloth@nv@@QEAA@AEBV012@@Z 0000000180002560 f i DxCloth.obj
 0001:00001670       ??1?$DxBatchedVector@U?$Vec4T@G@cloth@nv@@@cloth@nv@@QEAA@XZ 0000000180002670 f i DxCloth.obj
 0001:00001680       ??0?$DxBatchedVector@U?$Vec4T@G@cloth@nv@@@cloth@nv@@QEAA@AEAV?$DxBatchedStorage@U?$Vec4T@G@cloth@nv@@@12@@Z 0000000180002680 f i DxCloth.obj
 0001:000016f0       ?size@?$DxBatchedVector@VPxVec3@physx@@@cloth@nv@@QEBAIXZ 00000001800026f0 f i DxCloth.obj
 0001:00001700       ??0?$DxBatchedVector@VPxVec3@physx@@@cloth@nv@@QEAA@AEBV012@@Z 0000000180002700 f i DxCloth.obj
 0001:00001810       ??1?$DxBatchedVector@VPxVec3@physx@@@cloth@nv@@QEAA@XZ 0000000180002810 f i DxCloth.obj
 0001:00001820       ??0?$DxBatchedVector@VPxVec3@physx@@@cloth@nv@@QEAA@AEAV?$DxBatchedStorage@VPxVec3@physx@@@12@@Z 0000000180002820 f i DxCloth.obj
 0001:00001890       ?assign@?$DxBatchedVector@I@cloth@nv@@QEAAXPEBI0@Z 0000000180002890 f i DxCloth.obj
 0001:000018b0       ?resize@?$DxBatchedVector@I@cloth@nv@@QEAAXI@Z 00000001800028b0 f i DxCloth.obj
 0001:000018d0       ?size@?$DxBatchedVector@I@cloth@nv@@QEBAIXZ 00000001800028d0 f i DxCloth.obj
 0001:000018e0       ?empty@?$DxBatchedVector@I@cloth@nv@@QEBA_NXZ 00000001800028e0 f i DxCloth.obj
 0001:000018f0       ??0?$DxBatchedVector@I@cloth@nv@@QEAA@AEBV012@@Z 00000001800028f0 f i DxCloth.obj
 0001:00001a00       ??1?$DxBatchedVector@I@cloth@nv@@QEAA@XZ 0000000180002a00 f i DxCloth.obj
 0001:00001a10       ??0?$DxBatchedVector@I@cloth@nv@@QEAA@AEAV?$DxBatchedStorage@I@12@@Z 0000000180002a10 f i DxCloth.obj
 0001:00001a80       ?size@?$DxBatchedVector@UIndexPair@cloth@nv@@@cloth@nv@@QEBAIXZ 0000000180002a80 f i DxCloth.obj
 0001:00001a90       ??0?$DxBatchedVector@UIndexPair@cloth@nv@@@cloth@nv@@QEAA@AEBV012@@Z 0000000180002a90 f i DxCloth.obj
 0001:00001ba0       ??1?$DxBatchedVector@UIndexPair@cloth@nv@@@cloth@nv@@QEAA@XZ 0000000180002ba0 f i DxCloth.obj
 0001:00001bb0       ??0?$DxBatchedVector@UIndexPair@cloth@nv@@@cloth@nv@@QEAA@AEAV?$DxBatchedStorage@UIndexPair@cloth@nv@@@12@@Z 0000000180002bb0 f i DxCloth.obj
 0001:00001c20       ?assign@?$DxBatchedVector@UDxPhaseConfig@cloth@nv@@@cloth@nv@@QEAAXPEBUDxPhaseConfig@23@0@Z 0000000180002c20 f i DxCloth.obj
 0001:00001c50       ?size@?$DxBatchedVector@UDxPhaseConfig@cloth@nv@@@cloth@nv@@QEBAIXZ 0000000180002c50 f i DxCloth.obj
 0001:00001c60       ??0?$DxBatchedVector@UDxPhaseConfig@cloth@nv@@@cloth@nv@@QEAA@AEBV012@@Z 0000000180002c60 f i DxCloth.obj
 0001:00001d70       ??1?$DxBatchedVector@UDxPhaseConfig@cloth@nv@@@cloth@nv@@QEAA@XZ 0000000180002d70 f i DxCloth.obj
 0001:00001d80       ??0?$DxBatchedVector@UDxPhaseConfig@cloth@nv@@@cloth@nv@@QEAA@AEAV?$DxBatchedStorage@UDxPhaseConfig@cloth@nv@@@12@@Z 0000000180002d80 f i DxCloth.obj
 0001:00001df0       ?clear@?$DxBatchedVector@VPxVec4@physx@@@cloth@nv@@QEAAXXZ 0000000180002df0 f i DxCloth.obj
 0001:00001e90       ?swap@?$DxBatchedVector@VPxVec4@physx@@@cloth@nv@@QEAAXAEAV123@@Z 0000000180002e90 f i DxCloth.obj
 0001:00001ec0       ?unmap@?$DxBatchedVector@VPxVec4@physx@@@cloth@nv@@QEAAXXZ 0000000180002ec0 f i DxCloth.obj
 0001:00001f00       ?map@?$DxBatchedVector@VPxVec4@physx@@@cloth@nv@@QEAAPEAVPxVec4@physx@@W4D3D11_MAP@@@Z 0000000180002f00 f i DxCloth.obj
 0001:00001f60       ?buffer@?$DxBatchedVector@VPxVec4@physx@@@cloth@nv@@QEBAPEAUID3D11Buffer@@XZ 0000000180002f60 f i DxCloth.obj
 0001:00001f70       ?resize@?$DxBatchedVector@VPxVec4@physx@@@cloth@nv@@QEAAXI@Z 0000000180002f70 f i DxCloth.obj
 0001:00001f90       ?reserve@?$DxBatchedVector@VPxVec4@physx@@@cloth@nv@@QEAAXI@Z 0000000180002f90 f i DxCloth.obj
 0001:00001fa0       ?size@?$DxBatchedVector@VPxVec4@physx@@@cloth@nv@@QEBAIXZ 0000000180002fa0 f i DxCloth.obj
 0001:00001fb0       ?empty@?$DxBatchedVector@VPxVec4@physx@@@cloth@nv@@QEBA_NXZ 0000000180002fb0 f i DxCloth.obj
 0001:00001fc0       ?capacity@?$DxBatchedVector@VPxVec4@physx@@@cloth@nv@@QEBAIXZ 0000000180002fc0 f i DxCloth.obj
 0001:00001fd0       ??4?$DxBatchedVector@VPxVec4@physx@@@cloth@nv@@QEAAAEAV012@AEBV012@@Z 0000000180002fd0 f i DxCloth.obj
 0001:00002080       ??0?$DxBatchedVector@VPxVec4@physx@@@cloth@nv@@QEAA@AEBV012@@Z 0000000180003080 f i DxCloth.obj
 0001:00002190       ??1?$DxBatchedVector@VPxVec4@physx@@@cloth@nv@@QEAA@XZ 0000000180003190 f i DxCloth.obj
 0001:000021a0       ??0?$DxBatchedVector@VPxVec4@physx@@@cloth@nv@@QEAA@AEAV?$DxBatchedStorage@VPxVec4@physx@@@12@@Z 00000001800031a0 f i DxCloth.obj
 0001:00002210       ??_E?$ClothImpl@VDxCloth@cloth@nv@@@cloth@nv@@UEAAPEAXI@Z 0000000180003210 f i * CIL library *:* CIL module *
 0001:00002210       ??_G?$ClothImpl@VDxCloth@cloth@nv@@@cloth@nv@@UEAAPEAXI@Z 0000000180003210 f i DxCloth.obj
 0001:00002290       ?grow@?$Array@UDxPhaseConfig@cloth@nv@@VNonTrackingAllocator@ps@23@@ps@cloth@nv@@IEAAXI@Z 0000000180003290 f i DxCloth.obj
 0001:000022a0       ?destroy@?$Array@UDxPhaseConfig@cloth@nv@@VNonTrackingAllocator@ps@23@@ps@cloth@nv@@KAXPEAUDxPhaseConfig@34@0@Z 00000001800032a0 f i DxCloth.obj
 0001:000022b0       ?deallocate@?$Array@UDxPhaseConfig@cloth@nv@@VNonTrackingAllocator@ps@23@@ps@cloth@nv@@IEAAXPEAX@Z 00000001800032b0 f i DxCloth.obj
 0001:000022d0       ?isInUserMemory@?$Array@UDxPhaseConfig@cloth@nv@@VNonTrackingAllocator@ps@23@@ps@cloth@nv@@QEBAIXZ 00000001800032d0 f i DxCloth.obj
 0001:000022e0       ?capacity@?$Array@UDxPhaseConfig@cloth@nv@@VNonTrackingAllocator@ps@23@@ps@cloth@nv@@QEBAIXZ 00000001800032e0 f i DxCloth.obj
 0001:000022f0       ?grow@?$Array@U?$Vec4T@G@cloth@nv@@VNonTrackingAllocator@ps@23@@ps@cloth@nv@@IEAAXI@Z 00000001800032f0 f i DxCloth.obj
 0001:00002300       ?destroy@?$Array@U?$Vec4T@G@cloth@nv@@VNonTrackingAllocator@ps@23@@ps@cloth@nv@@KAXPEAU?$Vec4T@G@34@0@Z 0000000180003300 f i DxCloth.obj
 0001:00002310       ?deallocate@?$Array@U?$Vec4T@G@cloth@nv@@VNonTrackingAllocator@ps@23@@ps@cloth@nv@@IEAAXPEAX@Z 0000000180003310 f i DxCloth.obj
 0001:00002330       ?isInUserMemory@?$Array@U?$Vec4T@G@cloth@nv@@VNonTrackingAllocator@ps@23@@ps@cloth@nv@@QEBAIXZ 0000000180003330 f i DxCloth.obj
 0001:00002340       ?capacity@?$Array@U?$Vec4T@G@cloth@nv@@VNonTrackingAllocator@ps@23@@ps@cloth@nv@@QEBAIXZ 0000000180003340 f i DxCloth.obj
 0001:00002350       ?destroy@?$Array@U?$Vec4T@I@cloth@nv@@VNonTrackingAllocator@ps@23@@ps@cloth@nv@@KAXPEAU?$Vec4T@I@34@0@Z 0000000180003350 f i DxCloth.obj
 0001:00002360       ?deallocate@?$Array@U?$Vec4T@I@cloth@nv@@VNonTrackingAllocator@ps@23@@ps@cloth@nv@@IEAAXPEAX@Z 0000000180003360 f i DxCloth.obj
 0001:00002380       ?isInUserMemory@?$Array@U?$Vec4T@I@cloth@nv@@VNonTrackingAllocator@ps@23@@ps@cloth@nv@@QEBAIXZ 0000000180003380 f i DxCloth.obj
 0001:00002390       ?capacity@?$Array@U?$Vec4T@I@cloth@nv@@VNonTrackingAllocator@ps@23@@ps@cloth@nv@@QEBAIXZ 0000000180003390 f i DxCloth.obj
 0001:000023a0       ?grow@?$Array@UPhaseConfig@cloth@nv@@VNonTrackingAllocator@ps@23@@ps@cloth@nv@@IEAAXI@Z 00000001800033a0 f i DxCloth.obj
 0001:000023b0       ?destroy@?$Array@UPhaseConfig@cloth@nv@@VNonTrackingAllocator@ps@23@@ps@cloth@nv@@KAXPEAUPhaseConfig@34@0@Z 00000001800033b0 f i DxCloth.obj
 0001:000023c0       ?copy@?$Array@UPhaseConfig@cloth@nv@@VNonTrackingAllocator@ps@23@@ps@cloth@nv@@KAXPEAUPhaseConfig@34@0PEBU534@@Z 00000001800033c0 f i DxCloth.obj
 0001:000023f0       ?deallocate@?$Array@UPhaseConfig@cloth@nv@@VNonTrackingAllocator@ps@23@@ps@cloth@nv@@IEAAXPEAX@Z 00000001800033f0 f i DxCloth.obj
 0001:00002410       ?isInUserMemory@?$Array@UPhaseConfig@cloth@nv@@VNonTrackingAllocator@ps@23@@ps@cloth@nv@@QEBAIXZ 0000000180003410 f i DxCloth.obj
 0001:00002420       ?capacity@?$Array@UPhaseConfig@cloth@nv@@VNonTrackingAllocator@ps@23@@ps@cloth@nv@@QEBAIXZ 0000000180003420 f i DxCloth.obj
 0001:00002430       ?end@?$Array@UPhaseConfig@cloth@nv@@VNonTrackingAllocator@ps@23@@ps@cloth@nv@@QEAAPEAUPhaseConfig@34@XZ 0000000180003430 f i DxCloth.obj
 0001:00002440       ?grow@?$Array@VPxVec4@physx@@VNonTrackingAllocator@ps@cloth@nv@@@ps@cloth@nv@@IEAAXI@Z 0000000180003440 f i DxCloth.obj
 0001:00002450       ?destroy@?$Array@VPxVec4@physx@@VNonTrackingAllocator@ps@cloth@nv@@@ps@cloth@nv@@KAXPEAVPxVec4@physx@@0@Z 0000000180003450 f i DxCloth.obj
 0001:00002460       ?deallocate@?$Array@VPxVec4@physx@@VNonTrackingAllocator@ps@cloth@nv@@@ps@cloth@nv@@IEAAXPEAX@Z 0000000180003460 f i DxCloth.obj
 0001:00002480       ?isInUserMemory@?$Array@VPxVec4@physx@@VNonTrackingAllocator@ps@cloth@nv@@@ps@cloth@nv@@QEBAIXZ 0000000180003480 f i DxCloth.obj
 0001:00002490       ?destroy@?$Array@IVNonTrackingAllocator@ps@cloth@nv@@@ps@cloth@nv@@KAXPEAI0@Z 0000000180003490 f i DxCloth.obj
 0001:000024a0       ?copy@?$Array@IVNonTrackingAllocator@ps@cloth@nv@@@ps@cloth@nv@@KAXPEAI0PEBI@Z 00000001800034a0 f i DxCloth.obj
 0001:000024c0       ?deallocate@?$Array@IVNonTrackingAllocator@ps@cloth@nv@@@ps@cloth@nv@@IEAAXPEAX@Z 00000001800034c0 f i DxCloth.obj
 0001:000024e0       ?isInUserMemory@?$Array@IVNonTrackingAllocator@ps@cloth@nv@@@ps@cloth@nv@@QEBAIXZ 00000001800034e0 f i DxCloth.obj
 0001:000024f0       ?capacity@?$Array@IVNonTrackingAllocator@ps@cloth@nv@@@ps@cloth@nv@@QEBAIXZ 00000001800034f0 f i DxCloth.obj
 0001:00002500       ?end@?$Array@IVNonTrackingAllocator@ps@cloth@nv@@@ps@cloth@nv@@QEAAPEAIXZ 0000000180003500 f i DxCloth.obj
 0001:00002510       ?begin@?$Array@IVNonTrackingAllocator@ps@cloth@nv@@@ps@cloth@nv@@QEAAPEAIXZ 0000000180003510 f i DxCloth.obj
 0001:00002520       ?context@?$DxBuffer@U?$Vec4T@G@cloth@nv@@@cloth@nv@@QEBAPEAUID3D11DeviceContext@@XZ 0000000180003520 f i DxCloth.obj
 0001:00002530       ?buffer@?$DxBatchedVector@U?$Vec4T@G@cloth@nv@@@cloth@nv@@QEBAPEAUID3D11Buffer@@XZ 0000000180003530 f i DxCloth.obj
 0001:00002540       ?remove@?$DxBatchedStorage@U?$Vec4T@G@cloth@nv@@@cloth@nv@@AEAAXPEAV?$DxBatchedVector@U?$Vec4T@G@cloth@nv@@@23@@Z 0000000180003540 f i DxCloth.obj
 0001:00002630       ?reserve@?$DxBatchedStorage@U?$Vec4T@G@cloth@nv@@@cloth@nv@@AEAAXPEAV?$DxBatchedVector@U?$Vec4T@G@cloth@nv@@@23@I@Z 0000000180003630 f i DxCloth.obj
 0001:000026d0       ?add@?$DxBatchedStorage@U?$Vec4T@G@cloth@nv@@@cloth@nv@@AEAAXPEAV?$DxBatchedVector@U?$Vec4T@G@cloth@nv@@@23@@Z 00000001800036d0 f i DxCloth.obj
 0001:00002740       ?context@?$DxBuffer@VPxVec3@physx@@@cloth@nv@@QEBAPEAUID3D11DeviceContext@@XZ 0000000180003740 f i DxCloth.obj
 0001:00002750       ?buffer@?$DxBatchedVector@VPxVec3@physx@@@cloth@nv@@QEBAPEAUID3D11Buffer@@XZ 0000000180003750 f i DxCloth.obj
 0001:00002760       ?remove@?$DxBatchedStorage@VPxVec3@physx@@@cloth@nv@@AEAAXPEAV?$DxBatchedVector@VPxVec3@physx@@@23@@Z 0000000180003760 f i DxCloth.obj
 0001:00002850       ?reserve@?$DxBatchedStorage@VPxVec3@physx@@@cloth@nv@@AEAAXPEAV?$DxBatchedVector@VPxVec3@physx@@@23@I@Z 0000000180003850 f i DxCloth.obj
 0001:000028f0       ?add@?$DxBatchedStorage@VPxVec3@physx@@@cloth@nv@@AEAAXPEAV?$DxBatchedVector@VPxVec3@physx@@@23@@Z 00000001800038f0 f i DxCloth.obj
 0001:00002960       ?context@?$DxBuffer@I@cloth@nv@@QEBAPEAUID3D11DeviceContext@@XZ 0000000180003960 f i DxCloth.obj
 0001:00002970       ?buffer@?$DxBatchedVector@I@cloth@nv@@QEBAPEAUID3D11Buffer@@XZ 0000000180003970 f i DxCloth.obj
 0001:00002980       ?remove@?$DxBatchedStorage@I@cloth@nv@@AEAAXPEAV?$DxBatchedVector@I@23@@Z 0000000180003980 f i DxCloth.obj
 0001:00002a70       ?assign@?$DxBatchedStorage@I@cloth@nv@@AEAAXPEAV?$DxBatchedVector@I@23@PEBII@Z 0000000180003a70 f i DxCloth.obj
 0001:00002b20       ?reserve@?$DxBatchedStorage@I@cloth@nv@@AEAAXPEAV?$DxBatchedVector@I@23@I@Z 0000000180003b20 f i DxCloth.obj
 0001:00002bc0       ?add@?$DxBatchedStorage@I@cloth@nv@@AEAAXPEAV?$DxBatchedVector@I@23@@Z 0000000180003bc0 f i DxCloth.obj
 0001:00002c30       ?context@?$DxBuffer@UIndexPair@cloth@nv@@@cloth@nv@@QEBAPEAUID3D11DeviceContext@@XZ 0000000180003c30 f i DxCloth.obj
 0001:00002c40       ?buffer@?$DxBatchedVector@UIndexPair@cloth@nv@@@cloth@nv@@QEBAPEAUID3D11Buffer@@XZ 0000000180003c40 f i DxCloth.obj
 0001:00002c50       ?remove@?$DxBatchedStorage@UIndexPair@cloth@nv@@@cloth@nv@@AEAAXPEAV?$DxBatchedVector@UIndexPair@cloth@nv@@@23@@Z 0000000180003c50 f i DxCloth.obj
 0001:00002d40       ?reserve@?$DxBatchedStorage@UIndexPair@cloth@nv@@@cloth@nv@@AEAAXPEAV?$DxBatchedVector@UIndexPair@cloth@nv@@@23@I@Z 0000000180003d40 f i DxCloth.obj
 0001:00002de0       ?add@?$DxBatchedStorage@UIndexPair@cloth@nv@@@cloth@nv@@AEAAXPEAV?$DxBatchedVector@UIndexPair@cloth@nv@@@23@@Z 0000000180003de0 f i DxCloth.obj
 0001:00002e50       ?context@?$DxBuffer@UDxPhaseConfig@cloth@nv@@@cloth@nv@@QEBAPEAUID3D11DeviceContext@@XZ 0000000180003e50 f i DxCloth.obj
 0001:00002e60       ?buffer@?$DxBatchedVector@UDxPhaseConfig@cloth@nv@@@cloth@nv@@QEBAPEAUID3D11Buffer@@XZ 0000000180003e60 f i DxCloth.obj
 0001:00002e70       ?remove@?$DxBatchedStorage@UDxPhaseConfig@cloth@nv@@@cloth@nv@@AEAAXPEAV?$DxBatchedVector@UDxPhaseConfig@cloth@nv@@@23@@Z 0000000180003e70 f i DxCloth.obj
 0001:00002f60       ?assign@?$DxBatchedStorage@UDxPhaseConfig@cloth@nv@@@cloth@nv@@AEAAXPEAV?$DxBatchedVector@UDxPhaseConfig@cloth@nv@@@23@PEBUDxPhaseConfig@23@I@Z 0000000180003f60 f i DxCloth.obj
 0001:00003010       ?reserve@?$DxBatchedStorage@UDxPhaseConfig@cloth@nv@@@cloth@nv@@AEAAXPEAV?$DxBatchedVector@UDxPhaseConfig@cloth@nv@@@23@I@Z 0000000180004010 f i DxCloth.obj
 0001:000030b0       ?add@?$DxBatchedStorage@UDxPhaseConfig@cloth@nv@@@cloth@nv@@AEAAXPEAV?$DxBatchedVector@UDxPhaseConfig@cloth@nv@@@23@@Z 00000001800040b0 f i DxCloth.obj
 0001:00003120       ?context@?$DxBuffer@VPxVec4@physx@@@cloth@nv@@QEBAPEAUID3D11DeviceContext@@XZ 0000000180004120 f i DxCloth.obj
 0001:00003130       ?unmap@?$DxBatchedStorage@VPxVec4@physx@@@cloth@nv@@AEAAXXZ 0000000180004130 f i DxCloth.obj
 0001:00003170       ?map@?$DxBatchedStorage@VPxVec4@physx@@@cloth@nv@@AEAAPEAVPxVec4@physx@@W4D3D11_MAP@@@Z 0000000180004170 f i DxCloth.obj
 0001:000031b0       ?remove@?$DxBatchedStorage@VPxVec4@physx@@@cloth@nv@@AEAAXPEAV?$DxBatchedVector@VPxVec4@physx@@@23@@Z 00000001800041b0 f i DxCloth.obj
 0001:000032a0       ?assign@?$DxBatchedStorage@VPxVec4@physx@@@cloth@nv@@AEAAXPEAV?$DxBatchedVector@VPxVec4@physx@@@23@PEBVPxVec4@physx@@I@Z 00000001800042a0 f i DxCloth.obj
 0001:00003350       ?reserve@?$DxBatchedStorage@VPxVec4@physx@@@cloth@nv@@AEAAXPEAV?$DxBatchedVector@VPxVec4@physx@@@23@I@Z 0000000180004350 f i DxCloth.obj
 0001:000033f0       ?add@?$DxBatchedStorage@VPxVec4@physx@@@cloth@nv@@AEAAXPEAV?$DxBatchedVector@VPxVec4@physx@@@23@@Z 00000001800043f0 f i DxCloth.obj
 0001:00003460       ?remove@?$Array@PEAV?$DxBatchedVector@U?$Vec4T@G@cloth@nv@@@cloth@nv@@VNonTrackingAllocator@ps@23@@ps@cloth@nv@@QEAAXI@Z 0000000180004460 f i DxCloth.obj
 0001:000034a0       ?pushBack@?$Array@PEAV?$DxBatchedVector@U?$Vec4T@G@cloth@nv@@@cloth@nv@@VNonTrackingAllocator@ps@23@@ps@cloth@nv@@QEAAAEAPEAV?$DxBatchedVector@U?$Vec4T@G@cloth@nv@@@34@AEBQEAV534@@Z 00000001800044a0 f i DxCloth.obj
 0001:000034e0       ?find@?$Array@PEAV?$DxBatchedVector@U?$Vec4T@G@cloth@nv@@@cloth@nv@@VNonTrackingAllocator@ps@23@@ps@cloth@nv@@QEAAPEAPEAV?$DxBatchedVector@U?$Vec4T@G@cloth@nv@@@34@AEBQEAV534@@Z 00000001800044e0 f i DxCloth.obj
 0001:00003510       ?begin@?$Array@PEAV?$DxBatchedVector@U?$Vec4T@G@cloth@nv@@@cloth@nv@@VNonTrackingAllocator@ps@23@@ps@cloth@nv@@QEAAPEAPEAV?$DxBatchedVector@U?$Vec4T@G@cloth@nv@@@34@XZ 0000000180004510 f i DxCloth.obj
 0001:00003520       ?update@?$DxBatchedStorage@U?$Vec4T@G@cloth@nv@@@cloth@nv@@AEAAXPEAV?$DxBatchedVector@U?$Vec4T@G@cloth@nv@@@23@H@Z 0000000180004520 f i DxCloth.obj
 0001:00003570       ?replace@?$DxBatchedStorage@U?$Vec4T@G@cloth@nv@@@cloth@nv@@AEAAXIIPEBU?$Vec4T@G@23@0@Z 0000000180004570 f i DxCloth.obj
 0001:00003830       ?remove@?$Array@PEAV?$DxBatchedVector@VPxVec3@physx@@@cloth@nv@@VNonTrackingAllocator@ps@23@@ps@cloth@nv@@QEAAXI@Z 0000000180004830 f i DxCloth.obj
 0001:00003870       ?pushBack@?$Array@PEAV?$DxBatchedVector@VPxVec3@physx@@@cloth@nv@@VNonTrackingAllocator@ps@23@@ps@cloth@nv@@QEAAAEAPEAV?$DxBatchedVector@VPxVec3@physx@@@34@AEBQEAV534@@Z 0000000180004870 f i DxCloth.obj
 0001:000038b0       ?find@?$Array@PEAV?$DxBatchedVector@VPxVec3@physx@@@cloth@nv@@VNonTrackingAllocator@ps@23@@ps@cloth@nv@@QEAAPEAPEAV?$DxBatchedVector@VPxVec3@physx@@@34@AEBQEAV534@@Z 00000001800048b0 f i DxCloth.obj
 0001:000038e0       ?begin@?$Array@PEAV?$DxBatchedVector@VPxVec3@physx@@@cloth@nv@@VNonTrackingAllocator@ps@23@@ps@cloth@nv@@QEAAPEAPEAV?$DxBatchedVector@VPxVec3@physx@@@34@XZ 00000001800048e0 f i DxCloth.obj
 0001:000038f0       ?update@?$DxBatchedStorage@VPxVec3@physx@@@cloth@nv@@AEAAXPEAV?$DxBatchedVector@VPxVec3@physx@@@23@H@Z 00000001800048f0 f i DxCloth.obj
 0001:00003940       ?replace@?$DxBatchedStorage@VPxVec3@physx@@@cloth@nv@@AEAAXIIPEBVPxVec3@physx@@0@Z 0000000180004940 f i DxCloth.obj
 0001:00003c20       ?remove@?$Array@PEAV?$DxBatchedVector@I@cloth@nv@@VNonTrackingAllocator@ps@23@@ps@cloth@nv@@QEAAXI@Z 0000000180004c20 f i DxCloth.obj
 0001:00003c60       ?pushBack@?$Array@PEAV?$DxBatchedVector@I@cloth@nv@@VNonTrackingAllocator@ps@23@@ps@cloth@nv@@QEAAAEAPEAV?$DxBatchedVector@I@34@AEBQEAV534@@Z 0000000180004c60 f i DxCloth.obj
 0001:00003ca0       ?find@?$Array@PEAV?$DxBatchedVector@I@cloth@nv@@VNonTrackingAllocator@ps@23@@ps@cloth@nv@@QEAAPEAPEAV?$DxBatchedVector@I@34@AEBQEAV534@@Z 0000000180004ca0 f i DxCloth.obj
 0001:00003cd0       ?begin@?$Array@PEAV?$DxBatchedVector@I@cloth@nv@@VNonTrackingAllocator@ps@23@@ps@cloth@nv@@QEAAPEAPEAV?$DxBatchedVector@I@34@XZ 0000000180004cd0 f i DxCloth.obj
 0001:00003ce0       ?update@?$DxBatchedStorage@I@cloth@nv@@AEAAXPEAV?$DxBatchedVector@I@23@H@Z 0000000180004ce0 f i DxCloth.obj
 0001:00003d30       ?replace@?$DxBatchedStorage@I@cloth@nv@@AEAAXIIPEBI0@Z 0000000180004d30 f i DxCloth.obj
 0001:00003ff0       ?remove@?$Array@PEAV?$DxBatchedVector@UIndexPair@cloth@nv@@@cloth@nv@@VNonTrackingAllocator@ps@23@@ps@cloth@nv@@QEAAXI@Z 0000000180004ff0 f i DxCloth.obj
 0001:00004030       ?pushBack@?$Array@PEAV?$DxBatchedVector@UIndexPair@cloth@nv@@@cloth@nv@@VNonTrackingAllocator@ps@23@@ps@cloth@nv@@QEAAAEAPEAV?$DxBatchedVector@UIndexPair@cloth@nv@@@34@AEBQEAV534@@Z 0000000180005030 f i DxCloth.obj
 0001:00004070       ?find@?$Array@PEAV?$DxBatchedVector@UIndexPair@cloth@nv@@@cloth@nv@@VNonTrackingAllocator@ps@23@@ps@cloth@nv@@QEAAPEAPEAV?$DxBatchedVector@UIndexPair@cloth@nv@@@34@AEBQEAV534@@Z 0000000180005070 f i DxCloth.obj
 0001:000040a0       ?begin@?$Array@PEAV?$DxBatchedVector@UIndexPair@cloth@nv@@@cloth@nv@@VNonTrackingAllocator@ps@23@@ps@cloth@nv@@QEAAPEAPEAV?$DxBatchedVector@UIndexPair@cloth@nv@@@34@XZ 00000001800050a0 f i DxCloth.obj
 0001:000040b0       ?update@?$DxBatchedStorage@UIndexPair@cloth@nv@@@cloth@nv@@AEAAXPEAV?$DxBatchedVector@UIndexPair@cloth@nv@@@23@H@Z 00000001800050b0 f i DxCloth.obj
 0001:00004100       ?replace@?$DxBatchedStorage@UIndexPair@cloth@nv@@@cloth@nv@@AEAAXIIPEBUIndexPair@23@0@Z 0000000180005100 f i DxCloth.obj
 0001:000042e0       ?remove@?$Array@PEAV?$DxBatchedVector@UDxPhaseConfig@cloth@nv@@@cloth@nv@@VNonTrackingAllocator@ps@23@@ps@cloth@nv@@QEAAXI@Z 00000001800052e0 f i DxCloth.obj
 0001:00004320       ?pushBack@?$Array@PEAV?$DxBatchedVector@UDxPhaseConfig@cloth@nv@@@cloth@nv@@VNonTrackingAllocator@ps@23@@ps@cloth@nv@@QEAAAEAPEAV?$DxBatchedVector@UDxPhaseConfig@cloth@nv@@@34@AEBQEAV534@@Z 0000000180005320 f i DxCloth.obj
 0001:00004360       ?find@?$Array@PEAV?$DxBatchedVector@UDxPhaseConfig@cloth@nv@@@cloth@nv@@VNonTrackingAllocator@ps@23@@ps@cloth@nv@@QEAAPEAPEAV?$DxBatchedVector@UDxPhaseConfig@cloth@nv@@@34@AEBQEAV534@@Z 0000000180005360 f i DxCloth.obj
 0001:00004390       ?begin@?$Array@PEAV?$DxBatchedVector@UDxPhaseConfig@cloth@nv@@@cloth@nv@@VNonTrackingAllocator@ps@23@@ps@cloth@nv@@QEAAPEAPEAV?$DxBatchedVector@UDxPhaseConfig@cloth@nv@@@34@XZ 0000000180005390 f i DxCloth.obj
 0001:000043a0       ?update@?$DxBatchedStorage@UDxPhaseConfig@cloth@nv@@@cloth@nv@@AEAAXPEAV?$DxBatchedVector@UDxPhaseConfig@cloth@nv@@@23@H@Z 00000001800053a0 f i DxCloth.obj
 0001:000043f0       ?replace@?$DxBatchedStorage@UDxPhaseConfig@cloth@nv@@@cloth@nv@@AEAAXIIPEBUDxPhaseConfig@23@0@Z 00000001800053f0 f i DxCloth.obj
 0001:000046d0       ?remove@?$Array@PEAV?$DxBatchedVector@VPxVec4@physx@@@cloth@nv@@VNonTrackingAllocator@ps@23@@ps@cloth@nv@@QEAAXI@Z 00000001800056d0 f i DxCloth.obj
 0001:00004710       ?pushBack@?$Array@PEAV?$DxBatchedVector@VPxVec4@physx@@@cloth@nv@@VNonTrackingAllocator@ps@23@@ps@cloth@nv@@QEAAAEAPEAV?$DxBatchedVector@VPxVec4@physx@@@34@AEBQEAV534@@Z 0000000180005710 f i DxCloth.obj
 0001:00004750       ?find@?$Array@PEAV?$DxBatchedVector@VPxVec4@physx@@@cloth@nv@@VNonTrackingAllocator@ps@23@@ps@cloth@nv@@QEAAPEAPEAV?$DxBatchedVector@VPxVec4@physx@@@34@AEBQEAV534@@Z 0000000180005750 f i DxCloth.obj
 0001:00004780       ?begin@?$Array@PEAV?$DxBatchedVector@VPxVec4@physx@@@cloth@nv@@VNonTrackingAllocator@ps@23@@ps@cloth@nv@@QEAAPEAPEAV?$DxBatchedVector@VPxVec4@physx@@@34@XZ 0000000180005780 f i DxCloth.obj
 0001:00004790       ?unmap@?$DxBuffer@VPxVec4@physx@@@cloth@nv@@QEAAXXZ 0000000180005790 f i DxCloth.obj
 0001:000047c0       ?map@?$DxBuffer@VPxVec4@physx@@@cloth@nv@@QEAAPEAVPxVec4@physx@@W4D3D11_MAP@@@Z 00000001800057c0 f i DxCloth.obj
 0001:00004850       ?update@?$DxBatchedStorage@VPxVec4@physx@@@cloth@nv@@AEAAXPEAV?$DxBatchedVector@VPxVec4@physx@@@23@H@Z 0000000180005850 f i DxCloth.obj
 0001:000048a0       ?replace@?$DxBatchedStorage@VPxVec4@physx@@@cloth@nv@@AEAAXIIPEBVPxVec4@physx@@0@Z 00000001800058a0 f i DxCloth.obj
 0001:00004b50       ?capacity@?$Array@PEAV?$DxBatchedVector@U?$Vec4T@G@cloth@nv@@@cloth@nv@@VNonTrackingAllocator@ps@23@@ps@cloth@nv@@QEBAIXZ 0000000180005b50 f i DxCloth.obj
 0001:00004b60       ?size@?$Array@PEAV?$DxBatchedVector@U?$Vec4T@G@cloth@nv@@@cloth@nv@@VNonTrackingAllocator@ps@23@@ps@cloth@nv@@QEBAIXZ 0000000180005b60 f i DxCloth.obj
 0001:00004b70       ?reserve@?$DxBuffer@U?$Vec4T@G@cloth@nv@@@cloth@nv@@QEAAXI@Z 0000000180005b70 f i DxCloth.obj
 0001:00004c10       ??1?$DxBuffer@U?$Vec4T@G@cloth@nv@@@cloth@nv@@QEAA@XZ 0000000180005c10 f i DxCloth.obj
 0001:00004c70       ??0?$DxBuffer@U?$Vec4T@G@cloth@nv@@@cloth@nv@@QEAA@PEAVDxContextManagerCallback@12@AEBUDxBufferFlags@12@@Z 0000000180005c70 f i DxCloth.obj
 0001:00004ca0       ?unmap@?$DxBatchedStorage@U?$Vec4T@G@cloth@nv@@@cloth@nv@@AEAAXXZ 0000000180005ca0 f i DxCloth.obj
 0001:00004ce0       ?map@?$DxBatchedStorage@U?$Vec4T@G@cloth@nv@@@cloth@nv@@AEAAPEAU?$Vec4T@G@23@W4D3D11_MAP@@@Z 0000000180005ce0 f i DxCloth.obj
 0001:00004d20       ?capacity@?$Array@PEAV?$DxBatchedVector@VPxVec3@physx@@@cloth@nv@@VNonTrackingAllocator@ps@23@@ps@cloth@nv@@QEBAIXZ 0000000180005d20 f i DxCloth.obj
 0001:00004d30       ?size@?$Array@PEAV?$DxBatchedVector@VPxVec3@physx@@@cloth@nv@@VNonTrackingAllocator@ps@23@@ps@cloth@nv@@QEBAIXZ 0000000180005d30 f i DxCloth.obj
 0001:00004d40       ?reserve@?$DxBuffer@VPxVec3@physx@@@cloth@nv@@QEAAXI@Z 0000000180005d40 f i DxCloth.obj
 0001:00004df0       ??1?$DxBuffer@VPxVec3@physx@@@cloth@nv@@QEAA@XZ 0000000180005df0 f i DxCloth.obj
 0001:00004e50       ??0?$DxBuffer@VPxVec3@physx@@@cloth@nv@@QEAA@PEAVDxContextManagerCallback@12@AEBUDxBufferFlags@12@@Z 0000000180005e50 f i DxCloth.obj
 0001:00004e80       ?unmap@?$DxBatchedStorage@VPxVec3@physx@@@cloth@nv@@AEAAXXZ 0000000180005e80 f i DxCloth.obj
 0001:00004ec0       ?map@?$DxBatchedStorage@VPxVec3@physx@@@cloth@nv@@AEAAPEAVPxVec3@physx@@W4D3D11_MAP@@@Z 0000000180005ec0 f i DxCloth.obj
 0001:00004f00       ?capacity@?$Array@PEAV?$DxBatchedVector@I@cloth@nv@@VNonTrackingAllocator@ps@23@@ps@cloth@nv@@QEBAIXZ 0000000180005f00 f i DxCloth.obj
 0001:00004f10       ?size@?$Array@PEAV?$DxBatchedVector@I@cloth@nv@@VNonTrackingAllocator@ps@23@@ps@cloth@nv@@QEBAIXZ 0000000180005f10 f i DxCloth.obj
 0001:00004f20       ?reserve@?$DxBuffer@I@cloth@nv@@QEAAXI@Z 0000000180005f20 f i DxCloth.obj
 0001:00004fc0       ??1?$DxBuffer@I@cloth@nv@@QEAA@XZ 0000000180005fc0 f i DxCloth.obj
 0001:00005020       ??0?$DxBuffer@I@cloth@nv@@QEAA@PEAVDxContextManagerCallback@12@AEBUDxBufferFlags@12@@Z 0000000180006020 f i DxCloth.obj
 0001:00005050       ?unmap@?$DxBatchedStorage@I@cloth@nv@@AEAAXXZ 0000000180006050 f i DxCloth.obj
 0001:00005090       ?map@?$DxBatchedStorage@I@cloth@nv@@AEAAPEAIW4D3D11_MAP@@@Z 0000000180006090 f i DxCloth.obj
 0001:000050d0       ?capacity@?$Array@PEAV?$DxBatchedVector@UIndexPair@cloth@nv@@@cloth@nv@@VNonTrackingAllocator@ps@23@@ps@cloth@nv@@QEBAIXZ 00000001800060d0 f i DxCloth.obj
 0001:000050e0       ?size@?$Array@PEAV?$DxBatchedVector@UIndexPair@cloth@nv@@@cloth@nv@@VNonTrackingAllocator@ps@23@@ps@cloth@nv@@QEBAIXZ 00000001800060e0 f i DxCloth.obj
 0001:000050f0       ?reserve@?$DxBuffer@UIndexPair@cloth@nv@@@cloth@nv@@QEAAXI@Z 00000001800060f0 f i DxCloth.obj
 0001:00005190       ??1?$DxBuffer@UIndexPair@cloth@nv@@@cloth@nv@@QEAA@XZ 0000000180006190 f i DxCloth.obj
 0001:000051f0       ??0?$DxBuffer@UIndexPair@cloth@nv@@@cloth@nv@@QEAA@PEAVDxContextManagerCallback@12@AEBUDxBufferFlags@12@@Z 00000001800061f0 f i DxCloth.obj
 0001:00005220       ?unmap@?$DxBatchedStorage@UIndexPair@cloth@nv@@@cloth@nv@@AEAAXXZ 0000000180006220 f i DxCloth.obj
 0001:00005260       ?map@?$DxBatchedStorage@UIndexPair@cloth@nv@@@cloth@nv@@AEAAPEAUIndexPair@23@W4D3D11_MAP@@@Z 0000000180006260 f i DxCloth.obj
 0001:000052a0       ?capacity@?$Array@PEAV?$DxBatchedVector@UDxPhaseConfig@cloth@nv@@@cloth@nv@@VNonTrackingAllocator@ps@23@@ps@cloth@nv@@QEBAIXZ 00000001800062a0 f i DxCloth.obj
 0001:000052b0       ?size@?$Array@PEAV?$DxBatchedVector@UDxPhaseConfig@cloth@nv@@@cloth@nv@@VNonTrackingAllocator@ps@23@@ps@cloth@nv@@QEBAIXZ 00000001800062b0 f i DxCloth.obj
 0001:000052c0       ?reserve@?$DxBuffer@UDxPhaseConfig@cloth@nv@@@cloth@nv@@QEAAXI@Z 00000001800062c0 f i DxCloth.obj
 0001:00005370       ??1?$DxBuffer@UDxPhaseConfig@cloth@nv@@@cloth@nv@@QEAA@XZ 0000000180006370 f i DxCloth.obj
 0001:000053d0       ??0?$DxBuffer@UDxPhaseConfig@cloth@nv@@@cloth@nv@@QEAA@PEAVDxContextManagerCallback@12@AEBUDxBufferFlags@12@@Z 00000001800063d0 f i DxCloth.obj
 0001:00005400       ?unmap@?$DxBatchedStorage@UDxPhaseConfig@cloth@nv@@@cloth@nv@@AEAAXXZ 0000000180006400 f i DxCloth.obj
 0001:00005440       ?map@?$DxBatchedStorage@UDxPhaseConfig@cloth@nv@@@cloth@nv@@AEAAPEAUDxPhaseConfig@23@W4D3D11_MAP@@@Z 0000000180006440 f i DxCloth.obj
 0001:00005470       ?capacity@?$Array@PEAV?$DxBatchedVector@VPxVec4@physx@@@cloth@nv@@VNonTrackingAllocator@ps@23@@ps@cloth@nv@@QEBAIXZ 0000000180006470 f i DxCloth.obj
 0001:00005480       ?size@?$Array@PEAV?$DxBatchedVector@VPxVec4@physx@@@cloth@nv@@VNonTrackingAllocator@ps@23@@ps@cloth@nv@@QEBAIXZ 0000000180006480 f i DxCloth.obj
 0001:00005490       ?reserve@?$DxBuffer@VPxVec4@physx@@@cloth@nv@@QEAAXI@Z 0000000180006490 f i DxCloth.obj
 0001:00005530       ??1?$DxBuffer@VPxVec4@physx@@@cloth@nv@@QEAA@XZ 0000000180006530 f i DxCloth.obj
 0001:00005590       ??0?$DxBuffer@VPxVec4@physx@@@cloth@nv@@QEAA@PEAVDxContextManagerCallback@12@AEBUDxBufferFlags@12@@Z 0000000180006590 f i DxCloth.obj
 0001:000055c0       ?create@?$DxBuffer@U?$Vec4T@G@cloth@nv@@@cloth@nv@@AEAAXIPEAUD3D11_SUBRESOURCE_DATA@@@Z 00000001800065c0 f i DxCloth.obj
 0001:000056a0       ?unmap@?$DxBuffer@U?$Vec4T@G@cloth@nv@@@cloth@nv@@QEAAXXZ 00000001800066a0 f i DxCloth.obj
 0001:000056d0       ?map@?$DxBuffer@U?$Vec4T@G@cloth@nv@@@cloth@nv@@QEAAPEAU?$Vec4T@G@23@W4D3D11_MAP@@@Z 00000001800066d0 f i DxCloth.obj
 0001:00005760       ?create@?$DxBuffer@VPxVec3@physx@@@cloth@nv@@AEAAXIPEAUD3D11_SUBRESOURCE_DATA@@@Z 0000000180006760 f i DxCloth.obj
 0001:00005850       ?unmap@?$DxBuffer@VPxVec3@physx@@@cloth@nv@@QEAAXXZ 0000000180006850 f i DxCloth.obj
 0001:00005880       ?map@?$DxBuffer@VPxVec3@physx@@@cloth@nv@@QEAAPEAVPxVec3@physx@@W4D3D11_MAP@@@Z 0000000180006880 f i DxCloth.obj
 0001:00005910       ?create@?$DxBuffer@I@cloth@nv@@AEAAXIPEAUD3D11_SUBRESOURCE_DATA@@@Z 0000000180006910 f i DxCloth.obj
 0001:000059f0       ?unmap@?$DxBuffer@I@cloth@nv@@QEAAXXZ 00000001800069f0 f i DxCloth.obj
 0001:00005a20       ?map@?$DxBuffer@I@cloth@nv@@QEAAPEAIW4D3D11_MAP@@@Z 0000000180006a20 f i DxCloth.obj
 0001:00005ab0       ?create@?$DxBuffer@UIndexPair@cloth@nv@@@cloth@nv@@AEAAXIPEAUD3D11_SUBRESOURCE_DATA@@@Z 0000000180006ab0 f i DxCloth.obj
 0001:00005b90       ?unmap@?$DxBuffer@UIndexPair@cloth@nv@@@cloth@nv@@QEAAXXZ 0000000180006b90 f i DxCloth.obj
 0001:00005bc0       ?map@?$DxBuffer@UIndexPair@cloth@nv@@@cloth@nv@@QEAAPEAUIndexPair@23@W4D3D11_MAP@@@Z 0000000180006bc0 f i DxCloth.obj
 0001:00005c50       ?create@?$DxBuffer@UDxPhaseConfig@cloth@nv@@@cloth@nv@@AEAAXIPEAUD3D11_SUBRESOURCE_DATA@@@Z 0000000180006c50 f i DxCloth.obj
 0001:00005d40       ?unmap@?$DxBuffer@UDxPhaseConfig@cloth@nv@@@cloth@nv@@QEAAXXZ 0000000180006d40 f i DxCloth.obj
 0001:00005d70       ?map@?$DxBuffer@UDxPhaseConfig@cloth@nv@@@cloth@nv@@QEAAPEAUDxPhaseConfig@23@W4D3D11_MAP@@@Z 0000000180006d70 f i DxCloth.obj
 0001:00005df0       ?create@?$DxBuffer@VPxVec4@physx@@@cloth@nv@@AEAAXIPEAUD3D11_SUBRESOURCE_DATA@@@Z 0000000180006df0 f i DxCloth.obj
 0001:00005ed0       ??$max@H@std@@YAAEBHAEBH0@Z 0000000180006ed0 f i DxCloth.obj
 0001:00005ee0       ??$min@I@std@@YAAEBIAEBI0@Z 0000000180006ee0 f i DxCloth.obj
 0001:00005ef0       ??$min@H@std@@YAAEBHAEBH0@Z 0000000180006ef0 f i DxCloth.obj
 0001:00005f00       ??$PX_UNUSED@W4PxZERO@physx@@@@YAXAEBW4PxZERO@physx@@@Z 0000000180006f00 f i DxCloth.obj
 0001:00005f10       ??$PX_UNUSED@W4PxIDENTITY@physx@@@@YAXAEBW4PxIDENTITY@physx@@@Z 0000000180006f10 f i DxCloth.obj
 0001:00005f20       ?begin@?$Range@$$CBI@cloth@nv@@QEBAPEBIXZ 0000000180006f20 f i DxCloth.obj
 0001:00005f30       ?end@?$Range@$$CBI@cloth@nv@@QEBAPEBIXZ 0000000180006f30 f i DxCloth.obj
 0001:00005f40       ?size@?$Range@$$CBVPxVec4@physx@@@cloth@nv@@QEBAIXZ 0000000180006f40 f i DxCloth.obj
 0001:00005f50       ?begin@?$Range@$$CBVPxVec4@physx@@@cloth@nv@@QEBAPEBVPxVec4@physx@@XZ 0000000180006f50 f i DxCloth.obj
 0001:00005f60       ?end@?$Range@$$CBVPxVec4@physx@@@cloth@nv@@QEBAPEBVPxVec4@physx@@XZ 0000000180006f60 f i DxCloth.obj
 0001:00005f70       ??0?$Range@VPxVec4@physx@@@cloth@nv@@QEAA@PEAVPxVec4@physx@@0@Z 0000000180006f70 f i DxCloth.obj
 0001:00005f80       ?growAndPushBack@?$Array@PEAV?$DxBatchedVector@VPxVec4@physx@@@cloth@nv@@VNonTrackingAllocator@ps@23@@ps@cloth@nv@@IEAAAEAPEAV?$DxBatchedVector@VPxVec4@physx@@@34@AEBQEAV534@@Z 0000000180006f80 f i DxCloth.obj
 0001:00006070       ?growAndPushBack@?$Array@PEAV?$DxBatchedVector@UDxPhaseConfig@cloth@nv@@@cloth@nv@@VNonTrackingAllocator@ps@23@@ps@cloth@nv@@IEAAAEAPEAV?$DxBatchedVector@UDxPhaseConfig@cloth@nv@@@34@AEBQEAV534@@Z 0000000180007070 f i DxCloth.obj
 0001:00006160       ?growAndPushBack@?$Array@PEAV?$DxBatchedVector@UIndexPair@cloth@nv@@@cloth@nv@@VNonTrackingAllocator@ps@23@@ps@cloth@nv@@IEAAAEAPEAV?$DxBatchedVector@UIndexPair@cloth@nv@@@34@AEBQEAV534@@Z 0000000180007160 f i DxCloth.obj
 0001:00006250       ?growAndPushBack@?$Array@PEAV?$DxBatchedVector@I@cloth@nv@@VNonTrackingAllocator@ps@23@@ps@cloth@nv@@IEAAAEAPEAV?$DxBatchedVector@I@34@AEBQEAV534@@Z 0000000180007250 f i DxCloth.obj
 0001:00006340       ?growAndPushBack@?$Array@PEAV?$DxBatchedVector@VPxVec3@physx@@@cloth@nv@@VNonTrackingAllocator@ps@23@@ps@cloth@nv@@IEAAAEAPEAV?$DxBatchedVector@VPxVec3@physx@@@34@AEBQEAV534@@Z 0000000180007340 f i DxCloth.obj
 0001:00006430       ?growAndPushBack@?$Array@PEAV?$DxBatchedVector@U?$Vec4T@G@cloth@nv@@@cloth@nv@@VNonTrackingAllocator@ps@23@@ps@cloth@nv@@IEAAAEAPEAV?$DxBatchedVector@U?$Vec4T@G@cloth@nv@@@34@AEBQEAV534@@Z 0000000180007430 f i DxCloth.obj
 0001:00006520       ?resizeUninitialized@?$Array@IVNonTrackingAllocator@ps@cloth@nv@@@ps@cloth@nv@@QEAAXI@Z 0000000180007520 f i DxCloth.obj
 0001:00006560       ??0?$Range@$$CBUPhaseConfig@cloth@nv@@@cloth@nv@@QEAA@PEBUPhaseConfig@12@0@Z 0000000180007560 f i DxCloth.obj
 0001:00006570       ?size@?$Range@$$CBUPhaseConfig@cloth@nv@@@cloth@nv@@QEBAIXZ 0000000180007570 f i DxCloth.obj
 0001:000065a0       ?empty@?$Range@$$CBUPhaseConfig@cloth@nv@@@cloth@nv@@QEBA_NXZ 00000001800075a0 f i DxCloth.obj
 0001:000065b0       ?popFront@?$Range@$$CBUPhaseConfig@cloth@nv@@@cloth@nv@@QEAAXXZ 00000001800075b0 f i DxCloth.obj
 0001:000065c0       ?begin@?$Range@$$CBUPhaseConfig@cloth@nv@@@cloth@nv@@QEBAPEBUPhaseConfig@23@XZ 00000001800075c0 f i DxCloth.obj
 0001:000065d0       ?end@?$Range@$$CBUPhaseConfig@cloth@nv@@@cloth@nv@@QEBAPEBUPhaseConfig@23@XZ 00000001800075d0 f i DxCloth.obj
 0001:000065e0       ?front@?$Range@$$CBUPhaseConfig@cloth@nv@@@cloth@nv@@QEBAAEBUPhaseConfig@23@XZ 00000001800075e0 f i DxCloth.obj
 0001:000065f0       ??0?$Range@$$CBVPxVec3@physx@@@cloth@nv@@QEAA@PEBVPxVec3@physx@@0@Z 00000001800075f0 f i DxCloth.obj
 0001:00006600       ?size@?$Range@$$CBVPxVec3@physx@@@cloth@nv@@QEBAIXZ 0000000180007600 f i DxCloth.obj
 0001:00006630       ?empty@?$Range@$$CBVPxVec3@physx@@@cloth@nv@@QEBA_NXZ 0000000180007630 f i DxCloth.obj
 0001:00006640       ?popFront@?$Range@$$CBVPxVec3@physx@@@cloth@nv@@QEAAXXZ 0000000180007640 f i DxCloth.obj
 0001:00006650       ?begin@?$Range@$$CBVPxVec3@physx@@@cloth@nv@@QEBAPEBVPxVec3@physx@@XZ 0000000180007650 f i DxCloth.obj
 0001:00006660       ?end@?$Range@$$CBVPxVec3@physx@@@cloth@nv@@QEBAPEBVPxVec3@physx@@XZ 0000000180007660 f i DxCloth.obj
 0001:00006670       ?front@?$Range@$$CBVPxVec3@physx@@@cloth@nv@@QEBAAEBVPxVec3@physx@@XZ 0000000180007670 f i DxCloth.obj
 0001:00006680       ?size@?$Range@$$BY03$$CBI@cloth@nv@@QEBAIXZ 0000000180007680 f i DxCloth.obj
 0001:00006690       ?resizeUninitialized@?$Array@VPxVec4@physx@@VNonTrackingAllocator@ps@cloth@nv@@@ps@cloth@nv@@QEAAXI@Z 0000000180007690 f i DxCloth.obj
 0001:000066d0       ?growAndPushBack@?$Array@VPxVec4@physx@@VNonTrackingAllocator@ps@cloth@nv@@@ps@cloth@nv@@IEAAAEAVPxVec4@physx@@AEBV56@@Z 00000001800076d0 f i DxCloth.obj
 0001:000067c0       ?recreate@?$Array@VPxVec4@physx@@VNonTrackingAllocator@ps@cloth@nv@@@ps@cloth@nv@@IEAAXI@Z 00000001800077c0 f i DxCloth.obj
 0001:00006860       ?getFabric@?$ClothImpl@VDxCloth@cloth@nv@@@cloth@nv@@UEBAAEAVFabric@23@XZ 0000000180007860 f i DxCloth.obj
 0001:00006870       ?getFactory@?$ClothImpl@VDxCloth@cloth@nv@@@cloth@nv@@UEBAAEAVFactory@23@XZ 0000000180007870 f i DxCloth.obj
 0001:00006880       ?setTranslation@?$ClothImpl@VDxCloth@cloth@nv@@@cloth@nv@@UEAAXAEBVPxVec3@physx@@@Z 0000000180007880 f i DxCloth.obj
 0001:000068f0       ?setRotation@?$ClothImpl@VDxCloth@cloth@nv@@@cloth@nv@@UEAAXAEBVPxQuat@physx@@@Z 00000001800078f0 f i DxCloth.obj
 0001:000069a0       ?getTranslation@?$ClothImpl@VDxCloth@cloth@nv@@@cloth@nv@@UEBAAEBVPxVec3@physx@@XZ 00000001800079a0 f i DxCloth.obj
 0001:000069b0       ?getRotation@?$ClothImpl@VDxCloth@cloth@nv@@@cloth@nv@@UEBAAEBVPxQuat@physx@@XZ 00000001800079b0 f i DxCloth.obj
 0001:000069c0       ?clearInertia@?$ClothImpl@VDxCloth@cloth@nv@@@cloth@nv@@UEAAXXZ 00000001800079c0 f i DxCloth.obj
 0001:00006a60       ?teleport@?$ClothImpl@VDxCloth@cloth@nv@@@cloth@nv@@UEAAXAEBVPxVec3@physx@@@Z 0000000180007a60 f i DxCloth.obj
 0001:00006ae0       ?teleportToLocation@?$ClothImpl@VDxCloth@cloth@nv@@@cloth@nv@@UEAAXAEBVPxVec3@physx@@AEBVPxQuat@5@@Z 0000000180007ae0 f i DxCloth.obj
 0001:00006b60       ?ignoreVelocityDiscontinuity@?$ClothImpl@VDxCloth@cloth@nv@@@cloth@nv@@UEAAXXZ 0000000180007b60 f i DxCloth.obj
 0001:00006b70       ?getPreviousIterationDt@?$ClothImpl@VDxCloth@cloth@nv@@@cloth@nv@@UEBAMXZ 0000000180007b70 f i DxCloth.obj
 0001:00006b80       ?setGravity@?$ClothImpl@VDxCloth@cloth@nv@@@cloth@nv@@UEAAXAEBVPxVec3@physx@@@Z 0000000180007b80 f i DxCloth.obj
 0001:00006be0       ?getGravity@?$ClothImpl@VDxCloth@cloth@nv@@@cloth@nv@@UEBA?AVPxVec3@physx@@XZ 0000000180007be0 f i DxCloth.obj
 0001:00006c00       ?setDamping@?$ClothImpl@VDxCloth@cloth@nv@@@cloth@nv@@UEAAXAEBVPxVec3@physx@@@Z 0000000180007c00 f i DxCloth.obj
 0001:00006d10       ?getDamping@?$ClothImpl@VDxCloth@cloth@nv@@@cloth@nv@@UEBA?AVPxVec3@physx@@XZ 0000000180007d10 f i DxCloth.obj
 0001:00006d60       ?setLinearDrag@?$ClothImpl@VDxCloth@cloth@nv@@@cloth@nv@@UEAAXAEBVPxVec3@physx@@@Z 0000000180007d60 f i DxCloth.obj
 0001:00006e70       ?getLinearDrag@?$ClothImpl@VDxCloth@cloth@nv@@@cloth@nv@@UEBA?AVPxVec3@physx@@XZ 0000000180007e70 f i DxCloth.obj
 0001:00006ec0       ?setAngularDrag@?$ClothImpl@VDxCloth@cloth@nv@@@cloth@nv@@UEAAXAEBVPxVec3@physx@@@Z 0000000180007ec0 f i DxCloth.obj
 0001:00006fd0       ?getAngularDrag@?$ClothImpl@VDxCloth@cloth@nv@@@cloth@nv@@UEBA?AVPxVec3@physx@@XZ 0000000180007fd0 f i DxCloth.obj
 0001:00007020       ?setLinearInertia@?$ClothImpl@VDxCloth@cloth@nv@@@cloth@nv@@UEAAXAEBVPxVec3@physx@@@Z 0000000180008020 f i DxCloth.obj
 0001:00007080       ?getLinearInertia@?$ClothImpl@VDxCloth@cloth@nv@@@cloth@nv@@UEBA?AVPxVec3@physx@@XZ 0000000180008080 f i DxCloth.obj
 0001:000070a0       ?setAngularInertia@?$ClothImpl@VDxCloth@cloth@nv@@@cloth@nv@@UEAAXAEBVPxVec3@physx@@@Z 00000001800080a0 f i DxCloth.obj
 0001:00007100       ?getAngularInertia@?$ClothImpl@VDxCloth@cloth@nv@@@cloth@nv@@UEBA?AVPxVec3@physx@@XZ 0000000180008100 f i DxCloth.obj
 0001:00007120       ?setCentrifugalInertia@?$ClothImpl@VDxCloth@cloth@nv@@@cloth@nv@@UEAAXAEBVPxVec3@physx@@@Z 0000000180008120 f i DxCloth.obj
 0001:00007180       ?getCentrifugalInertia@?$ClothImpl@VDxCloth@cloth@nv@@@cloth@nv@@UEBA?AVPxVec3@physx@@XZ 0000000180008180 f i DxCloth.obj
 0001:000071a0       ?setSolverFrequency@?$ClothImpl@VDxCloth@cloth@nv@@@cloth@nv@@UEAAXM@Z 00000001800081a0 f i DxCloth.obj
 0001:000071f0       ?getSolverFrequency@?$ClothImpl@VDxCloth@cloth@nv@@@cloth@nv@@UEBAMXZ 00000001800081f0 f i DxCloth.obj
 0001:00007200       ?setStiffnessFrequency@?$ClothImpl@VDxCloth@cloth@nv@@@cloth@nv@@UEAAXM@Z 0000000180008200 f i DxCloth.obj
 0001:00007240       ?getStiffnessFrequency@?$ClothImpl@VDxCloth@cloth@nv@@@cloth@nv@@UEBAMXZ 0000000180008240 f i DxCloth.obj
 0001:00007250       ?setAcceleationFilterWidth@?$ClothImpl@VDxCloth@cloth@nv@@@cloth@nv@@UEAAXI@Z 0000000180008250 f i DxCloth.obj
 0001:00007260       ?getAccelerationFilterWidth@?$ClothImpl@VDxCloth@cloth@nv@@@cloth@nv@@UEBAIXZ 0000000180008260 f i DxCloth.obj
 0001:00007270       ?setSpheres@?$ClothImpl@VDxCloth@cloth@nv@@@cloth@nv@@UEAAXU?$Range@$$CBVPxVec4@physx@@@23@0@Z 0000000180008270 f i DxCloth.obj
 0001:00007400       ?setSpheres@?$ClothImpl@VDxCloth@cloth@nv@@@cloth@nv@@UEAAXU?$Range@$$CBVPxVec4@physx@@@23@II@Z 0000000180008400 f i DxCloth.obj
 0001:00007b30       ?getNumSpheres@?$ClothImpl@VDxCloth@cloth@nv@@@cloth@nv@@UEBAIXZ 0000000180008b30 f i DxCloth.obj
 0001:00007b40       ?setCapsules@?$ClothImpl@VDxCloth@cloth@nv@@@cloth@nv@@UEAAXU?$Range@$$CBI@23@II@Z 0000000180008b40 f i DxCloth.obj
 0001:00007da0       ?getNumCapsules@?$ClothImpl@VDxCloth@cloth@nv@@@cloth@nv@@UEBAIXZ 0000000180008da0 f i DxCloth.obj
 0001:00007db0       ?setPlanes@?$ClothImpl@VDxCloth@cloth@nv@@@cloth@nv@@UEAAXU?$Range@$$CBVPxVec4@physx@@@23@0@Z 0000000180008db0 f i DxCloth.obj
 0001:00007f40       ?setPlanes@?$ClothImpl@VDxCloth@cloth@nv@@@cloth@nv@@UEAAXU?$Range@$$CBVPxVec4@physx@@@23@II@Z 0000000180008f40 f i DxCloth.obj
 0001:000086c0       ?getNumPlanes@?$ClothImpl@VDxCloth@cloth@nv@@@cloth@nv@@UEBAIXZ 00000001800096c0 f i DxCloth.obj
 0001:000086d0       ?setConvexes@?$ClothImpl@VDxCloth@cloth@nv@@@cloth@nv@@UEAAXU?$Range@$$CBI@23@II@Z 00000001800096d0 f i DxCloth.obj
 0001:000088c0       ?getNumConvexes@?$ClothImpl@VDxCloth@cloth@nv@@@cloth@nv@@UEBAIXZ 00000001800098c0 f i DxCloth.obj
 0001:000088d0       ?setTriangles@?$ClothImpl@VDxCloth@cloth@nv@@@cloth@nv@@UEAAXU?$Range@$$CBVPxVec3@physx@@@23@0I@Z 00000001800098d0 f i DxCloth.obj
 0001:00008bb0       ?setTriangles@?$ClothImpl@VDxCloth@cloth@nv@@@cloth@nv@@UEAAXU?$Range@$$CBVPxVec3@physx@@@23@II@Z 0000000180009bb0 f i DxCloth.obj
 0001:00009280       ?getNumTriangles@?$ClothImpl@VDxCloth@cloth@nv@@@cloth@nv@@UEBAIXZ 000000018000a280 f i DxCloth.obj
 0001:00009290       ?isContinuousCollisionEnabled@?$ClothImpl@VDxCloth@cloth@nv@@@cloth@nv@@UEBA_NXZ 000000018000a290 f i DxCloth.obj
 0001:000092a0       ?enableContinuousCollision@?$ClothImpl@VDxCloth@cloth@nv@@@cloth@nv@@UEAAX_N@Z 000000018000a2a0 f i DxCloth.obj
 0001:000092f0       ?getCollisionMassScale@?$ClothImpl@VDxCloth@cloth@nv@@@cloth@nv@@UEBAMXZ 000000018000a2f0 f i DxCloth.obj
 0001:00009300       ?setCollisionMassScale@?$ClothImpl@VDxCloth@cloth@nv@@@cloth@nv@@UEAAXM@Z 000000018000a300 f i DxCloth.obj
 0001:00009350       ?setFriction@?$ClothImpl@VDxCloth@cloth@nv@@@cloth@nv@@UEAAXM@Z 000000018000a350 f i DxCloth.obj
 0001:00009360       ?getFriction@?$ClothImpl@VDxCloth@cloth@nv@@@cloth@nv@@UEBAMXZ 000000018000a360 f i DxCloth.obj
 0001:00009370       ?getNumVirtualParticleWeights@?$ClothImpl@VDxCloth@cloth@nv@@@cloth@nv@@UEBAIXZ 000000018000a370 f i DxCloth.obj
 0001:00009380       ?setTetherConstraintScale@?$ClothImpl@VDxCloth@cloth@nv@@@cloth@nv@@UEAAXM@Z 000000018000a380 f i DxCloth.obj
 0001:000093d0       ?getTetherConstraintScale@?$ClothImpl@VDxCloth@cloth@nv@@@cloth@nv@@UEBAMXZ 000000018000a3d0 f i DxCloth.obj
 0001:000093e0       ?setTetherConstraintStiffness@?$ClothImpl@VDxCloth@cloth@nv@@@cloth@nv@@UEAAXM@Z 000000018000a3e0 f i DxCloth.obj
 0001:00009460       ?getTetherConstraintStiffness@?$ClothImpl@VDxCloth@cloth@nv@@@cloth@nv@@UEBAMXZ 000000018000a460 f i DxCloth.obj
 0001:000094b0       ?getMotionConstraints@?$ClothImpl@VDxCloth@cloth@nv@@@cloth@nv@@UEAA?AU?$Range@VPxVec4@physx@@@23@XZ 000000018000a4b0 f i DxCloth.obj
 0001:00009510       ?clearMotionConstraints@?$ClothImpl@VDxCloth@cloth@nv@@@cloth@nv@@UEAAXXZ 000000018000a510 f i DxCloth.obj
 0001:000095a0       ?getNumMotionConstraints@?$ClothImpl@VDxCloth@cloth@nv@@@cloth@nv@@UEBAIXZ 000000018000a5a0 f i DxCloth.obj
 0001:000095b0       ?setMotionConstraintScaleBias@?$ClothImpl@VDxCloth@cloth@nv@@@cloth@nv@@UEAAXMM@Z 000000018000a5b0 f i DxCloth.obj
 0001:00009610       ?getMotionConstraintScale@?$ClothImpl@VDxCloth@cloth@nv@@@cloth@nv@@UEBAMXZ 000000018000a610 f i DxCloth.obj
 0001:00009620       ?getMotionConstraintBias@?$ClothImpl@VDxCloth@cloth@nv@@@cloth@nv@@UEBAMXZ 000000018000a620 f i DxCloth.obj
 0001:00009630       ?setMotionConstraintStiffness@?$ClothImpl@VDxCloth@cloth@nv@@@cloth@nv@@UEAAXM@Z 000000018000a630 f i DxCloth.obj
 0001:000096b0       ?getMotionConstraintStiffness@?$ClothImpl@VDxCloth@cloth@nv@@@cloth@nv@@UEBAMXZ 000000018000a6b0 f i DxCloth.obj
 0001:00009700       ?getSeparationConstraints@?$ClothImpl@VDxCloth@cloth@nv@@@cloth@nv@@UEAA?AU?$Range@VPxVec4@physx@@@23@XZ 000000018000a700 f i DxCloth.obj
 0001:00009760       ?clearSeparationConstraints@?$ClothImpl@VDxCloth@cloth@nv@@@cloth@nv@@UEAAXXZ 000000018000a760 f i DxCloth.obj
 0001:000097f0       ?getNumSeparationConstraints@?$ClothImpl@VDxCloth@cloth@nv@@@cloth@nv@@UEBAIXZ 000000018000a7f0 f i DxCloth.obj
 0001:00009800       ?clearInterpolation@?$ClothImpl@VDxCloth@cloth@nv@@@cloth@nv@@UEAAXXZ 000000018000a800 f i DxCloth.obj
 0001:00009960       ?getNumParticleAccelerations@?$ClothImpl@VDxCloth@cloth@nv@@@cloth@nv@@UEBAIXZ 000000018000a960 f i DxCloth.obj
 0001:00009970       ?setWindVelocity@?$ClothImpl@VDxCloth@cloth@nv@@@cloth@nv@@UEAAXVPxVec3@physx@@@Z 000000018000a970 f i DxCloth.obj
 0001:000099f0       ?getWindVelocity@?$ClothImpl@VDxCloth@cloth@nv@@@cloth@nv@@UEBA?AVPxVec3@physx@@XZ 000000018000a9f0 f i DxCloth.obj
 0001:00009a10       ?setDragCoefficient@?$ClothImpl@VDxCloth@cloth@nv@@@cloth@nv@@UEAAXM@Z 000000018000aa10 f i DxCloth.obj
 0001:00009a90       ?getDragCoefficient@?$ClothImpl@VDxCloth@cloth@nv@@@cloth@nv@@UEBAMXZ 000000018000aa90 f i DxCloth.obj
 0001:00009ae0       ?setLiftCoefficient@?$ClothImpl@VDxCloth@cloth@nv@@@cloth@nv@@UEAAXM@Z 000000018000aae0 f i DxCloth.obj
 0001:00009b60       ?getLiftCoefficient@?$ClothImpl@VDxCloth@cloth@nv@@@cloth@nv@@UEBAMXZ 000000018000ab60 f i DxCloth.obj
 0001:00009bb0       ?setFluidDensity@?$ClothImpl@VDxCloth@cloth@nv@@@cloth@nv@@UEAAXM@Z 000000018000abb0 f i DxCloth.obj
 0001:00009c00       ?getFluidDensity@?$ClothImpl@VDxCloth@cloth@nv@@@cloth@nv@@UEBAMXZ 000000018000ac00 f i DxCloth.obj
 0001:00009c10       ?setSelfCollisionDistance@?$ClothImpl@VDxCloth@cloth@nv@@@cloth@nv@@UEAAXM@Z 000000018000ac10 f i DxCloth.obj
 0001:00009c60       ?getSelfCollisionDistance@?$ClothImpl@VDxCloth@cloth@nv@@@cloth@nv@@UEBAMXZ 000000018000ac60 f i DxCloth.obj
 0001:00009c70       ?setSelfCollisionStiffness@?$ClothImpl@VDxCloth@cloth@nv@@@cloth@nv@@UEAAXM@Z 000000018000ac70 f i DxCloth.obj
 0001:00009cf0       ?getSelfCollisionStiffness@?$ClothImpl@VDxCloth@cloth@nv@@@cloth@nv@@UEBAMXZ 000000018000acf0 f i DxCloth.obj
 0001:00009d40       ?getNumSelfCollisionIndices@?$ClothImpl@VDxCloth@cloth@nv@@@cloth@nv@@UEBAIXZ 000000018000ad40 f i DxCloth.obj
 0001:00009d50       ?setRestPositions@?$ClothImpl@VDxCloth@cloth@nv@@@cloth@nv@@UEAAXU?$Range@$$CBVPxVec4@physx@@@23@@Z 000000018000ad50 f i DxCloth.obj
 0001:00009de0       ?getNumRestPositions@?$ClothImpl@VDxCloth@cloth@nv@@@cloth@nv@@UEBAIXZ 000000018000ade0 f i DxCloth.obj
 0001:00009df0       ?getBoundingBoxCenter@?$ClothImpl@VDxCloth@cloth@nv@@@cloth@nv@@UEBAAEBVPxVec3@physx@@XZ 000000018000adf0 f i DxCloth.obj
 0001:00009e00       ?getBoundingBoxScale@?$ClothImpl@VDxCloth@cloth@nv@@@cloth@nv@@UEBAAEBVPxVec3@physx@@XZ 000000018000ae00 f i DxCloth.obj
 0001:00009e10       ?setSleepThreshold@?$ClothImpl@VDxCloth@cloth@nv@@@cloth@nv@@UEAAXM@Z 000000018000ae10 f i DxCloth.obj
 0001:00009e60       ?getSleepThreshold@?$ClothImpl@VDxCloth@cloth@nv@@@cloth@nv@@UEBAMXZ 000000018000ae60 f i DxCloth.obj
 0001:00009e70       ?setSleepTestInterval@?$ClothImpl@VDxCloth@cloth@nv@@@cloth@nv@@UEAAXI@Z 000000018000ae70 f i DxCloth.obj
 0001:00009ec0       ?getSleepTestInterval@?$ClothImpl@VDxCloth@cloth@nv@@@cloth@nv@@UEBAIXZ 000000018000aec0 f i DxCloth.obj
 0001:00009ed0       ?setSleepAfterCount@?$ClothImpl@VDxCloth@cloth@nv@@@cloth@nv@@UEAAXI@Z 000000018000aed0 f i DxCloth.obj
 0001:00009f20       ?getSleepAfterCount@?$ClothImpl@VDxCloth@cloth@nv@@@cloth@nv@@UEBAIXZ 000000018000af20 f i DxCloth.obj
 0001:00009f30       ?getSleepPassCount@?$ClothImpl@VDxCloth@cloth@nv@@@cloth@nv@@UEBAIXZ 000000018000af30 f i DxCloth.obj
 0001:00009f40       ?isAsleep@?$ClothImpl@VDxCloth@cloth@nv@@@cloth@nv@@UEBA_NXZ 000000018000af40 f i DxCloth.obj
 0001:00009f80       ?putToSleep@?$ClothImpl@VDxCloth@cloth@nv@@@cloth@nv@@UEAAXXZ 000000018000af80 f i DxCloth.obj
 0001:00009f90       ?isSleeping@?$ClothImpl@VDxCloth@cloth@nv@@@cloth@nv@@UEBA_NXZ 000000018000af90 f i DxCloth.obj
 0001:00009fa0       ?wakeUp@?$ClothImpl@VDxCloth@cloth@nv@@@cloth@nv@@UEAAXXZ 000000018000afa0 f i DxCloth.obj
 0001:00009fb0       ?setUserData@?$ClothImpl@VDxCloth@cloth@nv@@@cloth@nv@@UEAAXPEAX@Z 000000018000afb0 f i DxCloth.obj
 0001:00009fc0       ?getUserData@?$ClothImpl@VDxCloth@cloth@nv@@@cloth@nv@@UEBAPEAXXZ 000000018000afc0 f i DxCloth.obj
 0001:00009fd0       ?resizeUninitialized@?$Array@UPhaseConfig@cloth@nv@@VNonTrackingAllocator@ps@23@@ps@cloth@nv@@QEAAXI@Z 000000018000afd0 f i DxCloth.obj
 0001:0000a010       ?growAndPushBack@?$Array@UPhaseConfig@cloth@nv@@VNonTrackingAllocator@ps@23@@ps@cloth@nv@@IEAAAEAUPhaseConfig@34@AEBU534@@Z 000000018000b010 f i DxCloth.obj
 0001:0000a120       ?recreate@?$Array@UPhaseConfig@cloth@nv@@VNonTrackingAllocator@ps@23@@ps@cloth@nv@@IEAAXI@Z 000000018000b120 f i DxCloth.obj
 0001:0000a1e0       ?growAndPushBack@?$Array@U?$Vec4T@G@cloth@nv@@VNonTrackingAllocator@ps@23@@ps@cloth@nv@@IEAAAEAU?$Vec4T@G@34@AEBU534@@Z 000000018000b1e0 f i DxCloth.obj
 0001:0000a2d0       ?recreate@?$Array@U?$Vec4T@G@cloth@nv@@VNonTrackingAllocator@ps@23@@ps@cloth@nv@@IEAAXI@Z 000000018000b2d0 f i DxCloth.obj
 0001:0000a380       ??$min@M@std@@YAAEBMAEBM0@Z 000000018000b380 f i DxCloth.obj
 0001:0000a390       ??$initialize@VDxCloth@cloth@nv@@@cloth@nv@@YAXAEAVDxCloth@01@PEBVPxVec4@physx@@1@Z 000000018000b390 f i DxCloth.obj
 0001:0000a740       ??$copy@VDxCloth@cloth@nv@@V123@@cloth@nv@@YAXAEAVDxCloth@01@AEBV201@@Z 000000018000b740 f i DxCloth.obj
 0001:0000aa20       ??$max@I@std@@YAAEBIAEBI0@Z 000000018000ba20 f i DxCloth.obj
 0001:0000aa30       ?growAndPushBack@?$Array@UDxPhaseConfig@cloth@nv@@VNonTrackingAllocator@ps@23@@ps@cloth@nv@@IEAAAEAUDxPhaseConfig@34@AEBU534@@Z 000000018000ba30 f i DxCloth.obj
 0001:0000ab40       ?recreate@?$Array@UDxPhaseConfig@cloth@nv@@VNonTrackingAllocator@ps@23@@ps@cloth@nv@@IEAAXI@Z 000000018000bb40 f i DxCloth.obj
 0001:0000ac00       ??$min@PEBVPxVec3@physx@@@std@@YAAEBQEBVPxVec3@physx@@AEBQEBV12@0@Z 000000018000bc00 f i DxCloth.obj
 0001:0000ac10       ??$getMappedParticles@VPxVec4@physx@@@?$ClothImpl@VDxCloth@cloth@nv@@@cloth@nv@@QEBA?AU?$MappedRange@VPxVec4@physx@@@12@PEAVPxVec4@physx@@@Z 000000018000bc10 f i DxCloth.obj
 0001:0000aca0       ??$getMappedParticles@$$CBVPxVec4@physx@@@?$ClothImpl@VDxCloth@cloth@nv@@@cloth@nv@@QEBA?AU?$MappedRange@$$CBVPxVec4@physx@@@12@PEBVPxVec4@physx@@@Z 000000018000bca0 f i DxCloth.obj
 0001:0000ad30       ??$min@_J@std@@YAAEB_JAEB_J0@Z 000000018000bd30 f i DxCloth.obj
 0001:0000ad40       ??$?AH@?$Vec4T@I@cloth@nv@@QEBAAEBIH@Z 000000018000bd40 f i DxCloth.obj
 0001:0000ad50       ??$max@E@std@@YAAEBEAEBE0@Z 000000018000bd50 f i DxCloth.obj
 0001:0000ad60       ??$?0I@?$Vec4T@G@cloth@nv@@QEAA@AEBU?$Vec4T@I@12@@Z 000000018000bd60 f i DxCloth.obj
 0001:0000ad90       ??$?4VNonTrackingAllocator@ps@cloth@nv@@@?$DxBatchedVector@U?$Vec4T@G@cloth@nv@@@cloth@nv@@QEAAAEAV012@AEBV?$Array@U?$Vec4T@G@cloth@nv@@VNonTrackingAllocator@ps@23@@ps@12@@Z 000000018000bd90 f i DxCloth.obj
 0001:0000adc0       ??$?4VNonTrackingAllocator@ps@cloth@nv@@@?$DxBatchedVector@I@cloth@nv@@QEAAAEAV012@AEBV?$Array@IVNonTrackingAllocator@ps@cloth@nv@@@ps@12@@Z 000000018000bdc0 f i DxCloth.obj
 0001:0000adf0       ??$?4VNonTrackingAllocator@ps@cloth@nv@@@?$DxBatchedVector@VPxVec4@physx@@@cloth@nv@@QEAAAEAV012@AEBV?$Array@VPxVec4@physx@@VNonTrackingAllocator@ps@cloth@nv@@@ps@12@@Z 000000018000bdf0 f i DxCloth.obj
 0001:0000ae20       ??$copy@VNonTrackingAllocator@ps@cloth@nv@@@?$Array@UPhaseConfig@cloth@nv@@VNonTrackingAllocator@ps@23@@ps@cloth@nv@@IEAAXAEBV0123@@Z 000000018000be20 f i DxCloth.obj
 0001:0000aed0       ??$swap@PEAVPxVec4@physx@@@ps@cloth@nv@@YAXAEAPEAVPxVec4@physx@@0@Z 000000018000bed0 f i DxCloth.obj
 0001:0000aee0       ??$swap@I@ps@cloth@nv@@YAXAEAI0@Z 000000018000bee0 f i DxCloth.obj
 0001:0000aef0       ??$copy@VNonTrackingAllocator@ps@cloth@nv@@@?$Array@VPxVec4@physx@@VNonTrackingAllocator@ps@cloth@nv@@@ps@cloth@nv@@IEAAXAEBV0123@@Z 000000018000bef0 f i DxCloth.obj
 0001:0000af80       ??$swap@V?$DxBuffer@U?$Vec4T@G@cloth@nv@@@cloth@nv@@@ps@cloth@nv@@YAXAEAV?$DxBuffer@U?$Vec4T@G@cloth@nv@@@12@0@Z 000000018000bf80 f i DxCloth.obj
 0001:0000b030       ??$swap@V?$DxBuffer@VPxVec3@physx@@@cloth@nv@@@ps@cloth@nv@@YAXAEAV?$DxBuffer@VPxVec3@physx@@@12@0@Z 000000018000c030 f i DxCloth.obj
 0001:0000b0e0       ??$swap@V?$DxBuffer@I@cloth@nv@@@ps@cloth@nv@@YAXAEAV?$DxBuffer@I@12@0@Z 000000018000c0e0 f i DxCloth.obj
 0001:0000b190       ??$swap@V?$DxBuffer@UIndexPair@cloth@nv@@@cloth@nv@@@ps@cloth@nv@@YAXAEAV?$DxBuffer@UIndexPair@cloth@nv@@@12@0@Z 000000018000c190 f i DxCloth.obj
 0001:0000b240       ??$swap@V?$DxBuffer@UDxPhaseConfig@cloth@nv@@@cloth@nv@@@ps@cloth@nv@@YAXAEAV?$DxBuffer@UDxPhaseConfig@cloth@nv@@@12@0@Z 000000018000c240 f i DxCloth.obj
 0001:0000b2f0       ??$swap@V?$DxBuffer@VPxVec4@physx@@@cloth@nv@@@ps@cloth@nv@@YAXAEAV?$DxBuffer@VPxVec4@physx@@@12@0@Z 000000018000c2f0 f i DxCloth.obj
 0001:0000b3a0       ??4PxTransform@physx@@QEAAAEAV01@AEBV01@@Z 000000018000c3a0 f i DxCloth.obj
 0001:0000b3d0       ?capacityIncrement@?$Array@UDxPhaseConfig@cloth@nv@@VNonTrackingAllocator@ps@23@@ps@cloth@nv@@IEBAIXZ 000000018000c3d0 f i DxCloth.obj
 0001:0000b3f0       ?copy@?$Array@UDxPhaseConfig@cloth@nv@@VNonTrackingAllocator@ps@23@@ps@cloth@nv@@KAXPEAUDxPhaseConfig@34@0PEBU534@@Z 000000018000c3f0 f i DxCloth.obj
 0001:0000b420       ?allocate@?$Array@UDxPhaseConfig@cloth@nv@@VNonTrackingAllocator@ps@23@@ps@cloth@nv@@IEAAPEAUDxPhaseConfig@34@I@Z 000000018000c420 f i DxCloth.obj
 0001:0000b470       ?capacityIncrement@?$Array@U?$Vec4T@G@cloth@nv@@VNonTrackingAllocator@ps@23@@ps@cloth@nv@@IEBAIXZ 000000018000c470 f i DxCloth.obj
 0001:0000b490       ?copy@?$Array@U?$Vec4T@G@cloth@nv@@VNonTrackingAllocator@ps@23@@ps@cloth@nv@@KAXPEAU?$Vec4T@G@34@0PEBU534@@Z 000000018000c490 f i DxCloth.obj
 0001:0000b4b0       ?allocate@?$Array@U?$Vec4T@G@cloth@nv@@VNonTrackingAllocator@ps@23@@ps@cloth@nv@@IEAAPEAU?$Vec4T@G@34@I@Z 000000018000c4b0 f i DxCloth.obj
 0001:0000b500       ?end@?$Array@U?$Vec4T@G@cloth@nv@@VNonTrackingAllocator@ps@23@@ps@cloth@nv@@QEBAPEBU?$Vec4T@G@34@XZ 000000018000c500 f i DxCloth.obj
 0001:0000b510       ?begin@?$Array@U?$Vec4T@G@cloth@nv@@VNonTrackingAllocator@ps@23@@ps@cloth@nv@@QEBAPEBU?$Vec4T@G@34@XZ 000000018000c510 f i DxCloth.obj
 0001:0000b520       ?capacityIncrement@?$Array@UPhaseConfig@cloth@nv@@VNonTrackingAllocator@ps@23@@ps@cloth@nv@@IEBAIXZ 000000018000c520 f i DxCloth.obj
 0001:0000b540       ?allocate@?$Array@UPhaseConfig@cloth@nv@@VNonTrackingAllocator@ps@23@@ps@cloth@nv@@IEAAPEAUPhaseConfig@34@I@Z 000000018000c540 f i DxCloth.obj
 0001:0000b590       ?empty@?$Array@UPhaseConfig@cloth@nv@@VNonTrackingAllocator@ps@23@@ps@cloth@nv@@QEBA_NXZ 000000018000c590 f i DxCloth.obj
 0001:0000b5a0       ?begin@?$Array@UPhaseConfig@cloth@nv@@VNonTrackingAllocator@ps@23@@ps@cloth@nv@@QEBAPEBUPhaseConfig@34@XZ 000000018000c5a0 f i DxCloth.obj
 0001:0000b5b0       ?replaceWithLast@?$DxVectorMap@V?$DxBatchedVector@I@cloth@nv@@@cloth@nv@@QEAAXPEAI@Z 000000018000c5b0 f i DxCloth.obj
 0001:0000b5d0       ??A?$DxVectorMap@V?$DxBatchedVector@I@cloth@nv@@@cloth@nv@@QEAAAEAII@Z 000000018000c5d0 f i DxCloth.obj
 0001:0000b5e0       ?end@?$DxVectorMap@V?$DxBatchedVector@I@cloth@nv@@@cloth@nv@@QEAAPEAIXZ 000000018000c5e0 f i DxCloth.obj
 0001:0000b5f0       ?begin@?$DxVectorMap@V?$DxBatchedVector@I@cloth@nv@@@cloth@nv@@QEAAPEAIXZ 000000018000c5f0 f i DxCloth.obj
 0001:0000b600       ?resize@?$DxVectorMap@V?$DxBatchedVector@I@cloth@nv@@@cloth@nv@@QEAAXIAEBI@Z 000000018000c600 f i DxCloth.obj
 0001:0000b620       ??1?$DxVectorMap@V?$DxBatchedVector@I@cloth@nv@@@cloth@nv@@QEAA@XZ 000000018000c620 f i DxCloth.obj
 0001:0000b680       ??0?$DxVectorMap@V?$DxBatchedVector@I@cloth@nv@@@cloth@nv@@QEAA@AEAV?$DxBatchedVector@I@12@W4D3D11_MAP@@@Z 000000018000c680 f i DxCloth.obj
 0001:0000b710       ?replaceWithLast@?$DxVectorMap@V?$DxBatchedVector@UIndexPair@cloth@nv@@@cloth@nv@@@cloth@nv@@QEAAXPEAUIndexPair@23@@Z 000000018000c710 f i DxCloth.obj
 0001:0000b730       ??A?$DxVectorMap@V?$DxBatchedVector@UIndexPair@cloth@nv@@@cloth@nv@@@cloth@nv@@QEAAAEAUIndexPair@12@I@Z 000000018000c730 f i DxCloth.obj
 0001:0000b740       ?end@?$DxVectorMap@V?$DxBatchedVector@UIndexPair@cloth@nv@@@cloth@nv@@@cloth@nv@@QEAAPEAUIndexPair@23@XZ 000000018000c740 f i DxCloth.obj
 0001:0000b750       ?begin@?$DxVectorMap@V?$DxBatchedVector@UIndexPair@cloth@nv@@@cloth@nv@@@cloth@nv@@QEAAPEAUIndexPair@23@XZ 000000018000c750 f i DxCloth.obj
 0001:0000b760       ?resize@?$DxVectorMap@V?$DxBatchedVector@UIndexPair@cloth@nv@@@cloth@nv@@@cloth@nv@@QEAAXIAEBUIndexPair@23@@Z 000000018000c760 f i DxCloth.obj
 0001:0000b780       ??1?$DxVectorMap@V?$DxBatchedVector@UIndexPair@cloth@nv@@@cloth@nv@@@cloth@nv@@QEAA@XZ 000000018000c780 f i DxCloth.obj
 0001:0000b7e0       ??0?$DxVectorMap@V?$DxBatchedVector@UIndexPair@cloth@nv@@@cloth@nv@@@cloth@nv@@QEAA@AEAV?$DxBatchedVector@UIndexPair@cloth@nv@@@12@W4D3D11_MAP@@@Z 000000018000c7e0 f i DxCloth.obj
 0001:0000b870       ?pushBack@?$DxVectorMap@V?$DxBatchedVector@VPxVec4@physx@@@cloth@nv@@@cloth@nv@@QEAAXAEBVPxVec4@physx@@@Z 000000018000c870 f i DxCloth.obj
 0001:0000b8b0       ??A?$DxVectorMap@V?$DxBatchedVector@VPxVec4@physx@@@cloth@nv@@@cloth@nv@@QEAAAEAVPxVec4@physx@@I@Z 000000018000c8b0 f i DxCloth.obj
 0001:0000b8c0       ?begin@?$DxVectorMap@V?$DxBatchedVector@VPxVec4@physx@@@cloth@nv@@@cloth@nv@@QEAAPEAVPxVec4@physx@@XZ 000000018000c8c0 f i DxCloth.obj
 0001:0000b8d0       ?size@?$DxVectorMap@V?$DxBatchedVector@VPxVec4@physx@@@cloth@nv@@@cloth@nv@@QEBAIXZ 000000018000c8d0 f i DxCloth.obj
 0001:0000b8e0       ?resize@?$DxVectorMap@V?$DxBatchedVector@VPxVec4@physx@@@cloth@nv@@@cloth@nv@@QEAAXIAEBVPxVec4@physx@@@Z 000000018000c8e0 f i DxCloth.obj
 0001:0000b900       ??1?$DxVectorMap@V?$DxBatchedVector@VPxVec4@physx@@@cloth@nv@@@cloth@nv@@QEAA@XZ 000000018000c900 f i DxCloth.obj
 0001:0000b960       ??0?$DxVectorMap@V?$DxBatchedVector@VPxVec4@physx@@@cloth@nv@@@cloth@nv@@QEAA@AEAV?$DxBatchedVector@VPxVec4@physx@@@12@W4D3D11_MAP@@@Z 000000018000c960 f i DxCloth.obj
 0001:0000b9f0       ?pushBack@?$DxVectorMap@V?$DxBatchedVector@VPxVec3@physx@@@cloth@nv@@@cloth@nv@@QEAAXAEBVPxVec3@physx@@@Z 000000018000c9f0 f i DxCloth.obj
 0001:0000ba20       ??A?$DxVectorMap@V?$DxBatchedVector@VPxVec3@physx@@@cloth@nv@@@cloth@nv@@QEAAAEAVPxVec3@physx@@I@Z 000000018000ca20 f i DxCloth.obj
 0001:0000ba30       ?begin@?$DxVectorMap@V?$DxBatchedVector@VPxVec3@physx@@@cloth@nv@@@cloth@nv@@QEAAPEAVPxVec3@physx@@XZ 000000018000ca30 f i DxCloth.obj
 0001:0000ba40       ?size@?$DxVectorMap@V?$DxBatchedVector@VPxVec3@physx@@@cloth@nv@@@cloth@nv@@QEBAIXZ 000000018000ca40 f i DxCloth.obj
 0001:0000ba50       ?resize@?$DxVectorMap@V?$DxBatchedVector@VPxVec3@physx@@@cloth@nv@@@cloth@nv@@QEAAXIAEBVPxVec3@physx@@@Z 000000018000ca50 f i DxCloth.obj
 0001:0000ba70       ??1?$DxVectorMap@V?$DxBatchedVector@VPxVec3@physx@@@cloth@nv@@@cloth@nv@@QEAA@XZ 000000018000ca70 f i DxCloth.obj
 0001:0000bad0       ??0?$DxVectorMap@V?$DxBatchedVector@VPxVec3@physx@@@cloth@nv@@@cloth@nv@@QEAA@AEAV?$DxBatchedVector@VPxVec3@physx@@@12@W4D3D11_MAP@@@Z 000000018000cad0 f i DxCloth.obj
 0001:0000bb60       ?getChildCloth@?$ClothImpl@VDxCloth@cloth@nv@@@cloth@nv@@QEBAPEBVDxCloth@23@XZ 000000018000cb60 f i DxCloth.obj
 0001:0000bb70       ?getChildCloth@?$ClothImpl@VDxCloth@cloth@nv@@@cloth@nv@@QEAAPEAVDxCloth@23@XZ 000000018000cb70 f i DxCloth.obj
 0001:0000bb80       ?capacityIncrement@?$Array@VPxVec4@physx@@VNonTrackingAllocator@ps@cloth@nv@@@ps@cloth@nv@@IEBAIXZ 000000018000cb80 f i DxCloth.obj
 0001:0000bba0       ?copy@?$Array@VPxVec4@physx@@VNonTrackingAllocator@ps@cloth@nv@@@ps@cloth@nv@@KAXPEAVPxVec4@physx@@0PEBV56@@Z 000000018000cba0 f i DxCloth.obj
 0001:0000bcc0       ?allocate@?$Array@VPxVec4@physx@@VNonTrackingAllocator@ps@cloth@nv@@@ps@cloth@nv@@IEAAPEAVPxVec4@physx@@I@Z 000000018000ccc0 f i DxCloth.obj
 0001:0000bd10       ?end@?$Array@VPxVec4@physx@@VNonTrackingAllocator@ps@cloth@nv@@@ps@cloth@nv@@QEBAPEBVPxVec4@physx@@XZ 000000018000cd10 f i DxCloth.obj
 0001:0000bd20       ?begin@?$Array@VPxVec4@physx@@VNonTrackingAllocator@ps@cloth@nv@@@ps@cloth@nv@@QEBAPEBVPxVec4@physx@@XZ 000000018000cd20 f i DxCloth.obj
 0001:0000bd30       ??0?$MappedRange@$$CBVPxVec4@physx@@@cloth@nv@@QEAA@PEBVPxVec4@physx@@0AEBVCloth@12@P8512@EBAXXZ2@Z 000000018000cd30 f i DxCloth.obj
 0001:0000bd60       ??0?$MappedRange@VPxVec4@physx@@@cloth@nv@@QEAA@PEAVPxVec4@physx@@0AEBVCloth@12@P8512@EBAXXZ2@Z 000000018000cd60 f i DxCloth.obj
 0001:0000bd90       ?reserve@?$Array@IVNonTrackingAllocator@ps@cloth@nv@@@ps@cloth@nv@@QEAAXI@Z 000000018000cd90 f i DxCloth.obj
 0001:0000bda0       ?capacityIncrement@?$Array@PEAV?$DxBatchedVector@U?$Vec4T@G@cloth@nv@@@cloth@nv@@VNonTrackingAllocator@ps@23@@ps@cloth@nv@@IEBAIXZ 000000018000cda0 f i DxCloth.obj
 0001:0000bdc0       ?destroy@?$Array@PEAV?$DxBatchedVector@U?$Vec4T@G@cloth@nv@@@cloth@nv@@VNonTrackingAllocator@ps@23@@ps@cloth@nv@@KAXPEAPEAV?$DxBatchedVector@U?$Vec4T@G@cloth@nv@@@34@0@Z 000000018000cdc0 f i DxCloth.obj
 0001:0000bdd0       ?copy@?$Array@PEAV?$DxBatchedVector@U?$Vec4T@G@cloth@nv@@@cloth@nv@@VNonTrackingAllocator@ps@23@@ps@cloth@nv@@KAXPEAPEAV?$DxBatchedVector@U?$Vec4T@G@cloth@nv@@@34@0PEBQEAV534@@Z 000000018000cdd0 f i DxCloth.obj
 0001:0000bdf0       ?deallocate@?$Array@PEAV?$DxBatchedVector@U?$Vec4T@G@cloth@nv@@@cloth@nv@@VNonTrackingAllocator@ps@23@@ps@cloth@nv@@IEAAXPEAX@Z 000000018000cdf0 f i DxCloth.obj
 0001:0000be10       ?allocate@?$Array@PEAV?$DxBatchedVector@U?$Vec4T@G@cloth@nv@@@cloth@nv@@VNonTrackingAllocator@ps@23@@ps@cloth@nv@@IEAAPEAPEAV?$DxBatchedVector@U?$Vec4T@G@cloth@nv@@@34@I@Z 000000018000ce10 f i DxCloth.obj
 0001:0000be60       ?isInUserMemory@?$Array@PEAV?$DxBatchedVector@U?$Vec4T@G@cloth@nv@@@cloth@nv@@VNonTrackingAllocator@ps@23@@ps@cloth@nv@@QEBAIXZ 000000018000ce60 f i DxCloth.obj
 0001:0000be70       ??4?$DxBuffer@U?$Vec4T@G@cloth@nv@@@cloth@nv@@QEAAAEAV012@AEBV012@@Z 000000018000ce70 f i DxCloth.obj
 0001:0000bf30       ??0?$DxBuffer@U?$Vec4T@G@cloth@nv@@@cloth@nv@@QEAA@AEBV012@@Z 000000018000cf30 f i DxCloth.obj
 0001:0000bf70       ?assign@?$DxBatchedVector@U?$Vec4T@G@cloth@nv@@@cloth@nv@@QEAAXPEBU?$Vec4T@G@23@0@Z 000000018000cf70 f i DxCloth.obj
 0001:0000bf90       ?capacityIncrement@?$Array@PEAV?$DxBatchedVector@VPxVec3@physx@@@cloth@nv@@VNonTrackingAllocator@ps@23@@ps@cloth@nv@@IEBAIXZ 000000018000cf90 f i DxCloth.obj
 0001:0000bfb0       ?destroy@?$Array@PEAV?$DxBatchedVector@VPxVec3@physx@@@cloth@nv@@VNonTrackingAllocator@ps@23@@ps@cloth@nv@@KAXPEAPEAV?$DxBatchedVector@VPxVec3@physx@@@34@0@Z 000000018000cfb0 f i DxCloth.obj
 0001:0000bfc0       ?copy@?$Array@PEAV?$DxBatchedVector@VPxVec3@physx@@@cloth@nv@@VNonTrackingAllocator@ps@23@@ps@cloth@nv@@KAXPEAPEAV?$DxBatchedVector@VPxVec3@physx@@@34@0PEBQEAV534@@Z 000000018000cfc0 f i DxCloth.obj
 0001:0000bfe0       ?deallocate@?$Array@PEAV?$DxBatchedVector@VPxVec3@physx@@@cloth@nv@@VNonTrackingAllocator@ps@23@@ps@cloth@nv@@IEAAXPEAX@Z 000000018000cfe0 f i DxCloth.obj
 0001:0000c000       ?allocate@?$Array@PEAV?$DxBatchedVector@VPxVec3@physx@@@cloth@nv@@VNonTrackingAllocator@ps@23@@ps@cloth@nv@@IEAAPEAPEAV?$DxBatchedVector@VPxVec3@physx@@@34@I@Z 000000018000d000 f i DxCloth.obj
 0001:0000c050       ?isInUserMemory@?$Array@PEAV?$DxBatchedVector@VPxVec3@physx@@@cloth@nv@@VNonTrackingAllocator@ps@23@@ps@cloth@nv@@QEBAIXZ 000000018000d050 f i DxCloth.obj
 0001:0000c060       ??4?$DxBuffer@VPxVec3@physx@@@cloth@nv@@QEAAAEAV012@AEBV012@@Z 000000018000d060 f i DxCloth.obj
 0001:0000c120       ??0?$DxBuffer@VPxVec3@physx@@@cloth@nv@@QEAA@AEBV012@@Z 000000018000d120 f i DxCloth.obj
 0001:0000c160       ?assign@?$DxBatchedVector@VPxVec3@physx@@@cloth@nv@@QEAAXPEBVPxVec3@physx@@0@Z 000000018000d160 f i DxCloth.obj
 0001:0000c190       ?resize@?$DxBatchedVector@VPxVec3@physx@@@cloth@nv@@QEAAXI@Z 000000018000d190 f i DxCloth.obj
 0001:0000c1b0       ?reserve@?$DxBatchedVector@VPxVec3@physx@@@cloth@nv@@QEAAXI@Z 000000018000d1b0 f i DxCloth.obj
 0001:0000c1c0       ?capacity@?$DxBatchedVector@VPxVec3@physx@@@cloth@nv@@QEBAIXZ 000000018000d1c0 f i DxCloth.obj
 0001:0000c1d0       ?capacityIncrement@?$Array@PEAV?$DxBatchedVector@I@cloth@nv@@VNonTrackingAllocator@ps@23@@ps@cloth@nv@@IEBAIXZ 000000018000d1d0 f i DxCloth.obj
 0001:0000c1f0       ?destroy@?$Array@PEAV?$DxBatchedVector@I@cloth@nv@@VNonTrackingAllocator@ps@23@@ps@cloth@nv@@KAXPEAPEAV?$DxBatchedVector@I@34@0@Z 000000018000d1f0 f i DxCloth.obj
 0001:0000c200       ?copy@?$Array@PEAV?$DxBatchedVector@I@cloth@nv@@VNonTrackingAllocator@ps@23@@ps@cloth@nv@@KAXPEAPEAV?$DxBatchedVector@I@34@0PEBQEAV534@@Z 000000018000d200 f i DxCloth.obj
 0001:0000c220       ?deallocate@?$Array@PEAV?$DxBatchedVector@I@cloth@nv@@VNonTrackingAllocator@ps@23@@ps@cloth@nv@@IEAAXPEAX@Z 000000018000d220 f i DxCloth.obj
 0001:0000c240       ?allocate@?$Array@PEAV?$DxBatchedVector@I@cloth@nv@@VNonTrackingAllocator@ps@23@@ps@cloth@nv@@IEAAPEAPEAV?$DxBatchedVector@I@34@I@Z 000000018000d240 f i DxCloth.obj
 0001:0000c290       ?isInUserMemory@?$Array@PEAV?$DxBatchedVector@I@cloth@nv@@VNonTrackingAllocator@ps@23@@ps@cloth@nv@@QEBAIXZ 000000018000d290 f i DxCloth.obj
 0001:0000c2a0       ??4?$DxBuffer@I@cloth@nv@@QEAAAEAV012@AEBV012@@Z 000000018000d2a0 f i DxCloth.obj
 0001:0000c360       ??0?$DxBuffer@I@cloth@nv@@QEAA@AEBV012@@Z 000000018000d360 f i DxCloth.obj
 0001:0000c3a0       ?reserve@?$DxBatchedVector@I@cloth@nv@@QEAAXI@Z 000000018000d3a0 f i DxCloth.obj
 0001:0000c3b0       ?capacity@?$DxBatchedVector@I@cloth@nv@@QEBAIXZ 000000018000d3b0 f i DxCloth.obj
 0001:0000c3c0       ?capacityIncrement@?$Array@PEAV?$DxBatchedVector@UIndexPair@cloth@nv@@@cloth@nv@@VNonTrackingAllocator@ps@23@@ps@cloth@nv@@IEBAIXZ 000000018000d3c0 f i DxCloth.obj
 0001:0000c3e0       ?destroy@?$Array@PEAV?$DxBatchedVector@UIndexPair@cloth@nv@@@cloth@nv@@VNonTrackingAllocator@ps@23@@ps@cloth@nv@@KAXPEAPEAV?$DxBatchedVector@UIndexPair@cloth@nv@@@34@0@Z 000000018000d3e0 f i DxCloth.obj
 0001:0000c3f0       ?copy@?$Array@PEAV?$DxBatchedVector@UIndexPair@cloth@nv@@@cloth@nv@@VNonTrackingAllocator@ps@23@@ps@cloth@nv@@KAXPEAPEAV?$DxBatchedVector@UIndexPair@cloth@nv@@@34@0PEBQEAV534@@Z 000000018000d3f0 f i DxCloth.obj
 0001:0000c410       ?deallocate@?$Array@PEAV?$DxBatchedVector@UIndexPair@cloth@nv@@@cloth@nv@@VNonTrackingAllocator@ps@23@@ps@cloth@nv@@IEAAXPEAX@Z 000000018000d410 f i DxCloth.obj
 0001:0000c430       ?allocate@?$Array@PEAV?$DxBatchedVector@UIndexPair@cloth@nv@@@cloth@nv@@VNonTrackingAllocator@ps@23@@ps@cloth@nv@@IEAAPEAPEAV?$DxBatchedVector@UIndexPair@cloth@nv@@@34@I@Z 000000018000d430 f i DxCloth.obj
 0001:0000c480       ?isInUserMemory@?$Array@PEAV?$DxBatchedVector@UIndexPair@cloth@nv@@@cloth@nv@@VNonTrackingAllocator@ps@23@@ps@cloth@nv@@QEBAIXZ 000000018000d480 f i DxCloth.obj
 0001:0000c490       ??4?$DxBuffer@UIndexPair@cloth@nv@@@cloth@nv@@QEAAAEAV012@AEBV012@@Z 000000018000d490 f i DxCloth.obj
 0001:0000c550       ??0?$DxBuffer@UIndexPair@cloth@nv@@@cloth@nv@@QEAA@AEBV012@@Z 000000018000d550 f i DxCloth.obj
 0001:0000c590       ?resize@?$DxBatchedVector@UIndexPair@cloth@nv@@@cloth@nv@@QEAAXI@Z 000000018000d590 f i DxCloth.obj
 0001:0000c5a0       ?reserve@?$DxBatchedVector@UIndexPair@cloth@nv@@@cloth@nv@@QEAAXI@Z 000000018000d5a0 f i DxCloth.obj
 0001:0000c5b0       ?capacity@?$DxBatchedVector@UIndexPair@cloth@nv@@@cloth@nv@@QEBAIXZ 000000018000d5b0 f i DxCloth.obj
 0001:0000c5c0       ?capacityIncrement@?$Array@PEAV?$DxBatchedVector@UDxPhaseConfig@cloth@nv@@@cloth@nv@@VNonTrackingAllocator@ps@23@@ps@cloth@nv@@IEBAIXZ 000000018000d5c0 f i DxCloth.obj
 0001:0000c5e0       ?destroy@?$Array@PEAV?$DxBatchedVector@UDxPhaseConfig@cloth@nv@@@cloth@nv@@VNonTrackingAllocator@ps@23@@ps@cloth@nv@@KAXPEAPEAV?$DxBatchedVector@UDxPhaseConfig@cloth@nv@@@34@0@Z 000000018000d5e0 f i DxCloth.obj
 0001:0000c5f0       ?copy@?$Array@PEAV?$DxBatchedVector@UDxPhaseConfig@cloth@nv@@@cloth@nv@@VNonTrackingAllocator@ps@23@@ps@cloth@nv@@KAXPEAPEAV?$DxBatchedVector@UDxPhaseConfig@cloth@nv@@@34@0PEBQEAV534@@Z 000000018000d5f0 f i DxCloth.obj
 0001:0000c610       ?deallocate@?$Array@PEAV?$DxBatchedVector@UDxPhaseConfig@cloth@nv@@@cloth@nv@@VNonTrackingAllocator@ps@23@@ps@cloth@nv@@IEAAXPEAX@Z 000000018000d610 f i DxCloth.obj
 0001:0000c630       ?allocate@?$Array@PEAV?$DxBatchedVector@UDxPhaseConfig@cloth@nv@@@cloth@nv@@VNonTrackingAllocator@ps@23@@ps@cloth@nv@@IEAAPEAPEAV?$DxBatchedVector@UDxPhaseConfig@cloth@nv@@@34@I@Z 000000018000d630 f i DxCloth.obj
 0001:0000c680       ?isInUserMemory@?$Array@PEAV?$DxBatchedVector@UDxPhaseConfig@cloth@nv@@@cloth@nv@@VNonTrackingAllocator@ps@23@@ps@cloth@nv@@QEBAIXZ 000000018000d680 f i DxCloth.obj
 0001:0000c690       ??4?$DxBuffer@UDxPhaseConfig@cloth@nv@@@cloth@nv@@QEAAAEAV012@AEBV012@@Z 000000018000d690 f i DxCloth.obj
 0001:0000c750       ??0?$DxBuffer@UDxPhaseConfig@cloth@nv@@@cloth@nv@@QEAA@AEBV012@@Z 000000018000d750 f i DxCloth.obj
 0001:0000c790       ?capacityIncrement@?$Array@PEAV?$DxBatchedVector@VPxVec4@physx@@@cloth@nv@@VNonTrackingAllocator@ps@23@@ps@cloth@nv@@IEBAIXZ 000000018000d790 f i DxCloth.obj
 0001:0000c7b0       ?destroy@?$Array@PEAV?$DxBatchedVector@VPxVec4@physx@@@cloth@nv@@VNonTrackingAllocator@ps@23@@ps@cloth@nv@@KAXPEAPEAV?$DxBatchedVector@VPxVec4@physx@@@34@0@Z 000000018000d7b0 f i DxCloth.obj
 0001:0000c7c0       ?copy@?$Array@PEAV?$DxBatchedVector@VPxVec4@physx@@@cloth@nv@@VNonTrackingAllocator@ps@23@@ps@cloth@nv@@KAXPEAPEAV?$DxBatchedVector@VPxVec4@physx@@@34@0PEBQEAV534@@Z 000000018000d7c0 f i DxCloth.obj
 0001:0000c7e0       ?deallocate@?$Array@PEAV?$DxBatchedVector@VPxVec4@physx@@@cloth@nv@@VNonTrackingAllocator@ps@23@@ps@cloth@nv@@IEAAXPEAX@Z 000000018000d7e0 f i DxCloth.obj
 0001:0000c800       ?allocate@?$Array@PEAV?$DxBatchedVector@VPxVec4@physx@@@cloth@nv@@VNonTrackingAllocator@ps@23@@ps@cloth@nv@@IEAAPEAPEAV?$DxBatchedVector@VPxVec4@physx@@@34@I@Z 000000018000d800 f i DxCloth.obj
 0001:0000c850       ?isInUserMemory@?$Array@PEAV?$DxBatchedVector@VPxVec4@physx@@@cloth@nv@@VNonTrackingAllocator@ps@23@@ps@cloth@nv@@QEBAIXZ 000000018000d850 f i DxCloth.obj
 0001:0000c860       ??4?$DxBuffer@VPxVec4@physx@@@cloth@nv@@QEAAAEAV012@AEBV012@@Z 000000018000d860 f i DxCloth.obj
 0001:0000c920       ??0?$DxBuffer@VPxVec4@physx@@@cloth@nv@@QEAA@AEBV012@@Z 000000018000d920 f i DxCloth.obj
 0001:0000c960       ?assign@?$DxBatchedVector@VPxVec4@physx@@@cloth@nv@@QEAAXPEBVPxVec4@physx@@0@Z 000000018000d960 f i DxCloth.obj
 0001:0000c980       ?grow@?$Array@IVNonTrackingAllocator@ps@cloth@nv@@@ps@cloth@nv@@IEAAXI@Z 000000018000d980 f i DxCloth.obj
 0001:0000c990       ?assign@?$DxBatchedStorage@U?$Vec4T@G@cloth@nv@@@cloth@nv@@AEAAXPEAV?$DxBatchedVector@U?$Vec4T@G@cloth@nv@@@23@PEBU?$Vec4T@G@23@I@Z 000000018000d990 f i DxCloth.obj
 0001:0000ca40       ?manager@?$DxBatchedVector@VPxVec3@physx@@@cloth@nv@@QEBAPEAVDxContextManagerCallback@23@XZ 000000018000da40 f i DxCloth.obj
 0001:0000ca50       ?unmap@?$DxBatchedVector@VPxVec3@physx@@@cloth@nv@@QEAAXXZ 000000018000da50 f i DxCloth.obj
 0001:0000ca90       ?map@?$DxBatchedVector@VPxVec3@physx@@@cloth@nv@@QEAAPEAVPxVec3@physx@@W4D3D11_MAP@@@Z 000000018000da90 f i DxCloth.obj
 0001:0000caf0       ?assign@?$DxBatchedStorage@VPxVec3@physx@@@cloth@nv@@AEAAXPEAV?$DxBatchedVector@VPxVec3@physx@@@23@PEBVPxVec3@physx@@I@Z 000000018000daf0 f i DxCloth.obj
 0001:0000cba0       ?manager@?$DxBatchedVector@I@cloth@nv@@QEBAPEAVDxContextManagerCallback@23@XZ 000000018000dba0 f i DxCloth.obj
 0001:0000cbb0       ?unmap@?$DxBatchedVector@I@cloth@nv@@QEAAXXZ 000000018000dbb0 f i DxCloth.obj
 0001:0000cbf0       ?map@?$DxBatchedVector@I@cloth@nv@@QEAAPEAIW4D3D11_MAP@@@Z 000000018000dbf0 f i DxCloth.obj
 0001:0000cc50       ?manager@?$DxBatchedVector@UIndexPair@cloth@nv@@@cloth@nv@@QEBAPEAVDxContextManagerCallback@23@XZ 000000018000dc50 f i DxCloth.obj
 0001:0000cc60       ?unmap@?$DxBatchedVector@UIndexPair@cloth@nv@@@cloth@nv@@QEAAXXZ 000000018000dc60 f i DxCloth.obj
 0001:0000cca0       ?map@?$DxBatchedVector@UIndexPair@cloth@nv@@@cloth@nv@@QEAAPEAUIndexPair@23@W4D3D11_MAP@@@Z 000000018000dca0 f i DxCloth.obj
 0001:0000cd00       ?assign@?$DxBatchedStorage@UIndexPair@cloth@nv@@@cloth@nv@@AEAAXPEAV?$DxBatchedVector@UIndexPair@cloth@nv@@@23@PEBUIndexPair@23@I@Z 000000018000dd00 f i DxCloth.obj
 0001:0000cdb0       ?manager@?$DxBatchedVector@VPxVec4@physx@@@cloth@nv@@QEBAPEAVDxContextManagerCallback@23@XZ 000000018000ddb0 f i DxCloth.obj
 0001:0000cdc0       ?size@?$Range@$$CBI@cloth@nv@@QEBAIXZ 000000018000ddc0 f i DxCloth.obj
 0001:0000cdd0       ??A?$Range@$$CBI@cloth@nv@@QEBAAEBII@Z 000000018000ddd0 f i DxCloth.obj
 0001:0000cde0       ??0?$Range@$$CBVPxVec4@physx@@@cloth@nv@@QEAA@PEBVPxVec4@physx@@0@Z 000000018000dde0 f i DxCloth.obj
 0001:0000cdf0       ??A?$Range@$$CBVPxVec4@physx@@@cloth@nv@@QEBAAEBVPxVec4@physx@@I@Z 000000018000ddf0 f i DxCloth.obj
 0001:0000ce00       ?recreate@?$Array@IVNonTrackingAllocator@ps@cloth@nv@@@ps@cloth@nv@@IEAAXI@Z 000000018000de00 f i DxCloth.obj
 0001:0000ceb0       ??A?$Range@$$CBVPxVec3@physx@@@cloth@nv@@QEBAAEBVPxVec3@physx@@I@Z 000000018000deb0 f i DxCloth.obj
 0001:0000cec0       ??$min@PEBVPxVec4@physx@@@std@@YAAEBQEBVPxVec4@physx@@AEBQEBV12@0@Z 000000018000dec0 f i DxCloth.obj
 0001:0000ced0       ??$move@PEAVPxVec4@physx@@@cloth@nv@@YAXPEAVPxVec4@physx@@III@Z 000000018000ded0 f i DxCloth.obj
 0001:0000d0a0       ??$move@PEAUIndexPair@cloth@nv@@@cloth@nv@@YAXPEAUIndexPair@01@III@Z 000000018000e0a0 f i DxCloth.obj
 0001:0000d110       ??$move@PEAI@cloth@nv@@YAXPEAIIII@Z 000000018000e110 f i DxCloth.obj
 0001:0000d190       ??$move@PEAVPxVec3@physx@@@cloth@nv@@YAXPEAVPxVec3@physx@@III@Z 000000018000e190 f i DxCloth.obj
 0001:0000d330       ??$swap@V?$DxBatchedVector@VPxVec4@physx@@@cloth@nv@@@ps@cloth@nv@@YAXAEAV?$DxBatchedVector@VPxVec4@physx@@@12@0@Z 000000018000e330 f i DxCloth.obj
 0001:0000d400       ?allocate@?$Array@IVNonTrackingAllocator@ps@cloth@nv@@@ps@cloth@nv@@IEAAPEAII@Z 000000018000e400 f i DxCloth.obj
 0001:0000d444       ??_9Cloth@cloth@nv@@$BDA@AA 000000018000e444 f i DxCloth.obj
 0001:0000d44c       ??_9Cloth@cloth@nv@@$BCI@AA 000000018000e44c f i DxCloth.obj
 0001:0000d460       ??2UserAllocated@cloth@nv@@SAPEAX_KPEBDHUNvClothOverload@12@@Z 000000018000e460 f i DxClothClone.obj
 0001:0000d490       ??0SwContextLock@cloth@nv@@QEAA@AEBVSwFactory@12@@Z 000000018000e490 f i DxClothClone.obj
 0001:0000d4a0       ?getPhaseConfigs@cloth@nv@@YA?AU?$Range@$$CBUPhaseConfig@cloth@nv@@@12@AEBVSwCloth@12@@Z 000000018000e4a0 f i DxClothClone.obj
 0001:0000d4e0       ?setPhaseConfigs@cloth@nv@@YAXAEAVSwCloth@12@U?$Range@$$CBUPhaseConfig@cloth@nv@@@12@@Z 000000018000e4e0 f i DxClothClone.obj
 0001:0000d560       ?getParticleAccelerations@cloth@nv@@YA?AU?$Range@$$CBVPxVec4@physx@@@12@AEBVSwCloth@12@@Z 000000018000e560 f i DxClothClone.obj
 0001:0000d5a0       ?getSelfCollisionIndices@cloth@nv@@YA?AU?$Range@$$CBI@12@AEBVSwCloth@12@@Z 000000018000e5a0 f i DxClothClone.obj
 0001:0000d5e0       ??$PX_UNUSED@UNvClothOverload@cloth@nv@@@@YAXAEBUNvClothOverload@cloth@nv@@@Z 000000018000e5e0 f i DxClothClone.obj
 0001:0000d5f0       ?resize@?$Array@VPxVec4@physx@@VNonTrackingAllocator@ps@cloth@nv@@@ps@cloth@nv@@QEAAXIAEBVPxVec4@physx@@@Z 000000018000e5f0 f i DxClothClone.obj
 0001:0000d650       ??$makeRange@UPhaseConfig@cloth@nv@@VNonTrackingAllocator@ps@23@@cloth@nv@@YA?AU?$Range@$$CBUPhaseConfig@cloth@nv@@@01@AEBV?$Array@UPhaseConfig@cloth@nv@@VNonTrackingAllocator@ps@23@@ps@01@@Z 000000018000e650 f i DxClothClone.obj
 0001:0000d690       ??$makeRange@VPxVec4@physx@@VNonTrackingAllocator@ps@cloth@nv@@@cloth@nv@@YA?AU?$Range@$$CBVPxVec4@physx@@@01@AEBV?$Array@VPxVec4@physx@@VNonTrackingAllocator@ps@cloth@nv@@@ps@01@@Z 000000018000e690 f i DxClothClone.obj
 0001:0000d6c0       ??$makeRange@IVNonTrackingAllocator@ps@cloth@nv@@@cloth@nv@@YA?AU?$Range@$$CBI@01@AEBV?$Array@IVNonTrackingAllocator@ps@cloth@nv@@@ps@01@@Z 000000018000e6c0 f i DxClothClone.obj
 0001:0000d6f0       ??$convertCloth@VSwFactory@cloth@nv@@VDxCloth@23@@cloth@nv@@YAPEAVSwCloth@01@AEAVSwFactory@01@AEBVDxCloth@01@@Z 000000018000e6f0 f i DxClothClone.obj
 0001:0000e220       ??$convertCloth@VDxFactory@cloth@nv@@VDxCloth@23@@cloth@nv@@YAPEAVDxCloth@01@AEAVDxFactory@01@AEBV201@@Z 000000018000f220 f i DxClothClone.obj
 0001:0000ed00       ??$convertCloth@VDxFactory@cloth@nv@@VSwCloth@23@@cloth@nv@@YAPEAVDxCloth@01@AEAVDxFactory@01@AEBVSwCloth@01@@Z 000000018000fd00 f i DxClothClone.obj
 0001:0000f7a0       ?empty@?$Array@U?$Vec4T@I@cloth@nv@@VNonTrackingAllocator@ps@23@@ps@cloth@nv@@QEBA_NXZ 00000001800107a0 f i DxClothClone.obj
 0001:0000f7b0       ?size@?$Array@U?$Vec4T@I@cloth@nv@@VNonTrackingAllocator@ps@23@@ps@cloth@nv@@QEBAIXZ 00000001800107b0 f i DxClothClone.obj
 0001:0000f7c0       ?front@?$Array@U?$Vec4T@I@cloth@nv@@VNonTrackingAllocator@ps@23@@ps@cloth@nv@@QEAAAEAU?$Vec4T@I@34@XZ 00000001800107c0 f i DxClothClone.obj
 0001:0000f7d0       ??0?$Array@U?$Vec4T@I@cloth@nv@@VNonTrackingAllocator@ps@23@@ps@cloth@nv@@QEAA@IAEBU?$Vec4T@I@23@AEBVNonTrackingAllocator@123@@Z 00000001800107d0 f i DxClothClone.obj
 0001:0000f7f0       ?capacity@?$Array@VPxVec3@physx@@VNonTrackingAllocator@ps@cloth@nv@@@ps@cloth@nv@@QEBAIXZ 00000001800107f0 f i DxClothClone.obj
 0001:0000f800       ?reserve@?$Array@VPxVec3@physx@@VNonTrackingAllocator@ps@cloth@nv@@@ps@cloth@nv@@QEAAXI@Z 0000000180010800 f i DxClothClone.obj
 0001:0000f810       ?empty@?$Array@VPxVec3@physx@@VNonTrackingAllocator@ps@cloth@nv@@@ps@cloth@nv@@QEBA_NXZ 0000000180010810 f i DxClothClone.obj
 0001:0000f820       ?size@?$Array@VPxVec3@physx@@VNonTrackingAllocator@ps@cloth@nv@@@ps@cloth@nv@@QEBAIXZ 0000000180010820 f i DxClothClone.obj
 0001:0000f830       ?front@?$Array@VPxVec3@physx@@VNonTrackingAllocator@ps@cloth@nv@@@ps@cloth@nv@@QEAAAEAVPxVec3@physx@@XZ 0000000180010830 f i DxClothClone.obj
 0001:0000f840       ??1?$Array@VPxVec3@physx@@VNonTrackingAllocator@ps@cloth@nv@@@ps@cloth@nv@@QEAA@XZ 0000000180010840 f i DxClothClone.obj
 0001:0000f870       ??0?$Array@VPxVec3@physx@@VNonTrackingAllocator@ps@cloth@nv@@@ps@cloth@nv@@QEAA@IAEBVPxVec3@physx@@AEBVNonTrackingAllocator@123@@Z 0000000180010870 f i DxClothClone.obj
 0001:0000f890       ?create@?$Array@VPxVec4@physx@@VNonTrackingAllocator@ps@cloth@nv@@@ps@cloth@nv@@KAXPEAVPxVec4@physx@@0AEBV56@@Z 0000000180010890 f i DxClothClone.obj
 0001:0000f990       ??0?$Array@VPxVec4@physx@@VNonTrackingAllocator@ps@cloth@nv@@@ps@cloth@nv@@QEAA@IAEBVPxVec4@physx@@AEBVNonTrackingAllocator@123@@Z 0000000180010990 f i DxClothClone.obj
 0001:0000f9b0       ??0?$Vec4T@I@cloth@nv@@QEAA@XZ 00000001800109b0 f i DxClothClone.obj
 0001:0000f9c0       ?empty@?$Array@IVNonTrackingAllocator@ps@cloth@nv@@@ps@cloth@nv@@QEBA_NXZ 00000001800109c0 f i DxClothClone.obj
 0001:0000f9d0       ?size@?$Array@IVNonTrackingAllocator@ps@cloth@nv@@@ps@cloth@nv@@QEBAIXZ 00000001800109d0 f i DxClothClone.obj
 0001:0000f9e0       ??0?$Array@IVNonTrackingAllocator@ps@cloth@nv@@@ps@cloth@nv@@QEAA@IAEBIAEBVNonTrackingAllocator@123@@Z 00000001800109e0 f i DxClothClone.obj
 0001:0000fa00       ?grow@?$Array@VPxVec3@physx@@VNonTrackingAllocator@ps@cloth@nv@@@ps@cloth@nv@@IEAAXI@Z 0000000180010a00 f i DxClothClone.obj
 0001:0000fa10       ?destroy@?$Array@VPxVec3@physx@@VNonTrackingAllocator@ps@cloth@nv@@@ps@cloth@nv@@KAXPEAVPxVec3@physx@@0@Z 0000000180010a10 f i DxClothClone.obj
 0001:0000fa20       ?copy@?$Array@VPxVec3@physx@@VNonTrackingAllocator@ps@cloth@nv@@@ps@cloth@nv@@KAXPEAVPxVec3@physx@@0PEBV56@@Z 0000000180010a20 f i DxClothClone.obj
 0001:0000fb10       ?deallocate@?$Array@VPxVec3@physx@@VNonTrackingAllocator@ps@cloth@nv@@@ps@cloth@nv@@IEAAXPEAX@Z 0000000180010b10 f i DxClothClone.obj
 0001:0000fb30       ?isInUserMemory@?$Array@VPxVec3@physx@@VNonTrackingAllocator@ps@cloth@nv@@@ps@cloth@nv@@QEBAIXZ 0000000180010b30 f i DxClothClone.obj
 0001:0000fb40       ??0?$Range@$$CBI@cloth@nv@@QEAA@PEBI0@Z 0000000180010b40 f i DxClothClone.obj
 0001:0000fb50       ?begin@?$Range@VPxVec4@physx@@@cloth@nv@@QEBAPEAVPxVec4@physx@@XZ 0000000180010b50 f i DxClothClone.obj
 0001:0000fb60       ??0?$Range@VPxVec3@physx@@@cloth@nv@@QEAA@PEAVPxVec3@physx@@0@Z 0000000180010b60 f i DxClothClone.obj
 0001:0000fb70       ??0?$Range@$$BY03I@cloth@nv@@QEAA@PEAY03I0@Z 0000000180010b70 f i DxClothClone.obj
 0001:0000fb80       ?resize@?$Array@IVNonTrackingAllocator@ps@cloth@nv@@@ps@cloth@nv@@QEAAXIAEBI@Z 0000000180010b80 f i DxClothClone.obj
 0001:0000fbf0       ?resize@?$Array@VPxVec3@physx@@VNonTrackingAllocator@ps@cloth@nv@@@ps@cloth@nv@@QEAAXIAEBVPxVec3@physx@@@Z 0000000180010bf0 f i DxClothClone.obj
 0001:0000fc50       ?recreate@?$Array@VPxVec3@physx@@VNonTrackingAllocator@ps@cloth@nv@@@ps@cloth@nv@@IEAAXI@Z 0000000180010c50 f i DxClothClone.obj
 0001:0000fcf0       ??$makeRange@VPxVec4@physx@@VNonTrackingAllocator@ps@cloth@nv@@@cloth@nv@@YA?AU?$Range@VPxVec4@physx@@@01@AEAV?$Array@VPxVec4@physx@@VNonTrackingAllocator@ps@cloth@nv@@@ps@01@@Z 0000000180010cf0 f i DxClothClone.obj
 0001:0000fd20       ??$makeRange@IVNonTrackingAllocator@ps@cloth@nv@@@cloth@nv@@YA?AU?$Range@I@01@AEAV?$Array@IVNonTrackingAllocator@ps@cloth@nv@@@ps@01@@Z 0000000180010d20 f i DxClothClone.obj
 0001:0000fd50       ??$convertFabric@VDxFabric@cloth@nv@@VSwFactory@23@@cloth@nv@@YAPEAVSwFabric@01@AEBVDxFabric@01@AEAVSwFactory@01@@Z 0000000180010d50 f i DxClothClone.obj
 0001:00010400       ??$copy@VSwCloth@cloth@nv@@VDxCloth@23@@cloth@nv@@YAXAEAVSwCloth@01@AEBVDxCloth@01@@Z 0000000180011400 f i DxClothClone.obj
 0001:000106e0       ??$?0VPxVec4@physx@@@?$Range@$$CBVPxVec4@physx@@@cloth@nv@@QEAA@AEBU?$Range@VPxVec4@physx@@@12@@Z 00000001800116e0 f i DxClothClone.obj
 0001:00010700       ??$?0I@?$Range@$$CBI@cloth@nv@@QEAA@AEBU?$Range@I@12@@Z 0000000180011700 f i DxClothClone.obj
 0001:00010720       ??$?0VPxVec3@physx@@@?$Range@$$CBVPxVec3@physx@@@cloth@nv@@QEAA@AEBU?$Range@VPxVec3@physx@@@12@@Z 0000000180011720 f i DxClothClone.obj
 0001:00010740       ?resize@?$Array@U?$Vec4T@I@cloth@nv@@VNonTrackingAllocator@ps@23@@ps@cloth@nv@@QEAAXIAEBU?$Vec4T@I@34@@Z 0000000180011740 f i DxClothClone.obj
 0001:000107b0       ??$array@I@cloth@nv@@YAAEAY03IAEAU?$Vec4T@I@01@@Z 00000001800117b0 f i DxClothClone.obj
 0001:000107c0       ??$?0$$BY03I@?$Range@$$BY03$$CBI@cloth@nv@@QEAA@AEBU?$Range@$$BY03I@12@@Z 00000001800117c0 f i DxClothClone.obj
 0001:000107e0       ??$convertFabric@VDxFabric@cloth@nv@@VDxFactory@23@@cloth@nv@@YAPEAVDxFabric@01@AEBV201@AEAVDxFactory@01@@Z 00000001800117e0 f i DxClothClone.obj
 0001:00010e90       ??$convertFabric@VSwFabric@cloth@nv@@VDxFactory@23@@cloth@nv@@YAPEAVDxFabric@01@AEBVSwFabric@01@AEAVDxFactory@01@@Z 0000000180011e90 f i DxClothClone.obj
 0001:00011550       ??$copy@VDxCloth@cloth@nv@@VSwCloth@23@@cloth@nv@@YAXAEAVDxCloth@01@AEBVSwCloth@01@@Z 0000000180012550 f i DxClothClone.obj
 0001:00011830       ??1?$Array@MVNonTrackingAllocator@ps@cloth@nv@@@ps@cloth@nv@@QEAA@XZ 0000000180012830 f i DxClothClone.obj
 0001:00011860       ??0?$Array@MVNonTrackingAllocator@ps@cloth@nv@@@ps@cloth@nv@@QEAA@IAEBMAEBVNonTrackingAllocator@123@@Z 0000000180012860 f i DxClothClone.obj
 0001:00011880       ?create@?$Array@U?$Vec4T@I@cloth@nv@@VNonTrackingAllocator@ps@23@@ps@cloth@nv@@KAXPEAU?$Vec4T@I@34@0AEBU534@@Z 0000000180012880 f i DxClothClone.obj
 0001:000118a0       ?reserve@?$Array@U?$Vec4T@I@cloth@nv@@VNonTrackingAllocator@ps@23@@ps@cloth@nv@@QEAAXI@Z 00000001800128a0 f i DxClothClone.obj
 0001:000118b0       ?end@?$Array@PEAVDxFabric@cloth@nv@@VNonTrackingAllocator@ps@23@@ps@cloth@nv@@QEAAPEAPEAVDxFabric@34@XZ 00000001800128b0 f i DxClothClone.obj
 0001:000118c0       ?begin@?$Array@PEAVDxFabric@cloth@nv@@VNonTrackingAllocator@ps@23@@ps@cloth@nv@@QEAAPEAPEAVDxFabric@34@XZ 00000001800128c0 f i DxClothClone.obj
 0001:000118d0       ?create@?$Array@VPxVec3@physx@@VNonTrackingAllocator@ps@cloth@nv@@@ps@cloth@nv@@KAXPEAVPxVec3@physx@@0AEBV56@@Z 00000001800128d0 f i DxClothClone.obj
 0001:000119b0       ?allocate@?$Array@VPxVec3@physx@@VNonTrackingAllocator@ps@cloth@nv@@@ps@cloth@nv@@IEAAPEAVPxVec3@physx@@I@Z 00000001800129b0 f i DxClothClone.obj
 0001:00011a00       ?create@?$Array@IVNonTrackingAllocator@ps@cloth@nv@@@ps@cloth@nv@@KAXPEAI0AEBI@Z 0000000180012a00 f i DxClothClone.obj
 0001:00011a20       ?end@?$Array@PEAVSwFabric@cloth@nv@@VNonTrackingAllocator@ps@23@@ps@cloth@nv@@QEAAPEAPEAVSwFabric@34@XZ 0000000180012a20 f i DxClothClone.obj
 0001:00011a30       ?begin@?$Array@PEAVSwFabric@cloth@nv@@VNonTrackingAllocator@ps@23@@ps@cloth@nv@@QEAAPEAPEAVSwFabric@34@XZ 0000000180012a30 f i DxClothClone.obj
 0001:00011a40       ?destroy@?$Array@MVNonTrackingAllocator@ps@cloth@nv@@@ps@cloth@nv@@KAXPEAM0@Z 0000000180012a40 f i DxClothClone.obj
 0001:00011a50       ?deallocate@?$Array@MVNonTrackingAllocator@ps@cloth@nv@@@ps@cloth@nv@@IEAAXPEAX@Z 0000000180012a50 f i DxClothClone.obj
 0001:00011a70       ?isInUserMemory@?$Array@MVNonTrackingAllocator@ps@cloth@nv@@@ps@cloth@nv@@QEBAIXZ 0000000180012a70 f i DxClothClone.obj
 0001:00011a80       ?capacity@?$Array@MVNonTrackingAllocator@ps@cloth@nv@@@ps@cloth@nv@@QEBAIXZ 0000000180012a80 f i DxClothClone.obj
 0001:00011a90       ?grow@?$Array@U?$Vec4T@I@cloth@nv@@VNonTrackingAllocator@ps@23@@ps@cloth@nv@@IEAAXI@Z 0000000180012a90 f i DxClothClone.obj
 0001:00011aa0       ??0?$Range@I@cloth@nv@@QEAA@PEAI0@Z 0000000180012aa0 f i DxClothClone.obj
 0001:00011ab0       ?begin@?$Range@I@cloth@nv@@QEBAPEAIXZ 0000000180012ab0 f i DxClothClone.obj
 0001:00011ac0       ?end@?$Range@I@cloth@nv@@QEBAPEAIXZ 0000000180012ac0 f i DxClothClone.obj
 0001:00011ad0       ?end@?$Range@VPxVec4@physx@@@cloth@nv@@QEBAPEAVPxVec4@physx@@XZ 0000000180012ad0 f i DxClothClone.obj
 0001:00011ae0       ?begin@?$Range@VPxVec3@physx@@@cloth@nv@@QEBAPEAVPxVec3@physx@@XZ 0000000180012ae0 f i DxClothClone.obj
 0001:00011af0       ?end@?$Range@VPxVec3@physx@@@cloth@nv@@QEBAPEAVPxVec3@physx@@XZ 0000000180012af0 f i DxClothClone.obj
 0001:00011b00       ?begin@?$Range@$$BY03I@cloth@nv@@QEBAPEAY03IXZ 0000000180012b00 f i DxClothClone.obj
 0001:00011b10       ?end@?$Range@$$BY03I@cloth@nv@@QEBAPEAY03IXZ 0000000180012b10 f i DxClothClone.obj
 0001:00011b20       ?recreate@?$Array@U?$Vec4T@I@cloth@nv@@VNonTrackingAllocator@ps@23@@ps@cloth@nv@@IEAAXI@Z 0000000180012b20 f i DxClothClone.obj
 0001:00011bd0       ?resize@?$Array@MVNonTrackingAllocator@ps@cloth@nv@@@ps@cloth@nv@@QEAAXIAEBM@Z 0000000180012bd0 f i DxClothClone.obj
 0001:00011c30       ??$makeRange@MVNonTrackingAllocator@ps@cloth@nv@@@cloth@nv@@YA?AU?$Range@M@01@AEAV?$Array@MVNonTrackingAllocator@ps@cloth@nv@@@ps@01@@Z 0000000180012c30 f i DxClothClone.obj
 0001:00011c60       ??$?0M@?$Range@$$CBM@cloth@nv@@QEAA@AEBU?$Range@M@12@@Z 0000000180012c60 f i DxClothClone.obj
 0001:00011c80       ?create@?$Array@MVNonTrackingAllocator@ps@cloth@nv@@@ps@cloth@nv@@KAXPEAM0AEBM@Z 0000000180012c80 f i DxClothClone.obj
 0001:00011d00       ?reserve@?$Array@MVNonTrackingAllocator@ps@cloth@nv@@@ps@cloth@nv@@QEAAXI@Z 0000000180012d00 f i DxClothClone.obj
 0001:00011d10       ?empty@?$Array@MVNonTrackingAllocator@ps@cloth@nv@@@ps@cloth@nv@@QEBA_NXZ 0000000180012d10 f i DxClothClone.obj
 0001:00011d20       ?size@?$Array@MVNonTrackingAllocator@ps@cloth@nv@@@ps@cloth@nv@@QEBAIXZ 0000000180012d20 f i DxClothClone.obj
 0001:00011d30       ?begin@?$Array@MVNonTrackingAllocator@ps@cloth@nv@@@ps@cloth@nv@@QEAAPEAMXZ 0000000180012d30 f i DxClothClone.obj
 0001:00011d40       ?copy@?$Array@U?$Vec4T@I@cloth@nv@@VNonTrackingAllocator@ps@23@@ps@cloth@nv@@KAXPEAU?$Vec4T@I@34@0PEBU534@@Z 0000000180012d40 f i DxClothClone.obj
 0001:00011d60       ?allocate@?$Array@U?$Vec4T@I@cloth@nv@@VNonTrackingAllocator@ps@23@@ps@cloth@nv@@IEAAPEAU?$Vec4T@I@34@I@Z 0000000180012d60 f i DxClothClone.obj
 0001:00011db0       ?grow@?$Array@MVNonTrackingAllocator@ps@cloth@nv@@@ps@cloth@nv@@IEAAXI@Z 0000000180012db0 f i DxClothClone.obj
 0001:00011dc0       ??0?$Range@M@cloth@nv@@QEAA@PEAM0@Z 0000000180012dc0 f i DxClothClone.obj
 0001:00011dd0       ?begin@?$Range@M@cloth@nv@@QEBAPEAMXZ 0000000180012dd0 f i DxClothClone.obj
 0001:00011de0       ?end@?$Range@M@cloth@nv@@QEBAPEAMXZ 0000000180012de0 f i DxClothClone.obj
 0001:00011df0       ?recreate@?$Array@MVNonTrackingAllocator@ps@cloth@nv@@@ps@cloth@nv@@IEAAXI@Z 0000000180012df0 f i DxClothClone.obj
 0001:00011e80       ?copy@?$Array@MVNonTrackingAllocator@ps@cloth@nv@@@ps@cloth@nv@@KAXPEAM0PEBM@Z 0000000180012e80 f i DxClothClone.obj
 0001:00011f10       ?allocate@?$Array@MVNonTrackingAllocator@ps@cloth@nv@@@ps@cloth@nv@@IEAAPEAMI@Z 0000000180012f10 f i DxClothClone.obj
 0001:00011f60       ??0Simd4fTupleFactory@cloth@nv@@QEAA@MMMM@Z 0000000180012f60 f i DxClothData.obj
 0001:00011f80       ?simd4f@cloth@nv@@YA?AUSimd4fTupleFactory@12@MMMM@Z 0000000180012f80 f i DxClothData.obj
 0001:00011fa0       ??BSimd4fOneFactory@cloth@nv@@QEBA?AT__m128@@XZ 0000000180012fa0 f i DxClothData.obj
 0001:00011fb0       ??BSimd4fScalarFactory@cloth@nv@@QEBA?AT__m128@@XZ 0000000180012fb0 f i DxClothData.obj
 0001:00011fc0       ??BSimd4fTupleFactory@cloth@nv@@QEBA?AT__m128@@XZ 0000000180012fc0 f i DxClothData.obj
 0001:00011fd0       ??Hcloth@nv@@YA?AT__m128@@AEBT2@0@Z 0000000180012fd0 f i DxClothData.obj
 0001:00011fe0       ??Gcloth@nv@@YA?AT__m128@@AEBT2@@Z 0000000180012fe0 f i DxClothData.obj
 0001:00011ff0       ??Gcloth@nv@@YA?AT__m128@@AEBT2@0@Z 0000000180012ff0 f i DxClothData.obj
 0001:00012000       ??Dcloth@nv@@YA?AT__m128@@AEBT2@0@Z 0000000180013000 f i DxClothData.obj
 0001:00012010       ?array@cloth@nv@@YAAEAY03MAEAT__m128@@@Z 0000000180013010 f i DxClothData.obj
 0001:00012020       ?array@cloth@nv@@YAAEAY03$$CBMAEBT__m128@@@Z 0000000180013020 f i DxClothData.obj
 0001:00012030       ?max@cloth@nv@@YA?AT__m128@@AEBT3@0@Z 0000000180013030 f i DxClothData.obj
 0001:00012040       ?min@cloth@nv@@YA?AT__m128@@AEBT3@0@Z 0000000180013040 f i DxClothData.obj
 0001:00012050       ?recip@cloth@nv@@YA?AT__m128@@AEBT3@@Z 0000000180013050 f i DxClothData.obj
 0001:00012060       ?exp2@cloth@nv@@YA?AT__m128@@AEBT3@@Z 0000000180013060 f i DxClothData.obj
 0001:00012100       ?array@cloth@nv@@YAAEAY02MAEAVPxVec3@physx@@@Z 0000000180013100 f i DxClothData.obj
 0001:00012110       ?empty@?$DxBatchedVector@VPxVec3@physx@@@cloth@nv@@QEBA_NXZ 0000000180013110 f i DxClothData.obj
 0001:00012120       ?size@?$DxBatchedVector@UDxTether@cloth@nv@@@cloth@nv@@QEBAIXZ 0000000180013120 f i DxClothData.obj
 0001:00012130       ?empty@?$DxBatchedVector@M@cloth@nv@@QEBA_NXZ 0000000180013130 f i DxClothData.obj
 0001:00012140       ??0Fabric@cloth@nv@@IEAA@XZ 0000000180013140 f i DxFabric.obj
 0001:00012160       ??1Fabric@cloth@nv@@MEAA@XZ 0000000180013160 f i DxFabric.obj
 0001:00012170       ??_GFabric@cloth@nv@@MEAAPEAXI@Z 0000000180013170 f i DxFabric.obj
 0001:00012170       ??_EFabric@cloth@nv@@MEAAPEAXI@Z 0000000180013170 f i * CIL library *:* CIL module *
 0001:000121c0       ??_GDxFabric@cloth@nv@@UEAAPEAXI@Z 00000001800131c0 f i DxFabric.obj
 0001:000121c0       ??_EDxFabric@cloth@nv@@UEAAPEAXI@Z 00000001800131c0 f i * CIL library *:* CIL module *
 0001:00012220       ?reserve@?$Array@UDxTether@cloth@nv@@VNonTrackingAllocator@ps@23@@ps@cloth@nv@@QEAAXI@Z 0000000180013220 f i DxFabric.obj
 0001:00012230       ?pushBack@?$Array@UDxTether@cloth@nv@@VNonTrackingAllocator@ps@23@@ps@cloth@nv@@QEAAAEAUDxTether@34@AEBU534@@Z 0000000180013230 f i DxFabric.obj
 0001:00012270       ?end@?$Array@UDxTether@cloth@nv@@VNonTrackingAllocator@ps@23@@ps@cloth@nv@@QEAAPEAUDxTether@34@XZ 0000000180013270 f i DxFabric.obj
 0001:00012280       ?begin@?$Array@UDxTether@cloth@nv@@VNonTrackingAllocator@ps@23@@ps@cloth@nv@@QEAAPEAUDxTether@34@XZ 0000000180013280 f i DxFabric.obj
 0001:00012290       ??1?$Array@UDxTether@cloth@nv@@VNonTrackingAllocator@ps@23@@ps@cloth@nv@@QEAA@XZ 0000000180013290 f i DxFabric.obj
 0001:000122c0       ??0?$Array@UDxTether@cloth@nv@@VNonTrackingAllocator@ps@23@@ps@cloth@nv@@QEAA@AEBVNonTrackingAllocator@123@@Z 00000001800132c0 f i DxFabric.obj
 0001:000122d0       ?size@?$Array@UDxConstraint@cloth@nv@@VNonTrackingAllocator@ps@23@@ps@cloth@nv@@QEBAIXZ 00000001800132d0 f i DxFabric.obj
 0001:000122e0       ?end@?$Array@UDxConstraint@cloth@nv@@VNonTrackingAllocator@ps@23@@ps@cloth@nv@@QEAAPEAUDxConstraint@34@XZ 00000001800132e0 f i DxFabric.obj
 0001:000122f0       ?begin@?$Array@UDxConstraint@cloth@nv@@VNonTrackingAllocator@ps@23@@ps@cloth@nv@@QEAAPEAUDxConstraint@34@XZ 00000001800132f0 f i DxFabric.obj
 0001:00012300       ??1?$Array@UDxConstraint@cloth@nv@@VNonTrackingAllocator@ps@23@@ps@cloth@nv@@QEAA@XZ 0000000180013300 f i DxFabric.obj
 0001:00012330       ??0?$Array@UDxConstraint@cloth@nv@@VNonTrackingAllocator@ps@23@@ps@cloth@nv@@QEAA@IAEBUDxConstraint@23@AEBVNonTrackingAllocator@123@@Z 0000000180013330 f i DxFabric.obj
 0001:00012350       ??0?$Array@UDxConstraint@cloth@nv@@VNonTrackingAllocator@ps@23@@ps@cloth@nv@@QEAA@AEBVNonTrackingAllocator@123@@Z 0000000180013350 f i DxFabric.obj
 0001:00012360       ?replaceWithLast@?$Array@PEAVDxFabric@cloth@nv@@VNonTrackingAllocator@ps@23@@ps@cloth@nv@@QEAAXPEAPEAVDxFabric@34@@Z 0000000180013360 f i DxFabric.obj
 0001:00012380       ?pushBack@?$Array@PEAVDxFabric@cloth@nv@@VNonTrackingAllocator@ps@23@@ps@cloth@nv@@QEAAAEAPEAVDxFabric@34@AEBQEAV534@@Z 0000000180013380 f i DxFabric.obj
 0001:000123c0       ?find@?$Array@PEAVDxFabric@cloth@nv@@VNonTrackingAllocator@ps@23@@ps@cloth@nv@@QEAAPEAPEAVDxFabric@34@AEBQEAV534@@Z 00000001800133c0 f i DxFabric.obj
 0001:000123f0       ?assign@?$DxBatchedVector@UDxTether@cloth@nv@@@cloth@nv@@QEAAXPEBUDxTether@23@0@Z 00000001800133f0 f i DxFabric.obj
 0001:00012410       ??1?$DxBatchedVector@UDxTether@cloth@nv@@@cloth@nv@@QEAA@XZ 0000000180013410 f i DxFabric.obj
 0001:00012420       ??0?$DxBatchedVector@UDxTether@cloth@nv@@@cloth@nv@@QEAA@AEAV?$DxBatchedStorage@UDxTether@cloth@nv@@@12@@Z 0000000180013420 f i DxFabric.obj
 0001:00012490       ?assign@?$DxBatchedVector@M@cloth@nv@@QEAAXPEBM0@Z 0000000180013490 f i DxFabric.obj
 0001:000124b0       ?size@?$DxBatchedVector@M@cloth@nv@@QEBAIXZ 00000001800134b0 f i DxFabric.obj
 0001:000124c0       ??1?$DxBatchedVector@M@cloth@nv@@QEAA@XZ 00000001800134c0 f i DxFabric.obj
 0001:000124d0       ??0?$DxBatchedVector@M@cloth@nv@@QEAA@AEAV?$DxBatchedStorage@M@12@@Z 00000001800134d0 f i DxFabric.obj
 0001:00012540       ?buffer@?$DxBatchedVector@UDxConstraint@cloth@nv@@@cloth@nv@@QEBAPEAUID3D11Buffer@@XZ 0000000180013540 f i DxFabric.obj
 0001:00012550       ?assign@?$DxBatchedVector@UDxConstraint@cloth@nv@@@cloth@nv@@QEAAXPEBUDxConstraint@23@0@Z 0000000180013550 f i DxFabric.obj
 0001:00012570       ?size@?$DxBatchedVector@UDxConstraint@cloth@nv@@@cloth@nv@@QEBAIXZ 0000000180013570 f i DxFabric.obj
 0001:00012580       ??1?$DxBatchedVector@UDxConstraint@cloth@nv@@@cloth@nv@@QEAA@XZ 0000000180013580 f i DxFabric.obj
 0001:00012590       ??0?$DxBatchedVector@UDxConstraint@cloth@nv@@@cloth@nv@@QEAA@AEAV?$DxBatchedStorage@UDxConstraint@cloth@nv@@@12@@Z 0000000180013590 f i DxFabric.obj
 0001:00012600       ?pushBack@?$Array@IVNonTrackingAllocator@ps@cloth@nv@@@ps@cloth@nv@@QEAAAEAIAEBI@Z 0000000180013600 f i DxFabric.obj
 0001:00012640       ??0?$Array@IVNonTrackingAllocator@ps@cloth@nv@@@ps@cloth@nv@@QEAA@PEBI0AEBVNonTrackingAllocator@123@@Z 0000000180013640 f i DxFabric.obj
 0001:000126e0       ?grow@?$Array@UDxTether@cloth@nv@@VNonTrackingAllocator@ps@23@@ps@cloth@nv@@IEAAXI@Z 00000001800136e0 f i DxFabric.obj
 0001:000126f0       ?destroy@?$Array@UDxTether@cloth@nv@@VNonTrackingAllocator@ps@23@@ps@cloth@nv@@KAXPEAUDxTether@34@0@Z 00000001800136f0 f i DxFabric.obj
 0001:00012700       ?deallocate@?$Array@UDxTether@cloth@nv@@VNonTrackingAllocator@ps@23@@ps@cloth@nv@@IEAAXPEAX@Z 0000000180013700 f i DxFabric.obj
 0001:00012720       ?isInUserMemory@?$Array@UDxTether@cloth@nv@@VNonTrackingAllocator@ps@23@@ps@cloth@nv@@QEBAIXZ 0000000180013720 f i DxFabric.obj
 0001:00012730       ?capacity@?$Array@UDxTether@cloth@nv@@VNonTrackingAllocator@ps@23@@ps@cloth@nv@@QEBAIXZ 0000000180013730 f i DxFabric.obj
 0001:00012740       ?destroy@?$Array@UDxConstraint@cloth@nv@@VNonTrackingAllocator@ps@23@@ps@cloth@nv@@KAXPEAUDxConstraint@34@0@Z 0000000180013740 f i DxFabric.obj
 0001:00012750       ?deallocate@?$Array@UDxConstraint@cloth@nv@@VNonTrackingAllocator@ps@23@@ps@cloth@nv@@IEAAXPEAX@Z 0000000180013750 f i DxFabric.obj
 0001:00012770       ?isInUserMemory@?$Array@UDxConstraint@cloth@nv@@VNonTrackingAllocator@ps@23@@ps@cloth@nv@@QEBAIXZ 0000000180013770 f i DxFabric.obj
 0001:00012780       ?capacity@?$Array@UDxConstraint@cloth@nv@@VNonTrackingAllocator@ps@23@@ps@cloth@nv@@QEBAIXZ 0000000180013780 f i DxFabric.obj
 0001:00012790       ?capacity@?$Array@PEAVDxFabric@cloth@nv@@VNonTrackingAllocator@ps@23@@ps@cloth@nv@@QEBAIXZ 0000000180013790 f i DxFabric.obj
 0001:000127a0       ?replaceWithLast@?$Array@PEAVDxFabric@cloth@nv@@VNonTrackingAllocator@ps@23@@ps@cloth@nv@@QEAAXI@Z 00000001800137a0 f i DxFabric.obj
 0001:000127c0       ?remove@?$DxBatchedStorage@UDxTether@cloth@nv@@@cloth@nv@@AEAAXPEAV?$DxBatchedVector@UDxTether@cloth@nv@@@23@@Z 00000001800137c0 f i DxFabric.obj
 0001:000128b0       ?assign@?$DxBatchedStorage@UDxTether@cloth@nv@@@cloth@nv@@AEAAXPEAV?$DxBatchedVector@UDxTether@cloth@nv@@@23@PEBUDxTether@23@I@Z 00000001800138b0 f i DxFabric.obj
 0001:00012960       ?add@?$DxBatchedStorage@UDxTether@cloth@nv@@@cloth@nv@@AEAAXPEAV?$DxBatchedVector@UDxTether@cloth@nv@@@23@@Z 0000000180013960 f i DxFabric.obj
 0001:000129d0       ?remove@?$DxBatchedStorage@M@cloth@nv@@AEAAXPEAV?$DxBatchedVector@M@23@@Z 00000001800139d0 f i DxFabric.obj
 0001:00012ac0       ?assign@?$DxBatchedStorage@M@cloth@nv@@AEAAXPEAV?$DxBatchedVector@M@23@PEBMI@Z 0000000180013ac0 f i DxFabric.obj
 0001:00012b70       ?add@?$DxBatchedStorage@M@cloth@nv@@AEAAXPEAV?$DxBatchedVector@M@23@@Z 0000000180013b70 f i DxFabric.obj
 0001:00012be0       ?remove@?$DxBatchedStorage@UDxConstraint@cloth@nv@@@cloth@nv@@AEAAXPEAV?$DxBatchedVector@UDxConstraint@cloth@nv@@@23@@Z 0000000180013be0 f i DxFabric.obj
 0001:00012cd0       ?assign@?$DxBatchedStorage@UDxConstraint@cloth@nv@@@cloth@nv@@AEAAXPEAV?$DxBatchedVector@UDxConstraint@cloth@nv@@@23@PEBUDxConstraint@23@I@Z 0000000180013cd0 f i DxFabric.obj
 0001:00012d80       ?add@?$DxBatchedStorage@UDxConstraint@cloth@nv@@@cloth@nv@@AEAAXPEAV?$DxBatchedVector@UDxConstraint@cloth@nv@@@23@@Z 0000000180013d80 f i DxFabric.obj
 0001:00012df0       ?remove@?$Array@PEAV?$DxBatchedVector@UDxTether@cloth@nv@@@cloth@nv@@VNonTrackingAllocator@ps@23@@ps@cloth@nv@@QEAAXI@Z 0000000180013df0 f i DxFabric.obj
 0001:00012e30       ?pushBack@?$Array@PEAV?$DxBatchedVector@UDxTether@cloth@nv@@@cloth@nv@@VNonTrackingAllocator@ps@23@@ps@cloth@nv@@QEAAAEAPEAV?$DxBatchedVector@UDxTether@cloth@nv@@@34@AEBQEAV534@@Z 0000000180013e30 f i DxFabric.obj
 0001:00012e70       ?find@?$Array@PEAV?$DxBatchedVector@UDxTether@cloth@nv@@@cloth@nv@@VNonTrackingAllocator@ps@23@@ps@cloth@nv@@QEAAPEAPEAV?$DxBatchedVector@UDxTether@cloth@nv@@@34@AEBQEAV534@@Z 0000000180013e70 f i DxFabric.obj
 0001:00012ea0       ?begin@?$Array@PEAV?$DxBatchedVector@UDxTether@cloth@nv@@@cloth@nv@@VNonTrackingAllocator@ps@23@@ps@cloth@nv@@QEAAPEAPEAV?$DxBatchedVector@UDxTether@cloth@nv@@@34@XZ 0000000180013ea0 f i DxFabric.obj
 0001:00012eb0       ?remove@?$Array@PEAV?$DxBatchedVector@M@cloth@nv@@VNonTrackingAllocator@ps@23@@ps@cloth@nv@@QEAAXI@Z 0000000180013eb0 f i DxFabric.obj
 0001:00012ef0       ?pushBack@?$Array@PEAV?$DxBatchedVector@M@cloth@nv@@VNonTrackingAllocator@ps@23@@ps@cloth@nv@@QEAAAEAPEAV?$DxBatchedVector@M@34@AEBQEAV534@@Z 0000000180013ef0 f i DxFabric.obj
 0001:00012f30       ?find@?$Array@PEAV?$DxBatchedVector@M@cloth@nv@@VNonTrackingAllocator@ps@23@@ps@cloth@nv@@QEAAPEAPEAV?$DxBatchedVector@M@34@AEBQEAV534@@Z 0000000180013f30 f i DxFabric.obj
 0001:00012f60       ?begin@?$Array@PEAV?$DxBatchedVector@M@cloth@nv@@VNonTrackingAllocator@ps@23@@ps@cloth@nv@@QEAAPEAPEAV?$DxBatchedVector@M@34@XZ 0000000180013f60 f i DxFabric.obj
 0001:00012f70       ?remove@?$Array@PEAV?$DxBatchedVector@UDxConstraint@cloth@nv@@@cloth@nv@@VNonTrackingAllocator@ps@23@@ps@cloth@nv@@QEAAXI@Z 0000000180013f70 f i DxFabric.obj
 0001:00012fb0       ?pushBack@?$Array@PEAV?$DxBatchedVector@UDxConstraint@cloth@nv@@@cloth@nv@@VNonTrackingAllocator@ps@23@@ps@cloth@nv@@QEAAAEAPEAV?$DxBatchedVector@UDxConstraint@cloth@nv@@@34@AEBQEAV534@@Z 0000000180013fb0 f i DxFabric.obj
 0001:00012ff0       ?find@?$Array@PEAV?$DxBatchedVector@UDxConstraint@cloth@nv@@@cloth@nv@@VNonTrackingAllocator@ps@23@@ps@cloth@nv@@QEAAPEAPEAV?$DxBatchedVector@UDxConstraint@cloth@nv@@@34@AEBQEAV534@@Z 0000000180013ff0 f i DxFabric.obj
 0001:00013020       ?begin@?$Array@PEAV?$DxBatchedVector@UDxConstraint@cloth@nv@@@cloth@nv@@VNonTrackingAllocator@ps@23@@ps@cloth@nv@@QEAAPEAPEAV?$DxBatchedVector@UDxConstraint@cloth@nv@@@34@XZ 0000000180014020 f i DxFabric.obj
 0001:00013030       ?update@?$DxBatchedStorage@UDxTether@cloth@nv@@@cloth@nv@@AEAAXPEAV?$DxBatchedVector@UDxTether@cloth@nv@@@23@H@Z 0000000180014030 f i DxFabric.obj
 0001:00013080       ?replace@?$DxBatchedStorage@UDxTether@cloth@nv@@@cloth@nv@@AEAAXIIPEBUDxTether@23@0@Z 0000000180014080 f i DxFabric.obj
 0001:00013340       ?update@?$DxBatchedStorage@M@cloth@nv@@AEAAXPEAV?$DxBatchedVector@M@23@H@Z 0000000180014340 f i DxFabric.obj
 0001:00013390       ?replace@?$DxBatchedStorage@M@cloth@nv@@AEAAXIIPEBM0@Z 0000000180014390 f i DxFabric.obj
 0001:00013650       ?update@?$DxBatchedStorage@UDxConstraint@cloth@nv@@@cloth@nv@@AEAAXPEAV?$DxBatchedVector@UDxConstraint@cloth@nv@@@23@H@Z 0000000180014650 f i DxFabric.obj
 0001:000136a0       ?replace@?$DxBatchedStorage@UDxConstraint@cloth@nv@@@cloth@nv@@AEAAXIIPEBUDxConstraint@23@0@Z 00000001800146a0 f i DxFabric.obj
 0001:00013960       ?capacity@?$Array@PEAV?$DxBatchedVector@UDxTether@cloth@nv@@@cloth@nv@@VNonTrackingAllocator@ps@23@@ps@cloth@nv@@QEBAIXZ 0000000180014960 f i DxFabric.obj
 0001:00013970       ?size@?$Array@PEAV?$DxBatchedVector@UDxTether@cloth@nv@@@cloth@nv@@VNonTrackingAllocator@ps@23@@ps@cloth@nv@@QEBAIXZ 0000000180014970 f i DxFabric.obj
 0001:00013980       ?reserve@?$DxBuffer@UDxTether@cloth@nv@@@cloth@nv@@QEAAXI@Z 0000000180014980 f i DxFabric.obj
 0001:00013a20       ?context@?$DxBuffer@UDxTether@cloth@nv@@@cloth@nv@@QEBAPEAUID3D11DeviceContext@@XZ 0000000180014a20 f i DxFabric.obj
 0001:00013a30       ??1?$DxBuffer@UDxTether@cloth@nv@@@cloth@nv@@QEAA@XZ 0000000180014a30 f i DxFabric.obj
 0001:00013a90       ??0?$DxBuffer@UDxTether@cloth@nv@@@cloth@nv@@QEAA@PEAVDxContextManagerCallback@12@AEBUDxBufferFlags@12@@Z 0000000180014a90 f i DxFabric.obj
 0001:00013ac0       ?capacity@?$Array@PEAV?$DxBatchedVector@M@cloth@nv@@VNonTrackingAllocator@ps@23@@ps@cloth@nv@@QEBAIXZ 0000000180014ac0 f i DxFabric.obj
 0001:00013ad0       ?size@?$Array@PEAV?$DxBatchedVector@M@cloth@nv@@VNonTrackingAllocator@ps@23@@ps@cloth@nv@@QEBAIXZ 0000000180014ad0 f i DxFabric.obj
 0001:00013ae0       ?reserve@?$DxBuffer@M@cloth@nv@@QEAAXI@Z 0000000180014ae0 f i DxFabric.obj
 0001:00013b80       ?context@?$DxBuffer@M@cloth@nv@@QEBAPEAUID3D11DeviceContext@@XZ 0000000180014b80 f i DxFabric.obj
 0001:00013b90       ??1?$DxBuffer@M@cloth@nv@@QEAA@XZ 0000000180014b90 f i DxFabric.obj
 0001:00013bf0       ??0?$DxBuffer@M@cloth@nv@@QEAA@PEAVDxContextManagerCallback@12@AEBUDxBufferFlags@12@@Z 0000000180014bf0 f i DxFabric.obj
 0001:00013c20       ?capacity@?$Array@PEAV?$DxBatchedVector@UDxConstraint@cloth@nv@@@cloth@nv@@VNonTrackingAllocator@ps@23@@ps@cloth@nv@@QEBAIXZ 0000000180014c20 f i DxFabric.obj
 0001:00013c30       ?size@?$Array@PEAV?$DxBatchedVector@UDxConstraint@cloth@nv@@@cloth@nv@@VNonTrackingAllocator@ps@23@@ps@cloth@nv@@QEBAIXZ 0000000180014c30 f i DxFabric.obj
 0001:00013c40       ?reserve@?$DxBuffer@UDxConstraint@cloth@nv@@@cloth@nv@@QEAAXI@Z 0000000180014c40 f i DxFabric.obj
 0001:00013ce0       ?context@?$DxBuffer@UDxConstraint@cloth@nv@@@cloth@nv@@QEBAPEAUID3D11DeviceContext@@XZ 0000000180014ce0 f i DxFabric.obj
 0001:00013cf0       ??1?$DxBuffer@UDxConstraint@cloth@nv@@@cloth@nv@@QEAA@XZ 0000000180014cf0 f i DxFabric.obj
 0001:00013d50       ??0?$DxBuffer@UDxConstraint@cloth@nv@@@cloth@nv@@QEAA@PEAVDxContextManagerCallback@12@AEBUDxBufferFlags@12@@Z 0000000180014d50 f i DxFabric.obj
 0001:00013d80       ?unmap@?$DxBatchedStorage@UDxTether@cloth@nv@@@cloth@nv@@AEAAXXZ 0000000180014d80 f i DxFabric.obj
 0001:00013dc0       ?map@?$DxBatchedStorage@UDxTether@cloth@nv@@@cloth@nv@@AEAAPEAUDxTether@23@W4D3D11_MAP@@@Z 0000000180014dc0 f i DxFabric.obj
 0001:00013df0       ?unmap@?$DxBatchedStorage@M@cloth@nv@@AEAAXXZ 0000000180014df0 f i DxFabric.obj
 0001:00013e30       ?map@?$DxBatchedStorage@M@cloth@nv@@AEAAPEAMW4D3D11_MAP@@@Z 0000000180014e30 f i DxFabric.obj
 0001:00013e60       ?unmap@?$DxBatchedStorage@UDxConstraint@cloth@nv@@@cloth@nv@@AEAAXXZ 0000000180014e60 f i DxFabric.obj
 0001:00013ea0       ?map@?$DxBatchedStorage@UDxConstraint@cloth@nv@@@cloth@nv@@AEAAPEAUDxConstraint@23@W4D3D11_MAP@@@Z 0000000180014ea0 f i DxFabric.obj
 0001:00013ed0       ?create@?$DxBuffer@UDxTether@cloth@nv@@@cloth@nv@@AEAAXIPEAUD3D11_SUBRESOURCE_DATA@@@Z 0000000180014ed0 f i DxFabric.obj
 0001:00013fb0       ?unmap@?$DxBuffer@UDxTether@cloth@nv@@@cloth@nv@@QEAAXXZ 0000000180014fb0 f i DxFabric.obj
 0001:00013fe0       ?map@?$DxBuffer@UDxTether@cloth@nv@@@cloth@nv@@QEAAPEAUDxTether@23@W4D3D11_MAP@@@Z 0000000180014fe0 f i DxFabric.obj
 0001:00014060       ?create@?$DxBuffer@M@cloth@nv@@AEAAXIPEAUD3D11_SUBRESOURCE_DATA@@@Z 0000000180015060 f i DxFabric.obj
 0001:00014140       ?unmap@?$DxBuffer@M@cloth@nv@@QEAAXXZ 0000000180015140 f i DxFabric.obj
 0001:00014170       ?map@?$DxBuffer@M@cloth@nv@@QEAAPEAMW4D3D11_MAP@@@Z 0000000180015170 f i DxFabric.obj
 0001:000141f0       ?create@?$DxBuffer@UDxConstraint@cloth@nv@@@cloth@nv@@AEAAXIPEAUD3D11_SUBRESOURCE_DATA@@@Z 00000001800151f0 f i DxFabric.obj
 0001:000142d0       ?unmap@?$DxBuffer@UDxConstraint@cloth@nv@@@cloth@nv@@QEAAXXZ 00000001800152d0 f i DxFabric.obj
 0001:00014300       ?map@?$DxBuffer@UDxConstraint@cloth@nv@@@cloth@nv@@QEAAPEAUDxConstraint@23@W4D3D11_MAP@@@Z 0000000180015300 f i DxFabric.obj
 0001:00014380       ?empty@?$Range@$$CBI@cloth@nv@@QEBA_NXZ 0000000180015380 f i DxFabric.obj
 0001:00014390       ?popFront@?$Range@$$CBI@cloth@nv@@QEAAXXZ 0000000180015390 f i DxFabric.obj
 0001:000143a0       ?front@?$Range@$$CBI@cloth@nv@@QEBAAEBIXZ 00000001800153a0 f i DxFabric.obj
 0001:000143b0       ?size@?$Range@$$CBM@cloth@nv@@QEBAIXZ 00000001800153b0 f i DxFabric.obj
 0001:000143c0       ?empty@?$Range@$$CBM@cloth@nv@@QEBA_NXZ 00000001800153c0 f i DxFabric.obj
 0001:000143d0       ?popFront@?$Range@$$CBM@cloth@nv@@QEAAXXZ 00000001800153d0 f i DxFabric.obj
 0001:000143e0       ?begin@?$Range@$$CBM@cloth@nv@@QEBAPEBMXZ 00000001800153e0 f i DxFabric.obj
 0001:000143f0       ?end@?$Range@$$CBM@cloth@nv@@QEBAPEBMXZ 00000001800153f0 f i DxFabric.obj
 0001:00014400       ?front@?$Range@$$CBM@cloth@nv@@QEBAAEBMXZ 0000000180015400 f i DxFabric.obj
 0001:00014410       ?growAndPushBack@?$Array@IVNonTrackingAllocator@ps@cloth@nv@@@ps@cloth@nv@@IEAAAEAIAEBI@Z 0000000180015410 f i DxFabric.obj
 0001:00014500       ?growAndPushBack@?$Array@PEAVDxFabric@cloth@nv@@VNonTrackingAllocator@ps@23@@ps@cloth@nv@@IEAAAEAPEAVDxFabric@34@AEBQEAV534@@Z 0000000180015500 f i DxFabric.obj
 0001:000145f0       ?growAndPushBack@?$Array@PEAV?$DxBatchedVector@UDxConstraint@cloth@nv@@@cloth@nv@@VNonTrackingAllocator@ps@23@@ps@cloth@nv@@IEAAAEAPEAV?$DxBatchedVector@UDxConstraint@cloth@nv@@@34@AEBQEAV534@@Z 00000001800155f0 f i DxFabric.obj
 0001:000146e0       ?growAndPushBack@?$Array@PEAV?$DxBatchedVector@M@cloth@nv@@VNonTrackingAllocator@ps@23@@ps@cloth@nv@@IEAAAEAPEAV?$DxBatchedVector@M@34@AEBQEAV534@@Z 00000001800156e0 f i DxFabric.obj
 0001:000147d0       ?growAndPushBack@?$Array@PEAV?$DxBatchedVector@UDxTether@cloth@nv@@@cloth@nv@@VNonTrackingAllocator@ps@23@@ps@cloth@nv@@IEAAAEAPEAV?$DxBatchedVector@UDxTether@cloth@nv@@@34@AEBQEAV534@@Z 00000001800157d0 f i DxFabric.obj
 0001:000148c0       ?resize@?$Array@UDxConstraint@cloth@nv@@VNonTrackingAllocator@ps@23@@ps@cloth@nv@@QEAAXIAEBUDxConstraint@34@@Z 00000001800158c0 f i DxFabric.obj
 0001:00014930       ?resizeUninitialized@?$Array@UDxConstraint@cloth@nv@@VNonTrackingAllocator@ps@23@@ps@cloth@nv@@QEAAXI@Z 0000000180015930 f i DxFabric.obj
 0001:00014970       ??$maxElement@M@ps@cloth@nv@@YAPEBMPEBM0@Z 0000000180015970 f i DxFabric.obj
 0001:00014a00       ?growAndPushBack@?$Array@UDxTether@cloth@nv@@VNonTrackingAllocator@ps@23@@ps@cloth@nv@@IEAAAEAUDxTether@34@AEBU534@@Z 0000000180015a00 f i DxFabric.obj
 0001:00014af0       ?recreate@?$Array@UDxTether@cloth@nv@@VNonTrackingAllocator@ps@23@@ps@cloth@nv@@IEAAXI@Z 0000000180015af0 f i DxFabric.obj
 0001:00014ba0       ??$?4VNonTrackingAllocator@ps@cloth@nv@@@?$DxBatchedVector@UDxConstraint@cloth@nv@@@cloth@nv@@QEAAAEAV012@AEBV?$Array@UDxConstraint@cloth@nv@@VNonTrackingAllocator@ps@23@@ps@12@@Z 0000000180015ba0 f i DxFabric.obj
 0001:00014bd0       ??$swap@V?$DxBuffer@UDxTether@cloth@nv@@@cloth@nv@@@ps@cloth@nv@@YAXAEAV?$DxBuffer@UDxTether@cloth@nv@@@12@0@Z 0000000180015bd0 f i DxFabric.obj
 0001:00014c80       ??$swap@V?$DxBuffer@M@cloth@nv@@@ps@cloth@nv@@YAXAEAV?$DxBuffer@M@12@0@Z 0000000180015c80 f i DxFabric.obj
 0001:00014d30       ??$swap@V?$DxBuffer@UDxConstraint@cloth@nv@@@cloth@nv@@@ps@cloth@nv@@YAXAEAV?$DxBuffer@UDxConstraint@cloth@nv@@@12@0@Z 0000000180015d30 f i DxFabric.obj
 0001:00014de0       ?capacityIncrement@?$Array@UDxTether@cloth@nv@@VNonTrackingAllocator@ps@23@@ps@cloth@nv@@IEBAIXZ 0000000180015de0 f i DxFabric.obj
 0001:00014e00       ?copy@?$Array@UDxTether@cloth@nv@@VNonTrackingAllocator@ps@23@@ps@cloth@nv@@KAXPEAUDxTether@34@0PEBU534@@Z 0000000180015e00 f i DxFabric.obj
 0001:00014e20       ?allocate@?$Array@UDxTether@cloth@nv@@VNonTrackingAllocator@ps@23@@ps@cloth@nv@@IEAAPEAUDxTether@34@I@Z 0000000180015e20 f i DxFabric.obj
 0001:00014e70       ?create@?$Array@UDxConstraint@cloth@nv@@VNonTrackingAllocator@ps@23@@ps@cloth@nv@@KAXPEAUDxConstraint@34@0AEBU534@@Z 0000000180015e70 f i DxFabric.obj
 0001:00014e90       ?reserve@?$Array@UDxConstraint@cloth@nv@@VNonTrackingAllocator@ps@23@@ps@cloth@nv@@QEAAXI@Z 0000000180015e90 f i DxFabric.obj
 0001:00014ea0       ?end@?$Array@UDxConstraint@cloth@nv@@VNonTrackingAllocator@ps@23@@ps@cloth@nv@@QEBAPEBUDxConstraint@34@XZ 0000000180015ea0 f i DxFabric.obj
 0001:00014eb0       ?begin@?$Array@UDxConstraint@cloth@nv@@VNonTrackingAllocator@ps@23@@ps@cloth@nv@@QEBAPEBUDxConstraint@34@XZ 0000000180015eb0 f i DxFabric.obj
 0001:00014ec0       ?capacityIncrement@?$Array@PEAV?$DxBatchedVector@UDxTether@cloth@nv@@@cloth@nv@@VNonTrackingAllocator@ps@23@@ps@cloth@nv@@IEBAIXZ 0000000180015ec0 f i DxFabric.obj
 0001:00014ee0       ?destroy@?$Array@PEAV?$DxBatchedVector@UDxTether@cloth@nv@@@cloth@nv@@VNonTrackingAllocator@ps@23@@ps@cloth@nv@@KAXPEAPEAV?$DxBatchedVector@UDxTether@cloth@nv@@@34@0@Z 0000000180015ee0 f i DxFabric.obj
 0001:00014ef0       ?copy@?$Array@PEAV?$DxBatchedVector@UDxTether@cloth@nv@@@cloth@nv@@VNonTrackingAllocator@ps@23@@ps@cloth@nv@@KAXPEAPEAV?$DxBatchedVector@UDxTether@cloth@nv@@@34@0PEBQEAV534@@Z 0000000180015ef0 f i DxFabric.obj
 0001:00014f10       ?deallocate@?$Array@PEAV?$DxBatchedVector@UDxTether@cloth@nv@@@cloth@nv@@VNonTrackingAllocator@ps@23@@ps@cloth@nv@@IEAAXPEAX@Z 0000000180015f10 f i DxFabric.obj
 0001:00014f30       ?allocate@?$Array@PEAV?$DxBatchedVector@UDxTether@cloth@nv@@@cloth@nv@@VNonTrackingAllocator@ps@23@@ps@cloth@nv@@IEAAPEAPEAV?$DxBatchedVector@UDxTether@cloth@nv@@@34@I@Z 0000000180015f30 f i DxFabric.obj
 0001:00014f80       ?isInUserMemory@?$Array@PEAV?$DxBatchedVector@UDxTether@cloth@nv@@@cloth@nv@@VNonTrackingAllocator@ps@23@@ps@cloth@nv@@QEBAIXZ 0000000180015f80 f i DxFabric.obj
 0001:00014f90       ??4?$DxBuffer@UDxTether@cloth@nv@@@cloth@nv@@QEAAAEAV012@AEBV012@@Z 0000000180015f90 f i DxFabric.obj
 0001:00015050       ??0?$DxBuffer@UDxTether@cloth@nv@@@cloth@nv@@QEAA@AEBV012@@Z 0000000180016050 f i DxFabric.obj
 0001:00015090       ?capacityIncrement@?$Array@PEAV?$DxBatchedVector@M@cloth@nv@@VNonTrackingAllocator@ps@23@@ps@cloth@nv@@IEBAIXZ 0000000180016090 f i DxFabric.obj
 0001:000150b0       ?destroy@?$Array@PEAV?$DxBatchedVector@M@cloth@nv@@VNonTrackingAllocator@ps@23@@ps@cloth@nv@@KAXPEAPEAV?$DxBatchedVector@M@34@0@Z 00000001800160b0 f i DxFabric.obj
 0001:000150c0       ?copy@?$Array@PEAV?$DxBatchedVector@M@cloth@nv@@VNonTrackingAllocator@ps@23@@ps@cloth@nv@@KAXPEAPEAV?$DxBatchedVector@M@34@0PEBQEAV534@@Z 00000001800160c0 f i DxFabric.obj
 0001:000150e0       ?deallocate@?$Array@PEAV?$DxBatchedVector@M@cloth@nv@@VNonTrackingAllocator@ps@23@@ps@cloth@nv@@IEAAXPEAX@Z 00000001800160e0 f i DxFabric.obj
 0001:00015100       ?allocate@?$Array@PEAV?$DxBatchedVector@M@cloth@nv@@VNonTrackingAllocator@ps@23@@ps@cloth@nv@@IEAAPEAPEAV?$DxBatchedVector@M@34@I@Z 0000000180016100 f i DxFabric.obj
 0001:00015150       ?isInUserMemory@?$Array@PEAV?$DxBatchedVector@M@cloth@nv@@VNonTrackingAllocator@ps@23@@ps@cloth@nv@@QEBAIXZ 0000000180016150 f i DxFabric.obj
 0001:00015160       ??4?$DxBuffer@M@cloth@nv@@QEAAAEAV012@AEBV012@@Z 0000000180016160 f i DxFabric.obj
 0001:00015220       ??0?$DxBuffer@M@cloth@nv@@QEAA@AEBV012@@Z 0000000180016220 f i DxFabric.obj
 0001:00015260       ?capacityIncrement@?$Array@PEAV?$DxBatchedVector@UDxConstraint@cloth@nv@@@cloth@nv@@VNonTrackingAllocator@ps@23@@ps@cloth@nv@@IEBAIXZ 0000000180016260 f i DxFabric.obj
 0001:00015280       ?destroy@?$Array@PEAV?$DxBatchedVector@UDxConstraint@cloth@nv@@@cloth@nv@@VNonTrackingAllocator@ps@23@@ps@cloth@nv@@KAXPEAPEAV?$DxBatchedVector@UDxConstraint@cloth@nv@@@34@0@Z 0000000180016280 f i DxFabric.obj
 0001:00015290       ?copy@?$Array@PEAV?$DxBatchedVector@UDxConstraint@cloth@nv@@@cloth@nv@@VNonTrackingAllocator@ps@23@@ps@cloth@nv@@KAXPEAPEAV?$DxBatchedVector@UDxConstraint@cloth@nv@@@34@0PEBQEAV534@@Z 0000000180016290 f i DxFabric.obj
 0001:000152b0       ?deallocate@?$Array@PEAV?$DxBatchedVector@UDxConstraint@cloth@nv@@@cloth@nv@@VNonTrackingAllocator@ps@23@@ps@cloth@nv@@IEAAXPEAX@Z 00000001800162b0 f i DxFabric.obj
 0001:000152d0       ?allocate@?$Array@PEAV?$DxBatchedVector@UDxConstraint@cloth@nv@@@cloth@nv@@VNonTrackingAllocator@ps@23@@ps@cloth@nv@@IEAAPEAPEAV?$DxBatchedVector@UDxConstraint@cloth@nv@@@34@I@Z 00000001800162d0 f i DxFabric.obj
 0001:00015320       ?isInUserMemory@?$Array@PEAV?$DxBatchedVector@UDxConstraint@cloth@nv@@@cloth@nv@@VNonTrackingAllocator@ps@23@@ps@cloth@nv@@QEBAIXZ 0000000180016320 f i DxFabric.obj
 0001:00015330       ??4?$DxBuffer@UDxConstraint@cloth@nv@@@cloth@nv@@QEAAAEAV012@AEBV012@@Z 0000000180016330 f i DxFabric.obj
 0001:000153f0       ??0?$DxBuffer@UDxConstraint@cloth@nv@@@cloth@nv@@QEAA@AEBV012@@Z 00000001800163f0 f i DxFabric.obj
 0001:00015430       ?capacityIncrement@?$Array@PEAVDxFabric@cloth@nv@@VNonTrackingAllocator@ps@23@@ps@cloth@nv@@IEBAIXZ 0000000180016430 f i DxFabric.obj
 0001:00015450       ?destroy@?$Array@PEAVDxFabric@cloth@nv@@VNonTrackingAllocator@ps@23@@ps@cloth@nv@@KAXPEAPEAVDxFabric@34@0@Z 0000000180016450 f i DxFabric.obj
 0001:00015460       ?copy@?$Array@PEAVDxFabric@cloth@nv@@VNonTrackingAllocator@ps@23@@ps@cloth@nv@@KAXPEAPEAVDxFabric@34@0PEBQEAV534@@Z 0000000180016460 f i DxFabric.obj
 0001:00015480       ?deallocate@?$Array@PEAVDxFabric@cloth@nv@@VNonTrackingAllocator@ps@23@@ps@cloth@nv@@IEAAXPEAX@Z 0000000180016480 f i DxFabric.obj
 0001:000154a0       ?allocate@?$Array@PEAVDxFabric@cloth@nv@@VNonTrackingAllocator@ps@23@@ps@cloth@nv@@IEAAPEAPEAVDxFabric@34@I@Z 00000001800164a0 f i DxFabric.obj
 0001:000154f0       ?isInUserMemory@?$Array@PEAVDxFabric@cloth@nv@@VNonTrackingAllocator@ps@23@@ps@cloth@nv@@QEBAIXZ 00000001800164f0 f i DxFabric.obj
 0001:00015500       ?capacityIncrement@?$Array@IVNonTrackingAllocator@ps@cloth@nv@@@ps@cloth@nv@@IEBAIXZ 0000000180016500 f i DxFabric.obj
 0001:00015520       ?grow@?$Array@UDxConstraint@cloth@nv@@VNonTrackingAllocator@ps@23@@ps@cloth@nv@@IEAAXI@Z 0000000180016520 f i DxFabric.obj
 0001:00015530       ?recreate@?$Array@UDxConstraint@cloth@nv@@VNonTrackingAllocator@ps@23@@ps@cloth@nv@@IEAAXI@Z 0000000180016530 f i DxFabric.obj
 0001:000155e0       ?copy@?$Array@UDxConstraint@cloth@nv@@VNonTrackingAllocator@ps@23@@ps@cloth@nv@@KAXPEAUDxConstraint@34@0PEBU534@@Z 00000001800165e0 f i DxFabric.obj
 0001:00015600       ?allocate@?$Array@UDxConstraint@cloth@nv@@VNonTrackingAllocator@ps@23@@ps@cloth@nv@@IEAAPEAUDxConstraint@34@I@Z 0000000180016600 f i DxFabric.obj
 0001:00015650       ?memCopy@intrinsics@physx@@YAPEAXPEAXPEBXI@Z 0000000180016650 f i DxFactory.obj
 0001:00015670       ??0Factory@cloth@nv@@IEAA@XZ 0000000180016670 f i DxFactory.obj
 0001:00015680       ??1Factory@cloth@nv@@MEAA@XZ 0000000180016680 f i DxFactory.obj
 0001:00015690       ??_GFactory@cloth@nv@@MEAAPEAXI@Z 0000000180016690 f i DxFactory.obj
 0001:00015690       ??_EFactory@cloth@nv@@MEAAPEAXI@Z 0000000180016690 f i * CIL library *:* CIL module *
 0001:000156e0       ?DxDefaultBufferPolicy@cloth@nv@@YA?AUDxBufferFlags@12@XZ 00000001800166e0 f i DxFactory.obj
 0001:00015700       ?DxDefaultRawBufferPolicy@cloth@nv@@YA?AUDxBufferFlags@12@XZ 0000000180016700 f i DxFactory.obj
 0001:00015720       ?DxStagingBufferPolicy@cloth@nv@@YA?AUDxBufferFlags@12@XZ 0000000180016720 f i DxFactory.obj
 0001:00015740       ?getPlatform@DxFactory@cloth@nv@@UEBA?AW4Platform@23@XZ 0000000180016740 f i DxFactory.obj
 0001:00015750       ??_GDxFactory@cloth@nv@@UEAAPEAXI@Z 0000000180016750 f i DxFactory.obj
 0001:00015750       ??_EDxFactory@cloth@nv@@UEAAPEAXI@Z 0000000180016750 f i * CIL library *:* CIL module *
 0001:000157b0       ?begin@?$Array@U?$Vec4T@G@cloth@nv@@VNonTrackingAllocator@ps@23@@ps@cloth@nv@@QEAAPEAU?$Vec4T@G@34@XZ 00000001800167b0 f i DxFactory.obj
 0001:000157c0       ??0?$Array@U?$Vec4T@G@cloth@nv@@VNonTrackingAllocator@ps@23@@ps@cloth@nv@@QEAA@IAEBU?$Vec4T@G@23@AEBVNonTrackingAllocator@123@@Z 00000001800167c0 f i DxFactory.obj
 0001:000157e0       ?size@?$Array@UDxTether@cloth@nv@@VNonTrackingAllocator@ps@23@@ps@cloth@nv@@QEBAIXZ 00000001800167e0 f i DxFactory.obj
 0001:000157f0       ??A?$Array@UDxTether@cloth@nv@@VNonTrackingAllocator@ps@23@@ps@cloth@nv@@QEAAAEAUDxTether@23@I@Z 00000001800167f0 f i DxFactory.obj
 0001:00015800       ??0?$Array@UDxTether@cloth@nv@@VNonTrackingAllocator@ps@23@@ps@cloth@nv@@QEAA@IAEBUDxTether@23@AEBVNonTrackingAllocator@123@@Z 0000000180016800 f i DxFactory.obj
 0001:00015820       ??A?$Array@MVNonTrackingAllocator@ps@cloth@nv@@@ps@cloth@nv@@QEAAAEAMI@Z 0000000180016820 f i DxFactory.obj
 0001:00015830       ??A?$Array@UDxConstraint@cloth@nv@@VNonTrackingAllocator@ps@23@@ps@cloth@nv@@QEAAAEAUDxConstraint@23@I@Z 0000000180016830 f i DxFactory.obj
 0001:00015840       ?begin@?$DxVectorMap@V?$DxBatchedVector@U?$Vec4T@G@cloth@nv@@@cloth@nv@@@cloth@nv@@QEAAPEAU?$Vec4T@G@23@XZ 0000000180016840 f i DxFactory.obj
 0001:00015850       ??1?$DxVectorMap@V?$DxBatchedVector@U?$Vec4T@G@cloth@nv@@@cloth@nv@@@cloth@nv@@QEAA@XZ 0000000180016850 f i DxFactory.obj
 0001:000158b0       ??0?$DxVectorMap@V?$DxBatchedVector@U?$Vec4T@G@cloth@nv@@@cloth@nv@@@cloth@nv@@QEAA@AEAV?$DxBatchedVector@U?$Vec4T@G@cloth@nv@@@12@W4D3D11_MAP@@@Z 00000001800168b0 f i DxFactory.obj
 0001:00015940       ??1?$DxBatchedStorage@U?$Vec4T@G@cloth@nv@@@cloth@nv@@QEAA@XZ 0000000180016940 f i DxFactory.obj
 0001:000159c0       ??0?$DxBatchedStorage@U?$Vec4T@G@cloth@nv@@@cloth@nv@@QEAA@PEAVDxContextManagerCallback@12@AEBUDxBufferFlags@12@@Z 00000001800169c0 f i DxFactory.obj
 0001:00015a00       ??1?$DxBatchedStorage@VPxVec3@physx@@@cloth@nv@@QEAA@XZ 0000000180016a00 f i DxFactory.obj
 0001:00015a80       ??0?$DxBatchedStorage@VPxVec3@physx@@@cloth@nv@@QEAA@PEAVDxContextManagerCallback@12@AEBUDxBufferFlags@12@@Z 0000000180016a80 f i DxFactory.obj
 0001:00015ac0       ??1?$DxBatchedStorage@I@cloth@nv@@QEAA@XZ 0000000180016ac0 f i DxFactory.obj
 0001:00015b40       ??0?$DxBatchedStorage@I@cloth@nv@@QEAA@PEAVDxContextManagerCallback@12@AEBUDxBufferFlags@12@@Z 0000000180016b40 f i DxFactory.obj
 0001:00015b80       ?empty@?$DxBatchedVector@UIndexPair@cloth@nv@@@cloth@nv@@QEBA_NXZ 0000000180016b80 f i DxFactory.obj
 0001:00015b90       ??1?$DxBatchedStorage@UIndexPair@cloth@nv@@@cloth@nv@@QEAA@XZ 0000000180016b90 f i DxFactory.obj
 0001:00015c10       ??0?$DxBatchedStorage@UIndexPair@cloth@nv@@@cloth@nv@@QEAA@PEAVDxContextManagerCallback@12@AEBUDxBufferFlags@12@@Z 0000000180016c10 f i DxFactory.obj
 0001:00015c50       ??1?$DxBatchedStorage@UDxPhaseConfig@cloth@nv@@@cloth@nv@@QEAA@XZ 0000000180016c50 f i DxFactory.obj
 0001:00015cd0       ??0?$DxBatchedStorage@UDxPhaseConfig@cloth@nv@@@cloth@nv@@QEAA@PEAVDxContextManagerCallback@12@AEBUDxBufferFlags@12@@Z 0000000180016cd0 f i DxFactory.obj
 0001:00015d10       ??1?$DxBatchedStorage@VPxVec4@physx@@@cloth@nv@@QEAA@XZ 0000000180016d10 f i DxFactory.obj
 0001:00015d90       ??0?$DxBatchedStorage@VPxVec4@physx@@@cloth@nv@@QEAA@PEAVDxContextManagerCallback@12@AEBUDxBufferFlags@12@@Z 0000000180016d90 f i DxFactory.obj
 0001:00015dd0       ?buffer@?$DxBatchedVector@UDxTether@cloth@nv@@@cloth@nv@@QEBAPEAUID3D11Buffer@@XZ 0000000180016dd0 f i DxFactory.obj
 0001:00015de0       ??1?$DxBatchedStorage@UDxTether@cloth@nv@@@cloth@nv@@QEAA@XZ 0000000180016de0 f i DxFactory.obj
 0001:00015e60       ??0?$DxBatchedStorage@UDxTether@cloth@nv@@@cloth@nv@@QEAA@PEAVDxContextManagerCallback@12@AEBUDxBufferFlags@12@@Z 0000000180016e60 f i DxFactory.obj
 0001:00015ea0       ?buffer@?$DxBatchedVector@M@cloth@nv@@QEBAPEAUID3D11Buffer@@XZ 0000000180016ea0 f i DxFactory.obj
 0001:00015eb0       ??1?$DxBatchedStorage@M@cloth@nv@@QEAA@XZ 0000000180016eb0 f i DxFactory.obj
 0001:00015f30       ??0?$DxBatchedStorage@M@cloth@nv@@QEAA@PEAVDxContextManagerCallback@12@AEBUDxBufferFlags@12@@Z 0000000180016f30 f i DxFactory.obj
 0001:00015f70       ??1?$DxBatchedStorage@UDxConstraint@cloth@nv@@@cloth@nv@@QEAA@XZ 0000000180016f70 f i DxFactory.obj
 0001:00015ff0       ??0?$DxBatchedStorage@UDxConstraint@cloth@nv@@@cloth@nv@@QEAA@PEAVDxContextManagerCallback@12@AEBUDxBufferFlags@12@@Z 0000000180016ff0 f i DxFactory.obj
 0001:00016030       ??1?$Array@PEAVDxFabric@cloth@nv@@VNonTrackingAllocator@ps@23@@ps@cloth@nv@@QEAA@XZ 0000000180017030 f i DxFactory.obj
 0001:00016060       ??0?$Array@PEAVDxFabric@cloth@nv@@VNonTrackingAllocator@ps@23@@ps@cloth@nv@@QEAA@AEBVNonTrackingAllocator@123@@Z 0000000180017060 f i DxFactory.obj
 0001:00016070       ??0?$Vec4T@G@cloth@nv@@QEAA@XZ 0000000180017070 f i DxFactory.obj
 0001:00016080       ??1?$Array@PEAV?$DxBatchedVector@U?$Vec4T@G@cloth@nv@@@cloth@nv@@VNonTrackingAllocator@ps@23@@ps@cloth@nv@@QEAA@XZ 0000000180017080 f i DxFactory.obj
 0001:000160b0       ??0?$Array@PEAV?$DxBatchedVector@U?$Vec4T@G@cloth@nv@@@cloth@nv@@VNonTrackingAllocator@ps@23@@ps@cloth@nv@@QEAA@AEBVNonTrackingAllocator@123@@Z 00000001800170b0 f i DxFactory.obj
 0001:000160c0       ?manager@?$DxBatchedVector@U?$Vec4T@G@cloth@nv@@@cloth@nv@@QEBAPEAVDxContextManagerCallback@23@XZ 00000001800170c0 f i DxFactory.obj
 0001:000160d0       ?unmap@?$DxBatchedVector@U?$Vec4T@G@cloth@nv@@@cloth@nv@@QEAAXXZ 00000001800170d0 f i DxFactory.obj
 0001:00016110       ?map@?$DxBatchedVector@U?$Vec4T@G@cloth@nv@@@cloth@nv@@QEAAPEAU?$Vec4T@G@23@W4D3D11_MAP@@@Z 0000000180017110 f i DxFactory.obj
 0001:00016170       ??1?$Array@PEAV?$DxBatchedVector@VPxVec3@physx@@@cloth@nv@@VNonTrackingAllocator@ps@23@@ps@cloth@nv@@QEAA@XZ 0000000180017170 f i DxFactory.obj
 0001:000161a0       ??0?$Array@PEAV?$DxBatchedVector@VPxVec3@physx@@@cloth@nv@@VNonTrackingAllocator@ps@23@@ps@cloth@nv@@QEAA@AEBVNonTrackingAllocator@123@@Z 00000001800171a0 f i DxFactory.obj
 0001:000161b0       ??1?$Array@PEAV?$DxBatchedVector@I@cloth@nv@@VNonTrackingAllocator@ps@23@@ps@cloth@nv@@QEAA@XZ 00000001800171b0 f i DxFactory.obj
 0001:000161e0       ??0?$Array@PEAV?$DxBatchedVector@I@cloth@nv@@VNonTrackingAllocator@ps@23@@ps@cloth@nv@@QEAA@AEBVNonTrackingAllocator@123@@Z 00000001800171e0 f i DxFactory.obj
 0001:000161f0       ??1?$Array@PEAV?$DxBatchedVector@UIndexPair@cloth@nv@@@cloth@nv@@VNonTrackingAllocator@ps@23@@ps@cloth@nv@@QEAA@XZ 00000001800171f0 f i DxFactory.obj
 0001:00016220       ??0?$Array@PEAV?$DxBatchedVector@UIndexPair@cloth@nv@@@cloth@nv@@VNonTrackingAllocator@ps@23@@ps@cloth@nv@@QEAA@AEBVNonTrackingAllocator@123@@Z 0000000180017220 f i DxFactory.obj
 0001:00016230       ??1?$Array@PEAV?$DxBatchedVector@UDxPhaseConfig@cloth@nv@@@cloth@nv@@VNonTrackingAllocator@ps@23@@ps@cloth@nv@@QEAA@XZ 0000000180017230 f i DxFactory.obj
 0001:00016260       ??0?$Array@PEAV?$DxBatchedVector@UDxPhaseConfig@cloth@nv@@@cloth@nv@@VNonTrackingAllocator@ps@23@@ps@cloth@nv@@QEAA@AEBVNonTrackingAllocator@123@@Z 0000000180017260 f i DxFactory.obj
 0001:00016270       ??1?$Array@PEAV?$DxBatchedVector@VPxVec4@physx@@@cloth@nv@@VNonTrackingAllocator@ps@23@@ps@cloth@nv@@QEAA@XZ 0000000180017270 f i DxFactory.obj
 0001:000162a0       ??0?$Array@PEAV?$DxBatchedVector@VPxVec4@physx@@@cloth@nv@@VNonTrackingAllocator@ps@23@@ps@cloth@nv@@QEAA@AEBVNonTrackingAllocator@123@@Z 00000001800172a0 f i DxFactory.obj
 0001:000162b0       ??1?$Array@PEAV?$DxBatchedVector@UDxTether@cloth@nv@@@cloth@nv@@VNonTrackingAllocator@ps@23@@ps@cloth@nv@@QEAA@XZ 00000001800172b0 f i DxFactory.obj
 0001:000162e0       ??0?$Array@PEAV?$DxBatchedVector@UDxTether@cloth@nv@@@cloth@nv@@VNonTrackingAllocator@ps@23@@ps@cloth@nv@@QEAA@AEBVNonTrackingAllocator@123@@Z 00000001800172e0 f i DxFactory.obj
 0001:000162f0       ??1?$Array@PEAV?$DxBatchedVector@M@cloth@nv@@VNonTrackingAllocator@ps@23@@ps@cloth@nv@@QEAA@XZ 00000001800172f0 f i DxFactory.obj
 0001:00016320       ??0?$Array@PEAV?$DxBatchedVector@M@cloth@nv@@VNonTrackingAllocator@ps@23@@ps@cloth@nv@@QEAA@AEBVNonTrackingAllocator@123@@Z 0000000180017320 f i DxFactory.obj
 0001:00016330       ??1?$Array@PEAV?$DxBatchedVector@UDxConstraint@cloth@nv@@@cloth@nv@@VNonTrackingAllocator@ps@23@@ps@cloth@nv@@QEAA@XZ 0000000180017330 f i DxFactory.obj
 0001:00016360       ??0?$Array@PEAV?$DxBatchedVector@UDxConstraint@cloth@nv@@@cloth@nv@@VNonTrackingAllocator@ps@23@@ps@cloth@nv@@QEAA@AEBVNonTrackingAllocator@123@@Z 0000000180017360 f i DxFactory.obj
 0001:00016370       ?size@?$Range@I@cloth@nv@@QEBAIXZ 0000000180017370 f i DxFactory.obj
 0001:00016380       ?empty@?$Range@I@cloth@nv@@QEBA_NXZ 0000000180017380 f i DxFactory.obj
 0001:00016390       ?popFront@?$Range@I@cloth@nv@@QEAAXXZ 0000000180017390 f i DxFactory.obj
 0001:000163a0       ?front@?$Range@I@cloth@nv@@QEBAAEAIXZ 00000001800173a0 f i DxFactory.obj
 0001:000163b0       ?size@?$Range@M@cloth@nv@@QEBAIXZ 00000001800173b0 f i DxFactory.obj
 0001:000163c0       ?empty@?$Range@M@cloth@nv@@QEBA_NXZ 00000001800173c0 f i DxFactory.obj
 0001:000163d0       ?popFront@?$Range@M@cloth@nv@@QEAAXXZ 00000001800173d0 f i DxFactory.obj
 0001:000163e0       ?front@?$Range@M@cloth@nv@@QEBAAEAMXZ 00000001800173e0 f i DxFactory.obj
 0001:000163f0       ??A?$Range@M@cloth@nv@@QEBAAEAMI@Z 00000001800173f0 f i DxFactory.obj
 0001:00016400       ?size@?$Range@VPxVec4@physx@@@cloth@nv@@QEBAIXZ 0000000180017400 f i DxFactory.obj
 0001:00016410       ?empty@?$Range@VPxVec4@physx@@@cloth@nv@@QEBA_NXZ 0000000180017410 f i DxFactory.obj
 0001:00016420       ?size@?$Range@VPxVec3@physx@@@cloth@nv@@QEBAIXZ 0000000180017420 f i DxFactory.obj
 0001:00016450       ?empty@?$Range@VPxVec3@physx@@@cloth@nv@@QEBA_NXZ 0000000180017450 f i DxFactory.obj
 0001:00016460       ?size@?$Range@$$BY03I@cloth@nv@@QEBAIXZ 0000000180017460 f i DxFactory.obj
 0001:00016470       ?resize@?$Array@UDxTether@cloth@nv@@VNonTrackingAllocator@ps@23@@ps@cloth@nv@@QEAAXIAEBUDxTether@34@@Z 0000000180017470 f i DxFactory.obj
 0001:000164e0       ??$PX_UNUSED@PEBVCloth@cloth@nv@@@@YAXAEBQEBVCloth@cloth@nv@@@Z 00000001800174e0 f i DxFactory.obj
 0001:000164f0       ??$PX_UNUSED@PEAU?$Range@VPxVec4@physx@@@cloth@nv@@@@YAXAEBQEAU?$Range@VPxVec4@physx@@@cloth@nv@@@Z 00000001800174f0 f i DxFactory.obj
 0001:00016500       ?resize@?$Array@U?$Vec4T@G@cloth@nv@@VNonTrackingAllocator@ps@23@@ps@cloth@nv@@QEAAXIAEBU?$Vec4T@G@34@@Z 0000000180017500 f i DxFactory.obj
 0001:00016570       ??$?0G@?$Vec4T@I@cloth@nv@@QEAA@AEBU?$Vec4T@G@12@@Z 0000000180017570 f i DxFactory.obj
 0001:00016590       ?create@?$Array@U?$Vec4T@G@cloth@nv@@VNonTrackingAllocator@ps@23@@ps@cloth@nv@@KAXPEAU?$Vec4T@G@34@0AEBU534@@Z 0000000180017590 f i DxFactory.obj
 0001:000165b0       ?create@?$Array@UDxTether@cloth@nv@@VNonTrackingAllocator@ps@23@@ps@cloth@nv@@KAXPEAUDxTether@34@0AEBU534@@Z 00000001800175b0 f i DxFactory.obj
 0001:000165d0       ?fsel@intrinsics@physx@@YAMMMM@Z 00000001800175d0 f i DxSolver.obj
 0001:000165e0       ?sqrt@intrinsics@physx@@YAMM@Z 00000001800175e0 f i DxSolver.obj
 0001:000165f0       ?sin@intrinsics@physx@@YAMM@Z 00000001800175f0 f i DxSolver.obj
 0001:00016600       ?cos@intrinsics@physx@@YAMM@Z 0000000180017600 f i DxSolver.obj
 0001:00016610       ??0Solver@cloth@nv@@IEAA@XZ 0000000180017610 f i DxSolver.obj
 0001:00016620       ??1Solver@cloth@nv@@UEAA@XZ 0000000180017620 f i DxSolver.obj
 0001:00016630       ??_ESolver@cloth@nv@@UEAAPEAXI@Z 0000000180017630 f i * CIL library *:* CIL module *
 0001:00016630       ??_GSolver@cloth@nv@@UEAAPEAXI@Z 0000000180017630 f i DxSolver.obj
 0001:00016680       ??0Simd4fLoadFactory@cloth@nv@@QEAA@PEBM@Z 0000000180017680 f i DxSolver.obj
 0001:00016690       ?simd4f@cloth@nv@@YA?AUSimd4fTupleFactory@12@AEBUSimd4iTupleFactory@12@@Z 0000000180017690 f i DxSolver.obj
 0001:000166a0       ?load@cloth@nv@@YA?AUSimd4fLoadFactory@12@PEBM@Z 00000001800176a0 f i DxSolver.obj
 0001:000166b0       ??BSimd4fZeroFactory@cloth@nv@@QEBA?AT__m128@@XZ 00000001800176b0 f i DxSolver.obj
 0001:000166c0       ??BSimd4fLoadFactory@cloth@nv@@QEBA?AT__m128@@XZ 00000001800176c0 f i DxSolver.obj
 0001:000166d0       ??Icloth@nv@@YA?AT__m128@@AEBT2@0@Z 00000001800176d0 f i DxSolver.obj
 0001:000166e0       ?select@cloth@nv@@YA?AT__m128@@AEBT3@00@Z 00000001800176e0 f i DxSolver.obj
 0001:000166f0       ?rsqrt@cloth@nv@@YA?AT__m128@@AEBT3@@Z 00000001800176f0 f i DxSolver.obj
 0001:00016700       ?dot3@cloth@nv@@YA?AT__m128@@AEBT3@0@Z 0000000180017700 f i DxSolver.obj
 0001:00016720       ??0Simd4iTupleFactory@cloth@nv@@QEAA@HHHH@Z 0000000180017720 f i DxSolver.obj
 0001:00016740       ?simd4i@cloth@nv@@YA?AUSimd4iTupleFactory@12@HHHH@Z 0000000180017740 f i DxSolver.obj
 0001:00016760       ??0DxClothData@cloth@nv@@QEAA@XZ 0000000180017760 f i DxSolver.obj
 0001:00016770       ??0DxIterationData@cloth@nv@@QEAA@XZ 0000000180017770 f i DxSolver.obj
 0001:00016780       ?DxDynamicBufferPolicy@cloth@nv@@YA?AUDxBufferFlags@12@XZ 0000000180017780 f i DxSolver.obj
 0001:000167a0       ?PxSqrt@physx@@YAMM@Z      00000001800177a0 f i DxSolver.obj
 0001:000167b0       ?PxSin@physx@@YAMM@Z       00000001800177b0 f i DxSolver.obj
 0001:000167c0       ?PxCos@physx@@YAMM@Z       00000001800177c0 f i DxSolver.obj
 0001:000167d0       ?PxAsin@physx@@YAMM@Z      00000001800177d0 f i DxSolver.obj
 0001:000167f0       ??APxVec3@physx@@QEAAAEAMI@Z 00000001800177f0 f i DxSolver.obj
 0001:00016800       ?magnitude@PxVec3@physx@@QEBAMXZ 0000000180017800 f i DxSolver.obj
 0001:00016830       ??DPxVec3@physx@@QEBA?AV01@M@Z 0000000180017830 f i DxSolver.obj
 0001:00016860       ??0PxVec4@physx@@QEAA@AEBVPxVec3@1@M@Z 0000000180017860 f i DxSolver.obj
 0001:00016880       ??APxVec4@physx@@QEAAAEAMI@Z 0000000180017880 f i DxSolver.obj
 0001:00016890       ?getXYZ@PxVec4@physx@@QEBA?AVPxVec3@2@XZ 0000000180017890 f i DxSolver.obj
 0001:000168b0       ??0PxQuat@physx@@QEAA@AEBV01@@Z 00000001800178b0 f i DxSolver.obj
 0001:000168d0       ?getConjugate@PxQuat@physx@@QEBA?AV12@XZ 00000001800178d0 f i DxSolver.obj
 0001:00016910       ?getImaginaryPart@PxQuat@physx@@QEBA?AVPxVec3@2@XZ 0000000180017910 f i DxSolver.obj
 0001:00016930       ??DPxQuat@physx@@QEBA?AV01@AEBV01@@Z 0000000180017930 f i DxSolver.obj
 0001:00016a70       ??0SwInterCollisionData@cloth@nv@@QEAA@XZ 0000000180017a70 f i DxSolver.obj
 0001:00016a80       ??0SwInterCollisionData@cloth@nv@@QEAA@PEAVPxVec4@physx@@0IPEAIAEBVPxTransform@4@AEBVPxVec3@4@3MPEAX@Z 0000000180017a80 f i DxSolver.obj
 0001:00016b10       ??0PxTransform@physx@@QEAA@AEBV01@@Z 0000000180017b10 f i DxSolver.obj
 0001:00016b40       ?hasError@DxSolver@cloth@nv@@UEBA_NXZ 0000000180017b40 f i DxSolver.obj
 0001:00016b50       ?setInterCollisionDistance@DxSolver@cloth@nv@@UEAAXM@Z 0000000180017b50 f i DxSolver.obj
 0001:00016b60       ?getInterCollisionDistance@DxSolver@cloth@nv@@UEBAMXZ 0000000180017b60 f i DxSolver.obj
 0001:00016b70       ?setInterCollisionStiffness@DxSolver@cloth@nv@@UEAAXM@Z 0000000180017b70 f i DxSolver.obj
 0001:00016b80       ?getInterCollisionStiffness@DxSolver@cloth@nv@@UEBAMXZ 0000000180017b80 f i DxSolver.obj
 0001:00016b90       ?setInterCollisionNbIterations@DxSolver@cloth@nv@@UEAAXI@Z 0000000180017b90 f i DxSolver.obj
 0001:00016ba0       ?getInterCollisionNbIterations@DxSolver@cloth@nv@@UEBAIXZ 0000000180017ba0 f i DxSolver.obj
 0001:00016bb0       ?setInterCollisionFilter@DxSolver@cloth@nv@@UEAAXP6A_NPEAX0@Z@Z 0000000180017bb0 f i DxSolver.obj
 0001:00016bc0       ?empty@MovingAverage@cloth@nv@@QEBA_NXZ 0000000180017bc0 f i DxSolver.obj
 0001:00016bd0       ?push@MovingAverage@cloth@nv@@QEAAXIM@Z 0000000180017bd0 f i DxSolver.obj
 0001:00016e00       ?average@MovingAverage@cloth@nv@@QEBAMXZ 0000000180017e00 f i DxSolver.obj
 0001:00016f80       ?array@cloth@nv@@YAAEAY02$$CBMAEBVPxVec3@physx@@@Z 0000000180017f80 f i DxSolver.obj
 0001:00016f90       ?array@cloth@nv@@YAAEAY03$$CBMAEBVPxVec4@physx@@@Z 0000000180017f90 f i DxSolver.obj
 0001:00016fa0       ??0PxMat33@physx@@QEAA@AEBVPxVec3@1@00@Z 0000000180017fa0 f i DxSolver.obj
 0001:00016fe0       ??RPxMat33@physx@@QEAAAEAMII@Z 0000000180017fe0 f i DxSolver.obj
 0001:00017000       ??APxMat33@physx@@QEAAAEAVPxVec3@1@I@Z 0000000180018000 f i DxSolver.obj
 0001:00017010       ?star@ps@cloth@nv@@YA?AVPxMat33@physx@@AEBVPxVec3@5@@Z 0000000180018010 f i DxSolver.obj
 0001:00017080       ??0PxMat44@physx@@QEAA@AEBVPxQuat@1@@Z 0000000180018080 f i DxSolver.obj
 0001:000171f0       ??RPxMat44@physx@@QEAAAEAMII@Z 00000001800181f0 f i DxSolver.obj
 0001:00017200       ?rotate@PxMat44@physx@@QEBA?BVPxVec4@2@AEBV32@@Z 0000000180018200 f i DxSolver.obj
 0001:00017300       ?rotate@PxMat44@physx@@QEBA?BVPxVec3@2@AEBV32@@Z 0000000180018300 f i DxSolver.obj
 0001:000173b0       ??APxMat44@physx@@QEAAAEAVPxVec4@1@I@Z 00000001800183b0 f i DxSolver.obj
 0001:000173c0       ??APxMat44@physx@@QEBAAEBVPxVec4@1@I@Z 00000001800183c0 f i DxSolver.obj
 0001:000173d0       ?log@cloth@nv@@YA?AVPxVec3@physx@@AEBVPxQuat@4@@Z 00000001800183d0 f i DxSolver.obj
 0001:000174c0       ?exp@cloth@nv@@YA?AVPxQuat@physx@@AEBVPxVec3@4@@Z 00000001800184c0 f i DxSolver.obj
 0001:00017580       ??_GDxSolver@cloth@nv@@UEAAPEAXI@Z 0000000180018580 f i DxSolver.obj
 0001:00017580       ??_EDxSolver@cloth@nv@@UEAAPEAXI@Z 0000000180018580 f i * CIL library *:* CIL module *
 0001:000175e0       ??1?$DxDeviceVector@UDxClothData@cloth@nv@@@cloth@nv@@QEAA@XZ 00000001800185e0 f i DxSolver.obj
 0001:00017640       ??1?$DxDeviceVector@UDxFrameData@cloth@nv@@@cloth@nv@@QEAA@XZ 0000000180018640 f i DxSolver.obj
 0001:000176a0       ??1?$DxDeviceVector@UDxIterationData@cloth@nv@@@cloth@nv@@QEAA@XZ 00000001800186a0 f i DxSolver.obj
 0001:00017730       ??4?$DxDeviceVector@UDxFrameData@cloth@nv@@@cloth@nv@@QEAAAEAV012@AEBV012@@Z 0000000180018730 f i DxSolver.obj
 0001:00017760       ?resourceView@?$DxBuffer@U?$Vec4T@G@cloth@nv@@@cloth@nv@@QEAAPEAUID3D11ShaderResourceView@@XZ 0000000180018760 f i DxSolver.obj
 0001:000177c0       ?resourceView@?$DxBuffer@VPxVec3@physx@@@cloth@nv@@QEAAPEAUID3D11ShaderResourceView@@XZ 00000001800187c0 f i DxSolver.obj
 0001:00017820       ?accessView@?$DxBuffer@I@cloth@nv@@QEAAPEAUID3D11UnorderedAccessView@@XZ 0000000180018820 f i DxSolver.obj
 0001:00017880       ?resourceView@?$DxBuffer@I@cloth@nv@@QEAAPEAUID3D11ShaderResourceView@@XZ 0000000180018880 f i DxSolver.obj
 0001:000178e0       ?resourceView@?$DxBuffer@UIndexPair@cloth@nv@@@cloth@nv@@QEAAPEAUID3D11ShaderResourceView@@XZ 00000001800188e0 f i DxSolver.obj
 0001:00017940       ?resourceView@?$DxBuffer@UDxPhaseConfig@cloth@nv@@@cloth@nv@@QEAAPEAUID3D11ShaderResourceView@@XZ 0000000180018940 f i DxSolver.obj
 0001:000179a0       ?accessViewRaw@?$DxBuffer@VPxVec4@physx@@@cloth@nv@@QEAAPEAUID3D11UnorderedAccessView@@XZ 00000001800189a0 f i DxSolver.obj
 0001:00017a40       ?accessView@?$DxBuffer@VPxVec4@physx@@@cloth@nv@@QEAAPEAUID3D11UnorderedAccessView@@XZ 0000000180018a40 f i DxSolver.obj
 0001:00017aa0       ?resourceView@?$DxBuffer@VPxVec4@physx@@@cloth@nv@@QEAAPEAUID3D11ShaderResourceView@@XZ 0000000180018aa0 f i DxSolver.obj
 0001:00017b00       ?resourceView@?$DxBuffer@UDxTether@cloth@nv@@@cloth@nv@@QEAAPEAUID3D11ShaderResourceView@@XZ 0000000180018b00 f i DxSolver.obj
 0001:00017b60       ?resourceView@?$DxBuffer@M@cloth@nv@@QEAAPEAUID3D11ShaderResourceView@@XZ 0000000180018b60 f i DxSolver.obj
 0001:00017bc0       ?resourceView@?$DxBuffer@UDxConstraint@cloth@nv@@@cloth@nv@@QEAAPEAUID3D11ShaderResourceView@@XZ 0000000180018bc0 f i DxSolver.obj
 0001:00017c20       ?pushBack@?$Array@USwInterCollisionData@cloth@nv@@VNonTrackingAllocator@ps@23@@ps@cloth@nv@@QEAAAEAUSwInterCollisionData@34@AEBU534@@Z 0000000180018c20 f i DxSolver.obj
 0001:00017ce0       ?size@?$Array@USwInterCollisionData@cloth@nv@@VNonTrackingAllocator@ps@23@@ps@cloth@nv@@QEBAIXZ 0000000180018ce0 f i DxSolver.obj
 0001:00017cf0       ?begin@?$Array@USwInterCollisionData@cloth@nv@@VNonTrackingAllocator@ps@23@@ps@cloth@nv@@QEAAPEAUSwInterCollisionData@34@XZ 0000000180018cf0 f i DxSolver.obj
 0001:00017d00       ??A?$Array@USwInterCollisionData@cloth@nv@@VNonTrackingAllocator@ps@23@@ps@cloth@nv@@QEAAAEAUSwInterCollisionData@23@I@Z 0000000180018d00 f i DxSolver.obj
 0001:00017d10       ??1?$Array@USwInterCollisionData@cloth@nv@@VNonTrackingAllocator@ps@23@@ps@cloth@nv@@QEAA@XZ 0000000180018d10 f i DxSolver.obj
 0001:00017d40       ??0?$Array@USwInterCollisionData@cloth@nv@@VNonTrackingAllocator@ps@23@@ps@cloth@nv@@QEAA@AEBVNonTrackingAllocator@123@@Z 0000000180018d40 f i DxSolver.obj
 0001:00017d50       ?pushBack@?$Array@UDxIterationData@cloth@nv@@VNonTrackingAllocator@ps@23@@ps@cloth@nv@@QEAAAEAUDxIterationData@34@AEBU534@@Z 0000000180018d50 f i DxSolver.obj
 0001:00017dc0       ?size@?$Array@UDxIterationData@cloth@nv@@VNonTrackingAllocator@ps@23@@ps@cloth@nv@@QEBAIXZ 0000000180018dc0 f i DxSolver.obj
 0001:00017dd0       ??1?$Array@UDxIterationData@cloth@nv@@VNonTrackingAllocator@ps@23@@ps@cloth@nv@@QEAA@XZ 0000000180018dd0 f i DxSolver.obj
 0001:00017e00       ??0?$Array@UDxIterationData@cloth@nv@@VNonTrackingAllocator@ps@23@@ps@cloth@nv@@QEAA@AEBVNonTrackingAllocator@123@@Z 0000000180018e00 f i DxSolver.obj
 0001:00017e10       ?resourceView@?$DxBuffer@UDxIterationData@cloth@nv@@@cloth@nv@@QEAAPEAUID3D11ShaderResourceView@@XZ 0000000180018e10 f i DxSolver.obj
 0001:00017e70       ??1?$DxBuffer@UDxIterationData@cloth@nv@@@cloth@nv@@QEAA@XZ 0000000180018e70 f i DxSolver.obj
 0001:00017ed0       ??0?$DxDeviceVector@UDxIterationData@cloth@nv@@@cloth@nv@@QEAA@PEAVDxContextManagerCallback@12@AEBUDxBufferFlags@12@@Z 0000000180018ed0 f i DxSolver.obj
 0001:00017f00       ?accessView@?$DxBuffer@UDxFrameData@cloth@nv@@@cloth@nv@@QEAAPEAUID3D11UnorderedAccessView@@XZ 0000000180018f00 f i DxSolver.obj
 0001:00017f60       ??4?$DxBuffer@UDxFrameData@cloth@nv@@@cloth@nv@@QEAAAEAV012@AEBV012@@Z 0000000180018f60 f i DxSolver.obj
 0001:00018020       ??1?$DxBuffer@UDxFrameData@cloth@nv@@@cloth@nv@@QEAA@XZ 0000000180019020 f i DxSolver.obj
 0001:00018080       ?unmap@?$DxDeviceVector@UDxFrameData@cloth@nv@@@cloth@nv@@QEAAXXZ 0000000180019080 f i DxSolver.obj
 0001:000180b0       ?map@?$DxDeviceVector@UDxFrameData@cloth@nv@@@cloth@nv@@QEAAPEAUDxFrameData@23@W4D3D11_MAP@@@Z 00000001800190b0 f i DxSolver.obj
 0001:000180c0       ?resize@?$DxDeviceVector@UDxFrameData@cloth@nv@@@cloth@nv@@QEAAXI@Z 00000001800190c0 f i DxSolver.obj
 0001:00018100       ??0?$DxDeviceVector@UDxFrameData@cloth@nv@@@cloth@nv@@QEAA@PEAVDxContextManagerCallback@12@AEBUDxBufferFlags@12@@Z 0000000180019100 f i DxSolver.obj
 0001:00018130       ?remove@?$Array@UDxClothData@cloth@nv@@VNonTrackingAllocator@ps@23@@ps@cloth@nv@@QEAAXI@Z 0000000180019130 f i DxSolver.obj
 0001:000181c0       ?begin@?$Array@UDxClothData@cloth@nv@@VNonTrackingAllocator@ps@23@@ps@cloth@nv@@QEAAPEAUDxClothData@34@XZ 00000001800191c0 f i DxSolver.obj
 0001:000181d0       ??1?$Array@UDxClothData@cloth@nv@@VNonTrackingAllocator@ps@23@@ps@cloth@nv@@QEAA@XZ 00000001800191d0 f i DxSolver.obj
 0001:00018200       ??0?$Array@UDxClothData@cloth@nv@@VNonTrackingAllocator@ps@23@@ps@cloth@nv@@QEAA@AEBVNonTrackingAllocator@123@@Z 0000000180019200 f i DxSolver.obj
 0001:00018210       ?resourceView@?$DxBuffer@UDxClothData@cloth@nv@@@cloth@nv@@QEAAPEAUID3D11ShaderResourceView@@XZ 0000000180019210 f i DxSolver.obj
 0001:00018270       ??1?$DxBuffer@UDxClothData@cloth@nv@@@cloth@nv@@QEAA@XZ 0000000180019270 f i DxSolver.obj
 0001:000182d0       ?resize@?$DxDeviceVector@UDxClothData@cloth@nv@@@cloth@nv@@QEAAXI@Z 00000001800192d0 f i DxSolver.obj
 0001:00018310       ??0?$DxDeviceVector@UDxClothData@cloth@nv@@@cloth@nv@@QEAA@PEAVDxContextManagerCallback@12@AEBUDxBufferFlags@12@@Z 0000000180019310 f i DxSolver.obj
 0001:00018340       ?remove@?$Array@PEAVDxCloth@cloth@nv@@VNonTrackingAllocator@ps@23@@ps@cloth@nv@@QEAAXI@Z 0000000180019340 f i DxSolver.obj
 0001:00018380       ?pushBack@?$Array@PEAVDxCloth@cloth@nv@@VNonTrackingAllocator@ps@23@@ps@cloth@nv@@QEAAAEAPEAVDxCloth@34@AEBQEAV534@@Z 0000000180019380 f i DxSolver.obj
 0001:000183c0       ?find@?$Array@PEAVDxCloth@cloth@nv@@VNonTrackingAllocator@ps@23@@ps@cloth@nv@@QEAAPEAPEAVDxCloth@34@AEBQEAV534@@Z 00000001800193c0 f i DxSolver.obj
 0001:000183f0       ?empty@?$Array@PEAVDxCloth@cloth@nv@@VNonTrackingAllocator@ps@23@@ps@cloth@nv@@QEBA_NXZ 00000001800193f0 f i DxSolver.obj
 0001:00018400       ?size@?$Array@PEAVDxCloth@cloth@nv@@VNonTrackingAllocator@ps@23@@ps@cloth@nv@@QEBAIXZ 0000000180019400 f i DxSolver.obj
 0001:00018410       ?end@?$Array@PEAVDxCloth@cloth@nv@@VNonTrackingAllocator@ps@23@@ps@cloth@nv@@QEAAPEAPEAVDxCloth@34@XZ 0000000180019410 f i DxSolver.obj
 0001:00018420       ?begin@?$Array@PEAVDxCloth@cloth@nv@@VNonTrackingAllocator@ps@23@@ps@cloth@nv@@QEAAPEAPEAVDxCloth@34@XZ 0000000180019420 f i DxSolver.obj
 0001:00018430       ??A?$Array@PEAVDxCloth@cloth@nv@@VNonTrackingAllocator@ps@23@@ps@cloth@nv@@QEAAAEAPEAVDxCloth@23@I@Z 0000000180019430 f i DxSolver.obj
 0001:00018440       ??A?$Array@PEAVDxCloth@cloth@nv@@VNonTrackingAllocator@ps@23@@ps@cloth@nv@@QEBAAEBQEAVDxCloth@23@I@Z 0000000180019440 f i DxSolver.obj
 0001:00018450       ??1?$Array@PEAVDxCloth@cloth@nv@@VNonTrackingAllocator@ps@23@@ps@cloth@nv@@QEAA@XZ 0000000180019450 f i DxSolver.obj
 0001:00018480       ??0?$Array@PEAVDxCloth@cloth@nv@@VNonTrackingAllocator@ps@23@@ps@cloth@nv@@QEAA@AEBVNonTrackingAllocator@123@@Z 0000000180019480 f i DxSolver.obj
 0001:00018490       ??1?$StackAllocator@$0BA@@cloth@nv@@QEAA@XZ 0000000180019490 f i DxSolver.obj
 0001:000184a0       ??0?$StackAllocator@$0BA@@cloth@nv@@QEAA@PEAX_K@Z 00000001800194a0 f i DxSolver.obj
 0001:000184c0       ??0SwInterCollisionData@cloth@nv@@QEAA@AEBU012@@Z 00000001800194c0 f i DxSolver.obj
 0001:00018540       ?destroy@?$Array@USwInterCollisionData@cloth@nv@@VNonTrackingAllocator@ps@23@@ps@cloth@nv@@KAXPEAUSwInterCollisionData@34@0@Z 0000000180019540 f i DxSolver.obj
 0001:00018550       ?deallocate@?$Array@USwInterCollisionData@cloth@nv@@VNonTrackingAllocator@ps@23@@ps@cloth@nv@@IEAAXPEAX@Z 0000000180019550 f i DxSolver.obj
 0001:00018570       ?isInUserMemory@?$Array@USwInterCollisionData@cloth@nv@@VNonTrackingAllocator@ps@23@@ps@cloth@nv@@QEBAIXZ 0000000180019570 f i DxSolver.obj
 0001:00018580       ?capacity@?$Array@USwInterCollisionData@cloth@nv@@VNonTrackingAllocator@ps@23@@ps@cloth@nv@@QEBAIXZ 0000000180019580 f i DxSolver.obj
 0001:00018590       ?destroy@?$Array@UDxIterationData@cloth@nv@@VNonTrackingAllocator@ps@23@@ps@cloth@nv@@KAXPEAUDxIterationData@34@0@Z 0000000180019590 f i DxSolver.obj
 0001:000185a0       ?deallocate@?$Array@UDxIterationData@cloth@nv@@VNonTrackingAllocator@ps@23@@ps@cloth@nv@@IEAAXPEAX@Z 00000001800195a0 f i DxSolver.obj
 0001:000185c0       ?isInUserMemory@?$Array@UDxIterationData@cloth@nv@@VNonTrackingAllocator@ps@23@@ps@cloth@nv@@QEBAIXZ 00000001800195c0 f i DxSolver.obj
 0001:000185d0       ?capacity@?$Array@UDxIterationData@cloth@nv@@VNonTrackingAllocator@ps@23@@ps@cloth@nv@@QEBAIXZ 00000001800195d0 f i DxSolver.obj
 0001:000185e0       ??0?$DxBuffer@UDxIterationData@cloth@nv@@@cloth@nv@@QEAA@PEAVDxContextManagerCallback@12@AEBUDxBufferFlags@12@@Z 00000001800195e0 f i DxSolver.obj
 0001:00018610       ?create@?$DxBuffer@UDxFrameData@cloth@nv@@@cloth@nv@@AEAAXIPEAUD3D11_SUBRESOURCE_DATA@@@Z 0000000180019610 f i DxSolver.obj
 0001:00018700       ?unmap@?$DxBuffer@UDxFrameData@cloth@nv@@@cloth@nv@@QEAAXXZ 0000000180019700 f i DxSolver.obj
 0001:00018730       ?map@?$DxBuffer@UDxFrameData@cloth@nv@@@cloth@nv@@QEAAPEAUDxFrameData@23@W4D3D11_MAP@@@Z 0000000180019730 f i DxSolver.obj
 0001:000187c0       ?context@?$DxBuffer@UDxFrameData@cloth@nv@@@cloth@nv@@QEBAPEAUID3D11DeviceContext@@XZ 00000001800197c0 f i DxSolver.obj
 0001:000187d0       ??0?$DxBuffer@UDxFrameData@cloth@nv@@@cloth@nv@@QEAA@PEAVDxContextManagerCallback@12@AEBUDxBufferFlags@12@@Z 00000001800197d0 f i DxSolver.obj
 0001:00018800       ?reserve@?$DxDeviceVector@UDxFrameData@cloth@nv@@@cloth@nv@@QEAAXI@Z 0000000180019800 f i DxSolver.obj
 0001:00018810       ?destroy@?$Array@UDxClothData@cloth@nv@@VNonTrackingAllocator@ps@23@@ps@cloth@nv@@KAXPEAUDxClothData@34@0@Z 0000000180019810 f i DxSolver.obj
 0001:00018820       ?deallocate@?$Array@UDxClothData@cloth@nv@@VNonTrackingAllocator@ps@23@@ps@cloth@nv@@IEAAXPEAX@Z 0000000180019820 f i DxSolver.obj
 0001:00018840       ?isInUserMemory@?$Array@UDxClothData@cloth@nv@@VNonTrackingAllocator@ps@23@@ps@cloth@nv@@QEBAIXZ 0000000180019840 f i DxSolver.obj
 0001:00018850       ?capacity@?$Array@UDxClothData@cloth@nv@@VNonTrackingAllocator@ps@23@@ps@cloth@nv@@QEBAIXZ 0000000180019850 f i DxSolver.obj
 0001:00018860       ??0?$DxBuffer@UDxClothData@cloth@nv@@@cloth@nv@@QEAA@PEAVDxContextManagerCallback@12@AEBUDxBufferFlags@12@@Z 0000000180019860 f i DxSolver.obj
 0001:00018890       ?reserve@?$DxDeviceVector@UDxClothData@cloth@nv@@@cloth@nv@@QEAAXI@Z 0000000180019890 f i DxSolver.obj
 0001:000188a0       ?destroy@?$Array@PEAVDxCloth@cloth@nv@@VNonTrackingAllocator@ps@23@@ps@cloth@nv@@KAXPEAPEAVDxCloth@34@0@Z 00000001800198a0 f i DxSolver.obj
 0001:000188b0       ?deallocate@?$Array@PEAVDxCloth@cloth@nv@@VNonTrackingAllocator@ps@23@@ps@cloth@nv@@IEAAXPEAX@Z 00000001800198b0 f i DxSolver.obj
 0001:000188d0       ?isInUserMemory@?$Array@PEAVDxCloth@cloth@nv@@VNonTrackingAllocator@ps@23@@ps@cloth@nv@@QEBAIXZ 00000001800198d0 f i DxSolver.obj
 0001:000188e0       ?capacity@?$Array@PEAVDxCloth@cloth@nv@@VNonTrackingAllocator@ps@23@@ps@cloth@nv@@QEBAIXZ 00000001800198e0 f i DxSolver.obj
 0001:000188f0       ?reserve@?$DxBuffer@UDxFrameData@cloth@nv@@@cloth@nv@@QEAAXI@Z 00000001800198f0 f i DxSolver.obj
 0001:000189a0       ?reserve@?$DxBuffer@UDxClothData@cloth@nv@@@cloth@nv@@QEAAXI@Z 00000001800199a0 f i DxSolver.obj
 0001:00018a50       ?create@?$DxBuffer@UDxClothData@cloth@nv@@@cloth@nv@@AEAAXIPEAUD3D11_SUBRESOURCE_DATA@@@Z 0000000180019a50 f i DxSolver.obj
 0001:00018b40       ?context@?$DxBuffer@UDxClothData@cloth@nv@@@cloth@nv@@QEBAPEAUID3D11DeviceContext@@XZ 0000000180019b40 f i DxSolver.obj
 0001:00018b50       ??$PX_UNUSED@H@@YAXAEBH@Z  0000000180019b50 f i DxSolver.obj
 0001:00018b60       ?size@?$Range@PEAVCloth@cloth@nv@@@cloth@nv@@QEBAIXZ 0000000180019b60 f i DxSolver.obj
 0001:00018b70       ?begin@?$Range@PEAVCloth@cloth@nv@@@cloth@nv@@QEBAPEAPEAVCloth@23@XZ 0000000180019b70 f i DxSolver.obj
 0001:00018b80       ??$splat@$0A@@cloth@nv@@YA?AT__m128@@AEBT2@@Z 0000000180019b80 f i DxSolver.obj
 0001:00018b90       ??$splat@$00@cloth@nv@@YA?AT__m128@@AEBT2@@Z 0000000180019b90 f i DxSolver.obj
 0001:00018ba0       ??$splat@$01@cloth@nv@@YA?AT__m128@@AEBT2@@Z 0000000180019ba0 f i DxSolver.obj
 0001:00018bb0       ?update@?$IterationState@T__m128@@@cloth@nv@@QEAAXXZ 0000000180019bb0 f i DxSolver.obj
 0001:00018ca0       ??$PxClamp@M@physx@@YAMMMM@Z 0000000180019ca0 f i DxSolver.obj
 0001:00018cc0       ?growAndPushBack@?$Array@PEAVDxCloth@cloth@nv@@VNonTrackingAllocator@ps@23@@ps@cloth@nv@@IEAAAEAPEAVDxCloth@34@AEBQEAV534@@Z 0000000180019cc0 f i DxSolver.obj
 0001:00018db0       ?resize@?$Array@UDxClothData@cloth@nv@@VNonTrackingAllocator@ps@23@@ps@cloth@nv@@QEAAXIAEBUDxClothData@34@@Z 0000000180019db0 f i DxSolver.obj
 0001:00018e60       ?resize@?$Array@UDxIterationData@cloth@nv@@VNonTrackingAllocator@ps@23@@ps@cloth@nv@@QEAAXIAEBUDxIterationData@34@@Z 0000000180019e60 f i DxSolver.obj
 0001:00018ed0       ?growAndPushBack@?$Array@UDxIterationData@cloth@nv@@VNonTrackingAllocator@ps@23@@ps@cloth@nv@@IEAAAEAUDxIterationData@34@AEBU534@@Z 0000000180019ed0 f i DxSolver.obj
 0001:00019020       ?resize@?$Array@USwInterCollisionData@cloth@nv@@VNonTrackingAllocator@ps@23@@ps@cloth@nv@@QEAAXIAEBUSwInterCollisionData@34@@Z 000000018001a020 f i DxSolver.obj
 0001:00019050       ?growAndPushBack@?$Array@USwInterCollisionData@cloth@nv@@VNonTrackingAllocator@ps@23@@ps@cloth@nv@@IEAAAEAUSwInterCollisionData@34@AEBU534@@Z 000000018001a050 f i DxSolver.obj
 0001:000191c0       ??$sort@PEAVDxCloth@cloth@nv@@UClothSimCostGreater@?A0x27fbffba@@VNonTrackingAllocator@ps@23@@ps@cloth@nv@@YAXPEAPEAVDxCloth@12@IAEBUClothSimCostGreater@?A0x27fbffba@@AEBVNonTrackingAllocator@012@I@Z 000000018001a1c0 f i DxSolver.obj
 0001:000193b0       ??$?0VDxCloth@cloth@nv@@@IterationStateFactory@cloth@nv@@QEAA@AEAVDxCloth@12@M@Z 000000018001a3b0 f i DxSolver.obj
 0001:00019720       ??$create@T__m128@@VDxCloth@cloth@nv@@@IterationStateFactory@cloth@nv@@QEBA?AU?$IterationState@T__m128@@@12@AEBVDxCloth@12@@Z 000000018001a720 f i DxSolver.obj
 0001:0001a360       ??$?4VNonTrackingAllocator@ps@cloth@nv@@@?$DxDeviceVector@UDxIterationData@cloth@nv@@@cloth@nv@@QEAAAEAV012@AEBV?$Array@UDxIterationData@cloth@nv@@VNonTrackingAllocator@ps@23@@ps@12@@Z 000000018001b360 f i DxSolver.obj
 0001:0001a390       ??$?4VNonTrackingAllocator@ps@cloth@nv@@@?$DxDeviceVector@UDxClothData@cloth@nv@@@cloth@nv@@QEAAAEAV012@AEBV?$Array@UDxClothData@cloth@nv@@VNonTrackingAllocator@ps@23@@ps@12@@Z 000000018001b390 f i DxSolver.obj
 0001:0001a3c0       ??$swap@VPxVec4@physx@@@shdfnd@physx@@YAXAEAV?$DxBatchedVector@VPxVec4@physx@@@cloth@nv@@0@Z 000000018001b3c0 f i DxSolver.obj
 0001:0001a3f0       ??$swap@VPxVec3@physx@@@shdfnd@physx@@YAXAEAV?$DxBatchedVector@VPxVec3@physx@@@cloth@nv@@0@Z 000000018001b3f0 f i DxSolver.obj
 0001:0001a420       ?empty@?$Stack@VNonTrackingAllocator@ps@cloth@nv@@@internal@ps@cloth@nv@@QEAA_NXZ 000000018001b420 f i DxSolver.obj
 0001:0001a430       ?pop@?$Stack@VNonTrackingAllocator@ps@cloth@nv@@@internal@ps@cloth@nv@@QEAAXAEAH0@Z 000000018001b430 f i DxSolver.obj
 0001:0001a450       ?push@?$Stack@VNonTrackingAllocator@ps@cloth@nv@@@internal@ps@cloth@nv@@QEAAXHH@Z 000000018001b450 f i DxSolver.obj
 0001:0001a4b0       ??1?$Stack@VNonTrackingAllocator@ps@cloth@nv@@@internal@ps@cloth@nv@@QEAA@XZ 000000018001b4b0 f i DxSolver.obj
 0001:0001a4d0       ??0?$Stack@VNonTrackingAllocator@ps@cloth@nv@@@internal@ps@cloth@nv@@QEAA@PEAHIAEBVNonTrackingAllocator@234@@Z 000000018001b4d0 f i DxSolver.obj
 0001:0001a4f0       ??B?$ScopedPointer@HX@ps@cloth@nv@@QEBAPEAHXZ 000000018001b4f0 f i DxSolver.obj
 0001:0001a500       ??1?$ScopedPointer@HX@ps@cloth@nv@@QEAA@XZ 000000018001b500 f i DxSolver.obj
 0001:0001a520       ?swap@?$DxBatchedVector@VPxVec3@physx@@@cloth@nv@@QEAAXAEAV123@@Z 000000018001b520 f i DxSolver.obj
 0001:0001a550       ?capacityIncrement@?$Array@USwInterCollisionData@cloth@nv@@VNonTrackingAllocator@ps@23@@ps@cloth@nv@@IEBAIXZ 000000018001b550 f i DxSolver.obj
 0001:0001a570       ?copy@?$Array@USwInterCollisionData@cloth@nv@@VNonTrackingAllocator@ps@23@@ps@cloth@nv@@KAXPEAUSwInterCollisionData@34@0PEBU534@@Z 000000018001b570 f i DxSolver.obj
 0001:0001a950       ?create@?$Array@USwInterCollisionData@cloth@nv@@VNonTrackingAllocator@ps@23@@ps@cloth@nv@@KAXPEAUSwInterCollisionData@34@0AEBU534@@Z 000000018001b950 f i DxSolver.obj
 0001:0001ace0       ?allocate@?$Array@USwInterCollisionData@cloth@nv@@VNonTrackingAllocator@ps@23@@ps@cloth@nv@@IEAAPEAUSwInterCollisionData@34@I@Z 000000018001bce0 f i DxSolver.obj
 0001:0001ad30       ?reserve@?$Array@USwInterCollisionData@cloth@nv@@VNonTrackingAllocator@ps@23@@ps@cloth@nv@@QEAAXI@Z 000000018001bd30 f i DxSolver.obj
 0001:0001ad40       ?capacityIncrement@?$Array@UDxIterationData@cloth@nv@@VNonTrackingAllocator@ps@23@@ps@cloth@nv@@IEBAIXZ 000000018001bd40 f i DxSolver.obj
 0001:0001ad60       ?copy@?$Array@UDxIterationData@cloth@nv@@VNonTrackingAllocator@ps@23@@ps@cloth@nv@@KAXPEAUDxIterationData@34@0PEBU534@@Z 000000018001bd60 f i DxSolver.obj
 0001:0001adc0       ?create@?$Array@UDxIterationData@cloth@nv@@VNonTrackingAllocator@ps@23@@ps@cloth@nv@@KAXPEAUDxIterationData@34@0AEBU534@@Z 000000018001bdc0 f i DxSolver.obj
 0001:0001ae20       ?allocate@?$Array@UDxIterationData@cloth@nv@@VNonTrackingAllocator@ps@23@@ps@cloth@nv@@IEAAPEAUDxIterationData@34@I@Z 000000018001be20 f i DxSolver.obj
 0001:0001ae70       ?reserve@?$Array@UDxIterationData@cloth@nv@@VNonTrackingAllocator@ps@23@@ps@cloth@nv@@QEAAXI@Z 000000018001be70 f i DxSolver.obj
 0001:0001ae80       ?end@?$Array@UDxIterationData@cloth@nv@@VNonTrackingAllocator@ps@23@@ps@cloth@nv@@QEBAPEBUDxIterationData@34@XZ 000000018001be80 f i DxSolver.obj
 0001:0001ae90       ?begin@?$Array@UDxIterationData@cloth@nv@@VNonTrackingAllocator@ps@23@@ps@cloth@nv@@QEBAPEBUDxIterationData@34@XZ 000000018001be90 f i DxSolver.obj
 0001:0001aea0       ?assign@?$DxDeviceVector@UDxIterationData@cloth@nv@@@cloth@nv@@QEAAXPEBUDxIterationData@23@0@Z 000000018001bea0 f i DxSolver.obj
 0001:0001b030       ?create@?$Array@UDxClothData@cloth@nv@@VNonTrackingAllocator@ps@23@@ps@cloth@nv@@KAXPEAUDxClothData@34@0AEBU534@@Z 000000018001c030 f i DxSolver.obj
 0001:0001b090       ?reserve@?$Array@UDxClothData@cloth@nv@@VNonTrackingAllocator@ps@23@@ps@cloth@nv@@QEAAXI@Z 000000018001c090 f i DxSolver.obj
 0001:0001b0a0       ?end@?$Array@UDxClothData@cloth@nv@@VNonTrackingAllocator@ps@23@@ps@cloth@nv@@QEBAPEBUDxClothData@34@XZ 000000018001c0a0 f i DxSolver.obj
 0001:0001b0b0       ?begin@?$Array@UDxClothData@cloth@nv@@VNonTrackingAllocator@ps@23@@ps@cloth@nv@@QEBAPEBUDxClothData@34@XZ 000000018001c0b0 f i DxSolver.obj
 0001:0001b0c0       ?assign@?$DxDeviceVector@UDxClothData@cloth@nv@@@cloth@nv@@QEAAXPEBUDxClothData@23@0@Z 000000018001c0c0 f i DxSolver.obj
 0001:0001b300       ?capacityIncrement@?$Array@PEAVDxCloth@cloth@nv@@VNonTrackingAllocator@ps@23@@ps@cloth@nv@@IEBAIXZ 000000018001c300 f i DxSolver.obj
 0001:0001b320       ?copy@?$Array@PEAVDxCloth@cloth@nv@@VNonTrackingAllocator@ps@23@@ps@cloth@nv@@KAXPEAPEAVDxCloth@34@0PEBQEAV534@@Z 000000018001c320 f i DxSolver.obj
 0001:0001b340       ?allocate@?$Array@PEAVDxCloth@cloth@nv@@VNonTrackingAllocator@ps@23@@ps@cloth@nv@@IEAAPEAPEAVDxCloth@34@I@Z 000000018001c340 f i DxSolver.obj
 0001:0001b390       ?grow@?$Stack@VNonTrackingAllocator@ps@cloth@nv@@@internal@ps@cloth@nv@@QEAAXXZ 000000018001c390 f i DxSolver.obj
 0001:0001b420       ?grow@?$Array@USwInterCollisionData@cloth@nv@@VNonTrackingAllocator@ps@23@@ps@cloth@nv@@IEAAXI@Z 000000018001c420 f i DxSolver.obj
 0001:0001b430       ?grow@?$Array@UDxIterationData@cloth@nv@@VNonTrackingAllocator@ps@23@@ps@cloth@nv@@IEAAXI@Z 000000018001c430 f i DxSolver.obj
 0001:0001b440       ?context@?$DxBuffer@UDxIterationData@cloth@nv@@@cloth@nv@@QEBAPEAUID3D11DeviceContext@@XZ 000000018001c440 f i DxSolver.obj
 0001:0001b450       ??4?$DxBuffer@UDxIterationData@cloth@nv@@@cloth@nv@@QEAAAEAV012@AEBV012@@Z 000000018001c450 f i DxSolver.obj
 0001:0001b510       ??0?$DxBuffer@UDxIterationData@cloth@nv@@@cloth@nv@@QEAA@PEBUDxIterationData@12@0PEAVDxContextManagerCallback@12@AEBUDxBufferFlags@12@@Z 000000018001c510 f i DxSolver.obj
 0001:0001b580       ?unmap@?$DxDeviceVector@UDxIterationData@cloth@nv@@@cloth@nv@@QEAAXXZ 000000018001c580 f i DxSolver.obj
 0001:0001b5b0       ?map@?$DxDeviceVector@UDxIterationData@cloth@nv@@@cloth@nv@@QEAAPEAUDxIterationData@23@W4D3D11_MAP@@@Z 000000018001c5b0 f i DxSolver.obj
 0001:0001b5c0       ?grow@?$Array@UDxClothData@cloth@nv@@VNonTrackingAllocator@ps@23@@ps@cloth@nv@@IEAAXI@Z 000000018001c5c0 f i DxSolver.obj
 0001:0001b5d0       ??4?$DxBuffer@UDxClothData@cloth@nv@@@cloth@nv@@QEAAAEAV012@AEBV012@@Z 000000018001c5d0 f i DxSolver.obj
 0001:0001b690       ??0?$DxBuffer@UDxClothData@cloth@nv@@@cloth@nv@@QEAA@PEBUDxClothData@12@0PEAVDxContextManagerCallback@12@AEBUDxBufferFlags@12@@Z 000000018001c690 f i DxSolver.obj
 0001:0001b6f0       ?unmap@?$DxDeviceVector@UDxClothData@cloth@nv@@@cloth@nv@@QEAAXXZ 000000018001c6f0 f i DxSolver.obj
 0001:0001b720       ?map@?$DxDeviceVector@UDxClothData@cloth@nv@@@cloth@nv@@QEAAPEAUDxClothData@23@W4D3D11_MAP@@@Z 000000018001c720 f i DxSolver.obj
 0001:0001b730       ?create@?$DxBuffer@UDxIterationData@cloth@nv@@@cloth@nv@@AEAAXIPEAUD3D11_SUBRESOURCE_DATA@@@Z 000000018001c730 f i DxSolver.obj
 0001:0001b830       ?unmap@?$DxBuffer@UDxIterationData@cloth@nv@@@cloth@nv@@QEAAXXZ 000000018001c830 f i DxSolver.obj
 0001:0001b860       ?map@?$DxBuffer@UDxIterationData@cloth@nv@@@cloth@nv@@QEAAPEAUDxIterationData@23@W4D3D11_MAP@@@Z 000000018001c860 f i DxSolver.obj
 0001:0001b8e0       ?unmap@?$DxBuffer@UDxClothData@cloth@nv@@@cloth@nv@@QEAAXXZ 000000018001c8e0 f i DxSolver.obj
 0001:0001b910       ?map@?$DxBuffer@UDxClothData@cloth@nv@@@cloth@nv@@QEAAPEAUDxClothData@23@W4D3D11_MAP@@@Z 000000018001c910 f i DxSolver.obj
 0001:0001b990       ?recreate@?$Array@UDxClothData@cloth@nv@@VNonTrackingAllocator@ps@23@@ps@cloth@nv@@IEAAXI@Z 000000018001c990 f i DxSolver.obj
 0001:0001ba80       ?recreate@?$Array@UDxIterationData@cloth@nv@@VNonTrackingAllocator@ps@23@@ps@cloth@nv@@IEAAXI@Z 000000018001ca80 f i DxSolver.obj
 0001:0001bb20       ?recreate@?$Array@USwInterCollisionData@cloth@nv@@VNonTrackingAllocator@ps@23@@ps@cloth@nv@@IEAAXI@Z 000000018001cb20 f i DxSolver.obj
 0001:0001bb70       ??$transform@T__m128@@@cloth@nv@@YA?AT__m128@@AEAY02$$CBT2@AEBT2@@Z 000000018001cb70 f i DxSolver.obj
 0001:0001bba0       ??$smallSort@PEAVDxCloth@cloth@nv@@$$CBUClothSimCostGreater@?A0x27fbffba@@@internal@ps@cloth@nv@@YAXPEAPEAVDxCloth@23@HHAEBUClothSimCostGreater@?A0x27fbffba@@@Z 000000018001cba0 f i DxSolver.obj
 0001:0001be70       ??$partition@PEAVDxCloth@cloth@nv@@$$CBUClothSimCostGreater@?A0x27fbffba@@@internal@ps@cloth@nv@@YAHPEAPEAVDxCloth@23@HHAEBUClothSimCostGreater@?A0x27fbffba@@@Z 000000018001ce70 f i DxSolver.obj
 0001:0001bf60       ??$sqr@M@cloth@nv@@YAMAEBM@Z 000000018001cf60 f i DxSolver.obj
 0001:0001bf70       ??$assign@T__m128@@$02@cloth@nv@@YAXAEAY02T__m128@@AEBVPxMat44@physx@@@Z 000000018001cf70 f i DxSolver.obj
 0001:0001bfa0       ??$castToPxVec3@T__m128@@@IterationStateFactory@cloth@nv@@SA?AVPxVec3@physx@@AEBT__m128@@@Z 000000018001cfa0 f i DxSolver.obj
 0001:0001bfc0       ??$lengthSqr@T__m128@@@IterationStateFactory@cloth@nv@@SA?AT__m128@@AEBT3@@Z 000000018001cfc0 f i DxSolver.obj
 0001:0001bfe0       ?copy@?$Array@UDxClothData@cloth@nv@@VNonTrackingAllocator@ps@23@@ps@cloth@nv@@KAXPEAUDxClothData@34@0PEBU534@@Z 000000018001cfe0 f i DxSolver.obj
 0001:0001c040       ?allocate@?$Array@UDxClothData@cloth@nv@@VNonTrackingAllocator@ps@23@@ps@cloth@nv@@IEAAPEAUDxClothData@34@I@Z 000000018001d040 f i DxSolver.obj
 0001:0001c090       ??$swap@PEAVDxCloth@cloth@nv@@@ps@cloth@nv@@YAXAEAPEAVDxCloth@12@0@Z 000000018001d090 f i DxSolver.obj
 0001:0001c0a0       ??$median3@PEAVDxCloth@cloth@nv@@$$CBUClothSimCostGreater@?A0x27fbffba@@@internal@ps@cloth@nv@@YAXPEAPEAVDxCloth@23@HHAEBUClothSimCostGreater@?A0x27fbffba@@@Z 000000018001d0a0 f i DxSolver.obj
 0001:0001c1a0       ??$solveConstraints@$0A@$00@avx@@YAXPEIAMPEIBM11PEIBGAEBT__m128@@3@Z 000000018001d1a0 f i SwSolveConstraints.obj
 0001:0001c7d0       ??$solveConstraints@$00$00@avx@@YAXPEIAMPEIBM11PEIBGAEBT__m128@@3@Z 000000018001d7d0 f i SwSolveConstraints.obj
 0001:0001ce40       ??$solveConstraints@$0A@$01@avx@@YAXPEIAMPEIBM11PEIBGAEBT__m128@@3@Z 000000018001de40 f i SwSolveConstraints.obj
 0001:0001d430       ??$solveConstraints@$00$01@avx@@YAXPEIAMPEIBM11PEIBGAEBT__m128@@3@Z 000000018001e430 f i SwSolveConstraints.obj
 0001:0001da80       ??$fmadd_ps@$00@avx@@YA?AT__m256@@T1@00@Z 000000018001ea80 f i SwSolveConstraints.obj
 0001:0001dab0       ??$exp2@$00@avx@@YA?AT__m256@@AEBT1@@Z 000000018001eab0 f i SwSolveConstraints.obj
 0001:0001dbb0       ??$fnmadd_ps@$00@avx@@YA?AT__m256@@T1@00@Z 000000018001ebb0 f i SwSolveConstraints.obj
 0001:0001dbe0       __local_stdio_printf_options 000000018001ebe0 f i Callbacks.obj
 0001:0001dbf0       _vsnprintf_s_l             000000018001ebf0 f i Callbacks.obj
 0001:0001dc50       _vsnprintf_s               000000018001ec50 f i Callbacks.obj
 0001:0001dcb0       ??$__vcrt_va_start_verify_argument_type@PEBD@@YAXXZ 000000018001ecb0 f i Callbacks.obj
 0001:0001dcc0       ??$PX_UNUSED@PEAUCUctx_st@@@@YAXAEBQEAUCUctx_st@@@Z 000000018001ecc0 f i Factory.obj
 0001:0001dcd0       ??0PhaseConfig@cloth@nv@@QEAA@G@Z 000000018001ecd0 f i PhaseConfig.obj
 0001:0001dd00       ?pop@SwConstraints@cloth@nv@@QEAAXXZ 000000018001ed00 f i SwCloth.obj
 0001:0001dd50       ?notifyChanged@SwCloth@cloth@nv@@QEAAXXZ 000000018001ed50 f i SwCloth.obj
 0001:0001dd60       ??_GSwCloth@cloth@nv@@UEAAPEAXI@Z 000000018001ed60 f i SwCloth.obj
 0001:0001dd60       ??_ESwCloth@cloth@nv@@UEAAPEAXI@Z 000000018001ed60 f i * CIL library *:* CIL module *
 0001:0001ddc0       ??1?$ClothImpl@VSwCloth@cloth@nv@@@cloth@nv@@UEAA@XZ 000000018001edc0 f i SwCloth.obj
 0001:0001ddf0       ??0SwConstraints@cloth@nv@@QEAA@XZ 000000018001edf0 f i SwCloth.obj
 0001:0001de10       ??1SwConstraints@cloth@nv@@QEAA@XZ 000000018001ee10 f i SwCloth.obj
 0001:0001de70       ?swap@?$Array@U?$Vec4T@G@cloth@nv@@VNonTrackingAllocator@ps@23@@ps@cloth@nv@@QEAAXAEAV1234@@Z 000000018001ee70 f i SwCloth.obj
 0001:0001dea0       ??0?$Array@U?$Vec4T@G@cloth@nv@@VNonTrackingAllocator@ps@23@@ps@cloth@nv@@QEAA@AEBV0123@AEBVNonTrackingAllocator@123@@Z 000000018001eea0 f i SwCloth.obj
 0001:0001dec0       ??1?$Array@UIndexPair@cloth@nv@@VNonTrackingAllocator@ps@23@@ps@cloth@nv@@QEAA@XZ 000000018001eec0 f i SwCloth.obj
 0001:0001def0       ??0?$Array@UIndexPair@cloth@nv@@VNonTrackingAllocator@ps@23@@ps@cloth@nv@@QEAA@AEBV0123@AEBVNonTrackingAllocator@123@@Z 000000018001eef0 f i SwCloth.obj
 0001:0001df10       ??0?$Array@UIndexPair@cloth@nv@@VNonTrackingAllocator@ps@23@@ps@cloth@nv@@QEAA@AEBVNonTrackingAllocator@123@@Z 000000018001ef10 f i SwCloth.obj
 0001:0001df20       ??0?$Array@VPxVec3@physx@@VNonTrackingAllocator@ps@cloth@nv@@@ps@cloth@nv@@QEAA@AEBV0123@AEBVNonTrackingAllocator@123@@Z 000000018001ef20 f i SwCloth.obj
 0001:0001df40       ??0?$Array@VPxVec3@physx@@VNonTrackingAllocator@ps@cloth@nv@@@ps@cloth@nv@@QEAA@AEBVNonTrackingAllocator@123@@Z 000000018001ef40 f i SwCloth.obj
 0001:0001df50       ??0?$ClothImpl@VSwCloth@cloth@nv@@@cloth@nv@@QEAA@XZ 000000018001ef50 f i SwCloth.obj
 0001:0001dfb0       ?assign@?$Array@VPxVec4@physx@@VNonTrackingAllocator@ps@cloth@nv@@@ps@cloth@nv@@QEAAXPEBVPxVec4@physx@@0@Z 000000018001efb0 f i SwCloth.obj
 0001:0001dff0       ?front@?$Array@VPxVec4@physx@@VNonTrackingAllocator@ps@cloth@nv@@@ps@cloth@nv@@QEBAAEBVPxVec4@physx@@XZ 000000018001eff0 f i SwCloth.obj
 0001:0001e000       ??4?$Array@VPxVec4@physx@@VNonTrackingAllocator@ps@cloth@nv@@@ps@cloth@nv@@QEAAAEAV0123@AEBV0123@@Z 000000018001f000 f i SwCloth.obj
 0001:0001e060       ??0?$Array@IVNonTrackingAllocator@ps@cloth@nv@@@ps@cloth@nv@@QEAA@AEBV0123@AEBVNonTrackingAllocator@123@@Z 000000018001f060 f i SwCloth.obj
 0001:0001e080       ??_G?$ClothImpl@VSwCloth@cloth@nv@@@cloth@nv@@UEAAPEAXI@Z 000000018001f080 f i SwCloth.obj
 0001:0001e080       ??_E?$ClothImpl@VSwCloth@cloth@nv@@@cloth@nv@@UEAAPEAXI@Z 000000018001f080 f i * CIL library *:* CIL module *
 0001:0001e100       ?destroy@?$Array@UIndexPair@cloth@nv@@VNonTrackingAllocator@ps@23@@ps@cloth@nv@@KAXPEAUIndexPair@34@0@Z 000000018001f100 f i SwCloth.obj
 0001:0001e110       ?deallocate@?$Array@UIndexPair@cloth@nv@@VNonTrackingAllocator@ps@23@@ps@cloth@nv@@IEAAXPEAX@Z 000000018001f110 f i SwCloth.obj
 0001:0001e130       ?isInUserMemory@?$Array@UIndexPair@cloth@nv@@VNonTrackingAllocator@ps@23@@ps@cloth@nv@@QEBAIXZ 000000018001f130 f i SwCloth.obj
 0001:0001e140       ?capacity@?$Array@UIndexPair@cloth@nv@@VNonTrackingAllocator@ps@23@@ps@cloth@nv@@QEBAIXZ 000000018001f140 f i SwCloth.obj
 0001:0001e150       ??$?4VNonTrackingAllocator@ps@cloth@nv@@@?$Array@VPxVec4@physx@@VNonTrackingAllocator@ps@cloth@nv@@@ps@cloth@nv@@QEAAAEAV0123@AEBV0123@@Z 000000018001f150 f i SwCloth.obj
 0001:0001e1b0       ?getFabric@?$ClothImpl@VSwCloth@cloth@nv@@@cloth@nv@@UEBAAEAVFabric@23@XZ 000000018001f1b0 f i SwCloth.obj
 0001:0001e1c0       ?getFactory@?$ClothImpl@VSwCloth@cloth@nv@@@cloth@nv@@UEBAAEAVFactory@23@XZ 000000018001f1c0 f i SwCloth.obj
 0001:0001e1d0       ?setTranslation@?$ClothImpl@VSwCloth@cloth@nv@@@cloth@nv@@UEAAXAEBVPxVec3@physx@@@Z 000000018001f1d0 f i SwCloth.obj
 0001:0001e240       ?setRotation@?$ClothImpl@VSwCloth@cloth@nv@@@cloth@nv@@UEAAXAEBVPxQuat@physx@@@Z 000000018001f240 f i SwCloth.obj
 0001:0001e2f0       ?getTranslation@?$ClothImpl@VSwCloth@cloth@nv@@@cloth@nv@@UEBAAEBVPxVec3@physx@@XZ 000000018001f2f0 f i SwCloth.obj
 0001:0001e300       ?getRotation@?$ClothImpl@VSwCloth@cloth@nv@@@cloth@nv@@UEBAAEBVPxQuat@physx@@XZ 000000018001f300 f i SwCloth.obj
 0001:0001e310       ?clearInertia@?$ClothImpl@VSwCloth@cloth@nv@@@cloth@nv@@UEAAXXZ 000000018001f310 f i SwCloth.obj
 0001:0001e3b0       ?teleport@?$ClothImpl@VSwCloth@cloth@nv@@@cloth@nv@@UEAAXAEBVPxVec3@physx@@@Z 000000018001f3b0 f i SwCloth.obj
 0001:0001e430       ?teleportToLocation@?$ClothImpl@VSwCloth@cloth@nv@@@cloth@nv@@UEAAXAEBVPxVec3@physx@@AEBVPxQuat@5@@Z 000000018001f430 f i SwCloth.obj
 0001:0001e4b0       ?ignoreVelocityDiscontinuity@?$ClothImpl@VSwCloth@cloth@nv@@@cloth@nv@@UEAAXXZ 000000018001f4b0 f i SwCloth.obj
 0001:0001e4c0       ?getPreviousIterationDt@?$ClothImpl@VSwCloth@cloth@nv@@@cloth@nv@@UEBAMXZ 000000018001f4c0 f i SwCloth.obj
 0001:0001e4d0       ?setGravity@?$ClothImpl@VSwCloth@cloth@nv@@@cloth@nv@@UEAAXAEBVPxVec3@physx@@@Z 000000018001f4d0 f i SwCloth.obj
 0001:0001e530       ?getGravity@?$ClothImpl@VSwCloth@cloth@nv@@@cloth@nv@@UEBA?AVPxVec3@physx@@XZ 000000018001f530 f i SwCloth.obj
 0001:0001e550       ?setDamping@?$ClothImpl@VSwCloth@cloth@nv@@@cloth@nv@@UEAAXAEBVPxVec3@physx@@@Z 000000018001f550 f i SwCloth.obj
 0001:0001e660       ?getDamping@?$ClothImpl@VSwCloth@cloth@nv@@@cloth@nv@@UEBA?AVPxVec3@physx@@XZ 000000018001f660 f i SwCloth.obj
 0001:0001e6b0       ?setLinearDrag@?$ClothImpl@VSwCloth@cloth@nv@@@cloth@nv@@UEAAXAEBVPxVec3@physx@@@Z 000000018001f6b0 f i SwCloth.obj
 0001:0001e7c0       ?getLinearDrag@?$ClothImpl@VSwCloth@cloth@nv@@@cloth@nv@@UEBA?AVPxVec3@physx@@XZ 000000018001f7c0 f i SwCloth.obj
 0001:0001e810       ?setAngularDrag@?$ClothImpl@VSwCloth@cloth@nv@@@cloth@nv@@UEAAXAEBVPxVec3@physx@@@Z 000000018001f810 f i SwCloth.obj
 0001:0001e920       ?getAngularDrag@?$ClothImpl@VSwCloth@cloth@nv@@@cloth@nv@@UEBA?AVPxVec3@physx@@XZ 000000018001f920 f i SwCloth.obj
 0001:0001e970       ?setLinearInertia@?$ClothImpl@VSwCloth@cloth@nv@@@cloth@nv@@UEAAXAEBVPxVec3@physx@@@Z 000000018001f970 f i SwCloth.obj
 0001:0001e9d0       ?getLinearInertia@?$ClothImpl@VSwCloth@cloth@nv@@@cloth@nv@@UEBA?AVPxVec3@physx@@XZ 000000018001f9d0 f i SwCloth.obj
 0001:0001e9f0       ?setAngularInertia@?$ClothImpl@VSwCloth@cloth@nv@@@cloth@nv@@UEAAXAEBVPxVec3@physx@@@Z 000000018001f9f0 f i SwCloth.obj
 0001:0001ea50       ?getAngularInertia@?$ClothImpl@VSwCloth@cloth@nv@@@cloth@nv@@UEBA?AVPxVec3@physx@@XZ 000000018001fa50 f i SwCloth.obj
 0001:0001ea70       ?setCentrifugalInertia@?$ClothImpl@VSwCloth@cloth@nv@@@cloth@nv@@UEAAXAEBVPxVec3@physx@@@Z 000000018001fa70 f i SwCloth.obj
 0001:0001ead0       ?getCentrifugalInertia@?$ClothImpl@VSwCloth@cloth@nv@@@cloth@nv@@UEBA?AVPxVec3@physx@@XZ 000000018001fad0 f i SwCloth.obj
 0001:0001eaf0       ?setSolverFrequency@?$ClothImpl@VSwCloth@cloth@nv@@@cloth@nv@@UEAAXM@Z 000000018001faf0 f i SwCloth.obj
 0001:0001eb40       ?getSolverFrequency@?$ClothImpl@VSwCloth@cloth@nv@@@cloth@nv@@UEBAMXZ 000000018001fb40 f i SwCloth.obj
 0001:0001eb50       ?setStiffnessFrequency@?$ClothImpl@VSwCloth@cloth@nv@@@cloth@nv@@UEAAXM@Z 000000018001fb50 f i SwCloth.obj
 0001:0001eb90       ?getStiffnessFrequency@?$ClothImpl@VSwCloth@cloth@nv@@@cloth@nv@@UEBAMXZ 000000018001fb90 f i SwCloth.obj
 0001:0001eba0       ?setAcceleationFilterWidth@?$ClothImpl@VSwCloth@cloth@nv@@@cloth@nv@@UEAAXI@Z 000000018001fba0 f i SwCloth.obj
 0001:0001ebb0       ?getAccelerationFilterWidth@?$ClothImpl@VSwCloth@cloth@nv@@@cloth@nv@@UEBAIXZ 000000018001fbb0 f i SwCloth.obj
 0001:0001ebc0       ?setSpheres@?$ClothImpl@VSwCloth@cloth@nv@@@cloth@nv@@UEAAXU?$Range@$$CBVPxVec4@physx@@@23@0@Z 000000018001fbc0 f i SwCloth.obj
 0001:0001ed00       ?setSpheres@?$ClothImpl@VSwCloth@cloth@nv@@@cloth@nv@@UEAAXU?$Range@$$CBVPxVec4@physx@@@23@II@Z 000000018001fd00 f i SwCloth.obj
 0001:0001f1b0       ?getNumSpheres@?$ClothImpl@VSwCloth@cloth@nv@@@cloth@nv@@UEBAIXZ 00000001800201b0 f i SwCloth.obj
 0001:0001f1c0       ?setCapsules@?$ClothImpl@VSwCloth@cloth@nv@@@cloth@nv@@UEAAXU?$Range@$$CBI@23@II@Z 00000001800201c0 f i SwCloth.obj
 0001:0001f3a0       ?getNumCapsules@?$ClothImpl@VSwCloth@cloth@nv@@@cloth@nv@@UEBAIXZ 00000001800203a0 f i SwCloth.obj
 0001:0001f3b0       ?setPlanes@?$ClothImpl@VSwCloth@cloth@nv@@@cloth@nv@@UEAAXU?$Range@$$CBVPxVec4@physx@@@23@0@Z 00000001800203b0 f i SwCloth.obj
 0001:0001f4f0       ?setPlanes@?$ClothImpl@VSwCloth@cloth@nv@@@cloth@nv@@UEAAXU?$Range@$$CBVPxVec4@physx@@@23@II@Z 00000001800204f0 f i SwCloth.obj
 0001:0001f9a0       ?getNumPlanes@?$ClothImpl@VSwCloth@cloth@nv@@@cloth@nv@@UEBAIXZ 00000001800209a0 f i SwCloth.obj
 0001:0001f9b0       ?setConvexes@?$ClothImpl@VSwCloth@cloth@nv@@@cloth@nv@@UEAAXU?$Range@$$CBI@23@II@Z 00000001800209b0 f i SwCloth.obj
 0001:0001faf0       ?getNumConvexes@?$ClothImpl@VSwCloth@cloth@nv@@@cloth@nv@@UEBAIXZ 0000000180020af0 f i SwCloth.obj
 0001:0001fb00       ?setTriangles@?$ClothImpl@VSwCloth@cloth@nv@@@cloth@nv@@UEAAXU?$Range@$$CBVPxVec3@physx@@@23@0I@Z 0000000180020b00 f i SwCloth.obj
 0001:0001fd30       ?setTriangles@?$ClothImpl@VSwCloth@cloth@nv@@@cloth@nv@@UEAAXU?$Range@$$CBVPxVec3@physx@@@23@II@Z 0000000180020d30 f i SwCloth.obj
 0001:00020190       ?getNumTriangles@?$ClothImpl@VSwCloth@cloth@nv@@@cloth@nv@@UEBAIXZ 0000000180021190 f i SwCloth.obj
 0001:000201a0       ?isContinuousCollisionEnabled@?$ClothImpl@VSwCloth@cloth@nv@@@cloth@nv@@UEBA_NXZ 00000001800211a0 f i SwCloth.obj
 0001:000201b0       ?enableContinuousCollision@?$ClothImpl@VSwCloth@cloth@nv@@@cloth@nv@@UEAAX_N@Z 00000001800211b0 f i SwCloth.obj
 0001:000201f0       ?getCollisionMassScale@?$ClothImpl@VSwCloth@cloth@nv@@@cloth@nv@@UEBAMXZ 00000001800211f0 f i SwCloth.obj
 0001:00020200       ?setCollisionMassScale@?$ClothImpl@VSwCloth@cloth@nv@@@cloth@nv@@UEAAXM@Z 0000000180021200 f i SwCloth.obj
 0001:00020240       ?setFriction@?$ClothImpl@VSwCloth@cloth@nv@@@cloth@nv@@UEAAXM@Z 0000000180021240 f i SwCloth.obj
 0001:00020250       ?getFriction@?$ClothImpl@VSwCloth@cloth@nv@@@cloth@nv@@UEBAMXZ 0000000180021250 f i SwCloth.obj
 0001:00020260       ?getNumVirtualParticleWeights@?$ClothImpl@VSwCloth@cloth@nv@@@cloth@nv@@UEBAIXZ 0000000180021260 f i SwCloth.obj
 0001:00020270       ?setTetherConstraintScale@?$ClothImpl@VSwCloth@cloth@nv@@@cloth@nv@@UEAAXM@Z 0000000180021270 f i SwCloth.obj
 0001:000202b0       ?getTetherConstraintScale@?$ClothImpl@VSwCloth@cloth@nv@@@cloth@nv@@UEBAMXZ 00000001800212b0 f i SwCloth.obj
 0001:000202c0       ?setTetherConstraintStiffness@?$ClothImpl@VSwCloth@cloth@nv@@@cloth@nv@@UEAAXM@Z 00000001800212c0 f i SwCloth.obj
 0001:00020340       ?getTetherConstraintStiffness@?$ClothImpl@VSwCloth@cloth@nv@@@cloth@nv@@UEBAMXZ 0000000180021340 f i SwCloth.obj
 0001:00020390       ?getMotionConstraints@?$ClothImpl@VSwCloth@cloth@nv@@@cloth@nv@@UEAA?AU?$Range@VPxVec4@physx@@@23@XZ 0000000180021390 f i SwCloth.obj
 0001:000203f0       ?clearMotionConstraints@?$ClothImpl@VSwCloth@cloth@nv@@@cloth@nv@@UEAAXXZ 00000001800213f0 f i SwCloth.obj
 0001:00020440       ?getNumMotionConstraints@?$ClothImpl@VSwCloth@cloth@nv@@@cloth@nv@@UEBAIXZ 0000000180021440 f i SwCloth.obj
 0001:00020450       ?setMotionConstraintScaleBias@?$ClothImpl@VSwCloth@cloth@nv@@@cloth@nv@@UEAAXMM@Z 0000000180021450 f i SwCloth.obj
 0001:000204b0       ?getMotionConstraintScale@?$ClothImpl@VSwCloth@cloth@nv@@@cloth@nv@@UEBAMXZ 00000001800214b0 f i SwCloth.obj
 0001:000204c0       ?getMotionConstraintBias@?$ClothImpl@VSwCloth@cloth@nv@@@cloth@nv@@UEBAMXZ 00000001800214c0 f i SwCloth.obj
 0001:000204d0       ?setMotionConstraintStiffness@?$ClothImpl@VSwCloth@cloth@nv@@@cloth@nv@@UEAAXM@Z 00000001800214d0 f i SwCloth.obj
 0001:00020550       ?getMotionConstraintStiffness@?$ClothImpl@VSwCloth@cloth@nv@@@cloth@nv@@UEBAMXZ 0000000180021550 f i SwCloth.obj
 0001:000205a0       ?getSeparationConstraints@?$ClothImpl@VSwCloth@cloth@nv@@@cloth@nv@@UEAA?AU?$Range@VPxVec4@physx@@@23@XZ 00000001800215a0 f i SwCloth.obj
 0001:00020600       ?clearSeparationConstraints@?$ClothImpl@VSwCloth@cloth@nv@@@cloth@nv@@UEAAXXZ 0000000180021600 f i SwCloth.obj
 0001:00020650       ?getNumSeparationConstraints@?$ClothImpl@VSwCloth@cloth@nv@@@cloth@nv@@UEBAIXZ 0000000180021650 f i SwCloth.obj
 0001:00020660       ?clearInterpolation@?$ClothImpl@VSwCloth@cloth@nv@@@cloth@nv@@UEAAXXZ 0000000180021660 f i SwCloth.obj
 0001:000207b0       ?getNumParticleAccelerations@?$ClothImpl@VSwCloth@cloth@nv@@@cloth@nv@@UEBAIXZ 00000001800217b0 f i SwCloth.obj
 0001:000207c0       ?setWindVelocity@?$ClothImpl@VSwCloth@cloth@nv@@@cloth@nv@@UEAAXVPxVec3@physx@@@Z 00000001800217c0 f i SwCloth.obj
 0001:00020840       ?getWindVelocity@?$ClothImpl@VSwCloth@cloth@nv@@@cloth@nv@@UEBA?AVPxVec3@physx@@XZ 0000000180021840 f i SwCloth.obj
 0001:00020860       ?setDragCoefficient@?$ClothImpl@VSwCloth@cloth@nv@@@cloth@nv@@UEAAXM@Z 0000000180021860 f i SwCloth.obj
 0001:000208e0       ?getDragCoefficient@?$ClothImpl@VSwCloth@cloth@nv@@@cloth@nv@@UEBAMXZ 00000001800218e0 f i SwCloth.obj
 0001:00020930       ?setLiftCoefficient@?$ClothImpl@VSwCloth@cloth@nv@@@cloth@nv@@UEAAXM@Z 0000000180021930 f i SwCloth.obj
 0001:000209b0       ?getLiftCoefficient@?$ClothImpl@VSwCloth@cloth@nv@@@cloth@nv@@UEBAMXZ 00000001800219b0 f i SwCloth.obj
 0001:00020a00       ?setFluidDensity@?$ClothImpl@VSwCloth@cloth@nv@@@cloth@nv@@UEAAXM@Z 0000000180021a00 f i SwCloth.obj
 0001:00020a40       ?getFluidDensity@?$ClothImpl@VSwCloth@cloth@nv@@@cloth@nv@@UEBAMXZ 0000000180021a40 f i SwCloth.obj
 0001:00020a50       ?setSelfCollisionDistance@?$ClothImpl@VSwCloth@cloth@nv@@@cloth@nv@@UEAAXM@Z 0000000180021a50 f i SwCloth.obj
 0001:00020a90       ?getSelfCollisionDistance@?$ClothImpl@VSwCloth@cloth@nv@@@cloth@nv@@UEBAMXZ 0000000180021a90 f i SwCloth.obj
 0001:00020aa0       ?setSelfCollisionStiffness@?$ClothImpl@VSwCloth@cloth@nv@@@cloth@nv@@UEAAXM@Z 0000000180021aa0 f i SwCloth.obj
 0001:00020b20       ?getSelfCollisionStiffness@?$ClothImpl@VSwCloth@cloth@nv@@@cloth@nv@@UEBAMXZ 0000000180021b20 f i SwCloth.obj
 0001:00020b70       ?getNumSelfCollisionIndices@?$ClothImpl@VSwCloth@cloth@nv@@@cloth@nv@@UEBAIXZ 0000000180021b70 f i SwCloth.obj
 0001:00020b80       ?setRestPositions@?$ClothImpl@VSwCloth@cloth@nv@@@cloth@nv@@UEAAXU?$Range@$$CBVPxVec4@physx@@@23@@Z 0000000180021b80 f i SwCloth.obj
 0001:00020c10       ?getNumRestPositions@?$ClothImpl@VSwCloth@cloth@nv@@@cloth@nv@@UEBAIXZ 0000000180021c10 f i SwCloth.obj
 0001:00020c20       ?getBoundingBoxCenter@?$ClothImpl@VSwCloth@cloth@nv@@@cloth@nv@@UEBAAEBVPxVec3@physx@@XZ 0000000180021c20 f i SwCloth.obj
 0001:00020c30       ?getBoundingBoxScale@?$ClothImpl@VSwCloth@cloth@nv@@@cloth@nv@@UEBAAEBVPxVec3@physx@@XZ 0000000180021c30 f i SwCloth.obj
 0001:00020c40       ?setSleepThreshold@?$ClothImpl@VSwCloth@cloth@nv@@@cloth@nv@@UEAAXM@Z 0000000180021c40 f i SwCloth.obj
 0001:00020c80       ?getSleepThreshold@?$ClothImpl@VSwCloth@cloth@nv@@@cloth@nv@@UEBAMXZ 0000000180021c80 f i SwCloth.obj
 0001:00020c90       ?setSleepTestInterval@?$ClothImpl@VSwCloth@cloth@nv@@@cloth@nv@@UEAAXI@Z 0000000180021c90 f i SwCloth.obj
 0001:00020cd0       ?getSleepTestInterval@?$ClothImpl@VSwCloth@cloth@nv@@@cloth@nv@@UEBAIXZ 0000000180021cd0 f i SwCloth.obj
 0001:00020ce0       ?setSleepAfterCount@?$ClothImpl@VSwCloth@cloth@nv@@@cloth@nv@@UEAAXI@Z 0000000180021ce0 f i SwCloth.obj
 0001:00020d20       ?getSleepAfterCount@?$ClothImpl@VSwCloth@cloth@nv@@@cloth@nv@@UEBAIXZ 0000000180021d20 f i SwCloth.obj
 0001:00020d30       ?getSleepPassCount@?$ClothImpl@VSwCloth@cloth@nv@@@cloth@nv@@UEBAIXZ 0000000180021d30 f i SwCloth.obj
 0001:00020d40       ?isAsleep@?$ClothImpl@VSwCloth@cloth@nv@@@cloth@nv@@UEBA_NXZ 0000000180021d40 f i SwCloth.obj
 0001:00020d80       ?putToSleep@?$ClothImpl@VSwCloth@cloth@nv@@@cloth@nv@@UEAAXXZ 0000000180021d80 f i SwCloth.obj
 0001:00020d90       ?isSleeping@?$ClothImpl@VSwCloth@cloth@nv@@@cloth@nv@@UEBA_NXZ 0000000180021d90 f i SwCloth.obj
 0001:00020da0       ?wakeUp@?$ClothImpl@VSwCloth@cloth@nv@@@cloth@nv@@UEAAXXZ 0000000180021da0 f i SwCloth.obj
 0001:00020db0       ?setUserData@?$ClothImpl@VSwCloth@cloth@nv@@@cloth@nv@@UEAAXPEAX@Z 0000000180021db0 f i SwCloth.obj
 0001:00020dc0       ?getUserData@?$ClothImpl@VSwCloth@cloth@nv@@@cloth@nv@@UEBAPEAXXZ 0000000180021dc0 f i SwCloth.obj
 0001:00020dd0       ?resize@?$Array@UPhaseConfig@cloth@nv@@VNonTrackingAllocator@ps@23@@ps@cloth@nv@@QEAAXIAEBUPhaseConfig@34@@Z 0000000180021dd0 f i SwCloth.obj
 0001:00020e20       ??$initialize@VSwCloth@cloth@nv@@@cloth@nv@@YAXAEAVSwCloth@01@PEBVPxVec4@physx@@1@Z 0000000180021e20 f i SwCloth.obj
 0001:000211d0       ??$copy@VSwCloth@cloth@nv@@V123@@cloth@nv@@YAXAEAVSwCloth@01@AEBV201@@Z 00000001800221d0 f i SwCloth.obj
 0001:000214b0       ??$getMappedParticles@VPxVec4@physx@@@?$ClothImpl@VSwCloth@cloth@nv@@@cloth@nv@@QEBA?AU?$MappedRange@VPxVec4@physx@@@12@PEAVPxVec4@physx@@@Z 00000001800224b0 f i SwCloth.obj
 0001:00021540       ??$getMappedParticles@$$CBVPxVec4@physx@@@?$ClothImpl@VSwCloth@cloth@nv@@@cloth@nv@@QEBA?AU?$MappedRange@$$CBVPxVec4@physx@@@12@PEBVPxVec4@physx@@@Z 0000000180022540 f i SwCloth.obj
 0001:000215d0       ??$swap@PEAU?$Vec4T@G@cloth@nv@@@ps@cloth@nv@@YAXAEAPEAU?$Vec4T@G@12@0@Z 00000001800225d0 f i SwCloth.obj
 0001:000215e0       ??$copy@VNonTrackingAllocator@ps@cloth@nv@@@?$Array@U?$Vec4T@G@cloth@nv@@VNonTrackingAllocator@ps@23@@ps@cloth@nv@@IEAAXAEBV0123@@Z 00000001800225e0 f i SwCloth.obj
 0001:00021680       ??$copy@VNonTrackingAllocator@ps@cloth@nv@@@?$Array@UIndexPair@cloth@nv@@VNonTrackingAllocator@ps@23@@ps@cloth@nv@@IEAAXAEBV0123@@Z 0000000180022680 f i SwCloth.obj
 0001:00021720       ??$copy@VNonTrackingAllocator@ps@cloth@nv@@@?$Array@VPxVec3@physx@@VNonTrackingAllocator@ps@cloth@nv@@@ps@cloth@nv@@IEAAXAEBV0123@@Z 0000000180022720 f i SwCloth.obj
 0001:000217b0       ??$copy@VNonTrackingAllocator@ps@cloth@nv@@@?$Array@IVNonTrackingAllocator@ps@cloth@nv@@@ps@cloth@nv@@IEAAXAEBV0123@@Z 00000001800227b0 f i SwCloth.obj
 0001:00021850       ?empty@?$Array@U?$Vec4T@G@cloth@nv@@VNonTrackingAllocator@ps@23@@ps@cloth@nv@@QEBA_NXZ 0000000180022850 f i SwCloth.obj
 0001:00021860       ?size@?$Array@U?$Vec4T@G@cloth@nv@@VNonTrackingAllocator@ps@23@@ps@cloth@nv@@QEBAIXZ 0000000180022860 f i SwCloth.obj
 0001:00021870       ?create@?$Array@UPhaseConfig@cloth@nv@@VNonTrackingAllocator@ps@23@@ps@cloth@nv@@KAXPEAUPhaseConfig@34@0AEBU534@@Z 0000000180022870 f i SwCloth.obj
 0001:000218a0       ?copy@?$Array@UIndexPair@cloth@nv@@VNonTrackingAllocator@ps@23@@ps@cloth@nv@@KAXPEAUIndexPair@34@0PEBU534@@Z 00000001800228a0 f i SwCloth.obj
 0001:000218c0       ?allocate@?$Array@UIndexPair@cloth@nv@@VNonTrackingAllocator@ps@23@@ps@cloth@nv@@IEAAPEAUIndexPair@34@I@Z 00000001800228c0 f i SwCloth.obj
 0001:00021910       ?reserve@?$Array@UIndexPair@cloth@nv@@VNonTrackingAllocator@ps@23@@ps@cloth@nv@@QEAAXI@Z 0000000180022910 f i SwCloth.obj
 0001:00021920       ?replaceWithLast@?$Array@UIndexPair@cloth@nv@@VNonTrackingAllocator@ps@23@@ps@cloth@nv@@QEAAXPEAUIndexPair@34@@Z 0000000180022920 f i SwCloth.obj
 0001:00021940       ?empty@?$Array@UIndexPair@cloth@nv@@VNonTrackingAllocator@ps@23@@ps@cloth@nv@@QEBA_NXZ 0000000180022940 f i SwCloth.obj
 0001:00021950       ?size@?$Array@UIndexPair@cloth@nv@@VNonTrackingAllocator@ps@23@@ps@cloth@nv@@QEBAIXZ 0000000180022950 f i SwCloth.obj
 0001:00021960       ?end@?$Array@UIndexPair@cloth@nv@@VNonTrackingAllocator@ps@23@@ps@cloth@nv@@QEAAPEAUIndexPair@34@XZ 0000000180022960 f i SwCloth.obj
 0001:00021970       ?begin@?$Array@UIndexPair@cloth@nv@@VNonTrackingAllocator@ps@23@@ps@cloth@nv@@QEAAPEAUIndexPair@34@XZ 0000000180022970 f i SwCloth.obj
 0001:00021980       ?begin@?$Array@UIndexPair@cloth@nv@@VNonTrackingAllocator@ps@23@@ps@cloth@nv@@QEBAPEBUIndexPair@34@XZ 0000000180022980 f i SwCloth.obj
 0001:00021990       ??A?$Array@UIndexPair@cloth@nv@@VNonTrackingAllocator@ps@23@@ps@cloth@nv@@QEAAAEAUIndexPair@23@I@Z 0000000180022990 f i SwCloth.obj
 0001:000219a0       ?assign@?$Array@VPxVec3@physx@@VNonTrackingAllocator@ps@cloth@nv@@@ps@cloth@nv@@QEAAXPEBVPxVec3@physx@@0@Z 00000001800229a0 f i SwCloth.obj
 0001:00021a00       ?pushBack@?$Array@VPxVec3@physx@@VNonTrackingAllocator@ps@cloth@nv@@@ps@cloth@nv@@QEAAAEAVPxVec3@physx@@AEBV56@@Z 0000000180022a00 f i SwCloth.obj
 0001:00021a60       ?begin@?$Array@VPxVec3@physx@@VNonTrackingAllocator@ps@cloth@nv@@@ps@cloth@nv@@QEAAPEAVPxVec3@physx@@XZ 0000000180022a60 f i SwCloth.obj
 0001:00021a70       ?begin@?$Array@VPxVec3@physx@@VNonTrackingAllocator@ps@cloth@nv@@@ps@cloth@nv@@QEBAPEBVPxVec3@physx@@XZ 0000000180022a70 f i SwCloth.obj
 0001:00021a80       ??A?$Array@VPxVec3@physx@@VNonTrackingAllocator@ps@cloth@nv@@@ps@cloth@nv@@QEAAAEAVPxVec3@physx@@I@Z 0000000180022a80 f i SwCloth.obj
 0001:00021a90       ?getChildCloth@?$ClothImpl@VSwCloth@cloth@nv@@@cloth@nv@@QEBAPEBVSwCloth@23@XZ 0000000180022a90 f i SwCloth.obj
 0001:00021aa0       ?getChildCloth@?$ClothImpl@VSwCloth@cloth@nv@@@cloth@nv@@QEAAPEAVSwCloth@23@XZ 0000000180022aa0 f i SwCloth.obj
 0001:00021ab0       ?clear@?$Array@VPxVec4@physx@@VNonTrackingAllocator@ps@cloth@nv@@@ps@cloth@nv@@QEAAXXZ 0000000180022ab0 f i SwCloth.obj
 0001:00021ac0       ??A?$Array@VPxVec4@physx@@VNonTrackingAllocator@ps@cloth@nv@@@ps@cloth@nv@@QEAAAEAVPxVec4@physx@@I@Z 0000000180022ac0 f i SwCloth.obj
 0001:00021ad0       ?replaceWithLast@?$Array@IVNonTrackingAllocator@ps@cloth@nv@@@ps@cloth@nv@@QEAAXPEAI@Z 0000000180022ad0 f i SwCloth.obj
 0001:00021af0       ?grow@?$Array@UIndexPair@cloth@nv@@VNonTrackingAllocator@ps@23@@ps@cloth@nv@@IEAAXI@Z 0000000180022af0 f i SwCloth.obj
 0001:00021b00       ?replaceWithLast@?$Array@UIndexPair@cloth@nv@@VNonTrackingAllocator@ps@23@@ps@cloth@nv@@QEAAXI@Z 0000000180022b00 f i SwCloth.obj
 0001:00021b20       ?end@?$Array@VPxVec3@physx@@VNonTrackingAllocator@ps@cloth@nv@@@ps@cloth@nv@@QEAAPEAVPxVec3@physx@@XZ 0000000180022b20 f i SwCloth.obj
 0001:00021b30       ?replaceWithLast@?$Array@IVNonTrackingAllocator@ps@cloth@nv@@@ps@cloth@nv@@QEAAXI@Z 0000000180022b30 f i SwCloth.obj
 0001:00021b50       ?resizeUninitialized@?$Array@VPxVec3@physx@@VNonTrackingAllocator@ps@cloth@nv@@@ps@cloth@nv@@QEAAXI@Z 0000000180022b50 f i SwCloth.obj
 0001:00021b90       ?growAndPushBack@?$Array@VPxVec3@physx@@VNonTrackingAllocator@ps@cloth@nv@@@ps@cloth@nv@@IEAAAEAVPxVec3@physx@@AEBV56@@Z 0000000180022b90 f i SwCloth.obj
 0001:00021c80       ?resize@?$Array@UIndexPair@cloth@nv@@VNonTrackingAllocator@ps@23@@ps@cloth@nv@@QEAAXIAEBUIndexPair@34@@Z 0000000180022c80 f i SwCloth.obj
 0001:00021cf0       ?recreate@?$Array@UIndexPair@cloth@nv@@VNonTrackingAllocator@ps@23@@ps@cloth@nv@@IEAAXI@Z 0000000180022cf0 f i SwCloth.obj
 0001:00021da0       ??$swap@VPxVec4@physx@@VNonTrackingAllocator@ps@cloth@nv@@@ps@cloth@nv@@YAXAEAV?$Array@VPxVec4@physx@@VNonTrackingAllocator@ps@cloth@nv@@@012@0@Z 0000000180022da0 f i SwCloth.obj
 0001:00021dd0       ?create@?$Array@UIndexPair@cloth@nv@@VNonTrackingAllocator@ps@23@@ps@cloth@nv@@KAXPEAUIndexPair@34@0AEBU534@@Z 0000000180022dd0 f i SwCloth.obj
 0001:00021df0       ?capacityIncrement@?$Array@VPxVec3@physx@@VNonTrackingAllocator@ps@cloth@nv@@@ps@cloth@nv@@IEBAIXZ 0000000180022df0 f i SwCloth.obj
 0001:00021e10       ?array@cloth@nv@@YAAEAY03MAEAVPxVec4@physx@@@Z 0000000180022e10 f i SwClothData.obj
 0001:00021e20       ?front@?$Array@U?$Vec4T@G@cloth@nv@@VNonTrackingAllocator@ps@23@@ps@cloth@nv@@QEAAAEAU?$Vec4T@G@34@XZ 0000000180022e20 f i SwClothData.obj
 0001:00021e30       ?front@?$Array@UPhaseConfig@cloth@nv@@VNonTrackingAllocator@ps@23@@ps@cloth@nv@@QEAAAEAUPhaseConfig@34@XZ 0000000180022e30 f i SwClothData.obj
 0001:00021e40       ?front@?$Array@UIndexPair@cloth@nv@@VNonTrackingAllocator@ps@23@@ps@cloth@nv@@QEAAAEAUIndexPair@34@XZ 0000000180022e40 f i SwClothData.obj
 0001:00021e50       ?size@?$Array@USwTether@cloth@nv@@VNonTrackingAllocator@ps@23@@ps@cloth@nv@@QEBAIXZ 0000000180022e50 f i SwClothData.obj
 0001:00021e60       ?begin@?$Array@USwTether@cloth@nv@@VNonTrackingAllocator@ps@23@@ps@cloth@nv@@QEBAPEBUSwTether@34@XZ 0000000180022e60 f i SwClothData.obj
 0001:00021e70       ?size@?$Array@GVNonTrackingAllocator@ps@cloth@nv@@@ps@cloth@nv@@QEBAIXZ 0000000180022e70 f i SwClothData.obj
 0001:00021e80       ?front@?$Array@GVNonTrackingAllocator@ps@cloth@nv@@@ps@cloth@nv@@QEBAAEBGXZ 0000000180022e80 f i SwClothData.obj
 0001:00021e90       ?begin@?$Array@GVNonTrackingAllocator@ps@cloth@nv@@@ps@cloth@nv@@QEBAPEBGXZ 0000000180022e90 f i SwClothData.obj
 0001:00021ea0       ?front@?$Array@IVNonTrackingAllocator@ps@cloth@nv@@@ps@cloth@nv@@QEAAAEAIXZ 0000000180022ea0 f i SwClothData.obj
 0001:00021eb0       ?front@?$Array@IVNonTrackingAllocator@ps@cloth@nv@@@ps@cloth@nv@@QEBAAEBIXZ 0000000180022eb0 f i SwClothData.obj
 0001:00021ec0       ?empty@?$Array@MV?$AlignedAllocator@$0CA@VNonTrackingAllocator@ps@cloth@nv@@@ps@cloth@nv@@@ps@cloth@nv@@QEBA_NXZ 0000000180022ec0 f i SwClothData.obj
 0001:00021ed0       ?size@?$Array@MV?$AlignedAllocator@$0CA@VNonTrackingAllocator@ps@cloth@nv@@@ps@cloth@nv@@@ps@cloth@nv@@QEBAIXZ 0000000180022ed0 f i SwClothData.obj
 0001:00021ee0       ?front@?$Array@MV?$AlignedAllocator@$0CA@VNonTrackingAllocator@ps@cloth@nv@@@ps@cloth@nv@@@ps@cloth@nv@@QEBAAEBMXZ 0000000180022ee0 f i SwClothData.obj
 0001:00021ef0       ??$array@G@cloth@nv@@YAAEAY03GAEAU?$Vec4T@G@01@@Z 0000000180022ef0 f i SwClothData.obj
 0001:00021f00       ??0NvClothProfileScoped@cloth@nv@@QEAA@PEBD_N_K0HPEAVPxProfilerCallback@physx@@@Z 0000000180022f00 f i SwCollision.obj
 0001:00021f40       ??1NvClothProfileScoped@cloth@nv@@QEAA@XZ 0000000180022f40 f i SwCollision.obj
 0001:00021f80       ??0Simd4fAlignedLoadFactory@cloth@nv@@QEAA@PEBM@Z 0000000180022f80 f i SwCollision.obj
 0001:00021f90       ??0Simd4fOffsetLoadFactory@cloth@nv@@QEAA@PEBMI@Z 0000000180022f90 f i SwCollision.obj
 0001:00021fa0       ?loadAligned@cloth@nv@@YA?AUSimd4fAlignedLoadFactory@12@PEBM@Z 0000000180022fa0 f i SwCollision.obj
 0001:00021fb0       ?loadAligned@cloth@nv@@YA?AUSimd4fOffsetLoadFactory@12@PEBMI@Z 0000000180022fb0 f i SwCollision.obj
 0001:00021fc0       ??BSimd4fAlignedLoadFactory@cloth@nv@@QEBA?AT__m128@@XZ 0000000180022fc0 f i SwCollision.obj
 0001:00021fd0       ??BSimd4fOffsetLoadFactory@cloth@nv@@QEBA?AT__m128@@XZ 0000000180022fd0 f i SwCollision.obj
 0001:00021fe0       ??$?IT__m128@@@cloth@nv@@YA?AT__m128@@AEBT2@AEBU?$ComplementExpr@T__m128@@@01@@Z 0000000180022fe0 f i SwCollision.obj
 0001:00021ff0       ??8cloth@nv@@YA?AT__m128@@AEBT2@0@Z 0000000180022ff0 f i SwCollision.obj
 0001:00022000       ??Mcloth@nv@@YA?AT__m128@@AEBT2@0@Z 0000000180023000 f i SwCollision.obj
 0001:00022010       ??Ocloth@nv@@YA?AT__m128@@AEBT2@0@Z 0000000180023010 f i SwCollision.obj
 0001:00022020       ??Pcloth@nv@@YA?AT__m128@@AEBT2@0@Z 0000000180023020 f i SwCollision.obj
 0001:00022030       ??Scloth@nv@@YA?AU?$ComplementExpr@T__m128@@@01@AEBT__m128@@@Z 0000000180023030 f i SwCollision.obj
 0001:00022040       ??Ucloth@nv@@YA?AT__m128@@AEBT2@0@Z 0000000180023040 f i SwCollision.obj
 0001:00022050       ?simd4f@cloth@nv@@YA?AT__m128@@AEBT__m128i@@@Z 0000000180023050 f i SwCollision.obj
 0001:00022060       ?store@cloth@nv@@YAXPEAMAEBT__m128@@@Z 0000000180023060 f i SwCollision.obj
 0001:00022070       ?storeAligned@cloth@nv@@YAXPEAMAEBT__m128@@@Z 0000000180023070 f i SwCollision.obj
 0001:00022080       ?storeAligned@cloth@nv@@YAXPEAMIAEBT__m128@@@Z 0000000180023080 f i SwCollision.obj
 0001:00022090       ?abs@cloth@nv@@YA?AT__m128@@AEBT3@@Z 0000000180023090 f i SwCollision.obj
 0001:000220a0       ?sqrt@cloth@nv@@YA?AT__m128@@AEBT3@@Z 00000001800230a0 f i SwCollision.obj
 0001:000220b0       ?cross3@cloth@nv@@YA?AT__m128@@AEBT3@0@Z 00000001800230b0 f i SwCollision.obj
 0001:000220d0       ?transpose@cloth@nv@@YAXAEAT__m128@@000@Z 00000001800230d0 f i SwCollision.obj
 0001:00022120       ?allEqual@cloth@nv@@YAHAEBT__m128@@0@Z 0000000180023120 f i SwCollision.obj
 0001:00022140       ?anyGreater@cloth@nv@@YAHAEBT__m128@@0AEAT3@@Z 0000000180023140 f i SwCollision.obj
 0001:00022150       ?allGreaterEqual@cloth@nv@@YAHAEBT__m128@@0@Z 0000000180023150 f i SwCollision.obj
 0001:00022170       ?allTrue@cloth@nv@@YAHAEBT__m128@@@Z 0000000180023170 f i SwCollision.obj
 0001:00022180       ?anyTrue@cloth@nv@@YAHAEBT__m128@@@Z 0000000180023180 f i SwCollision.obj
 0001:00022190       ??0Simd4iOffsetLoadFactory@cloth@nv@@QEAA@PEBHI@Z 0000000180023190 f i SwCollision.obj
 0001:000221a0       ?loadAligned@cloth@nv@@YA?AUSimd4iOffsetLoadFactory@12@PEBHI@Z 00000001800231a0 f i SwCollision.obj
 0001:000221b0       ??BSimd4iZeroFactory@cloth@nv@@QEBA?AT__m128i@@XZ 00000001800231b0 f i SwCollision.obj
 0001:000221c0       ??BSimd4iScalarFactory@cloth@nv@@QEBA?AT__m128i@@XZ 00000001800231c0 f i SwCollision.obj
 0001:000221e0       ??BSimd4iOffsetLoadFactory@cloth@nv@@QEBA?AT__m128i@@XZ 00000001800231e0 f i SwCollision.obj
 0001:00022200       ??$?IT__m128i@@@cloth@nv@@YA?AT__m128i@@AEBT2@AEBU?$ComplementExpr@T__m128i@@@01@@Z 0000000180023200 f i SwCollision.obj
 0001:00022210       ??8cloth@nv@@YA?AT__m128i@@AEBT2@0@Z 0000000180023210 f i SwCollision.obj
 0001:00022220       ??Ocloth@nv@@YA?AT__m128i@@AEBT2@0@Z 0000000180023220 f i SwCollision.obj
 0001:00022230       ??Scloth@nv@@YA?AU?$ComplementExpr@T__m128i@@@01@AEBT__m128i@@@Z 0000000180023230 f i SwCollision.obj
 0001:00022240       ??Icloth@nv@@YA?AT__m128i@@AEBT2@0@Z 0000000180023240 f i SwCollision.obj
 0001:00022250       ??Ucloth@nv@@YA?AT__m128i@@AEBT2@0@Z 0000000180023250 f i SwCollision.obj
 0001:00022260       ??Tcloth@nv@@YA?AT__m128i@@AEBT2@0@Z 0000000180023260 f i SwCollision.obj
 0001:00022270       ??6cloth@nv@@YA?AT__m128i@@AEBT2@H@Z 0000000180023270 f i SwCollision.obj
 0001:00022280       ??Gcloth@nv@@YA?AT__m128i@@AEBT2@0@Z 0000000180023280 f i SwCollision.obj
 0001:00022290       ?simd4i@cloth@nv@@YA?AT__m128i@@AEBT__m128@@@Z 0000000180023290 f i SwCollision.obj
 0001:000222a0       ?array@cloth@nv@@YAAEAY03HAEAT__m128i@@@Z 00000001800232a0 f i SwCollision.obj
 0001:000222b0       ?select@cloth@nv@@YA?AT__m128i@@AEBT3@00@Z 00000001800232b0 f i SwCollision.obj
 0001:000222d0       ?allEqual@cloth@nv@@YAHAEBT__m128i@@0@Z 00000001800232d0 f i SwCollision.obj
 0001:000222f0       ?anyEqual@cloth@nv@@YAHAEBT__m128i@@0AEAT3@@Z 00000001800232f0 f i SwCollision.obj
 0001:00022310       ?allTrue@cloth@nv@@YAHAEBT__m128i@@@Z 0000000180023310 f i SwCollision.obj
 0001:00022320       ?anyTrue@cloth@nv@@YAHAEBT__m128i@@@Z 0000000180023320 f i SwCollision.obj
 0001:00022330       ?findBitSet@cloth@nv@@YAII@Z 0000000180023330 f i SwCollision.obj
 0001:00022340       ?intFloor@cloth@nv@@YA?AT__m128i@@AEBT__m128@@@Z 0000000180023340 f i SwCollision.obj
 0001:00022360       ?horizontalOr@cloth@nv@@YA?AT__m128i@@AEBT3@@Z 0000000180023360 f i SwCollision.obj
 0001:00022380       ??0?$Gather@T__m128i@@@cloth@nv@@QEAA@AEBT__m128i@@@Z 0000000180023380 f i SwCollision.obj
 0001:000223e0       ??R?$Gather@T__m128i@@@cloth@nv@@QEBA?AT__m128i@@PEBT3@@Z 00000001800233e0 f i SwCollision.obj
 0001:000224b0       ?subtract@ImpulseAccumulator@?$SwCollision@T__m128@@@cloth@nv@@QEAAXAEBT__m128@@0000@Z 00000001800234b0 f i SwCollision.obj
 0001:00022510       ?addVelocity@ImpulseAccumulator@?$SwCollision@T__m128@@@cloth@nv@@QEAAXAEBT__m128@@000@Z 0000000180023510 f i SwCollision.obj
 0001:00022550       ?add@ImpulseAccumulator@?$SwCollision@T__m128@@@cloth@nv@@QEAAXAEBT__m128@@0000@Z 0000000180023550 f i SwCollision.obj
 0001:000225a0       ??0ImpulseAccumulator@?$SwCollision@T__m128@@@cloth@nv@@QEAA@XZ 00000001800235a0 f i SwCollision.obj
 0001:000225d0       ??0?$ComplementExpr@T__m128i@@@cloth@nv@@QEAA@AEBT__m128i@@@Z 00000001800235d0 f i SwCollision.obj
 0001:000225e0       ??0?$ComplementExpr@T__m128@@@cloth@nv@@QEAA@AEBT__m128@@@Z 00000001800235e0 f i SwCollision.obj
 0001:000225f0       ??$PX_UNUSED@PEBD@@YAXAEBQEBD@Z 00000001800235f0 f i SwCollision.obj
 0001:00022600       ??0?$SwCollision@T__m128@@@cloth@nv@@QEAA@AEAUSwClothData@12@AEAV?$StackAllocator@$0BA@@12@@Z 0000000180023600 f i SwCollision.obj
 0001:000226e0       ??1?$SwCollision@T__m128@@@cloth@nv@@QEAA@XZ 00000001800236e0 f i SwCollision.obj
 0001:00022710       ??R?$SwCollision@T__m128@@@cloth@nv@@QEAAXAEBU?$IterationState@T__m128@@@12@@Z 0000000180023710 f i SwCollision.obj
 0001:000228e0       ?estimateTemporaryMemory@?$SwCollision@T__m128@@@cloth@nv@@SA_KAEBVSwCloth@23@@Z 00000001800238e0 f i SwCollision.obj
 0001:00022900       ?estimatePersistentMemory@?$SwCollision@T__m128@@@cloth@nv@@SA_KAEBVSwCloth@23@@Z 0000000180023900 f i SwCollision.obj
 0001:00022920       ?allocate@?$SwCollision@T__m128@@@cloth@nv@@AEAAXAEAUCollisionData@123@@Z 0000000180023920 f i SwCollision.obj
 0001:00022a10       ?deallocate@?$SwCollision@T__m128@@@cloth@nv@@AEAAXAEBUCollisionData@123@@Z 0000000180023a10 f i SwCollision.obj
 0001:00022a90       ?computeBounds@?$SwCollision@T__m128@@@cloth@nv@@AEAAXXZ 0000000180023a90 f i SwCollision.obj
 0001:00022bc0       ?buildSphereAcceleration@?$SwCollision@T__m128@@@cloth@nv@@AEAAXPEBUSphereData@23@@Z 0000000180023bc0 f i SwCollision.obj
 0001:00022ce0       ?buildConeAcceleration@?$SwCollision@T__m128@@@cloth@nv@@AEAAXXZ 0000000180023ce0 f i SwCollision.obj
 0001:00022d80       ?mergeAcceleration@?$SwCollision@T__m128@@@cloth@nv@@CAXPEAI@Z 0000000180023d80 f i SwCollision.obj
 0001:00022e30       ?buildAcceleration@?$SwCollision@T__m128@@@cloth@nv@@AEAA_NXZ 0000000180023e30 f i SwCollision.obj
 0001:00023010       ?getShapeMask@?$SwCollision@T__m128@@@cloth@nv@@AEBA?AUShapeMask@123@PEBT__m128@@0@Z 0000000180024010 f i SwCollision.obj
 0001:00023b10       ?getShapeMask@?$SwCollision@T__m128@@@cloth@nv@@AEBA?AUShapeMask@123@PEBT__m128@@@Z 0000000180024b10 f i SwCollision.obj
 0001:000240a0       ?getShapeMask@?$SwCollision@T__m128@@@cloth@nv@@CA?AUShapeMask@123@AEBT__m128@@PEBT__m128i@@1@Z 00000001800250a0 f i SwCollision.obj
 0001:00024280       ?collideSpheres@?$SwCollision@T__m128@@@cloth@nv@@AEBAXAEBT__m128i@@PEBT__m128@@PEAT5@AEAUImpulseAccumulator@123@@Z 0000000180025280 f i SwCollision.obj
 0001:00024770       ?collideSpheres@?$SwCollision@T__m128@@@cloth@nv@@AEBAXAEBT__m128i@@PEBT__m128@@AEAUImpulseAccumulator@123@@Z 0000000180025770 f i SwCollision.obj
 0001:00024930       ?collideCones@?$SwCollision@T__m128@@@cloth@nv@@AEBA?AT__m128i@@PEBT__m128@@PEAT5@AEAUImpulseAccumulator@123@@Z 0000000180025930 f i SwCollision.obj
 0001:00025df0       ?collideCones@?$SwCollision@T__m128@@@cloth@nv@@AEBA?AT__m128i@@PEBT__m128@@AEAUImpulseAccumulator@123@@Z 0000000180026df0 f i SwCollision.obj
 0001:00026710       ?collideParticles@?$SwCollision@T__m128@@@cloth@nv@@AEAAXXZ 0000000180027710 f i SwCollision.obj
 0001:00027940       ?collideVirtualParticles@?$SwCollision@T__m128@@@cloth@nv@@AEAAXXZ 0000000180028940 f i SwCollision.obj
 0001:00029730       ?collideContinuousParticles@?$SwCollision@T__m128@@@cloth@nv@@AEAAXXZ 000000018002a730 f i SwCollision.obj
 0001:0002b520       ?collideConvexes@?$SwCollision@T__m128@@@cloth@nv@@AEAAXPEBT__m128@@PEAT4@AEAUImpulseAccumulator@123@@Z 000000018002c520 f i SwCollision.obj
 0001:0002b790       ?collideConvexes@?$SwCollision@T__m128@@@cloth@nv@@AEAAXAEBU?$IterationState@T__m128@@@23@@Z 000000018002c790 f i SwCollision.obj
 0001:0002bdb0       ?collideTriangles@?$SwCollision@T__m128@@@cloth@nv@@AEAAXPEBUTriangleData@23@PEAT__m128@@AEAUImpulseAccumulator@123@@Z 000000018002cdb0 f i SwCollision.obj
 0001:0002c240       ?collideTriangles@?$SwCollision@T__m128@@@cloth@nv@@AEAAXAEBU?$IterationState@T__m128@@@23@@Z 000000018002d240 f i SwCollision.obj
 0001:0002c570       ??4ShapeMask@?$SwCollision@T__m128@@@cloth@nv@@QEAAAEAU0123@AEBU0123@@Z 000000018002d570 f i SwCollision.obj
 0001:0002c590       ??_4ShapeMask@?$SwCollision@T__m128@@@cloth@nv@@QEAAAEAU0123@AEBU0123@@Z 000000018002d590 f i SwCollision.obj
 0001:0002c5b0       ??0CollisionData@?$SwCollision@T__m128@@@cloth@nv@@QEAA@XZ 000000018002d5b0 f i SwCollision.obj
 0001:0002c5c0       ??$splat@$00@cloth@nv@@YA?AT__m128i@@AEBT2@@Z 000000018002d5c0 f i SwCollision.obj
 0001:0002c5d0       ??$splat@$0A@@cloth@nv@@YA?AT__m128i@@AEBT2@@Z 000000018002d5d0 f i SwCollision.obj
 0001:0002c5e0       ??$splat@$02@cloth@nv@@YA?AT__m128i@@AEBT2@@Z 000000018002d5e0 f i SwCollision.obj
 0001:0002c5f0       ??$splat@$01@cloth@nv@@YA?AT__m128i@@AEBT2@@Z 000000018002d5f0 f i SwCollision.obj
 0001:0002c600       ??0?$LerpIterator@T__m128@@V?$UnalignedIterator@T__m128@@$02@cloth@nv@@@cloth@nv@@QEAA@V?$UnalignedIterator@T__m128@@$02@12@0M@Z 000000018002d600 f i SwCollision.obj
 0001:0002c620       ??0?$UnalignedIterator@T__m128@@$02@cloth@nv@@QEAA@PEBM@Z 000000018002d620 f i SwCollision.obj
 0001:0002c630       ??0?$LerpIterator@T__m128@@PEBT1@@cloth@nv@@QEAA@PEBT__m128@@0M@Z 000000018002d630 f i SwCollision.obj
 0001:0002c650       ?deallocate@?$StackAllocator@$0BA@@cloth@nv@@QEAAXPEAX@Z 000000018002d650 f i SwCollision.obj
 0001:0002c690       ?allocate@?$StackAllocator@$0BA@@cloth@nv@@QEAAPEAX_K@Z 000000018002d690 f i SwCollision.obj
 0001:0002c6f0       ?getHeader@?$StackAllocator@$0BA@@cloth@nv@@AEBAPEAUHeader@123@PEAX@Z 000000018002d6f0 f i SwCollision.obj
 0001:0002c700       ?getCurrentAlpha@?$IterationState@T__m128@@@cloth@nv@@QEBAMXZ 000000018002d700 f i SwCollision.obj
 0001:0002c730       ??$splat@$02@cloth@nv@@YA?AT__m128@@AEBT2@@Z 000000018002d730 f i SwCollision.obj
 0001:0002c7d0       ??$swap@UCollisionData@?$SwCollision@T__m128@@@cloth@nv@@@ps@cloth@nv@@YAXAEAUCollisionData@?$SwCollision@T__m128@@@12@0@Z 000000018002d7d0 f i SwCollision.obj
 0001:0002c7e0       ??$max@_K@std@@YAAEB_KAEB_K0@Z 000000018002d7e0 f i SwCollision.obj
 0001:0002c7f0       ??$loadBounds@T__m128@@@cloth@nv@@YA?AU?$BoundingBox@T__m128@@@01@PEBM@Z 000000018002d7f0 f i SwCollision.obj
 0001:0002c820       ??$emptyBounds@T__m128@@@cloth@nv@@YA?AU?$BoundingBox@T__m128@@@01@XZ 000000018002d820 f i SwCollision.obj
 0001:0002c840       ??$expandBounds@T__m128@@@cloth@nv@@YA?AU?$BoundingBox@T__m128@@@01@AEBU201@PEBUSphereData@01@1@Z 000000018002d840 f i SwCollision.obj
 0001:0002c8a0       ??$expandBounds@T__m128@@@cloth@nv@@YA?AU?$BoundingBox@T__m128@@@01@AEBU201@0@Z 000000018002d8a0 f i SwCollision.obj
 0001:0002c8c0       ??$intersectBounds@T__m128@@@cloth@nv@@YA?AU?$BoundingBox@T__m128@@@01@AEBU201@0@Z 000000018002d8c0 f i SwCollision.obj
 0001:0002c8e0       ??$recip@$00@cloth@nv@@YA?AT__m128@@AEBT2@@Z 000000018002d8e0 f i SwCollision.obj
 0001:0002cf90       ??E?$LerpIterator@T__m128@@V?$UnalignedIterator@T__m128@@$02@cloth@nv@@@cloth@nv@@QEAAAEAV012@XZ 000000018002df90 f i SwCollision.obj
 0001:0002cfa0       ??D?$LerpIterator@T__m128@@V?$UnalignedIterator@T__m128@@$02@cloth@nv@@@cloth@nv@@QEBA?AT__m128@@XZ 000000018002dfa0 f i SwCollision.obj
 0001:0002cfc0       ??E?$UnalignedIterator@T__m128@@$02@cloth@nv@@QEAAAEAV012@XZ 000000018002dfc0 f i SwCollision.obj
 0001:0002cfd0       ??D?$UnalignedIterator@T__m128@@$02@cloth@nv@@QEBA?AT__m128@@XZ 000000018002dfd0 f i SwCollision.obj
 0001:0002cfe0       ??E?$LerpIterator@T__m128@@PEBT1@@cloth@nv@@QEAAAEAV012@XZ 000000018002dfe0 f i SwCollision.obj
 0001:0002cff0       ??D?$LerpIterator@T__m128@@PEBT1@@cloth@nv@@QEBA?AT__m128@@XZ 000000018002dff0 f i SwCollision.obj
 0001:0002d010       ??A?$LerpIterator@T__m128@@V?$UnalignedIterator@T__m128@@$02@cloth@nv@@@cloth@nv@@QEBA?AT__m128@@_K@Z 000000018002e010 f i SwCollision.obj
 0001:0002d030       ??A?$UnalignedIterator@T__m128@@$02@cloth@nv@@QEBA?AT__m128@@_K@Z 000000018002e030 f i SwCollision.obj
 0001:0002d040       ??A?$LerpIterator@T__m128@@PEBT1@@cloth@nv@@QEBA?AT__m128@@_K@Z 000000018002e040 f i SwCollision.obj
 0001:0002d060       ?getPreviousAlpha@?$IterationState@T__m128@@@cloth@nv@@QEBAMXZ 000000018002e060 f i SwCollision.obj
 0001:0002d090       ??_GSwFabric@cloth@nv@@UEAAPEAXI@Z 000000018002e090 f i SwFabric.obj
 0001:0002d090       ??_ESwFabric@cloth@nv@@UEAAPEAXI@Z 000000018002e090 f i * CIL library *:* CIL module *
 0001:0002d0f0       ?replaceWithLast@?$Array@PEAVSwFabric@cloth@nv@@VNonTrackingAllocator@ps@23@@ps@cloth@nv@@QEAAXPEAPEAVSwFabric@34@@Z 000000018002e0f0 f i SwFabric.obj
 0001:0002d110       ?pushBack@?$Array@PEAVSwFabric@cloth@nv@@VNonTrackingAllocator@ps@23@@ps@cloth@nv@@QEAAAEAPEAVSwFabric@34@AEBQEAV534@@Z 000000018002e110 f i SwFabric.obj
 0001:0002d150       ?find@?$Array@PEAVSwFabric@cloth@nv@@VNonTrackingAllocator@ps@23@@ps@cloth@nv@@QEAAPEAPEAVSwFabric@34@AEBQEAV534@@Z 000000018002e150 f i SwFabric.obj
 0001:0002d180       ?reserve@?$Array@USwTether@cloth@nv@@VNonTrackingAllocator@ps@23@@ps@cloth@nv@@QEAAXI@Z 000000018002e180 f i SwFabric.obj
 0001:0002d190       ?pushBack@?$Array@USwTether@cloth@nv@@VNonTrackingAllocator@ps@23@@ps@cloth@nv@@QEAAAEAUSwTether@34@AEBU534@@Z 000000018002e190 f i SwFabric.obj
 0001:0002d1d0       ??1?$Array@USwTether@cloth@nv@@VNonTrackingAllocator@ps@23@@ps@cloth@nv@@QEAA@XZ 000000018002e1d0 f i SwFabric.obj
 0001:0002d200       ??0?$Array@USwTether@cloth@nv@@VNonTrackingAllocator@ps@23@@ps@cloth@nv@@QEAA@AEBVNonTrackingAllocator@123@@Z 000000018002e200 f i SwFabric.obj
 0001:0002d210       ?swap@?$Array@GVNonTrackingAllocator@ps@cloth@nv@@@ps@cloth@nv@@QEAAXAEAV1234@@Z 000000018002e210 f i SwFabric.obj
 0001:0002d240       ?reserve@?$Array@GVNonTrackingAllocator@ps@cloth@nv@@@ps@cloth@nv@@QEAAXI@Z 000000018002e240 f i SwFabric.obj
 0001:0002d250       ?pushBack@?$Array@GVNonTrackingAllocator@ps@cloth@nv@@@ps@cloth@nv@@QEAAAEAGAEBG@Z 000000018002e250 f i SwFabric.obj
 0001:0002d290       ?end@?$Array@GVNonTrackingAllocator@ps@cloth@nv@@@ps@cloth@nv@@QEAAPEAGXZ 000000018002e290 f i SwFabric.obj
 0001:0002d2a0       ?begin@?$Array@GVNonTrackingAllocator@ps@cloth@nv@@@ps@cloth@nv@@QEAAPEAGXZ 000000018002e2a0 f i SwFabric.obj
 0001:0002d2b0       ??1?$Array@GVNonTrackingAllocator@ps@cloth@nv@@@ps@cloth@nv@@QEAA@XZ 000000018002e2b0 f i SwFabric.obj
 0001:0002d2e0       ??0?$Array@GVNonTrackingAllocator@ps@cloth@nv@@@ps@cloth@nv@@QEAA@PEBG0AEBVNonTrackingAllocator@123@@Z 000000018002e2e0 f i SwFabric.obj
 0001:0002d380       ??0?$Array@GVNonTrackingAllocator@ps@cloth@nv@@@ps@cloth@nv@@QEAA@AEBVNonTrackingAllocator@123@@Z 000000018002e380 f i SwFabric.obj
 0001:0002d390       ?swap@?$Array@MV?$AlignedAllocator@$0CA@VNonTrackingAllocator@ps@cloth@nv@@@ps@cloth@nv@@@ps@cloth@nv@@QEAAXAEAV1234@@Z 000000018002e390 f i SwFabric.obj
 0001:0002d3c0       ?pushBack@?$Array@MV?$AlignedAllocator@$0CA@VNonTrackingAllocator@ps@cloth@nv@@@ps@cloth@nv@@@ps@cloth@nv@@QEAAAEAMAEBM@Z 000000018002e3c0 f i SwFabric.obj
 0001:0002d400       ?end@?$Array@MV?$AlignedAllocator@$0CA@VNonTrackingAllocator@ps@cloth@nv@@@ps@cloth@nv@@@ps@cloth@nv@@QEAAPEAMXZ 000000018002e400 f i SwFabric.obj
 0001:0002d410       ?begin@?$Array@MV?$AlignedAllocator@$0CA@VNonTrackingAllocator@ps@cloth@nv@@@ps@cloth@nv@@@ps@cloth@nv@@QEAAPEAMXZ 000000018002e410 f i SwFabric.obj
 0001:0002d420       ??1?$Array@MV?$AlignedAllocator@$0CA@VNonTrackingAllocator@ps@cloth@nv@@@ps@cloth@nv@@@ps@cloth@nv@@QEAA@XZ 000000018002e420 f i SwFabric.obj
 0001:0002d450       ??0?$Array@MV?$AlignedAllocator@$0CA@VNonTrackingAllocator@ps@cloth@nv@@@ps@cloth@nv@@@ps@cloth@nv@@QEAA@PEBM0AEBV?$AlignedAllocator@$0CA@VNonTrackingAllocator@ps@cloth@nv@@@123@@Z 000000018002e450 f i SwFabric.obj
 0001:0002d500       ??0?$Array@MV?$AlignedAllocator@$0CA@VNonTrackingAllocator@ps@cloth@nv@@@ps@cloth@nv@@@ps@cloth@nv@@QEAA@AEBV?$AlignedAllocator@$0CA@VNonTrackingAllocator@ps@cloth@nv@@@123@@Z 000000018002e500 f i SwFabric.obj
 0001:0002d510       ??0?$AlignedAllocator@$0CA@VNonTrackingAllocator@ps@cloth@nv@@@ps@cloth@nv@@QEAA@AEBVNonTrackingAllocator@123@@Z 000000018002e510 f i SwFabric.obj
 0001:0002d520       ?capacity@?$Array@PEAVSwFabric@cloth@nv@@VNonTrackingAllocator@ps@23@@ps@cloth@nv@@QEBAIXZ 000000018002e520 f i SwFabric.obj
 0001:0002d530       ?replaceWithLast@?$Array@PEAVSwFabric@cloth@nv@@VNonTrackingAllocator@ps@23@@ps@cloth@nv@@QEAAXI@Z 000000018002e530 f i SwFabric.obj
 0001:0002d550       ?grow@?$Array@USwTether@cloth@nv@@VNonTrackingAllocator@ps@23@@ps@cloth@nv@@IEAAXI@Z 000000018002e550 f i SwFabric.obj
 0001:0002d560       ?destroy@?$Array@USwTether@cloth@nv@@VNonTrackingAllocator@ps@23@@ps@cloth@nv@@KAXPEAUSwTether@34@0@Z 000000018002e560 f i SwFabric.obj
 0001:0002d570       ?deallocate@?$Array@USwTether@cloth@nv@@VNonTrackingAllocator@ps@23@@ps@cloth@nv@@IEAAXPEAX@Z 000000018002e570 f i SwFabric.obj
 0001:0002d590       ?isInUserMemory@?$Array@USwTether@cloth@nv@@VNonTrackingAllocator@ps@23@@ps@cloth@nv@@QEBAIXZ 000000018002e590 f i SwFabric.obj
 0001:0002d5a0       ?capacity@?$Array@USwTether@cloth@nv@@VNonTrackingAllocator@ps@23@@ps@cloth@nv@@QEBAIXZ 000000018002e5a0 f i SwFabric.obj
 0001:0002d5b0       ?grow@?$Array@GVNonTrackingAllocator@ps@cloth@nv@@@ps@cloth@nv@@IEAAXI@Z 000000018002e5b0 f i SwFabric.obj
 0001:0002d5c0       ?destroy@?$Array@GVNonTrackingAllocator@ps@cloth@nv@@@ps@cloth@nv@@KAXPEAG0@Z 000000018002e5c0 f i SwFabric.obj
 0001:0002d5d0       ?copy@?$Array@GVNonTrackingAllocator@ps@cloth@nv@@@ps@cloth@nv@@KAXPEAG0PEBG@Z 000000018002e5d0 f i SwFabric.obj
 0001:0002d5f0       ?deallocate@?$Array@GVNonTrackingAllocator@ps@cloth@nv@@@ps@cloth@nv@@IEAAXPEAX@Z 000000018002e5f0 f i SwFabric.obj
 0001:0002d610       ?allocate@?$Array@GVNonTrackingAllocator@ps@cloth@nv@@@ps@cloth@nv@@IEAAPEAGI@Z 000000018002e610 f i SwFabric.obj
 0001:0002d650       ?isInUserMemory@?$Array@GVNonTrackingAllocator@ps@cloth@nv@@@ps@cloth@nv@@QEBAIXZ 000000018002e650 f i SwFabric.obj
 0001:0002d660       ?capacity@?$Array@GVNonTrackingAllocator@ps@cloth@nv@@@ps@cloth@nv@@QEBAIXZ 000000018002e660 f i SwFabric.obj
 0001:0002d670       ?destroy@?$Array@MV?$AlignedAllocator@$0CA@VNonTrackingAllocator@ps@cloth@nv@@@ps@cloth@nv@@@ps@cloth@nv@@KAXPEAM0@Z 000000018002e670 f i SwFabric.obj
 0001:0002d680       ?copy@?$Array@MV?$AlignedAllocator@$0CA@VNonTrackingAllocator@ps@cloth@nv@@@ps@cloth@nv@@@ps@cloth@nv@@KAXPEAM0PEBM@Z 000000018002e680 f i SwFabric.obj
 0001:0002d710       ?deallocate@?$Array@MV?$AlignedAllocator@$0CA@VNonTrackingAllocator@ps@cloth@nv@@@ps@cloth@nv@@@ps@cloth@nv@@IEAAXPEAX@Z 000000018002e710 f i SwFabric.obj
 0001:0002d730       ?allocate@?$Array@MV?$AlignedAllocator@$0CA@VNonTrackingAllocator@ps@cloth@nv@@@ps@cloth@nv@@@ps@cloth@nv@@IEAAPEAMI@Z 000000018002e730 f i SwFabric.obj
 0001:0002d790       ?isInUserMemory@?$Array@MV?$AlignedAllocator@$0CA@VNonTrackingAllocator@ps@cloth@nv@@@ps@cloth@nv@@@ps@cloth@nv@@QEBAIXZ 000000018002e790 f i SwFabric.obj
 0001:0002d7a0       ?capacity@?$Array@MV?$AlignedAllocator@$0CA@VNonTrackingAllocator@ps@cloth@nv@@@ps@cloth@nv@@@ps@cloth@nv@@QEBAIXZ 000000018002e7a0 f i SwFabric.obj
 0001:0002d7b0       ?deallocate@?$AlignedAllocator@$0CA@VNonTrackingAllocator@ps@cloth@nv@@@ps@cloth@nv@@QEAAXPEAX@Z 000000018002e7b0 f i SwFabric.obj
 0001:0002d7d0       ?allocate@?$AlignedAllocator@$0CA@VNonTrackingAllocator@ps@cloth@nv@@@ps@cloth@nv@@QEAAPEAX_KPEBDH@Z 000000018002e7d0 f i SwFabric.obj
 0001:0002d830       ?growAndPushBack@?$Array@MV?$AlignedAllocator@$0CA@VNonTrackingAllocator@ps@cloth@nv@@@ps@cloth@nv@@@ps@cloth@nv@@IEAAAEAMAEBM@Z 000000018002e830 f i SwFabric.obj
 0001:0002d920       ?growAndPushBack@?$Array@GVNonTrackingAllocator@ps@cloth@nv@@@ps@cloth@nv@@IEAAAEAGAEBG@Z 000000018002e920 f i SwFabric.obj
 0001:0002da10       ?recreate@?$Array@GVNonTrackingAllocator@ps@cloth@nv@@@ps@cloth@nv@@IEAAXI@Z 000000018002ea10 f i SwFabric.obj
 0001:0002dac0       ?growAndPushBack@?$Array@USwTether@cloth@nv@@VNonTrackingAllocator@ps@23@@ps@cloth@nv@@IEAAAEAUSwTether@34@AEBU534@@Z 000000018002eac0 f i SwFabric.obj
 0001:0002dbb0       ?recreate@?$Array@USwTether@cloth@nv@@VNonTrackingAllocator@ps@23@@ps@cloth@nv@@IEAAXI@Z 000000018002ebb0 f i SwFabric.obj
 0001:0002dc60       ?growAndPushBack@?$Array@PEAVSwFabric@cloth@nv@@VNonTrackingAllocator@ps@23@@ps@cloth@nv@@IEAAAEAPEAVSwFabric@34@AEBQEAV534@@Z 000000018002ec60 f i SwFabric.obj
 0001:0002dd50       ??$PxMax@H@physx@@YAHHH@Z  000000018002ed50 f i SwFabric.obj
 0001:0002dd60       ??$swap@PEAG@ps@cloth@nv@@YAXAEAPEAG0@Z 000000018002ed60 f i SwFabric.obj
 0001:0002dd70       ??$swap@PEAM@ps@cloth@nv@@YAXAEAPEAM0@Z 000000018002ed70 f i SwFabric.obj
 0001:0002dd80       ?capacityIncrement@?$Array@PEAVSwFabric@cloth@nv@@VNonTrackingAllocator@ps@23@@ps@cloth@nv@@IEBAIXZ 000000018002ed80 f i SwFabric.obj
 0001:0002dda0       ?destroy@?$Array@PEAVSwFabric@cloth@nv@@VNonTrackingAllocator@ps@23@@ps@cloth@nv@@KAXPEAPEAVSwFabric@34@0@Z 000000018002eda0 f i SwFabric.obj
 0001:0002ddb0       ?copy@?$Array@PEAVSwFabric@cloth@nv@@VNonTrackingAllocator@ps@23@@ps@cloth@nv@@KAXPEAPEAVSwFabric@34@0PEBQEAV534@@Z 000000018002edb0 f i SwFabric.obj
 0001:0002ddd0       ?deallocate@?$Array@PEAVSwFabric@cloth@nv@@VNonTrackingAllocator@ps@23@@ps@cloth@nv@@IEAAXPEAX@Z 000000018002edd0 f i SwFabric.obj
 0001:0002ddf0       ?allocate@?$Array@PEAVSwFabric@cloth@nv@@VNonTrackingAllocator@ps@23@@ps@cloth@nv@@IEAAPEAPEAVSwFabric@34@I@Z 000000018002edf0 f i SwFabric.obj
 0001:0002de40       ?isInUserMemory@?$Array@PEAVSwFabric@cloth@nv@@VNonTrackingAllocator@ps@23@@ps@cloth@nv@@QEBAIXZ 000000018002ee40 f i SwFabric.obj
 0001:0002de50       ?capacityIncrement@?$Array@USwTether@cloth@nv@@VNonTrackingAllocator@ps@23@@ps@cloth@nv@@IEBAIXZ 000000018002ee50 f i SwFabric.obj
 0001:0002de70       ?copy@?$Array@USwTether@cloth@nv@@VNonTrackingAllocator@ps@23@@ps@cloth@nv@@KAXPEAUSwTether@34@0PEBU534@@Z 000000018002ee70 f i SwFabric.obj
 0001:0002de90       ?allocate@?$Array@USwTether@cloth@nv@@VNonTrackingAllocator@ps@23@@ps@cloth@nv@@IEAAPEAUSwTether@34@I@Z 000000018002ee90 f i SwFabric.obj
 0001:0002dee0       ?capacityIncrement@?$Array@GVNonTrackingAllocator@ps@cloth@nv@@@ps@cloth@nv@@IEBAIXZ 000000018002eee0 f i SwFabric.obj
 0001:0002df00       ?capacityIncrement@?$Array@MV?$AlignedAllocator@$0CA@VNonTrackingAllocator@ps@cloth@nv@@@ps@cloth@nv@@@ps@cloth@nv@@IEBAIXZ 000000018002ef00 f i SwFabric.obj
 0001:0002df20       ?getPlatform@SwFactory@cloth@nv@@UEBA?AW4Platform@23@XZ 000000018002ef20 f i SwFactory.obj
 0001:0002df30       ??_GSwFactory@cloth@nv@@UEAAPEAXI@Z 000000018002ef30 f i SwFactory.obj
 0001:0002df30       ??_ESwFactory@cloth@nv@@UEAAPEAXI@Z 000000018002ef30 f i * CIL library *:* CIL module *
 0001:0002dfc0       ?front@?$Array@UIndexPair@cloth@nv@@VNonTrackingAllocator@ps@23@@ps@cloth@nv@@QEBAAEBUIndexPair@34@XZ 000000018002efc0 f i SwFactory.obj
 0001:0002dfd0       ?front@?$Array@VPxVec3@physx@@VNonTrackingAllocator@ps@cloth@nv@@@ps@cloth@nv@@QEBAAEBVPxVec3@physx@@XZ 000000018002efd0 f i SwFactory.obj
 0001:0002dfe0       ??A?$Array@USwTether@cloth@nv@@VNonTrackingAllocator@ps@23@@ps@cloth@nv@@QEBAAEBUSwTether@23@I@Z 000000018002efe0 f i SwFactory.obj
 0001:0002dff0       ??A?$Array@GVNonTrackingAllocator@ps@cloth@nv@@@ps@cloth@nv@@QEBAAEBGI@Z 000000018002eff0 f i SwFactory.obj
 0001:0002e000       ??A?$Array@IVNonTrackingAllocator@ps@cloth@nv@@@ps@cloth@nv@@QEBAAEBII@Z 000000018002f000 f i SwFactory.obj
 0001:0002e010       ?begin@?$Array@MV?$AlignedAllocator@$0CA@VNonTrackingAllocator@ps@cloth@nv@@@ps@cloth@nv@@@ps@cloth@nv@@QEBAPEBMXZ 000000018002f010 f i SwFactory.obj
 0001:0002e020       ??1?$Array@PEAVSwFabric@cloth@nv@@VNonTrackingAllocator@ps@23@@ps@cloth@nv@@QEAA@XZ 000000018002f020 f i SwFactory.obj
 0001:0002e050       ??0?$Array@PEAVSwFabric@cloth@nv@@VNonTrackingAllocator@ps@23@@ps@cloth@nv@@QEAA@AEBVNonTrackingAllocator@123@@Z 000000018002f050 f i SwFactory.obj
 0001:0002e060       ??$max@G@std@@YAAEBGAEBG0@Z 000000018002f060 f i SwFactory.obj
 0001:0002e070       fabsf                      000000018002f070 f i SwInterCollision.obj
 0001:0002e080       ?allGreater@cloth@nv@@YAHAEBT__m128@@0@Z 000000018002f080 f i SwInterCollision.obj
 0001:0002e0a0       ?anyGreater@cloth@nv@@YAHAEBT__m128@@0@Z 000000018002f0a0 f i SwInterCollision.obj
 0001:0002e0b0       ?array@cloth@nv@@YAAEAY03$$CBHAEBT__m128i@@@Z 000000018002f0b0 f i SwInterCollision.obj
 0001:0002e0c0       ?abs@intrinsics@physx@@YAMM@Z 000000018002f0c0 f i SwInterCollision.obj
 0001:0002e0d0       ?PxAbs@physx@@YAMM@Z       000000018002f0d0 f i SwInterCollision.obj
 0001:0002e0e0       ??GPxVec3@physx@@QEBA?AV01@XZ 000000018002f0e0 f i SwInterCollision.obj
 0001:0002e120       ??HPxVec3@physx@@QEBA?AV01@AEBV01@@Z 000000018002f120 f i SwInterCollision.obj
 0001:0002e160       ?rotate@PxQuat@physx@@QEBA?BVPxVec3@2@AEBV32@@Z 000000018002f160 f i SwInterCollision.obj
 0001:0002e2c0       ?rotateInv@PxQuat@physx@@QEBA?BVPxVec3@2@AEBV32@@Z 000000018002f2c0 f i SwInterCollision.obj
 0001:0002e420       ??0PxTransform@physx@@QEAA@AEBVPxVec3@1@AEBVPxQuat@1@@Z 000000018002f420 f i SwInterCollision.obj
 0001:0002e450       ??DPxTransform@physx@@QEBA?AV01@AEBV01@@Z 000000018002f450 f i SwInterCollision.obj
 0001:0002e5f0       ?getInverse@PxTransform@physx@@QEBA?AV12@XZ 000000018002f5f0 f i SwInterCollision.obj
 0001:0002e7c0       ?transform@PxTransform@physx@@QEBA?AVPxVec3@2@AEBV32@@Z 000000018002f7c0 f i SwInterCollision.obj
 0001:0002e930       ?transform@PxTransform@physx@@QEBA?AV12@AEBV12@@Z 000000018002f930 f i SwInterCollision.obj
 0001:0002ead0       ??0PxMat33@physx@@QEAA@AEBVPxQuat@1@@Z 000000018002fad0 f i SwInterCollision.obj
 0001:0002ec20       ??0PxMat44@physx@@QEAA@AEBVPxMat33@1@AEBVPxVec3@1@@Z 000000018002fc20 f i SwInterCollision.obj
 0001:0002ec90       ??0PxMat44@physx@@QEAA@AEBVPxTransform@1@@Z 000000018002fc90 f i SwInterCollision.obj
 0001:0002ee30       ??4PxMat44@physx@@QEAAAEAV01@AEBV01@@Z 000000018002fe30 f i SwInterCollision.obj
 0001:0002eea0       ??0PxBounds3@physx@@QEAA@AEBVPxVec3@1@0@Z 000000018002fea0 f i SwInterCollision.obj
 0001:0002eed0       ?centerExtents@PxBounds3@physx@@SA?AV12@AEBVPxVec3@2@0@Z 000000018002fed0 f i SwInterCollision.obj
 0001:0002ef60       ?basisExtent@PxBounds3@physx@@SA?AV12@AEBVPxVec3@2@AEBVPxMat33@2@0@Z 000000018002ff60 f i SwInterCollision.obj
 0001:0002f090       ?getCenter@PxBounds3@physx@@QEBA?AVPxVec3@2@XZ 0000000180030090 f i SwInterCollision.obj
 0001:0002f0e0       ?getDimensions@PxBounds3@physx@@QEBA?AVPxVec3@2@XZ 00000001800300e0 f i SwInterCollision.obj
 0001:0002f110       ?getExtents@PxBounds3@physx@@QEBA?AVPxVec3@2@XZ 0000000180030110 f i SwInterCollision.obj
 0001:0002f160       ?transformFast@PxBounds3@physx@@SA?AV12@AEBVPxTransform@2@AEBV12@@Z 0000000180030160 f i SwInterCollision.obj
 0001:0002f580       ??0?$SwInterCollision@T__m128@@@cloth@nv@@QEAA@PEBUSwInterCollisionData@12@IMMIP6A_NPEAX1@ZAEAV?$StackAllocator@$0BA@@12@@Z 0000000180030580 f i SwInterCollision.obj
 0001:0002f630       ??1?$SwInterCollision@T__m128@@@cloth@nv@@QEAA@XZ 0000000180030630 f i SwInterCollision.obj
 0001:0002f640       ??R?$SwInterCollision@T__m128@@@cloth@nv@@QEAAXXZ 0000000180030640 f i SwInterCollision.obj
 0001:00030140       ?estimateTemporaryMemory@?$SwInterCollision@T__m128@@@cloth@nv@@SA_KPEAUSwInterCollisionData@23@I@Z 0000000180031140 f i SwInterCollision.obj
 0001:00030300       ?getBufferSize@?$SwInterCollision@T__m128@@@cloth@nv@@CA_KI@Z 0000000180031300 f i SwInterCollision.obj
 0001:00030320       ?collideParticles@?$SwInterCollision@T__m128@@@cloth@nv@@AEAAXPEBII0II@Z 0000000180031320 f i SwInterCollision.obj
 0001:000306a0       ?getParticle@?$SwInterCollision@T__m128@@@cloth@nv@@AEAAAEAT__m128@@I@Z 00000001800316a0 f i SwInterCollision.obj
 0001:000306d0       ?collideParticle@?$SwInterCollision@T__m128@@@cloth@nv@@AEAAXI@Z 00000001800316d0 f i SwInterCollision.obj
 0001:00031490       ??$max@PEAI@std@@YAAEBQEAIAEBQEAI0@Z 0000000180032490 f i SwInterCollision.obj
 0001:00031520       ??$rsqrt@$00@cloth@nv@@YA?AT__m128@@AEBT2@@Z 0000000180032520 f i SwInterCollision.obj
 0001:00031560       ??$sort@IU?$ClothSorter@T__m128@@@?A0x0008e8d5@@VNonTrackingAllocator@ps@cloth@nv@@@ps@cloth@nv@@YAXPEAIIAEBU?$ClothSorter@T__m128@@@?A0x0008e8d5@@AEBVNonTrackingAllocator@012@I@Z 0000000180032560 f i SwInterCollision.obj
 0001:00031770       ??$isEmptyBounds@T__m128@@@cloth@nv@@YA_NAEBU?$BoundingBox@T__m128@@@01@@Z 0000000180032770 f i SwInterCollision.obj
 0001:00031790       ??$expandBounds@T__m128@@@cloth@nv@@YA?AU?$BoundingBox@T__m128@@@01@AEBU201@PEBT__m128@@1@Z 0000000180032790 f i SwInterCollision.obj
 0001:000317d0       ??$smallSort@I$$CBU?$ClothSorter@T__m128@@@?A0x0008e8d5@@@internal@ps@cloth@nv@@YAXPEAIHHAEBU?$ClothSorter@T__m128@@@?A0x0008e8d5@@@Z 00000001800327d0 f i SwInterCollision.obj
 0001:00031a70       ??$partition@I$$CBU?$ClothSorter@T__m128@@@?A0x0008e8d5@@@internal@ps@cloth@nv@@YAHPEAIHHAEBU?$ClothSorter@T__m128@@@?A0x0008e8d5@@@Z 0000000180032a70 f i SwInterCollision.obj
 0001:00031b70       ??$median3@I$$CBU?$ClothSorter@T__m128@@@?A0x0008e8d5@@@internal@ps@cloth@nv@@YAXPEAIHHAEBU?$ClothSorter@T__m128@@@?A0x0008e8d5@@@Z 0000000180032b70 f i SwInterCollision.obj
 0001:00031c60       ??0?$SwSelfCollision@T__m128@@@cloth@nv@@QEAA@AEAUSwClothData@12@AEAV?$StackAllocator@$0BA@@12@@Z 0000000180032c60 f i SwSelfCollision.obj
 0001:00031ca0       ??1?$SwSelfCollision@T__m128@@@cloth@nv@@QEAA@XZ 0000000180032ca0 f i SwSelfCollision.obj
 0001:00031cb0       ??R?$SwSelfCollision@T__m128@@@cloth@nv@@QEAAXXZ 0000000180032cb0 f i SwSelfCollision.obj
 0001:00032080       ?estimateTemporaryMemory@?$SwSelfCollision@T__m128@@@cloth@nv@@SA_KAEBVSwCloth@23@@Z 0000000180033080 f i SwSelfCollision.obj
 0001:00032100       ?getBufferSize@?$SwSelfCollision@T__m128@@@cloth@nv@@CA_KI@Z 0000000180033100 f i SwSelfCollision.obj
 0001:00032170       ??$collideParticles@$00@?$SwSelfCollision@T__m128@@@cloth@nv@@AEAAXPEBIGPEBGI@Z 0000000180033170 f i SwSelfCollision.obj
 0001:00032630       ??$collideParticles@$0A@@?$SwSelfCollision@T__m128@@@cloth@nv@@AEAAXPEBIGPEBGI@Z 0000000180033630 f i SwSelfCollision.obj
 0001:00032a40       ??$collideParticles@$00@?$SwSelfCollision@T__m128@@@cloth@nv@@AEAAXAEAT__m128@@0AEBT3@1@Z 0000000180033a40 f i SwSelfCollision.obj
 0001:00032b30       ??$collideParticles@$0A@@?$SwSelfCollision@T__m128@@@cloth@nv@@AEAAXAEAT__m128@@0AEBT3@1@Z 0000000180033b30 f i SwSelfCollision.obj
 0001:00032be0       ?setInterCollisionDistance@SwSolver@cloth@nv@@UEAAXM@Z 0000000180033be0 f i SwSolver.obj
 0001:00032bf0       ?getInterCollisionDistance@SwSolver@cloth@nv@@UEBAMXZ 0000000180033bf0 f i SwSolver.obj
 0001:00032c00       ?setInterCollisionStiffness@SwSolver@cloth@nv@@UEAAXM@Z 0000000180033c00 f i SwSolver.obj
 0001:00032c10       ?getInterCollisionStiffness@SwSolver@cloth@nv@@UEBAMXZ 0000000180033c10 f i SwSolver.obj
 0001:00032c20       ?setInterCollisionNbIterations@SwSolver@cloth@nv@@UEAAXI@Z 0000000180033c20 f i SwSolver.obj
 0001:00032c30       ?getInterCollisionNbIterations@SwSolver@cloth@nv@@UEBAIXZ 0000000180033c30 f i SwSolver.obj
 0001:00032c40       ?setInterCollisionFilter@SwSolver@cloth@nv@@UEAAXP6A_NPEAX0@Z@Z 0000000180033c40 f i SwSolver.obj
 0001:00032c50       ?hasError@SwSolver@cloth@nv@@UEBA_NXZ 0000000180033c50 f i SwSolver.obj
 0001:00032c60       ??4FPUGuard@ps@cloth@nv@@QEAAAEAV0123@AEBV0123@@Z 0000000180033c60 f i SwSolver.obj
 0001:00032c80       ??0SIMDGuard@ps@cloth@nv@@QEAA@XZ 0000000180033c80 f i SwSolver.obj
 0001:00032ca0       ??1SIMDGuard@ps@cloth@nv@@QEAA@XZ 0000000180033ca0 f i SwSolver.obj
 0001:00032cb0       ??_ESwSolver@cloth@nv@@UEAAPEAXI@Z 0000000180033cb0 f i * CIL library *:* CIL module *
 0001:00032cb0       ??_GSwSolver@cloth@nv@@UEAAPEAXI@Z 0000000180033cb0 f i SwSolver.obj
 0001:00032d10       ??1?$SwSolverKernel@T__m128@@@cloth@nv@@QEAA@XZ 0000000180033d10 f i SwSolver.obj
 0001:00032d40       ?replaceWithLast@?$Array@PEAVSwCloth@cloth@nv@@VNonTrackingAllocator@ps@23@@ps@cloth@nv@@QEAAXPEAPEAVSwCloth@34@@Z 0000000180033d40 f i SwSolver.obj
 0001:00032d60       ?pushBack@?$Array@PEAVSwCloth@cloth@nv@@VNonTrackingAllocator@ps@23@@ps@cloth@nv@@QEAAAEAPEAVSwCloth@34@AEBQEAV534@@Z 0000000180033d60 f i SwSolver.obj
 0001:00032da0       ?find@?$Array@PEAVSwCloth@cloth@nv@@VNonTrackingAllocator@ps@23@@ps@cloth@nv@@QEAAPEAPEAVSwCloth@34@AEBQEAV534@@Z 0000000180033da0 f i SwSolver.obj
 0001:00032dd0       ?size@?$Array@PEAVSwCloth@cloth@nv@@VNonTrackingAllocator@ps@23@@ps@cloth@nv@@QEBAIXZ 0000000180033dd0 f i SwSolver.obj
 0001:00032de0       ?end@?$Array@PEAVSwCloth@cloth@nv@@VNonTrackingAllocator@ps@23@@ps@cloth@nv@@QEAAPEAPEAVSwCloth@34@XZ 0000000180033de0 f i SwSolver.obj
 0001:00032df0       ??A?$Array@PEAVSwCloth@cloth@nv@@VNonTrackingAllocator@ps@23@@ps@cloth@nv@@QEBAAEBQEAVSwCloth@23@I@Z 0000000180033df0 f i SwSolver.obj
 0001:00032e00       ??1?$Array@PEAVSwCloth@cloth@nv@@VNonTrackingAllocator@ps@23@@ps@cloth@nv@@QEAA@XZ 0000000180033e00 f i SwSolver.obj
 0001:00032e30       ??0?$Array@PEAVSwCloth@cloth@nv@@VNonTrackingAllocator@ps@23@@ps@cloth@nv@@QEAA@AEBVNonTrackingAllocator@123@@Z 0000000180033e30 f i SwSolver.obj
 0001:00032e40       ?replaceWithLast@?$Array@USimulatedCloth@SwSolver@cloth@nv@@VNonTrackingAllocator@ps@34@@ps@cloth@nv@@QEAAXPEAUSimulatedCloth@SwSolver@34@@Z 0000000180033e40 f i SwSolver.obj
 0001:00032ea0       ?pushBack@?$Array@USimulatedCloth@SwSolver@cloth@nv@@VNonTrackingAllocator@ps@34@@ps@cloth@nv@@QEAAAEAUSimulatedCloth@SwSolver@34@AEBU5634@@Z 0000000180033ea0 f i SwSolver.obj
 0001:00032f00       ?empty@?$Array@USimulatedCloth@SwSolver@cloth@nv@@VNonTrackingAllocator@ps@34@@ps@cloth@nv@@QEBA_NXZ 0000000180033f00 f i SwSolver.obj
 0001:00032f10       ?size@?$Array@USimulatedCloth@SwSolver@cloth@nv@@VNonTrackingAllocator@ps@34@@ps@cloth@nv@@QEBAIXZ 0000000180033f10 f i SwSolver.obj
 0001:00032f20       ?end@?$Array@USimulatedCloth@SwSolver@cloth@nv@@VNonTrackingAllocator@ps@34@@ps@cloth@nv@@QEAAPEAUSimulatedCloth@SwSolver@34@XZ 0000000180033f20 f i SwSolver.obj
 0001:00032f30       ?begin@?$Array@USimulatedCloth@SwSolver@cloth@nv@@VNonTrackingAllocator@ps@34@@ps@cloth@nv@@QEAAPEAUSimulatedCloth@SwSolver@34@XZ 0000000180033f30 f i SwSolver.obj
 0001:00032f40       ??A?$Array@USimulatedCloth@SwSolver@cloth@nv@@VNonTrackingAllocator@ps@34@@ps@cloth@nv@@QEAAAEAUSimulatedCloth@SwSolver@23@I@Z 0000000180033f40 f i SwSolver.obj
 0001:00032f50       ??1?$Array@USimulatedCloth@SwSolver@cloth@nv@@VNonTrackingAllocator@ps@34@@ps@cloth@nv@@QEAA@XZ 0000000180033f50 f i SwSolver.obj
 0001:00032f80       ??0?$Array@USimulatedCloth@SwSolver@cloth@nv@@VNonTrackingAllocator@ps@34@@ps@cloth@nv@@QEAA@AEBVNonTrackingAllocator@123@@Z 0000000180033f80 f i SwSolver.obj
 0001:00032f90       ?destroy@?$Array@PEAVSwCloth@cloth@nv@@VNonTrackingAllocator@ps@23@@ps@cloth@nv@@KAXPEAPEAVSwCloth@34@0@Z 0000000180033f90 f i SwSolver.obj
 0001:00032fa0       ?deallocate@?$Array@PEAVSwCloth@cloth@nv@@VNonTrackingAllocator@ps@23@@ps@cloth@nv@@IEAAXPEAX@Z 0000000180033fa0 f i SwSolver.obj
 0001:00032fc0       ?isInUserMemory@?$Array@PEAVSwCloth@cloth@nv@@VNonTrackingAllocator@ps@23@@ps@cloth@nv@@QEBAIXZ 0000000180033fc0 f i SwSolver.obj
 0001:00032fd0       ?capacity@?$Array@PEAVSwCloth@cloth@nv@@VNonTrackingAllocator@ps@23@@ps@cloth@nv@@QEBAIXZ 0000000180033fd0 f i SwSolver.obj
 0001:00032fe0       ?replaceWithLast@?$Array@PEAVSwCloth@cloth@nv@@VNonTrackingAllocator@ps@23@@ps@cloth@nv@@QEAAXI@Z 0000000180033fe0 f i SwSolver.obj
 0001:00033000       ?destroy@?$Array@USimulatedCloth@SwSolver@cloth@nv@@VNonTrackingAllocator@ps@34@@ps@cloth@nv@@KAXPEAUSimulatedCloth@SwSolver@34@0@Z 0000000180034000 f i SwSolver.obj
 0001:00033010       ?deallocate@?$Array@USimulatedCloth@SwSolver@cloth@nv@@VNonTrackingAllocator@ps@34@@ps@cloth@nv@@IEAAXPEAX@Z 0000000180034010 f i SwSolver.obj
 0001:00033030       ?isInUserMemory@?$Array@USimulatedCloth@SwSolver@cloth@nv@@VNonTrackingAllocator@ps@34@@ps@cloth@nv@@QEBAIXZ 0000000180034030 f i SwSolver.obj
 0001:00033040       ?capacity@?$Array@USimulatedCloth@SwSolver@cloth@nv@@VNonTrackingAllocator@ps@34@@ps@cloth@nv@@QEBAIXZ 0000000180034040 f i SwSolver.obj
 0001:00033050       ?replaceWithLast@?$Array@USimulatedCloth@SwSolver@cloth@nv@@VNonTrackingAllocator@ps@34@@ps@cloth@nv@@QEAAXI@Z 0000000180034050 f i SwSolver.obj
 0001:00033090       ?growAndPushBack@?$Array@USimulatedCloth@SwSolver@cloth@nv@@VNonTrackingAllocator@ps@34@@ps@cloth@nv@@IEAAAEAUSimulatedCloth@SwSolver@34@AEBU5634@@Z 0000000180034090 f i SwSolver.obj
 0001:000331b0       ?growAndPushBack@?$Array@PEAVSwCloth@cloth@nv@@VNonTrackingAllocator@ps@23@@ps@cloth@nv@@IEAAAEAPEAVSwCloth@34@AEBQEAV534@@Z 00000001800341b0 f i SwSolver.obj
 0001:000332d0       ??$swap@VPxVec3@physx@@VNonTrackingAllocator@ps@cloth@nv@@@ps@cloth@nv@@YAXAEAV?$Array@VPxVec3@physx@@VNonTrackingAllocator@ps@cloth@nv@@@012@0@Z 00000001800342d0 f i SwSolver.obj
 0001:00033300       ??$?0VSwCloth@cloth@nv@@@IterationStateFactory@cloth@nv@@QEAA@AEAVSwCloth@12@M@Z 0000000180034300 f i SwSolver.obj
 0001:00033670       ?swap@?$Array@VPxVec3@physx@@VNonTrackingAllocator@ps@cloth@nv@@@ps@cloth@nv@@QEAAXAEAV1234@@Z 0000000180034670 f i SwSolver.obj
 0001:000336a0       ?capacityIncrement@?$Array@PEAVSwCloth@cloth@nv@@VNonTrackingAllocator@ps@23@@ps@cloth@nv@@IEBAIXZ 00000001800346a0 f i SwSolver.obj
 0001:000336c0       ?copy@?$Array@PEAVSwCloth@cloth@nv@@VNonTrackingAllocator@ps@23@@ps@cloth@nv@@KAXPEAPEAVSwCloth@34@0PEBQEAV534@@Z 00000001800346c0 f i SwSolver.obj
 0001:000336e0       ?allocate@?$Array@PEAVSwCloth@cloth@nv@@VNonTrackingAllocator@ps@23@@ps@cloth@nv@@IEAAPEAPEAVSwCloth@34@I@Z 00000001800346e0 f i SwSolver.obj
 0001:00033730       ?capacityIncrement@?$Array@USimulatedCloth@SwSolver@cloth@nv@@VNonTrackingAllocator@ps@34@@ps@cloth@nv@@IEBAIXZ 0000000180034730 f i SwSolver.obj
 0001:00033750       ?copy@?$Array@USimulatedCloth@SwSolver@cloth@nv@@VNonTrackingAllocator@ps@34@@ps@cloth@nv@@KAXPEAUSimulatedCloth@SwSolver@34@0PEBU5634@@Z 0000000180034750 f i SwSolver.obj
 0001:00033790       ?allocate@?$Array@USimulatedCloth@SwSolver@cloth@nv@@VNonTrackingAllocator@ps@34@@ps@cloth@nv@@IEAAPEAUSimulatedCloth@SwSolver@34@I@Z 0000000180034790 f i SwSolver.obj
 0001:00033800       ??$sort@USimulatedCloth@SwSolver@cloth@nv@@P6A_NAEBU1234@0@ZVNonTrackingAllocator@ps@34@@ps@cloth@nv@@YAXPEAUSimulatedCloth@SwSolver@12@IAEBQ6A_NAEBU3412@1@ZAEBVNonTrackingAllocator@012@I@Z 0000000180034800 f i SwSolver.obj
 0001:00033a10       ??$swap@PEAVPxVec3@physx@@@ps@cloth@nv@@YAXAEAPEAVPxVec3@physx@@0@Z 0000000180034a10 f i SwSolver.obj
 0001:00033a20       ??$smallSort@USimulatedCloth@SwSolver@cloth@nv@@Q6A_NAEBU1234@0@Z@internal@ps@cloth@nv@@YAXPEAUSimulatedCloth@SwSolver@23@HHAEBQ6A_NAEBU4523@1@Z@Z 0000000180034a20 f i SwSolver.obj
 0001:00033bb0       ??$partition@USimulatedCloth@SwSolver@cloth@nv@@Q6A_NAEBU1234@0@Z@internal@ps@cloth@nv@@YAHPEAUSimulatedCloth@SwSolver@23@HHAEBQ6A_NAEBU4523@1@Z@Z 0000000180034bb0 f i SwSolver.obj
 0001:00033cf0       ??$swap@USimulatedCloth@SwSolver@cloth@nv@@@ps@cloth@nv@@YAXAEAUSimulatedCloth@SwSolver@12@0@Z 0000000180034cf0 f i SwSolver.obj
 0001:00033d30       ??$median3@USimulatedCloth@SwSolver@cloth@nv@@Q6A_NAEBU1234@0@Z@internal@ps@cloth@nv@@YAXPEAUSimulatedCloth@SwSolver@23@HHAEBQ6A_NAEBU4523@1@Z@Z 0000000180034d30 f i SwSolver.obj
 0001:00033e90       ??Kcloth@nv@@YA?AT__m128@@AEBT2@0@Z 0000000180034e90 f i SwSolverKernel.obj
 0001:00033ea0       ?anyGreaterEqual@cloth@nv@@YAHAEBT__m128@@0@Z 0000000180034ea0 f i SwSolverKernel.obj
 0001:00033eb0       ??0?$SwSolverKernel@T__m128@@@cloth@nv@@QEAA@AEBVSwCloth@12@AEAUSwClothData@12@AEAV?$StackAllocator@$0BA@@12@AEAUIterationStateFactory@12@@Z 0000000180034eb0 f i SwSolverKernel.obj
 0001:00033f60       ??R?$SwSolverKernel@T__m128@@@cloth@nv@@QEAAXXZ 0000000180034f60 f i SwSolverKernel.obj
 0001:00033f70       ?estimateTemporaryMemory@?$SwSolverKernel@T__m128@@@cloth@nv@@SA_KAEBVSwCloth@23@@Z 0000000180034f70 f i SwSolverKernel.obj
 0001:00033fe0       ?integrateParticles@?$SwSolverKernel@T__m128@@@cloth@nv@@AEAAXXZ 0000000180034fe0 f i SwSolverKernel.obj
 0001:00034180       ?constrainTether@?$SwSolverKernel@T__m128@@@cloth@nv@@AEAAXXZ 0000000180035180 f i SwSolverKernel.obj
 0001:00034410       ?solveFabric@?$SwSolverKernel@T__m128@@@cloth@nv@@AEAAXXZ 0000000180035410 f i SwSolverKernel.obj
 0001:00034820       ?applyWind@?$SwSolverKernel@T__m128@@@cloth@nv@@AEAAXXZ 0000000180035820 f i SwSolverKernel.obj
 0001:000349d0       ?constrainMotion@?$SwSolverKernel@T__m128@@@cloth@nv@@AEAAXXZ 00000001800359d0 f i SwSolverKernel.obj
 0001:00034b60       ?constrainSeparation@?$SwSolverKernel@T__m128@@@cloth@nv@@AEAAXXZ 0000000180035b60 f i SwSolverKernel.obj
 0001:00034cc0       ?collideParticles@?$SwSolverKernel@T__m128@@@cloth@nv@@AEAAXXZ 0000000180035cc0 f i SwSolverKernel.obj
 0001:00034d70       ?selfCollideParticles@?$SwSolverKernel@T__m128@@@cloth@nv@@AEAAXXZ 0000000180035d70 f i SwSolverKernel.obj
 0001:00034e20       ?updateSleepState@?$SwSolverKernel@T__m128@@@cloth@nv@@AEAAXXZ 0000000180035e20 f i SwSolverKernel.obj
 0001:00034fa0       ?iterateCloth@?$SwSolverKernel@T__m128@@@cloth@nv@@AEAAXXZ 0000000180035fa0 f i SwSolverKernel.obj
 0001:00035000       ?simulateCloth@?$SwSolverKernel@T__m128@@@cloth@nv@@AEAAXXZ 0000000180036000 f i SwSolverKernel.obj
 0001:00035080       ??0?$ScaleBiasIterator@T__m128@@PEBT1@@cloth@nv@@QEAA@PEBT__m128@@AEBT3@1@Z 0000000180036080 f i SwSolverKernel.obj
 0001:000350a0       ??0?$ConstantIterator@T__m128@@@cloth@nv@@QEAA@AEBT__m128@@@Z 00000001800360a0 f i SwSolverKernel.obj
 0001:000350b0       ??$create@T__m128@@VSwCloth@cloth@nv@@@IterationStateFactory@cloth@nv@@QEBA?AU?$IterationState@T__m128@@@12@AEBVSwCloth@12@@Z 00000001800360b0 f i SwSolverKernel.obj
 0001:00035cf0       ??$integrateParticles@V?$ConstantIterator@T__m128@@@cloth@nv@@@?$SwSolverKernel@T__m128@@@cloth@nv@@AEAAXAEAV?$ConstantIterator@T__m128@@@12@AEBT__m128@@@Z 0000000180036cf0 f i SwSolverKernel.obj
 0001:00035d60       ??$integrateParticles@V?$ScaleBiasIterator@T__m128@@PEBT1@@cloth@nv@@@?$SwSolverKernel@T__m128@@@cloth@nv@@AEAAXAEAV?$ScaleBiasIterator@T__m128@@PEBT1@@12@AEBT__m128@@@Z 0000000180036d60 f i SwSolverKernel.obj
 0001:00037ba0       ??$PX_UNUSED@PEIBM@@YAXAEBQEIBM@Z 0000000180038ba0 f i SwSolverKernel.obj
 0001:00037bb0       ??$PX_UNUSED@T__m128@@@@YAXAEBT__m128@@@Z 0000000180038bb0 f i SwSolverKernel.obj
 0001:00037bc0       ??$transform@T__m128@@@cloth@nv@@YA?AT__m128@@AEAY02$$CBT2@AEBT2@1@Z 0000000180038bc0 f i SwSolverKernel.obj
 0001:00037bf0       ??E?$ScaleBiasIterator@T__m128@@PEBT1@@cloth@nv@@QEAAAEAV012@XZ 0000000180038bf0 f i SwSolverKernel.obj
 0001:00037c00       ??D?$ScaleBiasIterator@T__m128@@PEBT1@@cloth@nv@@QEBA?AT__m128@@XZ 0000000180038c00 f i SwSolverKernel.obj
 0001:00037c20       ??E?$ConstantIterator@T__m128@@@cloth@nv@@QEAAAEAV012@XZ 0000000180038c20 f i SwSolverKernel.obj
 0001:00037c30       ??D?$ConstantIterator@T__m128@@@cloth@nv@@QEBA?AT__m128@@XZ 0000000180038c30 f i SwSolverKernel.obj
 0001:00037ed0       ??_GTripletScheduler@cloth@nv@@QEAAPEAXI@Z 0000000180038ed0 f i TripletScheduler.obj
 0001:00037f00       ??_GTripletSchedulerTestInterface@cloth@nv@@QEAAPEAXI@Z 0000000180038f00 f i TripletScheduler.obj
 0001:00037f50       ?pushBack@?$Array@UTripletSet@?A0x3c73138f@@VNonTrackingAllocator@ps@cloth@nv@@@ps@cloth@nv@@QEAAAEAUTripletSet@?A0x3c73138f@@AEBU56@@Z 0000000180038f50 f i TripletScheduler.obj
 0001:00037fc0       ??A?$Array@UTripletSet@?A0x3c73138f@@VNonTrackingAllocator@ps@cloth@nv@@@ps@cloth@nv@@QEAAAEAUTripletSet@?A0x3c73138f@@I@Z 0000000180038fc0 f i TripletScheduler.obj
 0001:00037fd0       ??1?$Array@UTripletSet@?A0x3c73138f@@VNonTrackingAllocator@ps@cloth@nv@@@ps@cloth@nv@@QEAA@XZ 0000000180038fd0 f i TripletScheduler.obj
 0001:00038000       ??0?$Array@UTripletSet@?A0x3c73138f@@VNonTrackingAllocator@ps@cloth@nv@@@ps@cloth@nv@@QEAA@IAEBUTripletSet@?A0x3c73138f@@AEBVNonTrackingAllocator@123@@Z 0000000180039000 f i TripletScheduler.obj
 0001:00038020       ?back@?$Array@IVNonTrackingAllocator@ps@cloth@nv@@@ps@cloth@nv@@QEAAAEAIXZ 0000000180039020 f i TripletScheduler.obj
 0001:00038030       ?swap@?$Array@U?$Vec4T@I@cloth@nv@@VNonTrackingAllocator@ps@23@@ps@cloth@nv@@QEAAXAEAV1234@@Z 0000000180039030 f i TripletScheduler.obj
 0001:00038060       ?end@?$Array@U?$Vec4T@I@cloth@nv@@VNonTrackingAllocator@ps@23@@ps@cloth@nv@@QEBAPEBU?$Vec4T@I@34@XZ 0000000180039060 f i TripletScheduler.obj
 0001:00038070       ??A?$Array@U?$Vec4T@I@cloth@nv@@VNonTrackingAllocator@ps@23@@ps@cloth@nv@@QEAAAEAU?$Vec4T@I@23@I@Z 0000000180039070 f i TripletScheduler.obj
 0001:00038080       ??0?$Array@U?$Vec4T@I@cloth@nv@@VNonTrackingAllocator@ps@23@@ps@cloth@nv@@QEAA@PEBU?$Vec4T@I@23@0AEBVNonTrackingAllocator@123@@Z 0000000180039080 f i TripletScheduler.obj
 0001:00038120       ??0?$Vec4T@G@cloth@nv@@QEAA@GGGG@Z 0000000180039120 f i TripletScheduler.obj
 0001:00038140       ?destroy@?$Array@UTripletSet@?A0x3c73138f@@VNonTrackingAllocator@ps@cloth@nv@@@ps@cloth@nv@@KAXPEAUTripletSet@?A0x3c73138f@@0@Z 0000000180039140 f i TripletScheduler.obj
 0001:00038150       ?deallocate@?$Array@UTripletSet@?A0x3c73138f@@VNonTrackingAllocator@ps@cloth@nv@@@ps@cloth@nv@@IEAAXPEAX@Z 0000000180039150 f i TripletScheduler.obj
 0001:00038170       ?isInUserMemory@?$Array@UTripletSet@?A0x3c73138f@@VNonTrackingAllocator@ps@cloth@nv@@@ps@cloth@nv@@QEBAIXZ 0000000180039170 f i TripletScheduler.obj
 0001:00038180       ?capacity@?$Array@UTripletSet@?A0x3c73138f@@VNonTrackingAllocator@ps@cloth@nv@@@ps@cloth@nv@@QEBAIXZ 0000000180039180 f i TripletScheduler.obj
 0001:00038190       ?begin@?$Range@$$BY03$$CBI@cloth@nv@@QEBAPEAY03$$CBIXZ 0000000180039190 f i TripletScheduler.obj
 0001:000381a0       ?end@?$Range@$$BY03$$CBI@cloth@nv@@QEBAPEAY03$$CBIXZ 00000001800391a0 f i TripletScheduler.obj
 0001:000381b0       ??$PX_UNUSED@I@@YAXAEBI@Z  00000001800391b0 f i TripletScheduler.obj
 0001:000381c0       ??$iter_swap@PEAU?$Vec4T@I@cloth@nv@@PEAU123@@std@@YAXPEAU?$Vec4T@I@cloth@nv@@0@Z 00000001800391c0 f i TripletScheduler.obj
 0001:000381d0       ??$?AH@?$Vec4T@I@cloth@nv@@QEAAAEAIH@Z 00000001800391d0 f i TripletScheduler.obj
 0001:000381e0       ??$maxElement@I@ps@cloth@nv@@YAPEBIPEBI0@Z 00000001800391e0 f i TripletScheduler.obj
 0001:00038260       ?resize@?$Array@UTripletSet@?A0x3c73138f@@VNonTrackingAllocator@ps@cloth@nv@@@ps@cloth@nv@@QEAAXIAEBUTripletSet@?A0x3c73138f@@@Z 0000000180039260 f i TripletScheduler.obj
 0001:00038300       ?growAndPushBack@?$Array@UTripletSet@?A0x3c73138f@@VNonTrackingAllocator@ps@cloth@nv@@@ps@cloth@nv@@IEAAAEAUTripletSet@?A0x3c73138f@@AEBU56@@Z 0000000180039300 f i TripletScheduler.obj
 0001:00038460       ??$?AI@?$Vec4T@I@cloth@nv@@QEAAAEAII@Z 0000000180039460 f i TripletScheduler.obj
 0001:00038470       ??$swap@PEAU?$Vec4T@I@cloth@nv@@@ps@cloth@nv@@YAXAEAPEAU?$Vec4T@I@12@0@Z 0000000180039470 f i TripletScheduler.obj
 0001:00038480       ?capacityIncrement@?$Array@UTripletSet@?A0x3c73138f@@VNonTrackingAllocator@ps@cloth@nv@@@ps@cloth@nv@@IEBAIXZ 0000000180039480 f i TripletScheduler.obj
 0001:000384a0       ?copy@?$Array@UTripletSet@?A0x3c73138f@@VNonTrackingAllocator@ps@cloth@nv@@@ps@cloth@nv@@KAXPEAUTripletSet@?A0x3c73138f@@0PEBU56@@Z 00000001800394a0 f i TripletScheduler.obj
 0001:00038500       ?create@?$Array@UTripletSet@?A0x3c73138f@@VNonTrackingAllocator@ps@cloth@nv@@@ps@cloth@nv@@KAXPEAUTripletSet@?A0x3c73138f@@0AEBU56@@Z 0000000180039500 f i TripletScheduler.obj
 0001:00038560       ?allocate@?$Array@UTripletSet@?A0x3c73138f@@VNonTrackingAllocator@ps@cloth@nv@@@ps@cloth@nv@@IEAAPEAUTripletSet@?A0x3c73138f@@I@Z 0000000180039560 f i TripletScheduler.obj
 0001:000385b0       ?reserve@?$Array@UTripletSet@?A0x3c73138f@@VNonTrackingAllocator@ps@cloth@nv@@@ps@cloth@nv@@QEAAXI@Z 00000001800395b0 f i TripletScheduler.obj
 0001:000385c0       ?grow@?$Array@UTripletSet@?A0x3c73138f@@VNonTrackingAllocator@ps@cloth@nv@@@ps@cloth@nv@@IEAAXI@Z 00000001800395c0 f i TripletScheduler.obj
 0001:000385d0       ?recreate@?$Array@UTripletSet@?A0x3c73138f@@VNonTrackingAllocator@ps@cloth@nv@@@ps@cloth@nv@@IEAAXI@Z 00000001800395d0 f i TripletScheduler.obj
 0001:000386b0       ??$swap@U?$Vec4T@I@cloth@nv@@X@std@@YAXAEAU?$Vec4T@I@cloth@nv@@0@Z 00000001800396b0 f i TripletScheduler.obj
 0001:000386c0       ??$move@AEAU?$Vec4T@I@cloth@nv@@@std@@YA$$QEAU?$Vec4T@I@cloth@nv@@AEAU123@@Z 00000001800396c0 f i TripletScheduler.obj
 0001:000386d0       ?recipSqrt@intrinsics@physx@@YAMM@Z 00000001800396d0 f i ClothFabricCooker.obj
 0001:000386f0       ?memSet@intrinsics@physx@@YAPEAXPEAXHI@Z 00000001800396f0 f i ClothFabricCooker.obj
 0001:00038710       ?PxRecipSqrt@physx@@YAMM@Z 0000000180039710 f i ClothFabricCooker.obj
 0001:00038730       ?dot@PxVec3@physx@@QEBAMAEBV12@@Z 0000000180039730 f i ClothFabricCooker.obj
 0001:00038760       ?cross@PxVec3@physx@@QEBA?AV12@AEBV12@@Z 0000000180039760 f i ClothFabricCooker.obj
 0001:000387c0       ?getNormalized@PxVec3@physx@@QEBA?AV12@XZ 00000001800397c0 f i ClothFabricCooker.obj
 0001:00038860       ?isPowerOfTwo@ps@cloth@nv@@YA_NI@Z 0000000180039860 f i ClothFabricCooker.obj
 0001:00038880       ?nextPowerOfTwo@ps@cloth@nv@@YAII@Z 0000000180039880 f i ClothFabricCooker.obj
 0001:000388b0       ?hash@ps@cloth@nv@@YAII@Z  00000001800398b0 f i ClothFabricCooker.obj
 0001:000388e0       ??_VUserAllocated@cloth@nv@@SAXPEAX@Z 00000001800398e0 f i ClothFabricCooker.obj
 0001:00038900       ?isValid@ClothMeshDesc@cloth@nv@@QEBA_NXZ 0000000180039900 f i ClothFabricCooker.obj
 0001:000389b0       ??0ClothFabricPhase@cloth@nv@@QEAA@W4Enum@ClothFabricPhaseType@12@I@Z 00000001800399b0 f i ClothFabricCooker.obj
 0001:000389c0       ??0ClothFabricDesc@cloth@nv@@QEAA@XZ 00000001800399c0 f i ClothFabricCooker.obj
 0001:000389e0       ?setToDefault@ClothFabricDesc@cloth@nv@@QEAAXXZ 00000001800399e0 f i ClothFabricCooker.obj
 0001:000389f0       ??1ClothFabricCooker@cloth@nv@@UEAA@XZ 00000001800399f0 f i ClothFabricCooker.obj
 0001:00038a00       ??0ClothFabricCooker@cloth@nv@@QEAA@XZ 0000000180039a00 f i ClothFabricCooker.obj
 0001:00038a10       ??0ClothFabricCooker@cloth@nv@@QEAA@AEBV012@@Z 0000000180039a10 f i ClothFabricCooker.obj
 0001:00038a20       ??4ClothFabricCooker@cloth@nv@@QEAAAEAV012@AEBV012@@Z 0000000180039a20 f i ClothFabricCooker.obj
 0001:00038a30       ??_GClothFabricCooker@cloth@nv@@UEAAPEAXI@Z 0000000180039a30 f i ClothFabricCooker.obj
 0001:00038a80       ??_EClothFabricCooker@cloth@nv@@UEAAPEAXI@Z 0000000180039a80 f i ClothFabricCooker.obj
 0001:00038b50       ??_I@YAXPEAX_K1P6AX0@Z@Z   0000000180039b50 f i ClothFabricCooker.obj
 0001:00038b70       ??0FabricCookerImpl@cloth@nv@@QEAA@XZ 0000000180039b70 f i ClothFabricCooker.obj
 0001:00038bf0       ??_GFabricCookerImpl@cloth@nv@@UEAAPEAXI@Z 0000000180039bf0 f i ClothFabricCooker.obj
 0001:00038bf0       ??_EFabricCookerImpl@cloth@nv@@UEAAPEAXI@Z 0000000180039bf0 f i * CIL library *:* CIL module *
 0001:00038c50       ??1FabricCookerImpl@cloth@nv@@UEAA@XZ 0000000180039c50 f i ClothFabricCooker.obj
 0001:00039010       ??1?$HashMap@V?$Pair@II@ps@cloth@nv@@UEdge@?A0xb3237753@34@U?$Hash@V?$Pair@II@ps@cloth@nv@@@234@VNonTrackingAllocator@234@@ps@cloth@nv@@QEAA@XZ 000000018003a010 f i ClothFabricCooker.obj
 0001:00039030       ??1?$HashMapBase@V?$Pair@II@ps@cloth@nv@@UEdge@?A0xb3237753@34@U?$Hash@V?$Pair@II@ps@cloth@nv@@@234@VNonTrackingAllocator@234@@internal@ps@cloth@nv@@QEAA@XZ 000000018003a030 f i ClothFabricCooker.obj
 0001:00039050       ??0CookedData@cloth@nv@@QEAA@XZ 000000018003a050 f i ClothFabricCooker.obj
 0001:000390b0       ?__global_array_delete@@YAXPEAX@Z 000000018003a0b0 f i ClothFabricCooker.obj
 0001:000390c0       ?__global_array_delete@@YAXPEAX_K@Z 000000018003a0c0 f i ClothFabricCooker.obj
 0001:000390d0       ?__global_delete@@YAXPEAX@Z 000000018003a0d0 f i ClothFabricCooker.obj
 0001:000390e0       ?__global_delete@@YAXPEAX_K@Z 000000018003a0e0 f i ClothFabricCooker.obj
 0001:000390f0       ?reserve@?$Array@UConstraintGraphColorCount@?A0xb3237753@cloth@nv@@VNonTrackingAllocator@ps@34@@ps@cloth@nv@@QEAAXI@Z 000000018003a0f0 f i ClothFabricCooker.obj
 0001:00039100       ?empty@?$Array@UConstraintGraphColorCount@?A0xb3237753@cloth@nv@@VNonTrackingAllocator@ps@34@@ps@cloth@nv@@QEBA_NXZ 000000018003a100 f i ClothFabricCooker.obj
 0001:00039110       ?clear@?$Array@UConstraintGraphColorCount@?A0xb3237753@cloth@nv@@VNonTrackingAllocator@ps@34@@ps@cloth@nv@@QEAAXXZ 000000018003a110 f i ClothFabricCooker.obj
 0001:00039120       ??1?$Array@UConstraintGraphColorCount@?A0xb3237753@cloth@nv@@VNonTrackingAllocator@ps@34@@ps@cloth@nv@@QEAA@XZ 000000018003a120 f i ClothFabricCooker.obj
 0001:00039150       ??0?$Array@UConstraintGraphColorCount@?A0xb3237753@cloth@nv@@VNonTrackingAllocator@ps@34@@ps@cloth@nv@@QEAA@AEBVNonTrackingAllocator@123@@Z 000000018003a150 f i ClothFabricCooker.obj
 0001:00039160       ?reserve@?$Array@V?$Pair@V?$Pair@II@ps@cloth@nv@@W4Enum@ClothFabricPhaseType@34@@ps@cloth@nv@@VNonTrackingAllocator@234@@ps@cloth@nv@@QEAAXI@Z 000000018003a160 f i ClothFabricCooker.obj
 0001:00039170       ?pushBack@?$Array@V?$Pair@V?$Pair@II@ps@cloth@nv@@W4Enum@ClothFabricPhaseType@34@@ps@cloth@nv@@VNonTrackingAllocator@234@@ps@cloth@nv@@QEAAAEAV?$Pair@V?$Pair@II@ps@cloth@nv@@W4Enum@ClothFabricPhaseType@34@@234@AEBV5234@@Z 000000018003a170 f i ClothFabricCooker.obj
 0001:000391d0       ?size@?$Array@V?$Pair@V?$Pair@II@ps@cloth@nv@@W4Enum@ClothFabricPhaseType@34@@ps@cloth@nv@@VNonTrackingAllocator@234@@ps@cloth@nv@@QEBAIXZ 000000018003a1d0 f i ClothFabricCooker.obj
 0001:000391e0       ??A?$Array@V?$Pair@V?$Pair@II@ps@cloth@nv@@W4Enum@ClothFabricPhaseType@34@@ps@cloth@nv@@VNonTrackingAllocator@234@@ps@cloth@nv@@QEAAAEAV?$Pair@V?$Pair@II@ps@cloth@nv@@W4Enum@ClothFabricPhaseType@34@@123@I@Z 000000018003a1e0 f i ClothFabricCooker.obj
 0001:000391f0       ??1?$Array@V?$Pair@V?$Pair@II@ps@cloth@nv@@W4Enum@ClothFabricPhaseType@34@@ps@cloth@nv@@VNonTrackingAllocator@234@@ps@cloth@nv@@QEAA@XZ 000000018003a1f0 f i ClothFabricCooker.obj
 0001:00039220       ??0?$Array@V?$Pair@V?$Pair@II@ps@cloth@nv@@W4Enum@ClothFabricPhaseType@34@@ps@cloth@nv@@VNonTrackingAllocator@234@@ps@cloth@nv@@QEAA@AEBVNonTrackingAllocator@123@@Z 000000018003a220 f i ClothFabricCooker.obj
 0001:00039230       ?done@Iter@?$HashBase@V?$Pair@$$CBV?$Pair@II@ps@cloth@nv@@UEdge@?A0xb3237753@34@@ps@cloth@nv@@V?$Pair@II@234@U?$Hash@V?$Pair@II@ps@cloth@nv@@@234@UGetKey@?$HashMapBase@V?$Pair@II@ps@cloth@nv@@UEdge@?A0xb3237753@34@U?$Hash@V?$Pair@II@ps@cloth@nv@@@234@VNonTrackingAllocator@234@@internal@234@VNonTrackingAllocator@234@$00@internal@ps@cloth@nv@@QEBA_NXZ 000000018003a230 f i ClothFabricCooker.obj
 0001:00039240       ??EIter@?$HashBase@V?$Pair@$$CBV?$Pair@II@ps@cloth@nv@@UEdge@?A0xb3237753@34@@ps@cloth@nv@@V?$Pair@II@234@U?$Hash@V?$Pair@II@ps@cloth@nv@@@234@UGetKey@?$HashMapBase@V?$Pair@II@ps@cloth@nv@@UEdge@?A0xb3237753@34@U?$Hash@V?$Pair@II@ps@cloth@nv@@@234@VNonTrackingAllocator@234@@internal@234@VNonTrackingAllocator@234@$00@internal@ps@cloth@nv@@QEAA?AV012345@XZ 000000018003a240 f i ClothFabricCooker.obj
 0001:000392a0       ??CIter@?$HashBase@V?$Pair@$$CBV?$Pair@II@ps@cloth@nv@@UEdge@?A0xb3237753@34@@ps@cloth@nv@@V?$Pair@II@234@U?$Hash@V?$Pair@II@ps@cloth@nv@@@234@UGetKey@?$HashMapBase@V?$Pair@II@ps@cloth@nv@@UEdge@?A0xb3237753@34@U?$Hash@V?$Pair@II@ps@cloth@nv@@@234@VNonTrackingAllocator@234@@internal@234@VNonTrackingAllocator@234@$00@internal@ps@cloth@nv@@QEAAPEAV?$Pair@$$CBV?$Pair@II@ps@cloth@nv@@UEdge@?A0xb3237753@34@@345@XZ 000000018003a2a0 f i ClothFabricCooker.obj
 0001:000392c0       ??1?$HashBase@V?$Pair@$$CBV?$Pair@II@ps@cloth@nv@@UEdge@?A0xb3237753@34@@ps@cloth@nv@@V?$Pair@II@234@U?$Hash@V?$Pair@II@ps@cloth@nv@@@234@UGetKey@?$HashMapBase@V?$Pair@II@ps@cloth@nv@@UEdge@?A0xb3237753@34@U?$Hash@V?$Pair@II@ps@cloth@nv@@@234@VNonTrackingAllocator@234@@internal@234@VNonTrackingAllocator@234@$00@internal@ps@cloth@nv@@QEAA@XZ 000000018003a2c0 f i ClothFabricCooker.obj
 0001:000392e0       ?size@?$HashMapBase@V?$Pair@II@ps@cloth@nv@@UEdge@?A0xb3237753@34@U?$Hash@V?$Pair@II@ps@cloth@nv@@@234@VNonTrackingAllocator@234@@internal@ps@cloth@nv@@QEBAIXZ 000000018003a2e0 f i ClothFabricCooker.obj
 0001:000392f0       ??A?$HashMapBase@V?$Pair@II@ps@cloth@nv@@UEdge@?A0xb3237753@34@U?$Hash@V?$Pair@II@ps@cloth@nv@@@234@VNonTrackingAllocator@234@@internal@ps@cloth@nv@@QEAAAEAUEdge@?A0xb3237753@34@AEBV?$Pair@II@234@@Z 000000018003a2f0 f i ClothFabricCooker.obj
 0001:00039350       ?getIterator@?$HashMap@V?$Pair@II@ps@cloth@nv@@UEdge@?A0xb3237753@34@U?$Hash@V?$Pair@II@ps@cloth@nv@@@234@VNonTrackingAllocator@234@@ps@cloth@nv@@QEAA?AVIter@?$HashBase@V?$Pair@$$CBV?$Pair@II@ps@cloth@nv@@UEdge@?A0xb3237753@34@@ps@cloth@nv@@V?$Pair@II@234@U?$Hash@V?$Pair@II@ps@cloth@nv@@@234@UGetKey@?$HashMapBase@V?$Pair@II@ps@cloth@nv@@UEdge@?A0xb3237753@34@U?$Hash@V?$Pair@II@ps@cloth@nv@@@234@VNonTrackingAllocator@234@@internal@234@VNonTrackingAllocator@234@$00@internal@234@XZ 000000018003a350 f i ClothFabricCooker.obj
 0001:000393a0       ??0?$HashMap@V?$Pair@II@ps@cloth@nv@@UEdge@?A0xb3237753@34@U?$Hash@V?$Pair@II@ps@cloth@nv@@@234@VNonTrackingAllocator@234@@ps@cloth@nv@@QEAA@IM@Z 000000018003a3a0 f i ClothFabricCooker.obj
 0001:000393f0       ??E?$PxStrideIterator@$$CBM@physx@@QEAA?AV01@H@Z 000000018003a3f0 f i ClothFabricCooker.obj
 0001:00039400       ??A?$PxStrideIterator@$$CBM@physx@@QEBAAEBMI@Z 000000018003a400 f i ClothFabricCooker.obj
 0001:00039410       ??D?$PxStrideIterator@$$CBM@physx@@QEBAAEBMXZ 000000018003a410 f i ClothFabricCooker.obj
 0001:00039420       ?ptr@?$PxStrideIterator@$$CBM@physx@@QEBAPEBMXZ 000000018003a420 f i ClothFabricCooker.obj
 0001:00039430       ??0?$PxStrideIterator@$$CBM@physx@@QEAA@PEBMI@Z 000000018003a430 f i ClothFabricCooker.obj
 0001:00039440       ??E?$PxStrideIterator@$$CBVPxVec3@physx@@@physx@@QEAA?AV01@H@Z 000000018003a440 f i ClothFabricCooker.obj
 0001:00039450       ??D?$PxStrideIterator@$$CBVPxVec3@physx@@@physx@@QEBAAEBVPxVec3@1@XZ 000000018003a450 f i ClothFabricCooker.obj
 0001:00039460       ??0?$PxStrideIterator@$$CBVPxVec3@physx@@@physx@@QEAA@PEBVPxVec3@1@I@Z 000000018003a460 f i ClothFabricCooker.obj
 0001:00039470       ??0?$Pair@V?$Pair@II@ps@cloth@nv@@W4Enum@ClothFabricPhaseType@34@@ps@cloth@nv@@QEAA@AEBV?$Pair@II@123@AEBW4Enum@ClothFabricPhaseType@23@@Z 000000018003a470 f i ClothFabricCooker.obj
 0001:00039490       ??0?$Pair@II@ps@cloth@nv@@QEAA@AEBI0@Z 000000018003a490 f i ClothFabricCooker.obj
 0001:000394a0       ?begin@?$Array@UClothFabricPhase@cloth@nv@@VNonTrackingAllocator@ps@23@@ps@cloth@nv@@QEAAPEAUClothFabricPhase@34@XZ 000000018003a4a0 f i ClothFabricCooker.obj
 0001:000394b0       ??A?$Array@UClothFabricPhase@cloth@nv@@VNonTrackingAllocator@ps@23@@ps@cloth@nv@@QEAAAEAUClothFabricPhase@23@I@Z 000000018003a4b0 f i ClothFabricCooker.obj
 0001:000394c0       ??1?$Array@UClothFabricPhase@cloth@nv@@VNonTrackingAllocator@ps@23@@ps@cloth@nv@@QEAA@XZ 000000018003a4c0 f i ClothFabricCooker.obj
 0001:000394f0       ??0?$Array@UClothFabricPhase@cloth@nv@@VNonTrackingAllocator@ps@23@@ps@cloth@nv@@QEAA@AEBVNonTrackingAllocator@123@@Z 000000018003a4f0 f i ClothFabricCooker.obj
 0001:00039500       ?begin@?$Array@MVNonTrackingAllocator@ps@cloth@nv@@@ps@cloth@nv@@QEBAPEBMXZ 000000018003a500 f i ClothFabricCooker.obj
 0001:00039510       ??4?$Array@MVNonTrackingAllocator@ps@cloth@nv@@@ps@cloth@nv@@QEAAAEAV0123@AEBV0123@@Z 000000018003a510 f i ClothFabricCooker.obj
 0001:00039570       ??0?$Array@MVNonTrackingAllocator@ps@cloth@nv@@@ps@cloth@nv@@QEAA@AEBVNonTrackingAllocator@123@@Z 000000018003a570 f i ClothFabricCooker.obj
 0001:00039580       ?pushBack@?$Array@W4Enum@ClothFabricPhaseType@cloth@nv@@VNonTrackingAllocator@ps@34@@ps@cloth@nv@@QEAAAEAW4Enum@ClothFabricPhaseType@34@AEBW45634@@Z 000000018003a580 f i ClothFabricCooker.obj
 0001:000395c0       ??A?$Array@W4Enum@ClothFabricPhaseType@cloth@nv@@VNonTrackingAllocator@ps@34@@ps@cloth@nv@@QEAAAEAW4Enum@ClothFabricPhaseType@23@I@Z 000000018003a5c0 f i ClothFabricCooker.obj
 0001:000395d0       ??A?$Array@W4Enum@ClothFabricPhaseType@cloth@nv@@VNonTrackingAllocator@ps@34@@ps@cloth@nv@@QEBAAEBW4Enum@ClothFabricPhaseType@23@I@Z 000000018003a5d0 f i ClothFabricCooker.obj
 0001:000395e0       ??1?$Array@W4Enum@ClothFabricPhaseType@cloth@nv@@VNonTrackingAllocator@ps@34@@ps@cloth@nv@@QEAA@XZ 000000018003a5e0 f i ClothFabricCooker.obj
 0001:00039610       ??0?$Array@W4Enum@ClothFabricPhaseType@cloth@nv@@VNonTrackingAllocator@ps@34@@ps@cloth@nv@@QEAA@AEBVNonTrackingAllocator@123@@Z 000000018003a610 f i ClothFabricCooker.obj
 0001:00039620       ??4?$Array@IVNonTrackingAllocator@ps@cloth@nv@@@ps@cloth@nv@@QEAAAEAV0123@AEBV0123@@Z 000000018003a620 f i ClothFabricCooker.obj
 0001:00039690       ??A?$Array@HVNonTrackingAllocator@ps@cloth@nv@@@ps@cloth@nv@@QEAAAEAHI@Z 000000018003a690 f i ClothFabricCooker.obj
 0001:000396a0       ?grow@?$Array@UConstraintGraphColorCount@?A0xb3237753@cloth@nv@@VNonTrackingAllocator@ps@34@@ps@cloth@nv@@IEAAXI@Z 000000018003a6a0 f i ClothFabricCooker.obj
 0001:000396b0       ?destroy@?$Array@UConstraintGraphColorCount@?A0xb3237753@cloth@nv@@VNonTrackingAllocator@ps@34@@ps@cloth@nv@@KAXPEAUConstraintGraphColorCount@?A0xb3237753@34@0@Z 000000018003a6b0 f i ClothFabricCooker.obj
 0001:000396c0       ?deallocate@?$Array@UConstraintGraphColorCount@?A0xb3237753@cloth@nv@@VNonTrackingAllocator@ps@34@@ps@cloth@nv@@IEAAXPEAX@Z 000000018003a6c0 f i ClothFabricCooker.obj
 0001:000396e0       ?isInUserMemory@?$Array@UConstraintGraphColorCount@?A0xb3237753@cloth@nv@@VNonTrackingAllocator@ps@34@@ps@cloth@nv@@QEBAIXZ 000000018003a6e0 f i ClothFabricCooker.obj
 0001:000396f0       ?capacity@?$Array@UConstraintGraphColorCount@?A0xb3237753@cloth@nv@@VNonTrackingAllocator@ps@34@@ps@cloth@nv@@QEBAIXZ 000000018003a6f0 f i ClothFabricCooker.obj
 0001:00039700       ?grow@?$Array@V?$Pair@V?$Pair@II@ps@cloth@nv@@W4Enum@ClothFabricPhaseType@34@@ps@cloth@nv@@VNonTrackingAllocator@234@@ps@cloth@nv@@IEAAXI@Z 000000018003a700 f i ClothFabricCooker.obj
 0001:00039710       ?destroy@?$Array@V?$Pair@V?$Pair@II@ps@cloth@nv@@W4Enum@ClothFabricPhaseType@34@@ps@cloth@nv@@VNonTrackingAllocator@234@@ps@cloth@nv@@KAXPEAV?$Pair@V?$Pair@II@ps@cloth@nv@@W4Enum@ClothFabricPhaseType@34@@234@0@Z 000000018003a710 f i ClothFabricCooker.obj
 0001:00039720       ?deallocate@?$Array@V?$Pair@V?$Pair@II@ps@cloth@nv@@W4Enum@ClothFabricPhaseType@34@@ps@cloth@nv@@VNonTrackingAllocator@234@@ps@cloth@nv@@IEAAXPEAX@Z 000000018003a720 f i ClothFabricCooker.obj
 0001:00039740       ?isInUserMemory@?$Array@V?$Pair@V?$Pair@II@ps@cloth@nv@@W4Enum@ClothFabricPhaseType@34@@ps@cloth@nv@@VNonTrackingAllocator@234@@ps@cloth@nv@@QEBAIXZ 000000018003a740 f i ClothFabricCooker.obj
 0001:00039750       ?capacity@?$Array@V?$Pair@V?$Pair@II@ps@cloth@nv@@W4Enum@ClothFabricPhaseType@34@@ps@cloth@nv@@VNonTrackingAllocator@234@@ps@cloth@nv@@QEBAIXZ 000000018003a750 f i ClothFabricCooker.obj
 0001:00039760       ?advance@Iter@?$HashBase@V?$Pair@$$CBV?$Pair@II@ps@cloth@nv@@UEdge@?A0xb3237753@34@@ps@cloth@nv@@V?$Pair@II@234@U?$Hash@V?$Pair@II@ps@cloth@nv@@@234@UGetKey@?$HashMapBase@V?$Pair@II@ps@cloth@nv@@UEdge@?A0xb3237753@34@U?$Hash@V?$Pair@II@ps@cloth@nv@@@234@VNonTrackingAllocator@234@@internal@234@VNonTrackingAllocator@234@$00@internal@ps@cloth@nv@@AEAAXXZ 000000018003a760 f i ClothFabricCooker.obj
 0001:000397a0       ?check@Iter@?$HashBase@V?$Pair@$$CBV?$Pair@II@ps@cloth@nv@@UEdge@?A0xb3237753@34@@ps@cloth@nv@@V?$Pair@II@234@U?$Hash@V?$Pair@II@ps@cloth@nv@@@234@UGetKey@?$HashMapBase@V?$Pair@II@ps@cloth@nv@@UEdge@?A0xb3237753@34@U?$Hash@V?$Pair@II@ps@cloth@nv@@@234@VNonTrackingAllocator@234@@internal@234@VNonTrackingAllocator@234@$00@internal@ps@cloth@nv@@QEBAXXZ 000000018003a7a0 f i ClothFabricCooker.obj
 0001:000397b0       ??0Iter@?$HashBase@V?$Pair@$$CBV?$Pair@II@ps@cloth@nv@@UEdge@?A0xb3237753@34@@ps@cloth@nv@@V?$Pair@II@234@U?$Hash@V?$Pair@II@ps@cloth@nv@@@234@UGetKey@?$HashMapBase@V?$Pair@II@ps@cloth@nv@@UEdge@?A0xb3237753@34@U?$Hash@V?$Pair@II@ps@cloth@nv@@@234@VNonTrackingAllocator@234@@internal@234@VNonTrackingAllocator@234@$00@internal@ps@cloth@nv@@QEAA@AEAV12345@@Z 000000018003a7b0 f i ClothFabricCooker.obj
 0001:00039810       ?destroy@?$HashBase@V?$Pair@$$CBV?$Pair@II@ps@cloth@nv@@UEdge@?A0xb3237753@34@@ps@cloth@nv@@V?$Pair@II@234@U?$Hash@V?$Pair@II@ps@cloth@nv@@@234@UGetKey@?$HashMapBase@V?$Pair@II@ps@cloth@nv@@UEdge@?A0xb3237753@34@U?$Hash@V?$Pair@II@ps@cloth@nv@@@234@VNonTrackingAllocator@234@@internal@234@VNonTrackingAllocator@234@$00@internal@ps@cloth@nv@@AEAAXXZ 000000018003a810 f i ClothFabricCooker.obj
 0001:00039850       ?size@?$HashBase@V?$Pair@$$CBV?$Pair@II@ps@cloth@nv@@UEdge@?A0xb3237753@34@@ps@cloth@nv@@V?$Pair@II@234@U?$Hash@V?$Pair@II@ps@cloth@nv@@@234@UGetKey@?$HashMapBase@V?$Pair@II@ps@cloth@nv@@UEdge@?A0xb3237753@34@U?$Hash@V?$Pair@II@ps@cloth@nv@@@234@VNonTrackingAllocator@234@@internal@234@VNonTrackingAllocator@234@$00@internal@ps@cloth@nv@@QEBAIXZ 000000018003a850 f i ClothFabricCooker.obj
 0001:00039860       ?create@?$HashBase@V?$Pair@$$CBV?$Pair@II@ps@cloth@nv@@UEdge@?A0xb3237753@34@@ps@cloth@nv@@V?$Pair@II@234@U?$Hash@V?$Pair@II@ps@cloth@nv@@@234@UGetKey@?$HashMapBase@V?$Pair@II@ps@cloth@nv@@UEdge@?A0xb3237753@34@U?$Hash@V?$Pair@II@ps@cloth@nv@@@234@VNonTrackingAllocator@234@@internal@234@VNonTrackingAllocator@234@$00@internal@ps@cloth@nv@@QEAAPEAV?$Pair@$$CBV?$Pair@II@ps@cloth@nv@@UEdge@?A0xb3237753@34@@345@AEBV?$Pair@II@345@AEA_N@Z 000000018003a860 f i ClothFabricCooker.obj
 0001:00039a40       ??0?$Pair@$$CBV?$Pair@II@ps@cloth@nv@@UEdge@?A0xb3237753@34@@ps@cloth@nv@@QEAA@AEBV?$Pair@II@123@AEBUEdge@?A0xb3237753@23@@Z 000000018003aa40 f i ClothFabricCooker.obj
 0001:00039a60       ??0?$HashMapBase@V?$Pair@II@ps@cloth@nv@@UEdge@?A0xb3237753@34@U?$Hash@V?$Pair@II@ps@cloth@nv@@@234@VNonTrackingAllocator@234@@internal@ps@cloth@nv@@QEAA@IM@Z 000000018003aa60 f i ClothFabricCooker.obj
 0001:00039ab0       ?byteAdd@?$PxStrideIterator@$$CBM@physx@@CAPEBMPEBMI@Z 000000018003aab0 f i ClothFabricCooker.obj
 0001:00039ac0       ?stride@?$PxStrideIterator@$$CBM@physx@@QEBAIXZ 000000018003aac0 f i ClothFabricCooker.obj
 0001:00039ad0       ?byteAdd@?$PxStrideIterator@$$CBVPxVec3@physx@@@physx@@CAPEBVPxVec3@2@PEBV32@I@Z 000000018003aad0 f i ClothFabricCooker.obj
 0001:00039ae0       ?stride@?$PxStrideIterator@$$CBVPxVec3@physx@@@physx@@QEBAIXZ 000000018003aae0 f i ClothFabricCooker.obj
 0001:00039af0       ??0?$Pair@V?$Pair@II@ps@cloth@nv@@W4Enum@ClothFabricPhaseType@34@@ps@cloth@nv@@QEAA@AEBV0123@@Z 000000018003aaf0 f i ClothFabricCooker.obj
 0001:00039b10       ??0?$Pair@II@ps@cloth@nv@@QEAA@AEBV0123@@Z 000000018003ab10 f i ClothFabricCooker.obj
 0001:00039b20       ?destroy@?$Array@UClothFabricPhase@cloth@nv@@VNonTrackingAllocator@ps@23@@ps@cloth@nv@@KAXPEAUClothFabricPhase@34@0@Z 000000018003ab20 f i ClothFabricCooker.obj
 0001:00039b30       ?deallocate@?$Array@UClothFabricPhase@cloth@nv@@VNonTrackingAllocator@ps@23@@ps@cloth@nv@@IEAAXPEAX@Z 000000018003ab30 f i ClothFabricCooker.obj
 0001:00039b50       ?isInUserMemory@?$Array@UClothFabricPhase@cloth@nv@@VNonTrackingAllocator@ps@23@@ps@cloth@nv@@QEBAIXZ 000000018003ab50 f i ClothFabricCooker.obj
 0001:00039b60       ?capacity@?$Array@UClothFabricPhase@cloth@nv@@VNonTrackingAllocator@ps@23@@ps@cloth@nv@@QEBAIXZ 000000018003ab60 f i ClothFabricCooker.obj
 0001:00039b70       ?destroy@?$Array@W4Enum@ClothFabricPhaseType@cloth@nv@@VNonTrackingAllocator@ps@34@@ps@cloth@nv@@KAXPEAW4Enum@ClothFabricPhaseType@34@0@Z 000000018003ab70 f i ClothFabricCooker.obj
 0001:00039b80       ?deallocate@?$Array@W4Enum@ClothFabricPhaseType@cloth@nv@@VNonTrackingAllocator@ps@34@@ps@cloth@nv@@IEAAXPEAX@Z 000000018003ab80 f i ClothFabricCooker.obj
 0001:00039ba0       ?isInUserMemory@?$Array@W4Enum@ClothFabricPhaseType@cloth@nv@@VNonTrackingAllocator@ps@34@@ps@cloth@nv@@QEBAIXZ 000000018003aba0 f i ClothFabricCooker.obj
 0001:00039bb0       ?capacity@?$Array@W4Enum@ClothFabricPhaseType@cloth@nv@@VNonTrackingAllocator@ps@34@@ps@cloth@nv@@QEBAIXZ 000000018003abb0 f i ClothFabricCooker.obj
 0001:00039bc0       ?skip@Iter@?$HashBase@V?$Pair@$$CBV?$Pair@II@ps@cloth@nv@@UEdge@?A0xb3237753@34@@ps@cloth@nv@@V?$Pair@II@234@U?$Hash@V?$Pair@II@ps@cloth@nv@@@234@UGetKey@?$HashMapBase@V?$Pair@II@ps@cloth@nv@@UEdge@?A0xb3237753@34@U?$Hash@V?$Pair@II@ps@cloth@nv@@@234@VNonTrackingAllocator@234@@internal@234@VNonTrackingAllocator@234@$00@internal@ps@cloth@nv@@AEAAXXZ 000000018003abc0 f i ClothFabricCooker.obj
 0001:00039bf0       ?grow@?$HashBase@V?$Pair@$$CBV?$Pair@II@ps@cloth@nv@@UEdge@?A0xb3237753@34@@ps@cloth@nv@@V?$Pair@II@234@U?$Hash@V?$Pair@II@ps@cloth@nv@@@234@UGetKey@?$HashMapBase@V?$Pair@II@ps@cloth@nv@@UEdge@?A0xb3237753@34@U?$Hash@V?$Pair@II@ps@cloth@nv@@@234@VNonTrackingAllocator@234@@internal@234@VNonTrackingAllocator@234@$00@internal@ps@cloth@nv@@AEAAXXZ 000000018003abf0 f i ClothFabricCooker.obj
 0001:00039c10       ?hash@?$HashBase@V?$Pair@$$CBV?$Pair@II@ps@cloth@nv@@UEdge@?A0xb3237753@34@@ps@cloth@nv@@V?$Pair@II@234@U?$Hash@V?$Pair@II@ps@cloth@nv@@@234@UGetKey@?$HashMapBase@V?$Pair@II@ps@cloth@nv@@UEdge@?A0xb3237753@34@U?$Hash@V?$Pair@II@ps@cloth@nv@@@234@VNonTrackingAllocator@234@@internal@234@VNonTrackingAllocator@234@$00@internal@ps@cloth@nv@@AEBAIAEBV?$Pair@II@345@@Z 000000018003ac10 f i ClothFabricCooker.obj
 0001:00039c90       ?freeListEmpty@?$HashBase@V?$Pair@$$CBV?$Pair@II@ps@cloth@nv@@UEdge@?A0xb3237753@34@@ps@cloth@nv@@V?$Pair@II@234@U?$Hash@V?$Pair@II@ps@cloth@nv@@@234@UGetKey@?$HashMapBase@V?$Pair@II@ps@cloth@nv@@UEdge@?A0xb3237753@34@U?$Hash@V?$Pair@II@ps@cloth@nv@@@234@VNonTrackingAllocator@234@@internal@234@VNonTrackingAllocator@234@$00@internal@ps@cloth@nv@@AEBA_NXZ 000000018003ac90 f i ClothFabricCooker.obj
 0001:00039ca0       ?freeListGetNext@?$HashBase@V?$Pair@$$CBV?$Pair@II@ps@cloth@nv@@UEdge@?A0xb3237753@34@@ps@cloth@nv@@V?$Pair@II@234@U?$Hash@V?$Pair@II@ps@cloth@nv@@@234@UGetKey@?$HashMapBase@V?$Pair@II@ps@cloth@nv@@UEdge@?A0xb3237753@34@U?$Hash@V?$Pair@II@ps@cloth@nv@@@234@VNonTrackingAllocator@234@@internal@234@VNonTrackingAllocator@234@$00@internal@ps@cloth@nv@@AEAAIXZ 000000018003aca0 f i ClothFabricCooker.obj
 0001:00039cb0       ??0?$HashBase@V?$Pair@$$CBV?$Pair@II@ps@cloth@nv@@UEdge@?A0xb3237753@34@@ps@cloth@nv@@V?$Pair@II@234@U?$Hash@V?$Pair@II@ps@cloth@nv@@@234@UGetKey@?$HashMapBase@V?$Pair@II@ps@cloth@nv@@UEdge@?A0xb3237753@34@U?$Hash@V?$Pair@II@ps@cloth@nv@@@234@VNonTrackingAllocator@234@@internal@234@VNonTrackingAllocator@234@$00@internal@ps@cloth@nv@@QEAA@IM@Z 000000018003acb0 f i ClothFabricCooker.obj
 0001:00039d00       ??RGetKey@?$HashMapBase@V?$Pair@II@ps@cloth@nv@@UEdge@?A0xb3237753@34@U?$Hash@V?$Pair@II@ps@cloth@nv@@@234@VNonTrackingAllocator@234@@internal@ps@cloth@nv@@QEAAAEBV?$Pair@II@345@AEBV?$Pair@$$CBV?$Pair@II@ps@cloth@nv@@UEdge@?A0xb3237753@34@@345@@Z 000000018003ad00 f i ClothFabricCooker.obj
 0001:00039d10       ?equal@?$Hash@V?$Pair@II@ps@cloth@nv@@@ps@cloth@nv@@QEBA_NAEBV?$Pair@II@234@0@Z 000000018003ad10 f i ClothFabricCooker.obj
 0001:00039d30       ?hash@?$HashBase@V?$Pair@$$CBV?$Pair@II@ps@cloth@nv@@UEdge@?A0xb3237753@34@@ps@cloth@nv@@V?$Pair@II@234@U?$Hash@V?$Pair@II@ps@cloth@nv@@@234@UGetKey@?$HashMapBase@V?$Pair@II@ps@cloth@nv@@UEdge@?A0xb3237753@34@U?$Hash@V?$Pair@II@ps@cloth@nv@@@234@VNonTrackingAllocator@234@@internal@234@VNonTrackingAllocator@234@$00@internal@ps@cloth@nv@@AEBAIAEBV?$Pair@II@345@I@Z 000000018003ad30 f i ClothFabricCooker.obj
 0001:00039db0       ?reserve@?$HashBase@V?$Pair@$$CBV?$Pair@II@ps@cloth@nv@@UEdge@?A0xb3237753@34@@ps@cloth@nv@@V?$Pair@II@234@U?$Hash@V?$Pair@II@ps@cloth@nv@@@234@UGetKey@?$HashMapBase@V?$Pair@II@ps@cloth@nv@@UEdge@?A0xb3237753@34@U?$Hash@V?$Pair@II@ps@cloth@nv@@@234@VNonTrackingAllocator@234@@internal@234@VNonTrackingAllocator@234@$00@internal@ps@cloth@nv@@QEAAXI@Z 000000018003adb0 f i ClothFabricCooker.obj
 0001:00039dc0       ?init@?$HashBase@V?$Pair@$$CBV?$Pair@II@ps@cloth@nv@@UEdge@?A0xb3237753@34@@ps@cloth@nv@@V?$Pair@II@234@U?$Hash@V?$Pair@II@ps@cloth@nv@@@234@UGetKey@?$HashMapBase@V?$Pair@II@ps@cloth@nv@@UEdge@?A0xb3237753@34@U?$Hash@V?$Pair@II@ps@cloth@nv@@@234@VNonTrackingAllocator@234@@internal@234@VNonTrackingAllocator@234@$00@internal@ps@cloth@nv@@AEAAXIM@Z 000000018003adc0 f i ClothFabricCooker.obj
 0001:00039df0       ??8?$Pair@II@ps@cloth@nv@@QEBA_NAEBV0123@@Z 000000018003adf0 f i ClothFabricCooker.obj
 0001:00039e10       ?reserveInternal@?$HashBase@V?$Pair@$$CBV?$Pair@II@ps@cloth@nv@@UEdge@?A0xb3237753@34@@ps@cloth@nv@@V?$Pair@II@234@U?$Hash@V?$Pair@II@ps@cloth@nv@@@234@UGetKey@?$HashMapBase@V?$Pair@II@ps@cloth@nv@@UEdge@?A0xb3237753@34@U?$Hash@V?$Pair@II@ps@cloth@nv@@@234@VNonTrackingAllocator@234@@internal@234@VNonTrackingAllocator@234@$00@internal@ps@cloth@nv@@AEAAXI@Z 000000018003ae10 f i ClothFabricCooker.obj
 0001:0003a030       ??R?$Hash@V?$Pair@II@ps@cloth@nv@@@ps@cloth@nv@@QEBAIAEBV?$Pair@II@123@@Z 000000018003b030 f i ClothFabricCooker.obj
 0001:0003a0a0       ?freeListAdd@?$HashBase@V?$Pair@$$CBV?$Pair@II@ps@cloth@nv@@UEdge@?A0xb3237753@34@@ps@cloth@nv@@V?$Pair@II@234@U?$Hash@V?$Pair@II@ps@cloth@nv@@@234@UGetKey@?$HashMapBase@V?$Pair@II@ps@cloth@nv@@UEdge@?A0xb3237753@34@U?$Hash@V?$Pair@II@ps@cloth@nv@@@234@VNonTrackingAllocator@234@@internal@234@VNonTrackingAllocator@234@$00@internal@ps@cloth@nv@@AEAAXII@Z 000000018003b0a0 f i ClothFabricCooker.obj
 0001:0003a0b0       ??0?$Pair@$$CBV?$Pair@II@ps@cloth@nv@@UEdge@?A0xb3237753@34@@ps@cloth@nv@@QEAA@AEBV0123@@Z 000000018003b0b0 f i ClothFabricCooker.obj
 0001:0003a0d0       ??0?$Range@$$CBI@cloth@nv@@QEAA@XZ 000000018003b0d0 f i ClothFabricCooker.obj
 0001:0003a0e0       ??0?$Range@$$CBM@cloth@nv@@QEAA@XZ 000000018003b0e0 f i ClothFabricCooker.obj
 0001:0003a0f0       ??0?$Range@$$CBH@cloth@nv@@QEAA@XZ 000000018003b0f0 f i ClothFabricCooker.obj
 0001:0003a100       ?size@?$Range@$$CBH@cloth@nv@@QEBAIXZ 000000018003b100 f i ClothFabricCooker.obj
 0001:0003a110       ??A?$Range@$$CBH@cloth@nv@@QEBAAEBHI@Z 000000018003b110 f i ClothFabricCooker.obj
 0001:0003a120       ?resize@?$Array@HVNonTrackingAllocator@ps@cloth@nv@@@ps@cloth@nv@@QEAAXIAEBH@Z 000000018003b120 f i ClothFabricCooker.obj
 0001:0003a190       ?growAndPushBack@?$Array@W4Enum@ClothFabricPhaseType@cloth@nv@@VNonTrackingAllocator@ps@34@@ps@cloth@nv@@IEAAAEAW4Enum@ClothFabricPhaseType@34@AEBW45634@@Z 000000018003b190 f i ClothFabricCooker.obj
 0001:0003a280       ?resize@?$Array@UClothFabricPhase@cloth@nv@@VNonTrackingAllocator@ps@23@@ps@cloth@nv@@QEAAXIAEBUClothFabricPhase@34@@Z 000000018003b280 f i ClothFabricCooker.obj
 0001:0003a2f0       ??$?4VNonTrackingAllocator@ps@cloth@nv@@@?$Array@IVNonTrackingAllocator@ps@cloth@nv@@@ps@cloth@nv@@QEAAAEAV0123@AEBV0123@@Z 000000018003b2f0 f i ClothFabricCooker.obj
 0001:0003a360       ??$?4VNonTrackingAllocator@ps@cloth@nv@@@?$Array@MVNonTrackingAllocator@ps@cloth@nv@@@ps@cloth@nv@@QEAAAEAV0123@AEBV0123@@Z 000000018003b360 f i ClothFabricCooker.obj
 0001:0003ae70       ??$PxMin@I@physx@@YAIII@Z  000000018003be70 f i ClothFabricCooker.obj
 0001:0003ae80       ??$PxMax@I@physx@@YAIII@Z  000000018003be80 f i ClothFabricCooker.obj
 0001:0003ae90       ?growAndPushBack@?$Array@V?$Pair@V?$Pair@II@ps@cloth@nv@@W4Enum@ClothFabricPhaseType@34@@ps@cloth@nv@@VNonTrackingAllocator@234@@ps@cloth@nv@@IEAAAEAV?$Pair@V?$Pair@II@ps@cloth@nv@@W4Enum@ClothFabricPhaseType@34@@234@AEBV5234@@Z 000000018003be90 f i ClothFabricCooker.obj
 0001:0003afa0       ?recreate@?$Array@V?$Pair@V?$Pair@II@ps@cloth@nv@@W4Enum@ClothFabricPhaseType@34@@ps@cloth@nv@@VNonTrackingAllocator@234@@ps@cloth@nv@@IEAAXI@Z 000000018003bfa0 f i ClothFabricCooker.obj
 0001:0003b0b0       ?recreate@?$Array@UConstraintGraphColorCount@?A0xb3237753@cloth@nv@@VNonTrackingAllocator@ps@34@@ps@cloth@nv@@IEAAXI@Z 000000018003c0b0 f i ClothFabricCooker.obj
 0001:0003b2c0       ??$sort@IUConstraintSorter@?A0xb3237753@cloth@nv@@VNonTrackingAllocator@ps@34@@ps@cloth@nv@@YAXPEAIIAEBUConstraintSorter@?A0xb3237753@12@AEBVNonTrackingAllocator@012@I@Z 000000018003c2c0 f i ClothFabricCooker.obj
 0001:0003b530       ??$hash@II@ps@cloth@nv@@YAIAEBV?$Pair@II@012@@Z 000000018003c530 f i ClothFabricCooker.obj
 0001:0003b5a0       ??E?$PxStrideIterator@$$CBI@physx@@QEAAAEAV01@XZ 000000018003c5a0 f i ClothFabricCooker.obj
 0001:0003b5b0       ?ptr@?$PxStrideIterator@$$CBI@physx@@QEBAPEBIXZ 000000018003c5b0 f i ClothFabricCooker.obj
 0001:0003b5c0       ??0?$PxStrideIterator@$$CBI@physx@@QEAA@PEBII@Z 000000018003c5c0 f i ClothFabricCooker.obj
 0001:0003b5d0       ??E?$PxStrideIterator@$$CBG@physx@@QEAAAEAV01@XZ 000000018003c5d0 f i ClothFabricCooker.obj
 0001:0003b5e0       ?ptr@?$PxStrideIterator@$$CBG@physx@@QEBAPEBGXZ 000000018003c5e0 f i ClothFabricCooker.obj
 0001:0003b5f0       ??0?$PxStrideIterator@$$CBG@physx@@QEAA@PEBGI@Z 000000018003c5f0 f i ClothFabricCooker.obj
 0001:0003b600       ?copy@?$Array@UConstraintGraphColorCount@?A0xb3237753@cloth@nv@@VNonTrackingAllocator@ps@34@@ps@cloth@nv@@KAXPEAUConstraintGraphColorCount@?A0xb3237753@34@0PEBU5634@@Z 000000018003c600 f i ClothFabricCooker.obj
 0001:0003b620       ?allocate@?$Array@UConstraintGraphColorCount@?A0xb3237753@cloth@nv@@VNonTrackingAllocator@ps@34@@ps@cloth@nv@@IEAAPEAUConstraintGraphColorCount@?A0xb3237753@34@I@Z 000000018003c620 f i ClothFabricCooker.obj
 0001:0003b670       ?popBack@?$Array@UConstraintGraphColorCount@?A0xb3237753@cloth@nv@@VNonTrackingAllocator@ps@34@@ps@cloth@nv@@QEAA?AUConstraintGraphColorCount@?A0xb3237753@34@XZ 000000018003c670 f i ClothFabricCooker.obj
 0001:0003b690       ?pushBack@?$Array@UConstraintGraphColorCount@?A0xb3237753@cloth@nv@@VNonTrackingAllocator@ps@34@@ps@cloth@nv@@QEAAAEAUConstraintGraphColorCount@?A0xb3237753@34@AEBU5634@@Z 000000018003c690 f i ClothFabricCooker.obj
 0001:0003b6d0       ?end@?$Array@UConstraintGraphColorCount@?A0xb3237753@cloth@nv@@VNonTrackingAllocator@ps@34@@ps@cloth@nv@@QEAAPEAUConstraintGraphColorCount@?A0xb3237753@34@XZ 000000018003c6d0 f i ClothFabricCooker.obj
 0001:0003b6e0       ?begin@?$Array@UConstraintGraphColorCount@?A0xb3237753@cloth@nv@@VNonTrackingAllocator@ps@34@@ps@cloth@nv@@QEAAPEAUConstraintGraphColorCount@?A0xb3237753@34@XZ 000000018003c6e0 f i ClothFabricCooker.obj
 0001:0003b6f0       ?capacityIncrement@?$Array@V?$Pair@V?$Pair@II@ps@cloth@nv@@W4Enum@ClothFabricPhaseType@34@@ps@cloth@nv@@VNonTrackingAllocator@234@@ps@cloth@nv@@IEBAIXZ 000000018003c6f0 f i ClothFabricCooker.obj
 0001:0003b710       ?copy@?$Array@V?$Pair@V?$Pair@II@ps@cloth@nv@@W4Enum@ClothFabricPhaseType@34@@ps@cloth@nv@@VNonTrackingAllocator@234@@ps@cloth@nv@@KAXPEAV?$Pair@V?$Pair@II@ps@cloth@nv@@W4Enum@ClothFabricPhaseType@34@@234@0PEBV5234@@Z 000000018003c710 f i ClothFabricCooker.obj
 0001:0003b750       ?allocate@?$Array@V?$Pair@V?$Pair@II@ps@cloth@nv@@W4Enum@ClothFabricPhaseType@34@@ps@cloth@nv@@VNonTrackingAllocator@234@@ps@cloth@nv@@IEAAPEAV?$Pair@V?$Pair@II@ps@cloth@nv@@W4Enum@ClothFabricPhaseType@34@@234@I@Z 000000018003c750 f i ClothFabricCooker.obj
 0001:0003b7a0       ?create@?$Array@UClothFabricPhase@cloth@nv@@VNonTrackingAllocator@ps@23@@ps@cloth@nv@@KAXPEAUClothFabricPhase@34@0AEBU534@@Z 000000018003c7a0 f i ClothFabricCooker.obj
 0001:0003b7c0       ?reserve@?$Array@UClothFabricPhase@cloth@nv@@VNonTrackingAllocator@ps@23@@ps@cloth@nv@@QEAAXI@Z 000000018003c7c0 f i ClothFabricCooker.obj
 0001:0003b7d0       ?clear@?$Array@MVNonTrackingAllocator@ps@cloth@nv@@@ps@cloth@nv@@QEAAXXZ 000000018003c7d0 f i ClothFabricCooker.obj
 0001:0003b7e0       ?end@?$Array@MVNonTrackingAllocator@ps@cloth@nv@@@ps@cloth@nv@@QEBAPEBMXZ 000000018003c7e0 f i ClothFabricCooker.obj
 0001:0003b7f0       ?capacityIncrement@?$Array@W4Enum@ClothFabricPhaseType@cloth@nv@@VNonTrackingAllocator@ps@34@@ps@cloth@nv@@IEBAIXZ 000000018003c7f0 f i ClothFabricCooker.obj
 0001:0003b810       ?copy@?$Array@W4Enum@ClothFabricPhaseType@cloth@nv@@VNonTrackingAllocator@ps@34@@ps@cloth@nv@@KAXPEAW4Enum@ClothFabricPhaseType@34@0PEBW45634@@Z 000000018003c810 f i ClothFabricCooker.obj
 0001:0003b830       ?allocate@?$Array@W4Enum@ClothFabricPhaseType@cloth@nv@@VNonTrackingAllocator@ps@34@@ps@cloth@nv@@IEAAPEAW4Enum@ClothFabricPhaseType@34@I@Z 000000018003c830 f i ClothFabricCooker.obj
 0001:0003b880       ?end@?$Array@W4Enum@ClothFabricPhaseType@cloth@nv@@VNonTrackingAllocator@ps@34@@ps@cloth@nv@@QEBAPEBW4Enum@ClothFabricPhaseType@34@XZ 000000018003c880 f i ClothFabricCooker.obj
 0001:0003b890       ?begin@?$Array@W4Enum@ClothFabricPhaseType@cloth@nv@@VNonTrackingAllocator@ps@34@@ps@cloth@nv@@QEBAPEBW4Enum@ClothFabricPhaseType@34@XZ 000000018003c890 f i ClothFabricCooker.obj
 0001:0003b8a0       ?clear@?$Array@IVNonTrackingAllocator@ps@cloth@nv@@@ps@cloth@nv@@QEAAXXZ 000000018003c8a0 f i ClothFabricCooker.obj
 0001:0003b8b0       ?destroy@?$Array@HVNonTrackingAllocator@ps@cloth@nv@@@ps@cloth@nv@@KAXPEAH0@Z 000000018003c8b0 f i ClothFabricCooker.obj
 0001:0003b8c0       ?create@?$Array@HVNonTrackingAllocator@ps@cloth@nv@@@ps@cloth@nv@@KAXPEAH0AEBH@Z 000000018003c8c0 f i ClothFabricCooker.obj
 0001:0003b8e0       ?reserve@?$Array@HVNonTrackingAllocator@ps@cloth@nv@@@ps@cloth@nv@@QEAAXI@Z 000000018003c8e0 f i ClothFabricCooker.obj
 0001:0003b8f0       ?byteAdd@?$PxStrideIterator@$$CBI@physx@@CAPEBIPEBII@Z 000000018003c8f0 f i ClothFabricCooker.obj
 0001:0003b900       ?stride@?$PxStrideIterator@$$CBI@physx@@QEBAIXZ 000000018003c900 f i ClothFabricCooker.obj
 0001:0003b910       ?byteAdd@?$PxStrideIterator@$$CBG@physx@@CAPEBGPEBGI@Z 000000018003c910 f i ClothFabricCooker.obj
 0001:0003b920       ?stride@?$PxStrideIterator@$$CBG@physx@@QEBAIXZ 000000018003c920 f i ClothFabricCooker.obj
 0001:0003b930       ?grow@?$Array@UClothFabricPhase@cloth@nv@@VNonTrackingAllocator@ps@23@@ps@cloth@nv@@IEAAXI@Z 000000018003c930 f i ClothFabricCooker.obj
 0001:0003b940       ?grow@?$Array@HVNonTrackingAllocator@ps@cloth@nv@@@ps@cloth@nv@@IEAAXI@Z 000000018003c940 f i ClothFabricCooker.obj
 0001:0003b950       ?capacity@?$Array@HVNonTrackingAllocator@ps@cloth@nv@@@ps@cloth@nv@@QEBAIXZ 000000018003c950 f i ClothFabricCooker.obj
 0001:0003b960       ??0?$Range@$$CBM@cloth@nv@@QEAA@PEBM0@Z 000000018003c960 f i ClothFabricCooker.obj
 0001:0003b970       ??0?$Range@$$CBH@cloth@nv@@QEAA@PEBH0@Z 000000018003c970 f i ClothFabricCooker.obj
 0001:0003b980       ?recreate@?$Array@HVNonTrackingAllocator@ps@cloth@nv@@@ps@cloth@nv@@IEAAXI@Z 000000018003c980 f i ClothFabricCooker.obj
 0001:0003ba30       ?recreate@?$Array@UClothFabricPhase@cloth@nv@@VNonTrackingAllocator@ps@23@@ps@cloth@nv@@IEAAXI@Z 000000018003ca30 f i ClothFabricCooker.obj
 0001:0003bae0       ?growAndPushBack@?$Array@UConstraintGraphColorCount@?A0xb3237753@cloth@nv@@VNonTrackingAllocator@ps@34@@ps@cloth@nv@@IEAAAEAUConstraintGraphColorCount@?A0xb3237753@34@AEBU5634@@Z 000000018003cae0 f i ClothFabricCooker.obj
 0001:0003bbd0       ??$PxMakeIterator@G@physx@@YA?AV?$PxStrideIterator@$$CBG@0@PEBGI@Z 000000018003cbd0 f i ClothFabricCooker.obj
 0001:0003bbe0       ??$PxMakeIterator@I@physx@@YA?AV?$PxStrideIterator@$$CBI@0@PEBII@Z 000000018003cbe0 f i ClothFabricCooker.obj
 0001:0003bbf0       ??$swap@UConstraintGraphColorCount@?A0xb3237753@cloth@nv@@@ps@cloth@nv@@YAXAEAUConstraintGraphColorCount@?A0xb3237753@12@0@Z 000000018003cbf0 f i ClothFabricCooker.obj
 0001:0003bc00       ??$smallSort@I$$CBUConstraintSorter@?A0xb3237753@cloth@nv@@@internal@ps@cloth@nv@@YAXPEAIHHAEBUConstraintSorter@?A0xb3237753@23@@Z 000000018003cc00 f i ClothFabricCooker.obj
 0001:0003bd40       ??$partition@I$$CBUConstraintSorter@?A0xb3237753@cloth@nv@@@internal@ps@cloth@nv@@YAHPEAIHHAEBUConstraintSorter@?A0xb3237753@23@@Z 000000018003cd40 f i ClothFabricCooker.obj
 0001:0003be30       ?capacityIncrement@?$Array@UConstraintGraphColorCount@?A0xb3237753@cloth@nv@@VNonTrackingAllocator@ps@34@@ps@cloth@nv@@IEBAIXZ 000000018003ce30 f i ClothFabricCooker.obj
 0001:0003be50       ?copy@?$Array@UClothFabricPhase@cloth@nv@@VNonTrackingAllocator@ps@23@@ps@cloth@nv@@KAXPEAUClothFabricPhase@34@0PEBU534@@Z 000000018003ce50 f i ClothFabricCooker.obj
 0001:0003be70       ?allocate@?$Array@UClothFabricPhase@cloth@nv@@VNonTrackingAllocator@ps@23@@ps@cloth@nv@@IEAAPEAUClothFabricPhase@34@I@Z 000000018003ce70 f i ClothFabricCooker.obj
 0001:0003bec0       ?copy@?$Array@HVNonTrackingAllocator@ps@cloth@nv@@@ps@cloth@nv@@KAXPEAH0PEBH@Z 000000018003cec0 f i ClothFabricCooker.obj
 0001:0003bee0       ?deallocate@?$Array@HVNonTrackingAllocator@ps@cloth@nv@@@ps@cloth@nv@@IEAAXPEAX@Z 000000018003cee0 f i ClothFabricCooker.obj
 0001:0003bf00       ?allocate@?$Array@HVNonTrackingAllocator@ps@cloth@nv@@@ps@cloth@nv@@IEAAPEAHI@Z 000000018003cf00 f i ClothFabricCooker.obj
 0001:0003bf50       ?isInUserMemory@?$Array@HVNonTrackingAllocator@ps@cloth@nv@@@ps@cloth@nv@@QEBAIXZ 000000018003cf50 f i ClothFabricCooker.obj
 0001:0003bf60       ??$median3@I$$CBUConstraintSorter@?A0xb3237753@cloth@nv@@@internal@ps@cloth@nv@@YAXPEAIHHAEBUConstraintSorter@?A0xb3237753@23@@Z 000000018003cf60 f i ClothFabricCooker.obj
 0001:0003c080       ?PxMemCopy@physx@@YAPEAXPEAXPEBXI@Z 000000018003d080 f i ClothGeodesicTetherCooker.obj
 0001:0003c0a0       ??1ClothTetherCooker@cloth@nv@@UEAA@XZ 000000018003d0a0 f i ClothGeodesicTetherCooker.obj
 0001:0003c0b0       ??_GClothTetherCooker@cloth@nv@@UEAAPEAXI@Z 000000018003d0b0 f i ClothGeodesicTetherCooker.obj
 0001:0003c0b0       ??_EClothTetherCooker@cloth@nv@@UEAAPEAXI@Z 000000018003d0b0 f i * CIL library *:* CIL module *
 0001:0003c200       ??0ClothGeodesicTetherCooker@cloth@nv@@QEAA@XZ 000000018003d200 f i ClothGeodesicTetherCooker.obj
 0001:0003c260       ??_GClothGeodesicTetherCooker@cloth@nv@@UEAAPEAXI@Z 000000018003d260 f i ClothGeodesicTetherCooker.obj
 0001:0003c260       ??_EClothGeodesicTetherCooker@cloth@nv@@UEAAPEAXI@Z 000000018003d260 f i * CIL library *:* CIL module *
 0001:0003c2c0       ??1ClothGeodesicTetherCooker@cloth@nv@@UEAA@XZ 000000018003d2c0 f i ClothGeodesicTetherCooker.obj
 0001:0003c410       ??0ClothTetherCooker@cloth@nv@@QEAA@XZ 000000018003d410 f i ClothGeodesicTetherCooker.obj
 0001:0003c420       ?reserve@?$Array@UVertTriangle@?A0x449b062d@cloth@nv@@VNonTrackingAllocator@ps@34@@ps@cloth@nv@@QEAAXI@Z 000000018003d420 f i ClothGeodesicTetherCooker.obj
 0001:0003c430       ?pushBack@?$Array@UVertTriangle@?A0x449b062d@cloth@nv@@VNonTrackingAllocator@ps@34@@ps@cloth@nv@@QEAAAEAUVertTriangle@?A0x449b062d@34@AEBU5634@@Z 000000018003d430 f i ClothGeodesicTetherCooker.obj
 0001:0003c470       ?size@?$Array@UVertTriangle@?A0x449b062d@cloth@nv@@VNonTrackingAllocator@ps@34@@ps@cloth@nv@@QEBAIXZ 000000018003d470 f i ClothGeodesicTetherCooker.obj
 0001:0003c480       ?begin@?$Array@UVertTriangle@?A0x449b062d@cloth@nv@@VNonTrackingAllocator@ps@34@@ps@cloth@nv@@QEAAPEAUVertTriangle@?A0x449b062d@34@XZ 000000018003d480 f i ClothGeodesicTetherCooker.obj
 0001:0003c490       ??A?$Array@UVertTriangle@?A0x449b062d@cloth@nv@@VNonTrackingAllocator@ps@34@@ps@cloth@nv@@QEAAAEAUVertTriangle@?A0x449b062d@23@I@Z 000000018003d490 f i ClothGeodesicTetherCooker.obj
 0001:0003c4a0       ??1?$Array@UVertTriangle@?A0x449b062d@cloth@nv@@VNonTrackingAllocator@ps@34@@ps@cloth@nv@@QEAA@XZ 000000018003d4a0 f i ClothGeodesicTetherCooker.obj
 0001:0003c4d0       ??0?$Array@UVertTriangle@?A0x449b062d@cloth@nv@@VNonTrackingAllocator@ps@34@@ps@cloth@nv@@QEAA@AEBVNonTrackingAllocator@123@@Z 000000018003d4d0 f i ClothGeodesicTetherCooker.obj
 0001:0003c4e0       ?pushBack@?$Array@UMeshEdge@?A0x449b062d@cloth@nv@@VNonTrackingAllocator@ps@34@@ps@cloth@nv@@QEAAAEAUMeshEdge@?A0x449b062d@34@AEBU5634@@Z 000000018003d4e0 f i ClothGeodesicTetherCooker.obj
 0001:0003c540       ?size@?$Array@UMeshEdge@?A0x449b062d@cloth@nv@@VNonTrackingAllocator@ps@34@@ps@cloth@nv@@QEBAIXZ 000000018003d540 f i ClothGeodesicTetherCooker.obj
 0001:0003c550       ?begin@?$Array@UMeshEdge@?A0x449b062d@cloth@nv@@VNonTrackingAllocator@ps@34@@ps@cloth@nv@@QEAAPEAUMeshEdge@?A0x449b062d@34@XZ 000000018003d550 f i ClothGeodesicTetherCooker.obj
 0001:0003c560       ??A?$Array@UMeshEdge@?A0x449b062d@cloth@nv@@VNonTrackingAllocator@ps@34@@ps@cloth@nv@@QEAAAEAUMeshEdge@?A0x449b062d@23@I@Z 000000018003d560 f i ClothGeodesicTetherCooker.obj
 0001:0003c570       ??1?$Array@UMeshEdge@?A0x449b062d@cloth@nv@@VNonTrackingAllocator@ps@34@@ps@cloth@nv@@QEAA@XZ 000000018003d570 f i ClothGeodesicTetherCooker.obj
 0001:0003c5a0       ??0?$Array@UMeshEdge@?A0x449b062d@cloth@nv@@VNonTrackingAllocator@ps@34@@ps@cloth@nv@@QEAA@AEBVNonTrackingAllocator@123@@Z 000000018003d5a0 f i ClothGeodesicTetherCooker.obj
 0001:0003c5b0       ?pushBack@?$Array@UVertexDistanceCount@?A0x449b062d@cloth@nv@@VNonTrackingAllocator@ps@34@@ps@cloth@nv@@QEAAAEAUVertexDistanceCount@?A0x449b062d@34@AEBU5634@@Z 000000018003d5b0 f i ClothGeodesicTetherCooker.obj
 0001:0003c610       ?empty@?$Array@UVertexDistanceCount@?A0x449b062d@cloth@nv@@VNonTrackingAllocator@ps@34@@ps@cloth@nv@@QEBA_NXZ 000000018003d610 f i ClothGeodesicTetherCooker.obj
 0001:0003c620       ?clear@?$Array@UVertexDistanceCount@?A0x449b062d@cloth@nv@@VNonTrackingAllocator@ps@34@@ps@cloth@nv@@QEAAXXZ 000000018003d620 f i ClothGeodesicTetherCooker.obj
 0001:0003c630       ?size@?$Array@UVertexDistanceCount@?A0x449b062d@cloth@nv@@VNonTrackingAllocator@ps@34@@ps@cloth@nv@@QEBAIXZ 000000018003d630 f i ClothGeodesicTetherCooker.obj
 0001:0003c640       ??1?$Array@UVertexDistanceCount@?A0x449b062d@cloth@nv@@VNonTrackingAllocator@ps@34@@ps@cloth@nv@@QEAA@XZ 000000018003d640 f i ClothGeodesicTetherCooker.obj
 0001:0003c670       ??0?$Array@UVertexDistanceCount@?A0x449b062d@cloth@nv@@VNonTrackingAllocator@ps@34@@ps@cloth@nv@@QEAA@AEBVNonTrackingAllocator@123@@Z 000000018003d670 f i ClothGeodesicTetherCooker.obj
 0001:0003c680       ??A?$Array@EVNonTrackingAllocator@ps@cloth@nv@@@ps@cloth@nv@@QEAAAEAEI@Z 000000018003d680 f i ClothGeodesicTetherCooker.obj
 0001:0003c690       ??1?$Array@EVNonTrackingAllocator@ps@cloth@nv@@@ps@cloth@nv@@QEAA@XZ 000000018003d690 f i ClothGeodesicTetherCooker.obj
 0001:0003c6c0       ??0?$Array@EVNonTrackingAllocator@ps@cloth@nv@@@ps@cloth@nv@@QEAA@AEBVNonTrackingAllocator@123@@Z 000000018003d6c0 f i ClothGeodesicTetherCooker.obj
 0001:0003c6d0       ?grow@?$Array@UVertTriangle@?A0x449b062d@cloth@nv@@VNonTrackingAllocator@ps@34@@ps@cloth@nv@@IEAAXI@Z 000000018003d6d0 f i ClothGeodesicTetherCooker.obj
 0001:0003c6e0       ?destroy@?$Array@UVertTriangle@?A0x449b062d@cloth@nv@@VNonTrackingAllocator@ps@34@@ps@cloth@nv@@KAXPEAUVertTriangle@?A0x449b062d@34@0@Z 000000018003d6e0 f i ClothGeodesicTetherCooker.obj
 0001:0003c6f0       ?deallocate@?$Array@UVertTriangle@?A0x449b062d@cloth@nv@@VNonTrackingAllocator@ps@34@@ps@cloth@nv@@IEAAXPEAX@Z 000000018003d6f0 f i ClothGeodesicTetherCooker.obj
 0001:0003c710       ?isInUserMemory@?$Array@UVertTriangle@?A0x449b062d@cloth@nv@@VNonTrackingAllocator@ps@34@@ps@cloth@nv@@QEBAIXZ 000000018003d710 f i ClothGeodesicTetherCooker.obj
 0001:0003c720       ?capacity@?$Array@UVertTriangle@?A0x449b062d@cloth@nv@@VNonTrackingAllocator@ps@34@@ps@cloth@nv@@QEBAIXZ 000000018003d720 f i ClothGeodesicTetherCooker.obj
 0001:0003c730       ?destroy@?$Array@UMeshEdge@?A0x449b062d@cloth@nv@@VNonTrackingAllocator@ps@34@@ps@cloth@nv@@KAXPEAUMeshEdge@?A0x449b062d@34@0@Z 000000018003d730 f i ClothGeodesicTetherCooker.obj
 0001:0003c740       ?deallocate@?$Array@UMeshEdge@?A0x449b062d@cloth@nv@@VNonTrackingAllocator@ps@34@@ps@cloth@nv@@IEAAXPEAX@Z 000000018003d740 f i ClothGeodesicTetherCooker.obj
 0001:0003c760       ?isInUserMemory@?$Array@UMeshEdge@?A0x449b062d@cloth@nv@@VNonTrackingAllocator@ps@34@@ps@cloth@nv@@QEBAIXZ 000000018003d760 f i ClothGeodesicTetherCooker.obj
 0001:0003c770       ?capacity@?$Array@UMeshEdge@?A0x449b062d@cloth@nv@@VNonTrackingAllocator@ps@34@@ps@cloth@nv@@QEBAIXZ 000000018003d770 f i ClothGeodesicTetherCooker.obj
 0001:0003c780       ?destroy@?$Array@UVertexDistanceCount@?A0x449b062d@cloth@nv@@VNonTrackingAllocator@ps@34@@ps@cloth@nv@@KAXPEAUVertexDistanceCount@?A0x449b062d@34@0@Z 000000018003d780 f i ClothGeodesicTetherCooker.obj
 0001:0003c790       ?deallocate@?$Array@UVertexDistanceCount@?A0x449b062d@cloth@nv@@VNonTrackingAllocator@ps@34@@ps@cloth@nv@@IEAAXPEAX@Z 000000018003d790 f i ClothGeodesicTetherCooker.obj
 0001:0003c7b0       ?isInUserMemory@?$Array@UVertexDistanceCount@?A0x449b062d@cloth@nv@@VNonTrackingAllocator@ps@34@@ps@cloth@nv@@QEBAIXZ 000000018003d7b0 f i ClothGeodesicTetherCooker.obj
 0001:0003c7c0       ?capacity@?$Array@UVertexDistanceCount@?A0x449b062d@cloth@nv@@VNonTrackingAllocator@ps@34@@ps@cloth@nv@@QEBAIXZ 000000018003d7c0 f i ClothGeodesicTetherCooker.obj
 0001:0003c7d0       ?destroy@?$Array@EVNonTrackingAllocator@ps@cloth@nv@@@ps@cloth@nv@@KAXPEAE0@Z 000000018003d7d0 f i ClothGeodesicTetherCooker.obj
 0001:0003c7e0       ?deallocate@?$Array@EVNonTrackingAllocator@ps@cloth@nv@@@ps@cloth@nv@@IEAAXPEAX@Z 000000018003d7e0 f i ClothGeodesicTetherCooker.obj
 0001:0003c800       ?isInUserMemory@?$Array@EVNonTrackingAllocator@ps@cloth@nv@@@ps@cloth@nv@@QEBAIXZ 000000018003d800 f i ClothGeodesicTetherCooker.obj
 0001:0003c810       ?capacity@?$Array@EVNonTrackingAllocator@ps@cloth@nv@@@ps@cloth@nv@@QEBAIXZ 000000018003d810 f i ClothGeodesicTetherCooker.obj
 0001:0003c820       ??$swap@H@ps@cloth@nv@@YAXAEAH0@Z 000000018003d820 f i ClothGeodesicTetherCooker.obj
 0001:0003c830       ?resize@?$Array@EVNonTrackingAllocator@ps@cloth@nv@@@ps@cloth@nv@@QEAAXIAEBE@Z 000000018003d830 f i ClothGeodesicTetherCooker.obj
 0001:0003d3c0       ?growAndPushBack@?$Array@UVertexDistanceCount@?A0x449b062d@cloth@nv@@VNonTrackingAllocator@ps@34@@ps@cloth@nv@@IEAAAEAUVertexDistanceCount@?A0x449b062d@34@AEBU5634@@Z 000000018003e3c0 f i ClothGeodesicTetherCooker.obj
 0001:0003d6e0       ?growAndPushBack@?$Array@UMeshEdge@?A0x449b062d@cloth@nv@@VNonTrackingAllocator@ps@34@@ps@cloth@nv@@IEAAAEAUMeshEdge@?A0x449b062d@34@AEBU5634@@Z 000000018003e6e0 f i ClothGeodesicTetherCooker.obj
 0001:0003d7f0       ??$sort@UMeshEdge@?A0x449b062d@cloth@nv@@U?$Less@UMeshEdge@?A0x449b062d@cloth@nv@@@ps@34@VNonTrackingAllocator@634@@ps@cloth@nv@@YAXPEAUMeshEdge@?A0x449b062d@12@IAEBU?$Less@UMeshEdge@?A0x449b062d@cloth@nv@@@012@AEBVNonTrackingAllocator@012@I@Z 000000018003e7f0 f i ClothGeodesicTetherCooker.obj
 0001:0003d9e0       ?growAndPushBack@?$Array@UVertTriangle@?A0x449b062d@cloth@nv@@VNonTrackingAllocator@ps@34@@ps@cloth@nv@@IEAAAEAUVertTriangle@?A0x449b062d@34@AEBU5634@@Z 000000018003e9e0 f i ClothGeodesicTetherCooker.obj
 0001:0003dad0       ?recreate@?$Array@UVertTriangle@?A0x449b062d@cloth@nv@@VNonTrackingAllocator@ps@34@@ps@cloth@nv@@IEAAXI@Z 000000018003ead0 f i ClothGeodesicTetherCooker.obj
 0001:0003db80       ??$sort@UVertTriangle@?A0x449b062d@cloth@nv@@U?$Less@UVertTriangle@?A0x449b062d@cloth@nv@@@ps@34@VNonTrackingAllocator@634@@ps@cloth@nv@@YAXPEAUVertTriangle@?A0x449b062d@12@IAEBU?$Less@UVertTriangle@?A0x449b062d@cloth@nv@@@012@AEBVNonTrackingAllocator@012@I@Z 000000018003eb80 f i ClothGeodesicTetherCooker.obj
 0001:0003dd70       ?capacityIncrement@?$Array@UVertTriangle@?A0x449b062d@cloth@nv@@VNonTrackingAllocator@ps@34@@ps@cloth@nv@@IEBAIXZ 000000018003ed70 f i ClothGeodesicTetherCooker.obj
 0001:0003dd90       ?copy@?$Array@UVertTriangle@?A0x449b062d@cloth@nv@@VNonTrackingAllocator@ps@34@@ps@cloth@nv@@KAXPEAUVertTriangle@?A0x449b062d@34@0PEBU5634@@Z 000000018003ed90 f i ClothGeodesicTetherCooker.obj
 0001:0003ddb0       ?allocate@?$Array@UVertTriangle@?A0x449b062d@cloth@nv@@VNonTrackingAllocator@ps@34@@ps@cloth@nv@@IEAAPEAUVertTriangle@?A0x449b062d@34@I@Z 000000018003edb0 f i ClothGeodesicTetherCooker.obj
 0001:0003de00       ?capacityIncrement@?$Array@UMeshEdge@?A0x449b062d@cloth@nv@@VNonTrackingAllocator@ps@34@@ps@cloth@nv@@IEBAIXZ 000000018003ee00 f i ClothGeodesicTetherCooker.obj
 0001:0003de20       ?copy@?$Array@UMeshEdge@?A0x449b062d@cloth@nv@@VNonTrackingAllocator@ps@34@@ps@cloth@nv@@KAXPEAUMeshEdge@?A0x449b062d@34@0PEBU5634@@Z 000000018003ee20 f i ClothGeodesicTetherCooker.obj
 0001:0003de50       ?allocate@?$Array@UMeshEdge@?A0x449b062d@cloth@nv@@VNonTrackingAllocator@ps@34@@ps@cloth@nv@@IEAAPEAUMeshEdge@?A0x449b062d@34@I@Z 000000018003ee50 f i ClothGeodesicTetherCooker.obj
 0001:0003dea0       ?capacityIncrement@?$Array@UVertexDistanceCount@?A0x449b062d@cloth@nv@@VNonTrackingAllocator@ps@34@@ps@cloth@nv@@IEBAIXZ 000000018003eea0 f i ClothGeodesicTetherCooker.obj
 0001:0003dec0       ?copy@?$Array@UVertexDistanceCount@?A0x449b062d@cloth@nv@@VNonTrackingAllocator@ps@34@@ps@cloth@nv@@KAXPEAUVertexDistanceCount@?A0x449b062d@34@0PEBU5634@@Z 000000018003eec0 f i ClothGeodesicTetherCooker.obj
 0001:0003def0       ?allocate@?$Array@UVertexDistanceCount@?A0x449b062d@cloth@nv@@VNonTrackingAllocator@ps@34@@ps@cloth@nv@@IEAAPEAUVertexDistanceCount@?A0x449b062d@34@I@Z 000000018003eef0 f i ClothGeodesicTetherCooker.obj
 0001:0003df40       ?popBack@?$Array@UVertexDistanceCount@?A0x449b062d@cloth@nv@@VNonTrackingAllocator@ps@34@@ps@cloth@nv@@QEAA?AUVertexDistanceCount@?A0x449b062d@34@XZ 000000018003ef40 f i ClothGeodesicTetherCooker.obj
 0001:0003df70       ?end@?$Array@UVertexDistanceCount@?A0x449b062d@cloth@nv@@VNonTrackingAllocator@ps@34@@ps@cloth@nv@@QEAAPEAUVertexDistanceCount@?A0x449b062d@34@XZ 000000018003ef70 f i ClothGeodesicTetherCooker.obj
 0001:0003df80       ?begin@?$Array@UVertexDistanceCount@?A0x449b062d@cloth@nv@@VNonTrackingAllocator@ps@34@@ps@cloth@nv@@QEAAPEAUVertexDistanceCount@?A0x449b062d@34@XZ 000000018003ef80 f i ClothGeodesicTetherCooker.obj
 0001:0003df90       ?create@?$Array@EVNonTrackingAllocator@ps@cloth@nv@@@ps@cloth@nv@@KAXPEAE0AEBE@Z 000000018003ef90 f i ClothGeodesicTetherCooker.obj
 0001:0003dfb0       ?reserve@?$Array@EVNonTrackingAllocator@ps@cloth@nv@@@ps@cloth@nv@@QEAAXI@Z 000000018003efb0 f i ClothGeodesicTetherCooker.obj
 0001:0003dfc0       ?grow@?$Array@EVNonTrackingAllocator@ps@cloth@nv@@@ps@cloth@nv@@IEAAXI@Z 000000018003efc0 f i ClothGeodesicTetherCooker.obj
 0001:0003dfd0       ?recreate@?$Array@EVNonTrackingAllocator@ps@cloth@nv@@@ps@cloth@nv@@IEAAXI@Z 000000018003efd0 f i ClothGeodesicTetherCooker.obj
 0001:0003e0d0       ??$swap@UVertexDistanceCount@?A0x449b062d@cloth@nv@@@ps@cloth@nv@@YAXAEAUVertexDistanceCount@?A0x449b062d@12@0@Z 000000018003f0d0 f i ClothGeodesicTetherCooker.obj
 0001:0003e0f0       ??$smallSort@UMeshEdge@?A0x449b062d@cloth@nv@@$$CBU?$Less@UMeshEdge@?A0x449b062d@cloth@nv@@@ps@34@@internal@ps@cloth@nv@@YAXPEAUMeshEdge@?A0x449b062d@23@HHAEBU?$Less@UMeshEdge@?A0x449b062d@cloth@nv@@@123@@Z 000000018003f0f0 f i ClothGeodesicTetherCooker.obj
 0001:0003e220       ??$partition@UMeshEdge@?A0x449b062d@cloth@nv@@$$CBU?$Less@UMeshEdge@?A0x449b062d@cloth@nv@@@ps@34@@internal@ps@cloth@nv@@YAHPEAUMeshEdge@?A0x449b062d@23@HHAEBU?$Less@UMeshEdge@?A0x449b062d@cloth@nv@@@123@@Z 000000018003f220 f i ClothGeodesicTetherCooker.obj
 0001:0003e350       ??$smallSort@UVertTriangle@?A0x449b062d@cloth@nv@@$$CBU?$Less@UVertTriangle@?A0x449b062d@cloth@nv@@@ps@34@@internal@ps@cloth@nv@@YAXPEAUVertTriangle@?A0x449b062d@23@HHAEBU?$Less@UVertTriangle@?A0x449b062d@cloth@nv@@@123@@Z 000000018003f350 f i ClothGeodesicTetherCooker.obj
 0001:0003e460       ??$partition@UVertTriangle@?A0x449b062d@cloth@nv@@$$CBU?$Less@UVertTriangle@?A0x449b062d@cloth@nv@@@ps@34@@internal@ps@cloth@nv@@YAHPEAUVertTriangle@?A0x449b062d@23@HHAEBU?$Less@UVertTriangle@?A0x449b062d@cloth@nv@@@123@@Z 000000018003f460 f i ClothGeodesicTetherCooker.obj
 0001:0003e530       ??R?$Less@UVertTriangle@?A0x449b062d@cloth@nv@@@ps@cloth@nv@@QEBA_NAEBUVertTriangle@?A0x449b062d@23@0@Z 000000018003f530 f i ClothGeodesicTetherCooker.obj
 0001:0003e550       ??R?$Less@UMeshEdge@?A0x449b062d@cloth@nv@@@ps@cloth@nv@@QEBA_NAEBUMeshEdge@?A0x449b062d@23@0@Z 000000018003f550 f i ClothGeodesicTetherCooker.obj
 0001:0003e570       ?copy@?$Array@EVNonTrackingAllocator@ps@cloth@nv@@@ps@cloth@nv@@KAXPEAE0PEBE@Z 000000018003f570 f i ClothGeodesicTetherCooker.obj
 0001:0003e590       ?allocate@?$Array@EVNonTrackingAllocator@ps@cloth@nv@@@ps@cloth@nv@@IEAAPEAEI@Z 000000018003f590 f i ClothGeodesicTetherCooker.obj
 0001:0003e5d0       ??$swap@UMeshEdge@?A0x449b062d@cloth@nv@@@ps@cloth@nv@@YAXAEAUMeshEdge@?A0x449b062d@12@0@Z 000000018003f5d0 f i ClothGeodesicTetherCooker.obj
 0001:0003e5f0       ??$median3@UMeshEdge@?A0x449b062d@cloth@nv@@$$CBU?$Less@UMeshEdge@?A0x449b062d@cloth@nv@@@ps@34@@internal@ps@cloth@nv@@YAXPEAUMeshEdge@?A0x449b062d@23@HHAEBU?$Less@UMeshEdge@?A0x449b062d@cloth@nv@@@123@@Z 000000018003f5f0 f i ClothGeodesicTetherCooker.obj
 0001:0003e720       ??$swap@UVertTriangle@?A0x449b062d@cloth@nv@@@ps@cloth@nv@@YAXAEAUVertTriangle@?A0x449b062d@12@0@Z 000000018003f720 f i ClothGeodesicTetherCooker.obj
 0001:0003e730       ??$median3@UVertTriangle@?A0x449b062d@cloth@nv@@$$CBU?$Less@UVertTriangle@?A0x449b062d@cloth@nv@@@ps@34@@internal@ps@cloth@nv@@YAXPEAUVertTriangle@?A0x449b062d@23@HHAEBU?$Less@UVertTriangle@?A0x449b062d@cloth@nv@@@123@@Z 000000018003f730 f i ClothGeodesicTetherCooker.obj
 0001:0003e800       ??0StridedData@cloth@nv@@QEAA@XZ 000000018003f800 f i ClothMeshQuadifier.obj
 0001:0003e810       ??0BoundedData@cloth@nv@@QEAA@XZ 000000018003f810 f i ClothMeshQuadifier.obj
 0001:0003e820       ??0ClothMeshDesc@cloth@nv@@QEAA@XZ 000000018003f820 f i ClothMeshQuadifier.obj
 0001:0003e860       ??1ClothMeshQuadifier@cloth@nv@@UEAA@XZ 000000018003f860 f i ClothMeshQuadifier.obj
 0001:0003e870       ??_GClothMeshQuadifier@cloth@nv@@UEAAPEAXI@Z 000000018003f870 f i ClothMeshQuadifier.obj
 0001:0003e870       ??_EClothMeshQuadifier@cloth@nv@@UEAAPEAXI@Z 000000018003f870 f i * CIL library *:* CIL module *
 0001:0003e8c0       ?degToRad@ps@cloth@nv@@YAMM@Z 000000018003f8c0 f i ClothMeshQuadifier.obj
 0001:0003e9c0       ??_H@YAXPEAX_K1P6APEAX0@Z@Z 000000018003f9c0 f i ClothMeshQuadifier.obj
 0001:0003e9f0       ??0ClothMeshQuadifierImpl@cloth@nv@@QEAA@XZ 000000018003f9f0 f i ClothMeshQuadifier.obj
 0001:0003ea60       ??_EClothMeshQuadifierImpl@cloth@nv@@UEAAPEAXI@Z 000000018003fa60 f i * CIL library *:* CIL module *
 0001:0003ea60       ??_GClothMeshQuadifierImpl@cloth@nv@@UEAAPEAXI@Z 000000018003fa60 f i ClothMeshQuadifier.obj
 0001:0003eac0       ??1ClothMeshQuadifierImpl@cloth@nv@@UEAA@XZ 000000018003fac0 f i ClothMeshQuadifier.obj
 0001:0003eb30       ??0ClothMeshQuadifier@cloth@nv@@QEAA@XZ 000000018003fb30 f i ClothMeshQuadifier.obj
 0001:0003eb40       ?reserve@?$Array@UUniqueEdge@?A0x26048da4@cloth@nv@@VNonTrackingAllocator@ps@34@@ps@cloth@nv@@QEAAXI@Z 000000018003fb40 f i ClothMeshQuadifier.obj
 0001:0003eb50       ?pushBack@?$Array@UUniqueEdge@?A0x26048da4@cloth@nv@@VNonTrackingAllocator@ps@34@@ps@cloth@nv@@QEAAAEAUUniqueEdge@?A0x26048da4@34@AEBU5634@@Z 000000018003fb50 f i ClothMeshQuadifier.obj
 0001:0003ebb0       ?size@?$Array@UUniqueEdge@?A0x26048da4@cloth@nv@@VNonTrackingAllocator@ps@34@@ps@cloth@nv@@QEBAIXZ 000000018003fbb0 f i ClothMeshQuadifier.obj
 0001:0003ebc0       ?begin@?$Array@UUniqueEdge@?A0x26048da4@cloth@nv@@VNonTrackingAllocator@ps@34@@ps@cloth@nv@@QEAAPEAUUniqueEdge@?A0x26048da4@34@XZ 000000018003fbc0 f i ClothMeshQuadifier.obj
 0001:0003ebd0       ??A?$Array@UUniqueEdge@?A0x26048da4@cloth@nv@@VNonTrackingAllocator@ps@34@@ps@cloth@nv@@QEAAAEAUUniqueEdge@?A0x26048da4@23@I@Z 000000018003fbd0 f i ClothMeshQuadifier.obj
 0001:0003ebe0       ??A?$Array@UUniqueEdge@?A0x26048da4@cloth@nv@@VNonTrackingAllocator@ps@34@@ps@cloth@nv@@QEBAAEBUUniqueEdge@?A0x26048da4@23@I@Z 000000018003fbe0 f i ClothMeshQuadifier.obj
 0001:0003ebf0       ??1?$Array@UUniqueEdge@?A0x26048da4@cloth@nv@@VNonTrackingAllocator@ps@34@@ps@cloth@nv@@QEAA@XZ 000000018003fbf0 f i ClothMeshQuadifier.obj
 0001:0003ec20       ??0?$Array@UUniqueEdge@?A0x26048da4@cloth@nv@@VNonTrackingAllocator@ps@34@@ps@cloth@nv@@QEAA@AEBVNonTrackingAllocator@123@@Z 000000018003fc20 f i ClothMeshQuadifier.obj
 0001:0003ec30       ?grow@?$Array@UUniqueEdge@?A0x26048da4@cloth@nv@@VNonTrackingAllocator@ps@34@@ps@cloth@nv@@IEAAXI@Z 000000018003fc30 f i ClothMeshQuadifier.obj
 0001:0003ec40       ?destroy@?$Array@UUniqueEdge@?A0x26048da4@cloth@nv@@VNonTrackingAllocator@ps@34@@ps@cloth@nv@@KAXPEAUUniqueEdge@?A0x26048da4@34@0@Z 000000018003fc40 f i ClothMeshQuadifier.obj
 0001:0003ec50       ?deallocate@?$Array@UUniqueEdge@?A0x26048da4@cloth@nv@@VNonTrackingAllocator@ps@34@@ps@cloth@nv@@IEAAXPEAX@Z 000000018003fc50 f i ClothMeshQuadifier.obj
 0001:0003ec70       ?isInUserMemory@?$Array@UUniqueEdge@?A0x26048da4@cloth@nv@@VNonTrackingAllocator@ps@34@@ps@cloth@nv@@QEBAIXZ 000000018003fc70 f i ClothMeshQuadifier.obj
 0001:0003ec80       ?capacity@?$Array@UUniqueEdge@?A0x26048da4@cloth@nv@@VNonTrackingAllocator@ps@34@@ps@cloth@nv@@QEBAIXZ 000000018003fc80 f i ClothMeshQuadifier.obj
 0001:0003ec90       ?resize@?$Array@UUniqueEdge@?A0x26048da4@cloth@nv@@VNonTrackingAllocator@ps@34@@ps@cloth@nv@@QEAAXIAEBUUniqueEdge@?A0x26048da4@34@@Z 000000018003fc90 f i ClothMeshQuadifier.obj
 0001:0003ed10       ?growAndPushBack@?$Array@UUniqueEdge@?A0x26048da4@cloth@nv@@VNonTrackingAllocator@ps@34@@ps@cloth@nv@@IEAAAEAUUniqueEdge@?A0x26048da4@34@AEBU5634@@Z 000000018003fd10 f i ClothMeshQuadifier.obj
 0001:0003ee20       ?recreate@?$Array@UUniqueEdge@?A0x26048da4@cloth@nv@@VNonTrackingAllocator@ps@34@@ps@cloth@nv@@IEAAXI@Z 000000018003fe20 f i ClothMeshQuadifier.obj
 0001:0003eee0       ??$sort@UUniqueEdge@?A0x26048da4@cloth@nv@@U1234@VNonTrackingAllocator@ps@34@@ps@cloth@nv@@YAXPEAUUniqueEdge@?A0x26048da4@12@IAEBU3412@AEBVNonTrackingAllocator@012@I@Z 000000018003fee0 f i ClothMeshQuadifier.obj
 0001:0003f0d0       ??$sort@IUSortHiddenEdges@?A0x26048da4@cloth@nv@@VNonTrackingAllocator@ps@34@@ps@cloth@nv@@YAXPEAIIAEBUSortHiddenEdges@?A0x26048da4@12@AEBVNonTrackingAllocator@012@I@Z 00000001800400d0 f i ClothMeshQuadifier.obj
 0001:0003f560       ?capacityIncrement@?$Array@UUniqueEdge@?A0x26048da4@cloth@nv@@VNonTrackingAllocator@ps@34@@ps@cloth@nv@@IEBAIXZ 0000000180040560 f i ClothMeshQuadifier.obj
 0001:0003f580       ?copy@?$Array@UUniqueEdge@?A0x26048da4@cloth@nv@@VNonTrackingAllocator@ps@34@@ps@cloth@nv@@KAXPEAUUniqueEdge@?A0x26048da4@34@0PEBU5634@@Z 0000000180040580 f i ClothMeshQuadifier.obj
 0001:0003f5b0       ?create@?$Array@UUniqueEdge@?A0x26048da4@cloth@nv@@VNonTrackingAllocator@ps@34@@ps@cloth@nv@@KAXPEAUUniqueEdge@?A0x26048da4@34@0AEBU5634@@Z 00000001800405b0 f i ClothMeshQuadifier.obj
 0001:0003f5e0       ?allocate@?$Array@UUniqueEdge@?A0x26048da4@cloth@nv@@VNonTrackingAllocator@ps@34@@ps@cloth@nv@@IEAAPEAUUniqueEdge@?A0x26048da4@34@I@Z 00000001800405e0 f i ClothMeshQuadifier.obj
 0001:0003f630       ??$smallSort@UUniqueEdge@?A0x26048da4@cloth@nv@@$$CBU1234@@internal@ps@cloth@nv@@YAXPEAUUniqueEdge@?A0x26048da4@23@HHAEBU4523@@Z 0000000180040630 f i ClothMeshQuadifier.obj
 0001:0003f750       ??$partition@UUniqueEdge@?A0x26048da4@cloth@nv@@$$CBU1234@@internal@ps@cloth@nv@@YAHPEAUUniqueEdge@?A0x26048da4@23@HHAEBU4523@@Z 0000000180040750 f i ClothMeshQuadifier.obj
 0001:0003f870       ??$smallSort@I$$CBUSortHiddenEdges@?A0x26048da4@cloth@nv@@@internal@ps@cloth@nv@@YAXPEAIHHAEBUSortHiddenEdges@?A0x26048da4@23@@Z 0000000180040870 f i ClothMeshQuadifier.obj
 0001:0003faf0       ??$partition@I$$CBUSortHiddenEdges@?A0x26048da4@cloth@nv@@@internal@ps@cloth@nv@@YAHPEAIHHAEBUSortHiddenEdges@?A0x26048da4@23@@Z 0000000180040af0 f i ClothMeshQuadifier.obj
 0001:0003fbd0       ??$swap@UUniqueEdge@?A0x26048da4@cloth@nv@@@ps@cloth@nv@@YAXAEAUUniqueEdge@?A0x26048da4@12@0@Z 0000000180040bd0 f i ClothMeshQuadifier.obj
 0001:0003fc00       ??$median3@UUniqueEdge@?A0x26048da4@cloth@nv@@$$CBU1234@@internal@ps@cloth@nv@@YAXPEAUUniqueEdge@?A0x26048da4@23@HHAEBU4523@@Z 0000000180040c00 f i ClothMeshQuadifier.obj
 0001:0003fd50       ??$median3@I$$CBUSortHiddenEdges@?A0x26048da4@cloth@nv@@@internal@ps@cloth@nv@@YAXPEAIHHAEBUSortHiddenEdges@?A0x26048da4@23@@Z 0000000180040d50 f i ClothMeshQuadifier.obj
 0001:0003fe40       ?getNbTethersPerParticle@ClothSimpleTetherCooker@cloth@nv@@UEBAIXZ 0000000180040e40 f i ClothSimpleTetherCooker.obj
 0001:0003fe50       ??0ClothSimpleTetherCooker@cloth@nv@@QEAA@XZ 0000000180040e50 f i ClothSimpleTetherCooker.obj
 0001:0003fe70       ??_EClothSimpleTetherCooker@cloth@nv@@UEAAPEAXI@Z 0000000180040e70 f i * CIL library *:* CIL module *
 0001:0003fe70       ??_GClothSimpleTetherCooker@cloth@nv@@UEAAPEAXI@Z 0000000180040e70 f i ClothSimpleTetherCooker.obj
 0001:0003ff20       ??1ClothSimpleTetherCooker@cloth@nv@@UEAA@XZ 0000000180040f20 f i ClothSimpleTetherCooker.obj
 0001:0003ff90       ?pushBack@?$Array@MVNonTrackingAllocator@ps@cloth@nv@@@ps@cloth@nv@@QEAAAEAMAEBM@Z 0000000180040f90 f i ClothSimpleTetherCooker.obj
 0001:0003ffd0       ?growAndPushBack@?$Array@MVNonTrackingAllocator@ps@cloth@nv@@@ps@cloth@nv@@IEAAAEAMAEBM@Z 0000000180040fd0 f i ClothSimpleTetherCooker.obj
 0001:000400a0       ?capacityIncrement@?$Array@MVNonTrackingAllocator@ps@cloth@nv@@@ps@cloth@nv@@IEBAIXZ 00000001800410a0 f i ClothSimpleTetherCooker.obj
 0001:000400b4       ??2@YAPEAX_K@Z             00000001800410b4 f   LIBCMT:new_scalar.obj
 0001:000400f0       ??3@YAXPEAX_K@Z            00000001800410f0 f   LIBCMT:delete_scalar_size.obj
 0001:000400f8       ??_U@YAPEAX_K@Z            00000001800410f8 f   LIBCMT:new_array.obj
 0001:00040100       ??_V@YAXPEAX@Z             0000000180041100 f   LIBCMT:delete_array.obj
 0001:00040108       ??_V@YAXPEAX_K@Z           0000000180041108 f   LIBCMT:delete_array_size.obj
 0001:00040110       ??3@YAXPEAX@Z              0000000180041110 f   LIBCMT:delete_scalar.obj
 0001:00040464       _CRT_INIT                  0000000180041464 f   LIBCMT:dll_dllmain.obj
 0001:0004046c       _DllMainCRTStartup         000000018004146c f   LIBCMT:dll_dllmain.obj
 0001:000404ac       ??0bad_alloc@std@@AEAA@QEBD@Z 00000001800414ac f i LIBCMT:throw_bad_alloc.obj
 0001:000404c4       ??0bad_alloc@std@@QEAA@AEBV01@@Z 00000001800414c4 f i LIBCMT:throw_bad_alloc.obj
 0001:00040504       ??0bad_alloc@std@@QEAA@XZ  0000000180041504 f i LIBCMT:throw_bad_alloc.obj
 0001:00040524       ??0bad_array_new_length@std@@QEAA@AEBV01@@Z 0000000180041524 f i LIBCMT:throw_bad_alloc.obj
 0001:00040564       ??0bad_array_new_length@std@@QEAA@XZ 0000000180041564 f i LIBCMT:throw_bad_alloc.obj
 0001:00040584       ??0exception@std@@QEAA@AEBV01@@Z 0000000180041584 f i LIBCMT:throw_bad_alloc.obj
 0001:000405bc       ??0exception@std@@QEAA@QEBDH@Z 00000001800415bc f i LIBCMT:throw_bad_alloc.obj
 0001:000405d4       ??1bad_alloc@std@@UEAA@XZ  00000001800415d4 f i LIBCMT:throw_bad_alloc.obj
 0001:000405e8       ??1bad_array_new_length@std@@UEAA@XZ 00000001800415e8 f i LIBCMT:throw_bad_alloc.obj
 0001:000405fc       ??1exception@std@@UEAA@XZ  00000001800415fc f i LIBCMT:throw_bad_alloc.obj
 0001:00040610       ??_Gbad_alloc@std@@UEAAPEAXI@Z 0000000180041610 f i LIBCMT:throw_bad_alloc.obj
 0001:00040610       ??_Ebad_alloc@std@@UEAAPEAXI@Z 0000000180041610 f i LIBCMT:throw_bad_alloc.obj
 0001:00040654       ??_Gbad_array_new_length@std@@UEAAPEAXI@Z 0000000180041654 f i LIBCMT:throw_bad_alloc.obj
 0001:00040654       ??_Ebad_array_new_length@std@@UEAAPEAXI@Z 0000000180041654 f i LIBCMT:throw_bad_alloc.obj
 0001:00040698       ??_Gexception@std@@UEAAPEAXI@Z 0000000180041698 f i LIBCMT:throw_bad_alloc.obj
 0001:00040698       ??_Eexception@std@@UEAAPEAXI@Z 0000000180041698 f i LIBCMT:throw_bad_alloc.obj
 0001:000406dc       ?__scrt_throw_std_bad_alloc@@YAXXZ 00000001800416dc f   LIBCMT:throw_bad_alloc.obj
 0001:000406fc       ?__scrt_throw_std_bad_array_new_length@@YAXXZ 00000001800416fc f   LIBCMT:throw_bad_alloc.obj
 0001:0004071c       ?what@exception@std@@UEBAPEBDXZ 000000018004171c f i LIBCMT:throw_bad_alloc.obj
 0001:00040730       ??$__crt_fast_decode_pointer@PEAP6AXXZ@@YAPEAP6AXXZQEAP6AXXZ@Z 0000000180041730 f i LIBCMT:utility.obj
 0001:00040748       ??$__crt_fast_encode_pointer@PEAP6AXXZ@@YAPEAP6AXXZQEAP6AXXZ@Z 0000000180041748 f i LIBCMT:utility.obj
 0001:00040768       ?__crt_rotate_pointer_value@@YA_K_KH@Z 0000000180041768 f i LIBCMT:utility.obj
 0001:00040774       ?configure_argv@__scrt_narrow_argv_policy@@SAHXZ 0000000180041774 f i LIBCMT:utility.obj
 0001:00040804       NtCurrentTeb               0000000180041804 f i LIBCMT:utility.obj
 0001:00040810       __scrt_acquire_startup_lock 0000000180041810 f   LIBCMT:utility.obj
 0001:0004084c       __scrt_dllmain_after_initialize_c 000000018004184c f   LIBCMT:utility.obj
 0001:00040880       __scrt_dllmain_before_initialize_c 0000000180041880 f   LIBCMT:utility.obj
 0001:00040898       __scrt_dllmain_crt_thread_attach 0000000180041898 f   LIBCMT:utility.obj
 0001:000408c0       __scrt_dllmain_crt_thread_detach 00000001800418c0 f   LIBCMT:utility.obj
 0001:000408d8       __scrt_dllmain_exception_filter 00000001800418d8 f   LIBCMT:utility.obj
 0001:0004093c       __scrt_dllmain_uninitialize_c 000000018004193c f   LIBCMT:utility.obj
 0001:0004096c       __scrt_dllmain_uninitialize_critical 000000018004196c f   LIBCMT:utility.obj
 0001:00040980       __scrt_initialize_crt      0000000180041980 f   LIBCMT:utility.obj
 0001:000409cc       __scrt_initialize_onexit_tables 00000001800419cc f   LIBCMT:utility.obj
 0001:00040a98       __scrt_is_nonwritable_in_current_image 0000000180041a98 f   LIBCMT:utility.obj
 0001:00040b34       __scrt_release_startup_lock 0000000180041b34 f   LIBCMT:utility.obj
 0001:00040b58       __scrt_uninitialize_crt    0000000180041b58 f   LIBCMT:utility.obj
 0001:00040b84       _onexit                    0000000180041b84 f   LIBCMT:utility.obj
 0001:00040bd4       at_quick_exit              0000000180041bd4 f   LIBCMT:utility.obj
 0001:00040c0c       atexit                     0000000180041c0c f   LIBCMT:utility.obj
 0001:00040c24       __security_init_cookie     0000000180041c24 f   LIBCMT:gs_support.obj
 0001:00040cd0       DllMain                    0000000180041cd0 f   LIBCMT:dll_dllmain_stub.obj
 0001:00040cd8       ?__scrt_initialize_type_info@@YAXXZ 0000000180041cd8 f   LIBCMT:tncleanup.obj
 0001:00040ce8       ?__scrt_uninitialize_type_info@@YAXXZ 0000000180041ce8 f   LIBCMT:tncleanup.obj
 0001:00040cf4       __local_stdio_scanf_options 0000000180041cf4 f i LIBCMT:default_local_stdio_options.obj
 0001:00040cfc       __scrt_initialize_default_local_stdio_options 0000000180041cfc f   LIBCMT:default_local_stdio_options.obj
 0001:00040d18       __scrt_get_dyn_tls_init_callback 0000000180041d18 f   LIBCMT:dyn_tls_init.obj
 0001:00040d20       __crt_debugger_hook        0000000180041d20 f   LIBCMT:utility_desktop.obj
 0001:00040d28       __scrt_fastfail            0000000180041d28 f   LIBCMT:utility_desktop.obj
 0001:00040e70       __scrt_get_show_window_mode 0000000180041e70 f   LIBCMT:utility_desktop.obj
 0001:00040eac       __scrt_initialize_winrt    0000000180041eac f   LIBCMT:utility_desktop.obj
 0001:00040eb0       __scrt_is_managed_app      0000000180041eb0 f   LIBCMT:utility_desktop.obj
 0001:00040f04       __scrt_set_unhandled_exception_filter 0000000180041f04 f   LIBCMT:utility_desktop.obj
 0001:00040f14       __scrt_unhandled_exception_filter 0000000180041f14 f   LIBCMT:utility_desktop.obj
 0001:00040f4c       _RTC_Initialize            0000000180041f4c f   LIBCMT:_initsect_.obj
 0001:00040f98       _RTC_Terminate             0000000180041f98 f   LIBCMT:_initsect_.obj
 0001:00040fe4       _guard_check_icall         0000000180041fe4 f i LIBCMT:checkcfg.obj
 0001:00040fec       ??1type_info@@UEAA@XZ      0000000180041fec f   LIBCMT:std_type_info_static.obj
 0001:00040ff8       ??_Gtype_info@@UEAAPEAXI@Z 0000000180041ff8 f i LIBCMT:std_type_info_static.obj
 0001:00040ff8       ??_Etype_info@@UEAAPEAXI@Z 0000000180041ff8 f i LIBCMT:std_type_info_static.obj
 0001:00041024       __isa_available_init       0000000180042024 f   LIBCMT:_cpu_disp_.obj
 0001:000411ec       _get_startup_argv_mode     00000001800421ec f   LIBCMT:argv_mode.obj
 0001:000411f4       __scrt_is_ucrt_dll_in_use  00000001800421f4 f   LIBCMT:ucrt_detection.obj
 0001:00041200       _guard_check_icall_nop     0000000180042200 f i LIBCMT:guard_support.obj
 0001:00041204       _guard_icall_checks_enforced 0000000180042204 f i LIBCMT:guard_support.obj
 0001:00041220       ??$__crt_fast_decode_pointer@P6AXXZ@@YAP6AXXZQ6AXXZ@Z 0000000180042220 f i libvcruntime:purevirt.obj
 0001:00041238       ??$__crt_fast_encode_pointer@P6AXXZ@@YAP6AXXZQ6AXXZ@Z 0000000180042238 f i libvcruntime:purevirt.obj
 0001:00041258       ??$__crt_interlocked_compare_exchange_pointer@$$A6AXXZ$$T$$T@@YAP6AXXZPEDS6AXXZ$$T1@Z 0000000180042258 f i libvcruntime:purevirt.obj
 0001:00041264       ??$__crt_interlocked_exchange_pointer@$$A6AXXZP6AXXZ@@YAP6AXXZPEDS6AXXZQ6AXXZ@Z 0000000180042264 f i libvcruntime:purevirt.obj
 0001:0004126c       ??$__crt_interlocked_read_pointer@$$A6AXXZ@@YAP6AXXZPEDS6AXXZ@Z 000000018004226c f i libvcruntime:purevirt.obj
 0001:00041278       _get_purecall_handler      0000000180042278 f   libvcruntime:purevirt.obj
 0001:00041298       _purecall                  0000000180042298 f   libvcruntime:purevirt.obj
 0001:000412d4       _set_purecall_handler      00000001800422d4 f   libvcruntime:purevirt.obj
 0001:0004130c       __C_specific_handler       000000018004230c f   libvcruntime:_chandler_.obj
 0001:00041508       ??$?RD@__crt_public_free_policy@@QEBAXQEBD@Z 0000000180042508 f i libvcruntime:std_exception.obj
 0001:00041510       ??0?$__crt_unique_heap_ptr@DU__crt_public_free_policy@@@@QEAA@QEAD@Z 0000000180042510 f i libvcruntime:std_exception.obj
 0001:00041518       ??1?$__crt_unique_heap_ptr@DU__crt_public_free_policy@@@@QEAA@XZ 0000000180042518 f i libvcruntime:std_exception.obj
 0001:00041534       ??B?$__crt_unique_heap_ptr@DU__crt_public_free_policy@@@@QEBA_NXZ 0000000180042534 f i libvcruntime:std_exception.obj
 0001:0004153c       ?detach@?$__crt_unique_heap_ptr@DU__crt_public_free_policy@@@@QEAAPEADXZ 000000018004253c f i libvcruntime:std_exception.obj
 0001:00041544       ?get@?$__crt_unique_heap_ptr@DU__crt_public_free_policy@@@@QEBAPEADXZ 0000000180042544 f i libvcruntime:std_exception.obj
 0001:00041548       ?is_valid@?$__crt_unique_heap_ptr@DU__crt_public_free_policy@@@@QEBA_NXZ 0000000180042548 f i libvcruntime:std_exception.obj
 0001:00041550       ?release@?$__crt_unique_heap_ptr@DU__crt_public_free_policy@@@@QEAAXXZ 0000000180042550 f i libvcruntime:std_exception.obj
 0001:0004156c       __std_exception_copy       000000018004256c f   libvcruntime:std_exception.obj
 0001:000415fc       __std_exception_destroy    00000001800425fc f   libvcruntime:std_exception.obj
 0001:00041624       _CxxThrowException         0000000180042624 f   libvcruntime:throw.obj
 0001:000416fc       __vcrt_initialize          00000001800426fc f   libvcruntime:initialization.obj
 0001:00041730       __vcrt_thread_attach       0000000180042730 f   libvcruntime:initialization.obj
 0001:00041744       __vcrt_thread_detach       0000000180042744 f   libvcruntime:initialization.obj
 0001:00041758       __vcrt_uninitialize        0000000180042758 f   libvcruntime:initialization.obj
 0001:00041778       __vcrt_uninitialize_critical 0000000180042778 f   libvcruntime:initialization.obj
 0001:0004179c       ??$?RD@__crt_internal_free_policy@@QEBAXQEBD@Z 000000018004279c f i libvcruntime:std_type_info.obj
 0001:000417a4       ??$?RX@__crt_internal_free_policy@@QEBAXQEBX@Z 00000001800427a4 f i libvcruntime:std_type_info.obj
 0001:000417ac       ??$__crt_interlocked_compare_exchange_pointer@$$CBD$$T$$T@@YAPEBDPEDSEBD$$T1@Z 00000001800427ac f i libvcruntime:std_type_info.obj
 0001:000417b8       ??$__crt_interlocked_compare_exchange_pointer@$$CBDPEAD$$T@@YAPEBDPEDSEBDQEAD$$T@Z 00000001800427b8 f i libvcruntime:std_type_info.obj
 0001:000417c4       ??$__crt_interlocked_read_pointer@$$CBD@@YAPEBDPEDSEBD@Z 00000001800427c4 f i libvcruntime:std_type_info.obj
 0001:000417d0       ??0?$__crt_unique_heap_ptr@DU__crt_internal_free_policy@@@@QEAA@QEAD@Z 00000001800427d0 f i libvcruntime:std_type_info.obj
 0001:000417d8       ??0?$__crt_unique_heap_ptr@XU__crt_internal_free_policy@@@@QEAA@QEAX@Z 00000001800427d8 f i libvcruntime:std_type_info.obj
 0001:000417e0       ??1?$__crt_unique_heap_ptr@DU__crt_internal_free_policy@@@@QEAA@XZ 00000001800427e0 f i libvcruntime:std_type_info.obj
 0001:000417fc       ??1?$__crt_unique_heap_ptr@XU__crt_internal_free_policy@@@@QEAA@XZ 00000001800427fc f i libvcruntime:std_type_info.obj
 0001:00041828       ??B?$__crt_unique_heap_ptr@DU__crt_internal_free_policy@@@@QEBA_NXZ 0000000180042828 f i libvcruntime:std_type_info.obj
 0001:00041830       ??B?$__crt_unique_heap_ptr@XU__crt_internal_free_policy@@@@QEBA_NXZ 0000000180042830 f i libvcruntime:std_type_info.obj
 0001:00041848       ?detach@?$__crt_unique_heap_ptr@XU__crt_internal_free_policy@@@@QEAAPEAXXZ 0000000180042848 f i libvcruntime:std_type_info.obj
 0001:00041850       ?get@?$__crt_unique_heap_ptr@DU__crt_internal_free_policy@@@@QEBAPEADXZ 0000000180042850 f i libvcruntime:std_type_info.obj
 0001:00041854       ?get@?$__crt_unique_heap_ptr@XU__crt_internal_free_policy@@@@QEBAPEAXXZ 0000000180042854 f i libvcruntime:std_type_info.obj
 0001:00041858       ?is_valid@?$__crt_unique_heap_ptr@DU__crt_internal_free_policy@@@@QEBA_NXZ 0000000180042858 f i libvcruntime:std_type_info.obj
 0001:00041860       ?is_valid@?$__crt_unique_heap_ptr@XU__crt_internal_free_policy@@@@QEBA_NXZ 0000000180042860 f i libvcruntime:std_type_info.obj
 0001:00041868       ?release@?$__crt_unique_heap_ptr@DU__crt_internal_free_policy@@@@QEAAXXZ 0000000180042868 f i libvcruntime:std_type_info.obj
 0001:00041884       ?release@?$__crt_unique_heap_ptr@XU__crt_internal_free_policy@@@@QEAAXXZ 0000000180042884 f i libvcruntime:std_type_info.obj
 0001:000418a0       __std_type_info_compare    00000001800428a0 f   libvcruntime:std_type_info.obj
 0001:000418c8       __std_type_info_destroy_list 00000001800428c8 f   libvcruntime:std_type_info.obj
 0001:000418f4       __std_type_info_hash       00000001800428f4 f   libvcruntime:std_type_info.obj
 0001:00041930       __std_type_info_name       0000000180042930 f   libvcruntime:std_type_info.obj
 0001:00041a60       memset                     0000000180042a60 f   libvcruntime:memset.obj
 0001:00041c00       ??$?B$$A6AXXZ@__crt_fast_encoded_nullptr_t@@QEBAP6AXXZXZ 0000000180042c00 f i libvcruntime:purevirt_data.obj
 0001:00041c1c       ?__crt_fast_encode_pointer@@YA?AU__crt_fast_encoded_nullptr_t@@$$T@Z 0000000180042c1c f i libvcruntime:purevirt_data.obj
 0001:00041c24       __vcrt_initialize_pure_virtual_call_handler 0000000180042c24 f   libvcruntime:purevirt_data.obj
 0001:00041c60       _local_unwind              0000000180042c60 f   libvcruntime:_jmpuwind_.obj
 0001:00041c90       _NLG_Notify                0000000180042c90 f   libvcruntime:_jmpuwind_.obj
 0001:00041cb0       __NLG_Dispatch2            0000000180042cb0 f   libvcruntime:_jmpuwind_.obj
 0001:00041cc0       __NLG_Return2              0000000180042cc0 f   libvcruntime:_jmpuwind_.obj
 0001:00041cc4       __except_validate_context_record 0000000180042cc4 f   libvcruntime:jbcxrval.obj
 0001:00041cc8       __except_validate_jump_buffer 0000000180042cc8 f   libvcruntime:jbcxrval.obj
 0001:00041ccc       ??$?RU__vcrt_ptd@@@__crt_internal_free_policy@@QEBAXQEBU__vcrt_ptd@@@Z 0000000180042ccc f i libvcruntime:per_thread_data.obj
 0001:00041cd4       ??0?$__crt_unique_heap_ptr@U__vcrt_ptd@@U__crt_internal_free_policy@@@@QEAA@QEAU__vcrt_ptd@@@Z 0000000180042cd4 f i libvcruntime:per_thread_data.obj
 0001:00041cf8       ??1?$__crt_unique_heap_ptr@U__vcrt_ptd@@U__crt_internal_free_policy@@@@QEAA@XZ 0000000180042cf8 f i libvcruntime:per_thread_data.obj
 0001:00041d20       ??B?$__crt_unique_heap_ptr@U__vcrt_ptd@@U__crt_internal_free_policy@@@@QEBA_NXZ 0000000180042d20 f i libvcruntime:per_thread_data.obj
 0001:00041d28       ?detach@?$__crt_unique_heap_ptr@U__vcrt_ptd@@U__crt_internal_free_policy@@@@QEAAPEAU__vcrt_ptd@@XZ 0000000180042d28 f i libvcruntime:per_thread_data.obj
 0001:00041d30       ?get@?$__crt_unique_heap_ptr@U__vcrt_ptd@@U__crt_internal_free_policy@@@@QEBAPEAU__vcrt_ptd@@XZ 0000000180042d30 f i libvcruntime:per_thread_data.obj
 0001:00041d34       ?is_valid@?$__crt_unique_heap_ptr@U__vcrt_ptd@@U__crt_internal_free_policy@@@@QEBA_NXZ 0000000180042d34 f i libvcruntime:per_thread_data.obj
 0001:00041d3c       ?release@?$__crt_unique_heap_ptr@U__vcrt_ptd@@U__crt_internal_free_policy@@@@QEAAXXZ 0000000180042d3c f i libvcruntime:per_thread_data.obj
 0001:00041d74       __vcrt_freefls             0000000180042d74 f   libvcruntime:per_thread_data.obj
 0001:00041d94       __vcrt_freeptd             0000000180042d94 f   libvcruntime:per_thread_data.obj
 0001:00041de4       __vcrt_getptd              0000000180042de4 f   libvcruntime:per_thread_data.obj
 0001:00041e00       __vcrt_getptd_noexit       0000000180042e00 f   libvcruntime:per_thread_data.obj
 0001:00041eb8       __vcrt_initialize_ptd      0000000180042eb8 f   libvcruntime:per_thread_data.obj
 0001:00041ef8       __vcrt_uninitialize_ptd    0000000180042ef8 f   libvcruntime:per_thread_data.obj
 0001:00041f1c       __vcrt_initialize_locks    0000000180042f1c f   libvcruntime:locks.obj
 0001:00041f64       __vcrt_lock                0000000180042f64 f   libvcruntime:locks.obj
 0001:00041f80       __vcrt_uninitialize_locks  0000000180042f80 f   libvcruntime:locks.obj
 0001:00041fb8       __vcrt_unlock              0000000180042fb8 f   libvcruntime:locks.obj
 0001:00041fd4       ??$?BX@__crt_fast_encoded_nullptr_t@@QEBAPEAXXZ 0000000180042fd4 f i libvcruntime:winapi_downlevel.obj
 0001:00041ff0       ??$__crt_fast_decode_pointer@PEAX@@YAPEAXQEAX@Z 0000000180042ff0 f i libvcruntime:winapi_downlevel.obj
 0001:00042008       ??$__crt_fast_encode_pointer@PEAX@@YAPEAXQEAX@Z 0000000180043008 f i libvcruntime:winapi_downlevel.obj
 0001:00042028       ??$__crt_interlocked_compare_exchange_pointer@UHINSTANCE__@@$$T$$T@@YAPEAUHINSTANCE__@@PEDSEAU0@$$T1@Z 0000000180043028 f i libvcruntime:winapi_downlevel.obj
 0001:00042034       ??$__crt_interlocked_compare_exchange_pointer@X$$T$$T@@YAPEAXPEDSEAX$$T1@Z 0000000180043034 f i libvcruntime:winapi_downlevel.obj
 0001:00042040       ??$__crt_interlocked_exchange_pointer@UHINSTANCE__@@PEAU1@@@YAPEAUHINSTANCE__@@PEDSEAU0@QEAU0@@Z 0000000180043040 f i libvcruntime:winapi_downlevel.obj
 0001:00042048       ??$__crt_interlocked_exchange_pointer@UHINSTANCE__@@PEAX@@YAPEAUHINSTANCE__@@PEDSEAU0@QEAX@Z 0000000180043048 f i libvcruntime:winapi_downlevel.obj
 0001:00042050       ??$__crt_interlocked_exchange_pointer@XPEAX@@YAPEAXPEDSEAXQEAX@Z 0000000180043050 f i libvcruntime:winapi_downlevel.obj
 0001:00042058       ??$__crt_interlocked_read_pointer@UHINSTANCE__@@@@YAPEAUHINSTANCE__@@PEDSEAU0@@Z 0000000180043058 f i libvcruntime:winapi_downlevel.obj
 0001:00042064       ??$__crt_interlocked_read_pointer@X@@YAPEAXPEDSEAX@Z 0000000180043064 f i libvcruntime:winapi_downlevel.obj
 0001:00042670       __vcrt_EventRegister       0000000180043670 f   libvcruntime:winapi_downlevel.obj
 0001:000426f4       __vcrt_EventSetInformation 00000001800436f4 f   libvcruntime:winapi_downlevel.obj
 0001:00042778       __vcrt_EventUnregister     0000000180043778 f   libvcruntime:winapi_downlevel.obj
 0001:000427cc       __vcrt_EventWriteTransfer  00000001800437cc f   libvcruntime:winapi_downlevel.obj
 0001:00042864       __vcrt_FlsAlloc            0000000180043864 f   libvcruntime:winapi_downlevel.obj
 0001:000428b8       __vcrt_FlsFree             00000001800438b8 f   libvcruntime:winapi_downlevel.obj
 0001:0004290c       __vcrt_FlsGetValue         000000018004390c f   libvcruntime:winapi_downlevel.obj
 0001:00042960       __vcrt_FlsSetValue         0000000180043960 f   libvcruntime:winapi_downlevel.obj
 0001:000429c8       __vcrt_InitializeCriticalSectionEx 00000001800439c8 f   libvcruntime:winapi_downlevel.obj
 0001:00042a40       __vcrt_initialize_winapi_thunks 0000000180043a40 f   libvcruntime:winapi_downlevel.obj
 0001:00042a8c       __vcrt_uninitialize_winapi_thunks 0000000180043a8c f   libvcruntime:winapi_downlevel.obj
 0001:00042acc       ??$__vcrt_va_start_verify_argument_type@QEBD@@YAXXZ 0000000180043acc f i libvcruntime:undname.obj
 0001:00042ad0       ??0Block@_HeapManager@@QEAA@XZ 0000000180043ad0 f i libvcruntime:undname.obj
 0001:00042ad8       ??0DName@@QEAA@AEAPEBDD@Z  0000000180043ad8 f   libvcruntime:undname.obj
 0001:00042bb8       ??0DName@@QEAA@AEBV0@@Z    0000000180043bb8 f i libvcruntime:undname.obj
 0001:00042bc4       ??0DName@@QEAA@D@Z         0000000180043bc4 f   libvcruntime:undname.obj
 0001:00042bfc       ??0DName@@QEAA@PEAV0@@Z    0000000180043bfc f   libvcruntime:undname.obj
 0001:00042c84       ??0DName@@QEAA@PEBD@Z      0000000180043c84 f   libvcruntime:undname.obj
 0001:00042ccc       ??0DName@@QEAA@W4DNameStatus@@@Z 0000000180043ccc f   libvcruntime:undname.obj
 0001:00042d1c       ??0DName@@QEAA@XZ          0000000180043d1c f i libvcruntime:undname.obj
 0001:00042d30       ??0DName@@QEAA@_J@Z        0000000180043d30 f   libvcruntime:undname.obj
 0001:00042ddc       ??0DName@@QEAA@_K@Z        0000000180043ddc f   libvcruntime:undname.obj
 0001:00042e6c       ??0DNameNode@@IEAA@XZ      0000000180043e6c f   libvcruntime:undname.obj
 0001:00042e7c       ??0DNameStatusNode@@AEAA@W4DNameStatus@@@Z 0000000180043e7c f   libvcruntime:undname.obj
 0001:00042ea0       ??0Replicator@@QEAA@XZ     0000000180043ea0 f i libvcruntime:undname.obj
 0001:00042ea8       ??0UnDecorator@@QEAA@PEADPEBDHP6APEADJ@ZK@Z 0000000180043ea8 f i libvcruntime:undname.obj
 0001:00042f1c       ??0charNode@@QEAA@D@Z      0000000180043f1c f   libvcruntime:undname.obj
 0001:00042f30       ??0pDNameNode@@QEAA@PEAVDName@@@Z 0000000180043f30 f   libvcruntime:undname.obj
 0001:00042f58       ??0pairNode@@QEAA@PEAVDNameNode@@0@Z 0000000180043f58 f   libvcruntime:undname.obj
 0001:00042f74       ??0pcharNode@@QEAA@PEBDH@Z 0000000180043f74 f   libvcruntime:undname.obj
 0001:00042ffc       ??2@YAPEAX_KAEAV_HeapManager@@H@Z 0000000180043ffc f i libvcruntime:undname.obj
 0001:0004300c       ??4DName@@QEAAAEAV0@AEBV0@@Z 000000018004400c f   libvcruntime:undname.obj
 0001:00043018       ??4DName@@QEAAAEAV0@D@Z    0000000180044018 f i libvcruntime:undname.obj
 0001:00043050       ??4DName@@QEAAAEAV0@PEAV0@@Z 0000000180044050 f   libvcruntime:undname.obj
 0001:000430d8       ??4DName@@QEAAAEAV0@PEBD@Z 00000001800440d8 f   libvcruntime:undname.obj
 0001:00043118       ??4DName@@QEAAAEAV0@W4DNameStatus@@@Z 0000000180044118 f   libvcruntime:undname.obj
 0001:00043154       ??AReplicator@@QEBA?AVDName@@H@Z 0000000180044154 f   libvcruntime:undname.obj
 0001:0004319c       ??BUnDecorator@@QEAAPEADXZ 000000018004419c f i libvcruntime:undname.obj
 0001:000433ac       ??H@YA?AVDName@@DAEBV0@@Z  00000001800443ac f i libvcruntime:undname.obj
 0001:000433e8       ??H@YA?AVDName@@PEBDAEBV0@@Z 00000001800443e8 f i libvcruntime:undname.obj
 0001:00043424       ??H@YA?AVDName@@W4DNameStatus@@AEBV0@@Z 0000000180044424 f i libvcruntime:undname.obj
 0001:00043460       ??HDName@@QEBA?AV0@AEBV0@@Z 0000000180044460 f   libvcruntime:undname.obj
 0001:00043484       ??HDName@@QEBA?AV0@D@Z     0000000180044484 f   libvcruntime:undname.obj
 0001:000434a8       ??HDName@@QEBA?AV0@PEAV0@@Z 00000001800444a8 f   libvcruntime:undname.obj
 0001:000434cc       ??HDName@@QEBA?AV0@PEBD@Z  00000001800444cc f   libvcruntime:undname.obj
 0001:000434f0       ??HDName@@QEBA?AV0@W4DNameStatus@@@Z 00000001800444f0 f   libvcruntime:undname.obj
 0001:00043514       ??YDName@@QEAAAEAV0@AEBV0@@Z 0000000180044514 f   libvcruntime:undname.obj
 0001:00043554       ??YDName@@QEAAAEAV0@D@Z    0000000180044554 f   libvcruntime:undname.obj
 0001:000435d8       ??YDName@@QEAAAEAV0@PEAV0@@Z 00000001800445d8 f   libvcruntime:undname.obj
 0001:00043670       ??YDName@@QEAAAEAV0@PEBD@Z 0000000180044670 f   libvcruntime:undname.obj
 0001:000436fc       ??YDName@@QEAAAEAV0@W4DNameStatus@@@Z 00000001800446fc f   libvcruntime:undname.obj
 0001:00043740       ??YReplicator@@QEAAAEAV0@AEBVDName@@@Z 0000000180044740 f   libvcruntime:undname.obj
 0001:000437a0       ??_5DName@@QEAAAEAV0@AEBV0@@Z 00000001800447a0 f   libvcruntime:undname.obj
 0001:000437b4       ?Constructor@_HeapManager@@QEAAXP6APEAX_K@ZP6AXPEAX@Z@Z 00000001800447b4 f i libvcruntime:undname.obj
 0001:000437cc       ?Destructor@_HeapManager@@QEAAXXZ 00000001800447cc f i libvcruntime:undname.obj
 0001:00043820       ?UScore@UnDecorator@@SAPEBDW4Tokens@@@Z 0000000180044820 f   libvcruntime:undname.obj
 0001:00043840       ?append@DName@@AEAAXPEAVDNameNode@@@Z 0000000180044840 f   libvcruntime:undname.obj
 0001:000438a4       ?composeDeclaration@UnDecorator@@CA?AVDName@@AEBV2@@Z 00000001800448a4 f i libvcruntime:undname.obj
 0001:00044740       ?doAccessSpecifiers@UnDecorator@@SAHXZ 0000000180045740 f i libvcruntime:undname.obj
 0001:00044750       ?doAllocationLanguage@UnDecorator@@SAHXZ 0000000180045750 f i libvcruntime:undname.obj
 0001:00044760       ?doAllocationModel@UnDecorator@@SAHXZ 0000000180045760 f i libvcruntime:undname.obj
 0001:00044770       ?doEcsu@UnDecorator@@SAHXZ 0000000180045770 f i libvcruntime:undname.obj
 0001:00044780       ?doEllipsis@UnDecorator@@SAHXZ 0000000180045780 f i libvcruntime:undname.obj
 0001:00044790       ?doFunctionReturns@UnDecorator@@SAHXZ 0000000180045790 f i libvcruntime:undname.obj
 0001:000447a0       ?doMSKeywords@UnDecorator@@SAHXZ 00000001800457a0 f i libvcruntime:undname.obj
 0001:000447b0       ?doMemberTypes@UnDecorator@@SAHXZ 00000001800457b0 f i libvcruntime:undname.obj
 0001:000447c0       ?doNameOnly@UnDecorator@@SAHXZ 00000001800457c0 f i libvcruntime:undname.obj
 0001:000447cc       ?doNoIdentCharCheck@UnDecorator@@SAHXZ 00000001800457cc f i libvcruntime:undname.obj
 0001:000447d8       ?doPchar@DName@@AEAAXPEBDH@Z 00000001800457d8 f   libvcruntime:undname.obj
 0001:00044884       ?doPtr64@UnDecorator@@SAHXZ 0000000180045884 f i libvcruntime:undname.obj
 0001:00044894       ?doRestrictionSpec@UnDecorator@@SAHXZ 0000000180045894 f i libvcruntime:undname.obj
 0001:000448a4       ?doThisTypes@UnDecorator@@SAHXZ 00000001800458a4 f i libvcruntime:undname.obj
 0001:000448b8       ?doThrowTypes@UnDecorator@@SAHXZ 00000001800458b8 f i libvcruntime:undname.obj
 0001:000448c8       ?doTypeOnly@UnDecorator@@SAHXZ 00000001800458c8 f i libvcruntime:undname.obj
 0001:000448d4       ?doUnderScore@UnDecorator@@SAHXZ 00000001800458d4 f i libvcruntime:undname.obj
 0001:000448e0       ?getArgumentList@UnDecorator@@CA?AVDName@@XZ 00000001800458e0 f   libvcruntime:undname.obj
 0001:00044a24       ?getArgumentTypes@UnDecorator@@CA?AVDName@@XZ 0000000180045a24 f   libvcruntime:undname.obj
 0001:00044b20       ?getArrayType@UnDecorator@@CA?AVDName@@AEBV2@@Z 0000000180045b20 f i libvcruntime:undname.obj
 0001:00044d5c       ?getBasedType@UnDecorator@@CA?AVDName@@XZ 0000000180045d5c f   libvcruntime:undname.obj
 0001:00044e1c       ?getBasicDataType@UnDecorator@@CA?AVDName@@AEBV2@@Z 0000000180045e1c f   libvcruntime:undname.obj
 0001:00045260       ?getCallIndex@UnDecorator@@CA?AVDName@@XZ 0000000180046260 f i libvcruntime:undname.obj
 0001:0004527c       ?getCallingConvention@UnDecorator@@CA?AVDName@@XZ 000000018004627c f   libvcruntime:undname.obj
 0001:0004537c       ?getDataIndirectType@UnDecorator@@CA?AVDName@@AEBV2@PEBD0H@Z 000000018004637c f   libvcruntime:undname.obj
 0001:00045ab4       ?getDataIndirectType@UnDecorator@@CA?AVDName@@XZ 0000000180046ab4 f i libvcruntime:undname.obj
 0001:00045afc       ?getDataType@UnDecorator@@CA?AVDName@@PEAV2@@Z 0000000180046afc f   libvcruntime:undname.obj
 0001:00045be0       ?getDecoratedName@UnDecorator@@CA?AVDName@@XZ 0000000180046be0 f   libvcruntime:undname.obj
 0001:00045e54       ?getDimension@UnDecorator@@CA?AVDName@@_N@Z 0000000180046e54 f   libvcruntime:undname.obj
 0001:00045fb0       ?getDispatchTarget@UnDecorator@@CA?AVDName@@XZ 0000000180046fb0 f   libvcruntime:undname.obj
 0001:00046014       ?getDisplacement@UnDecorator@@CA?AVDName@@XZ 0000000180047014 f i libvcruntime:undname.obj
 0001:00046030       ?getECSUDataType@UnDecorator@@CA?AVDName@@XZ 0000000180047030 f   libvcruntime:undname.obj
 0001:00046194       ?getECSUName@UnDecorator@@CA?AVDName@@XZ 0000000180047194 f i libvcruntime:undname.obj
 0001:000461ac       ?getEnumType@UnDecorator@@CA?AVDName@@XZ 00000001800471ac f i libvcruntime:undname.obj
 0001:00046294       ?getExtendedDataIndirectType@UnDecorator@@CA?AVDName@@AEAPEBDAEA_NH@Z 0000000180047294 f   libvcruntime:undname.obj
 0001:000464d8       ?getExternalDataType@UnDecorator@@CA?AVDName@@AEBV2@@Z 00000001800474d8 f i libvcruntime:undname.obj
 0001:000465ac       ?getFunctionIndirectType@UnDecorator@@CA?AVDName@@AEBV2@@Z 00000001800475ac f   libvcruntime:undname.obj
 0001:00046acc       ?getGuardNumber@UnDecorator@@CA?AVDName@@XZ 0000000180047acc f i libvcruntime:undname.obj
 0001:00046ae8       ?getLastChar@DName@@QEBADXZ 0000000180047ae8 f i libvcruntime:undname.obj
 0001:00046b20       ?getLastChar@DNameStatusNode@@UEBADXZ 0000000180047b20 f i libvcruntime:undname.obj
 0001:00046b2c       ?getLastChar@charNode@@UEBADXZ 0000000180047b2c f i libvcruntime:undname.obj
 0001:00046b30       ?getLastChar@pDNameNode@@UEBADXZ 0000000180047b30 f i libvcruntime:undname.obj
 0001:00046b6c       ?getLastChar@pairNode@@UEBADXZ 0000000180047b6c f i libvcruntime:undname.obj
 0001:00046bc4       ?getLastChar@pcharNode@@UEBADXZ 0000000180047bc4 f i libvcruntime:undname.obj
 0001:00046bdc       ?getLexicalFrame@UnDecorator@@CA?AVDName@@XZ 0000000180047bdc f i libvcruntime:undname.obj
 0001:00046c3c       ?getMemory@_HeapManager@@QEAAPEAX_KH@Z 0000000180047c3c f   libvcruntime:undname.obj
 0001:00046cf8       ?getNumberOfDimensions@UnDecorator@@CAHXZ 0000000180047cf8 f   libvcruntime:undname.obj
 0001:00046d6c       ?getOperatorName@UnDecorator@@CA?AVDName@@_NPEA_N@Z 0000000180047d6c f i libvcruntime:undname.obj
 0001:000474c0       ?getPointerType@UnDecorator@@CA?AVDName@@AEBV2@0@Z 00000001800484c0 f i libvcruntime:undname.obj
 0001:000474e0       ?getPointerTypeArray@UnDecorator@@CA?AVDName@@AEBV2@0@Z 00000001800484e0 f i libvcruntime:undname.obj
 0001:00047500       ?getPrimaryDataType@UnDecorator@@CA?AVDName@@AEBV2@@Z 0000000180048500 f   libvcruntime:undname.obj
 0001:00047760       ?getPtrRefDataType@UnDecorator@@CA?AVDName@@AEBV2@H@Z 0000000180048760 f   libvcruntime:undname.obj
 0001:00047888       ?getPtrRefType@UnDecorator@@CA?AVDName@@AEBV2@0PEBD@Z 0000000180048888 f   libvcruntime:undname.obj
 0001:000479bc       ?getReferenceType@UnDecorator@@CA?AVDName@@AEBV2@0PEBD@Z 00000001800489bc f i libvcruntime:undname.obj
 0001:000479d4       ?getRestrictionSpec@UnDecorator@@CA?AVDName@@XZ 00000001800489d4 f   libvcruntime:undname.obj
 0001:00047b00       ?getReturnType@UnDecorator@@CA?AVDName@@PEAV2@@Z 0000000180048b00 f   libvcruntime:undname.obj
 0001:00047b34       ?getScope@UnDecorator@@CA?AVDName@@XZ 0000000180048b34 f   libvcruntime:undname.obj
 0001:00047fe0       ?getScopedName@UnDecorator@@CA?AVDName@@XZ 0000000180048fe0 f   libvcruntime:undname.obj
 0001:000480f8       ?getSignedDimension@UnDecorator@@CA?AVDName@@XZ 00000001800490f8 f   libvcruntime:undname.obj
 0001:00048174       ?getStorageConvention@UnDecorator@@CA?AVDName@@XZ 0000000180049174 f i libvcruntime:undname.obj
 0001:000481bc       ?getString@DName@@QEBAPEADPEAD0@Z 00000001800491bc f i libvcruntime:undname.obj
 0001:00048214       ?getString@DName@@QEBAPEADPEADH@Z 0000000180049214 f i libvcruntime:undname.obj
 0001:000482c4       ?getString@DNameStatusNode@@UEBAPEADPEAD0@Z 00000001800492c4 f i libvcruntime:undname.obj
 0001:00048308       ?getString@charNode@@UEBAPEADPEAD0@Z 0000000180049308 f i libvcruntime:undname.obj
 0001:0004831c       ?getString@pDNameNode@@UEBAPEADPEAD0@Z 000000018004931c f i libvcruntime:undname.obj
 0001:0004837c       ?getString@pairNode@@UEBAPEADPEAD0@Z 000000018004937c f i libvcruntime:undname.obj
 0001:00048400       ?getString@pcharNode@@UEBAPEADPEAD0@Z 0000000180049400 f i libvcruntime:undname.obj
 0001:00048438       ?getStringEncoding@UnDecorator@@CA?AVDName@@PEADH@Z 0000000180049438 f   libvcruntime:undname.obj
 0001:000484f8       ?getStringHelper@@YAPEADPEAD00H@Z 00000001800494f8 f i libvcruntime:undname.obj
 0001:00048528       ?getSymbolName@UnDecorator@@CA?AVDName@@XZ 0000000180049528 f i libvcruntime:undname.obj
 0001:00048574       ?getTemplateArgumentList@UnDecorator@@CA?AVDName@@XZ 0000000180049574 f   libvcruntime:undname.obj
 0001:00048844       ?getTemplateConstant@UnDecorator@@CA?AVDName@@XZ 0000000180049844 f   libvcruntime:undname.obj
 0001:00048bec       ?getTemplateName@UnDecorator@@CA?AVDName@@_N@Z 0000000180049bec f   libvcruntime:undname.obj
 0001:00048dc8       ?getThisType@UnDecorator@@CA?AVDName@@XZ 0000000180049dc8 f i libvcruntime:undname.obj
 0001:00048e10       ?getThrowTypes@UnDecorator@@CA?AVDName@@XZ 0000000180049e10 f   libvcruntime:undname.obj
 0001:00048ed4       ?getTypeEncoding@UnDecorator@@CAHXZ 0000000180049ed4 f i libvcruntime:undname.obj
 0001:00049238       ?getVCallThunkType@UnDecorator@@CA?AVDName@@XZ 000000018004a238 f i libvcruntime:undname.obj
 0001:00049284       ?getVbTableType@UnDecorator@@CA?AVDName@@AEBV2@@Z 000000018004a284 f i libvcruntime:undname.obj
 0001:0004929c       ?getVdispMapType@UnDecorator@@CA?AVDName@@AEBV2@@Z 000000018004a29c f i libvcruntime:undname.obj
 0001:000492f8       ?getVfTableType@UnDecorator@@CA?AVDName@@AEBV2@@Z 000000018004a2f8 f i libvcruntime:undname.obj
 0001:000494c8       ?getZName@UnDecorator@@CA?AVDName@@_N0@Z 000000018004a4c8 f   libvcruntime:undname.obj
 0001:00049764       ?haveTemplateParameters@UnDecorator@@SAHXZ 000000018004a764 f i libvcruntime:undname.obj
 0001:00049770       ?isArray@DName@@QEBAHXZ    000000018004a770 f i libvcruntime:undname.obj
 0001:0004977c       ?isComArray@DName@@QEBAHXZ 000000018004a77c f i libvcruntime:undname.obj
 0001:00049788       ?isEmpty@DName@@QEBAHXZ    000000018004a788 f i libvcruntime:undname.obj
 0001:00049794       ?isFull@Replicator@@QEBAHXZ 000000018004a794 f i libvcruntime:undname.obj
 0001:000497a0       ?isNoTE@DName@@QEBAHXZ     000000018004a7a0 f i libvcruntime:undname.obj
 0001:000497ac       ?isPinPtr@DName@@QEBAHXZ   000000018004a7ac f i libvcruntime:undname.obj
 0001:000497b8       ?isPtrRef@DName@@QEBAHXZ   000000018004a7b8 f i libvcruntime:undname.obj
 0001:000497c4       ?isUDC@DName@@QEBAHXZ      000000018004a7c4 f i libvcruntime:undname.obj
 0001:000497dc       ?isUDTThunk@DName@@QEBAHXZ 000000018004a7dc f i libvcruntime:undname.obj
 0001:000497f4       ?isVCallThunk@DName@@QEBAHXZ 000000018004a7f4 f i libvcruntime:undname.obj
 0001:00049800       ?isValid@DName@@QEBAHXZ    000000018004a800 f i libvcruntime:undname.obj
 0001:0004980c       ?length@DName@@QEBAHXZ     000000018004a80c f i libvcruntime:undname.obj
 0001:00049840       ?length@DNameStatusNode@@UEBAHXZ 000000018004a840 f i libvcruntime:undname.obj
 0001:00049844       ?length@charNode@@UEBAHXZ  000000018004a844 f i libvcruntime:undname.obj
 0001:0004984c       ?length@pDNameNode@@UEBAHXZ 000000018004a84c f i libvcruntime:undname.obj
 0001:00049888       ?length@pairNode@@UEBAHXZ  000000018004a888 f i libvcruntime:undname.obj
 0001:000498f4       ?length@pcharNode@@UEBAHXZ 000000018004a8f4 f i libvcruntime:undname.obj
 0001:000498f8       ?make@DNameStatusNode@@SAPEAV1@W4DNameStatus@@@Z 000000018004a8f8 f i libvcruntime:undname.obj
 0001:00049980       ?setIsArray@DName@@QEAAXXZ 000000018004a980 f i libvcruntime:undname.obj
 0001:00049988       ?setIsComArray@DName@@QEAAXXZ 000000018004a988 f i libvcruntime:undname.obj
 0001:00049990       ?setIsNoTE@DName@@QEAAXXZ  000000018004a990 f i libvcruntime:undname.obj
 0001:00049998       ?setIsPinPtr@DName@@QEAAXXZ 000000018004a998 f i libvcruntime:undname.obj
 0001:000499a0       ?setIsUDC@DName@@QEAAXXZ   000000018004a9a0 f i libvcruntime:undname.obj
 0001:000499ac       ?setIsVCallThunk@DName@@QEAAXXZ 000000018004a9ac f i libvcruntime:undname.obj
 0001:000499b4       ?setPtrRef@DName@@QEAAAEAV1@XZ 000000018004a9b4 f i libvcruntime:undname.obj
 0001:000499c0       ?status@DName@@QEBA?AW4DNameStatus@@XZ 000000018004a9c0 f i libvcruntime:undname.obj
 0001:00049a24       __unDName                  000000018004aa24 f   libvcruntime:undname.obj
 0001:00049b1c       __unDNameEx                000000018004ab1c f   libvcruntime:undname.obj
 0001:00049c18       _vsprintf_s_l              000000018004ac18 f i libvcruntime:undname.obj
 0001:00049c7c       sprintf_s                  000000018004ac7c f i libvcruntime:undname.obj
 0001:00049cd0       ??$?0AEBV?$stream_output_adapter@D@__crt_stdio_output@@AEB_KAEBQEBDAEBQEAU__crt_locale_pointers@@AEBQEAD@?$format_validation_base@DV?$stream_output_adapter@D@__crt_stdio_output@@@__crt_stdio_output@@IEAA@AEBV?$stream_output_adapter@D@1@AEB_KAEBQEBDAEBQEAU__crt_locale_pointers@@AEBQEAD@Z 000000018004acd0 f i libucrt:output.obj
 0001:00049d54       ??$?0AEBV?$stream_output_adapter@D@__crt_stdio_output@@AEB_KAEBQEBDAEBQEAU__crt_locale_pointers@@AEBQEAD@?$positional_parameter_base@DV?$stream_output_adapter@D@__crt_stdio_output@@@__crt_stdio_output@@IEAA@AEBV?$stream_output_adapter@D@1@AEB_KAEBQEBDAEBQEAU__crt_locale_pointers@@AEBQEAD@Z 000000018004ad54 f i libucrt:output.obj
 0001:00049df4       ??$?0AEBV?$stream_output_adapter@D@__crt_stdio_output@@AEB_KAEBQEBDAEBQEAU__crt_locale_pointers@@AEBQEAD@?$standard_base@DV?$stream_output_adapter@D@__crt_stdio_output@@@__crt_stdio_output@@IEAA@AEBV?$stream_output_adapter@D@1@AEB_KAEBQEBDAEBQEAU__crt_locale_pointers@@AEBQEAD@Z 000000018004adf4 f i libucrt:output.obj
 0001:00049e78       ??$?0AEBV?$stream_output_adapter@_W@__crt_stdio_output@@AEB_KAEBQEB_WAEBQEAU__crt_locale_pointers@@AEBQEAD@?$format_validation_base@_WV?$stream_output_adapter@_W@__crt_stdio_output@@@__crt_stdio_output@@IEAA@AEBV?$stream_output_adapter@_W@1@AEB_KAEBQEB_WAEBQEAU__crt_locale_pointers@@AEBQEAD@Z 000000018004ae78 f i libucrt:output.obj
 0001:00049f00       ??$?0AEBV?$stream_output_adapter@_W@__crt_stdio_output@@AEB_KAEBQEB_WAEBQEAU__crt_locale_pointers@@AEBQEAD@?$positional_parameter_base@_WV?$stream_output_adapter@_W@__crt_stdio_output@@@__crt_stdio_output@@IEAA@AEBV?$stream_output_adapter@_W@1@AEB_KAEBQEB_WAEBQEAU__crt_locale_pointers@@AEBQEAD@Z 000000018004af00 f i libucrt:output.obj
 0001:00049fa4       ??$?0AEBV?$stream_output_adapter@_W@__crt_stdio_output@@AEB_KAEBQEB_WAEBQEAU__crt_locale_pointers@@AEBQEAD@?$standard_base@_WV?$stream_output_adapter@_W@__crt_stdio_output@@@__crt_stdio_output@@IEAA@AEBV?$stream_output_adapter@_W@1@AEB_KAEBQEB_WAEBQEAU__crt_locale_pointers@@AEBQEAD@Z 000000018004afa4 f i libucrt:output.obj
 0001:0004a02c       ??$?0AEBV?$string_output_adapter@D@__crt_stdio_output@@AEB_KAEBQEBDAEBQEAU__crt_locale_pointers@@AEBQEAD@?$format_validation_base@DV?$string_output_adapter@D@__crt_stdio_output@@@__crt_stdio_output@@IEAA@AEBV?$string_output_adapter@D@1@AEB_KAEBQEBDAEBQEAU__crt_locale_pointers@@AEBQEAD@Z 000000018004b02c f i libucrt:output.obj
 0001:0004a0b0       ??$?0AEBV?$string_output_adapter@D@__crt_stdio_output@@AEB_KAEBQEBDAEBQEAU__crt_locale_pointers@@AEBQEAD@?$positional_parameter_base@DV?$string_output_adapter@D@__crt_stdio_output@@@__crt_stdio_output@@IEAA@AEBV?$string_output_adapter@D@1@AEB_KAEBQEBDAEBQEAU__crt_locale_pointers@@AEBQEAD@Z 000000018004b0b0 f i libucrt:output.obj
 0001:0004a150       ??$?0AEBV?$string_output_adapter@D@__crt_stdio_output@@AEB_KAEBQEBDAEBQEAU__crt_locale_pointers@@AEBQEAD@?$standard_base@DV?$string_output_adapter@D@__crt_stdio_output@@@__crt_stdio_output@@IEAA@AEBV?$string_output_adapter@D@1@AEB_KAEBQEBDAEBQEAU__crt_locale_pointers@@AEBQEAD@Z 000000018004b150 f i libucrt:output.obj
 0001:0004a1d4       ??$?0AEBV?$string_output_adapter@_W@__crt_stdio_output@@AEB_KAEBQEB_WAEBQEAU__crt_locale_pointers@@AEBQEAD@?$format_validation_base@_WV?$string_output_adapter@_W@__crt_stdio_output@@@__crt_stdio_output@@IEAA@AEBV?$string_output_adapter@_W@1@AEB_KAEBQEB_WAEBQEAU__crt_locale_pointers@@AEBQEAD@Z 000000018004b1d4 f i libucrt:output.obj
 0001:0004a25c       ??$?0AEBV?$string_output_adapter@_W@__crt_stdio_output@@AEB_KAEBQEB_WAEBQEAU__crt_locale_pointers@@AEBQEAD@?$positional_parameter_base@_WV?$string_output_adapter@_W@__crt_stdio_output@@@__crt_stdio_output@@IEAA@AEBV?$string_output_adapter@_W@1@AEB_KAEBQEB_WAEBQEAU__crt_locale_pointers@@AEBQEAD@Z 000000018004b25c f i libucrt:output.obj
 0001:0004a300       ??$?0AEBV?$string_output_adapter@_W@__crt_stdio_output@@AEB_KAEBQEB_WAEBQEAU__crt_locale_pointers@@AEBQEAD@?$standard_base@_WV?$string_output_adapter@_W@__crt_stdio_output@@@__crt_stdio_output@@IEAA@AEBV?$string_output_adapter@_W@1@AEB_KAEBQEB_WAEBQEAU__crt_locale_pointers@@AEBQEAD@Z 000000018004b300 f i libucrt:output.obj
 0001:0004a5f8       ??$__crt_interlocked_read@J@@YAJPEDJ@Z 000000018004b5f8 f i libucrt:output.obj
 0001:0004b788       ??$count@D@formatting_buffer@__crt_stdio_output@@QEBA_KXZ 000000018004c788 f i libucrt:output.obj
 0001:0004b7a4       ??$count@_W@formatting_buffer@__crt_stdio_output@@QEBA_KXZ 000000018004c7a4 f i libucrt:output.obj
 0001:0004b7c0       ??$data@D@formatting_buffer@__crt_stdio_output@@QEAAPEADXZ 000000018004c7c0 f i libucrt:output.obj
 0001:0004b7d0       ??$data@_W@formatting_buffer@__crt_stdio_output@@QEAAPEA_WXZ 000000018004c7d0 f i libucrt:output.obj
 0001:0004b7e0       ??$ensure_buffer_is_big_enough@D@formatting_buffer@__crt_stdio_output@@QEAA_N_K@Z 000000018004c7e0 f i libucrt:output.obj
 0001:0004b888       ??$ensure_buffer_is_big_enough@_W@formatting_buffer@__crt_stdio_output@@QEAA_N_K@Z 000000018004c888 f i libucrt:output.obj
 0001:0004b934       ??$extract_argument_from_va_list@C_J@?$positional_parameter_base@DV?$stream_output_adapter@D@__crt_stdio_output@@@__crt_stdio_output@@IEAA_NAEA_J@Z 000000018004c934 f i libucrt:output.obj
 0001:0004b9f0       ??$extract_argument_from_va_list@C_J@?$positional_parameter_base@DV?$string_output_adapter@D@__crt_stdio_output@@@__crt_stdio_output@@IEAA_NAEA_J@Z 000000018004c9f0 f i libucrt:output.obj
 0001:0004baac       ??$extract_argument_from_va_list@C_J@?$positional_parameter_base@_WV?$stream_output_adapter@_W@__crt_stdio_output@@@__crt_stdio_output@@IEAA_NAEA_J@Z 000000018004caac f i libucrt:output.obj
 0001:0004bb6c       ??$extract_argument_from_va_list@C_J@?$positional_parameter_base@_WV?$string_output_adapter@_W@__crt_stdio_output@@@__crt_stdio_output@@IEAA_NAEA_J@Z 000000018004cb6c f i libucrt:output.obj
 0001:0004bc2c       ??$extract_argument_from_va_list@C_J@?$standard_base@DV?$stream_output_adapter@D@__crt_stdio_output@@@__crt_stdio_output@@IEAA_NAEA_J@Z 000000018004cc2c f i libucrt:output.obj
 0001:0004bc40       ??$extract_argument_from_va_list@C_J@?$standard_base@DV?$string_output_adapter@D@__crt_stdio_output@@@__crt_stdio_output@@IEAA_NAEA_J@Z 000000018004cc40 f i libucrt:output.obj
 0001:0004bc54       ??$extract_argument_from_va_list@C_J@?$standard_base@_WV?$stream_output_adapter@_W@__crt_stdio_output@@@__crt_stdio_output@@IEAA_NAEA_J@Z 000000018004cc54 f i libucrt:output.obj
 0001:0004bc68       ??$extract_argument_from_va_list@C_J@?$standard_base@_WV?$string_output_adapter@_W@__crt_stdio_output@@@__crt_stdio_output@@IEAA_NAEA_J@Z 000000018004cc68 f i libucrt:output.obj
 0001:0004bc7c       ??$extract_argument_from_va_list@E_J@?$positional_parameter_base@DV?$stream_output_adapter@D@__crt_stdio_output@@@__crt_stdio_output@@IEAA_NAEA_J@Z 000000018004cc7c f i libucrt:output.obj
 0001:0004bd38       ??$extract_argument_from_va_list@E_J@?$positional_parameter_base@DV?$string_output_adapter@D@__crt_stdio_output@@@__crt_stdio_output@@IEAA_NAEA_J@Z 000000018004cd38 f i libucrt:output.obj
 0001:0004bdf4       ??$extract_argument_from_va_list@E_J@?$positional_parameter_base@_WV?$stream_output_adapter@_W@__crt_stdio_output@@@__crt_stdio_output@@IEAA_NAEA_J@Z 000000018004cdf4 f i libucrt:output.obj
 0001:0004beb4       ??$extract_argument_from_va_list@E_J@?$positional_parameter_base@_WV?$string_output_adapter@_W@__crt_stdio_output@@@__crt_stdio_output@@IEAA_NAEA_J@Z 000000018004ceb4 f i libucrt:output.obj
 0001:0004bf74       ??$extract_argument_from_va_list@E_J@?$standard_base@DV?$stream_output_adapter@D@__crt_stdio_output@@@__crt_stdio_output@@IEAA_NAEA_J@Z 000000018004cf74 f i libucrt:output.obj
 0001:0004bf88       ??$extract_argument_from_va_list@E_J@?$standard_base@DV?$string_output_adapter@D@__crt_stdio_output@@@__crt_stdio_output@@IEAA_NAEA_J@Z 000000018004cf88 f i libucrt:output.obj
 0001:0004bf9c       ??$extract_argument_from_va_list@E_J@?$standard_base@_WV?$stream_output_adapter@_W@__crt_stdio_output@@@__crt_stdio_output@@IEAA_NAEA_J@Z 000000018004cf9c f i libucrt:output.obj
 0001:0004bfb0       ??$extract_argument_from_va_list@E_J@?$standard_base@_WV?$string_output_adapter@_W@__crt_stdio_output@@@__crt_stdio_output@@IEAA_NAEA_J@Z 000000018004cfb0 f i libucrt:output.obj
 0001:0004bfc4       ??$extract_argument_from_va_list@F_J@?$positional_parameter_base@DV?$stream_output_adapter@D@__crt_stdio_output@@@__crt_stdio_output@@IEAA_NAEA_J@Z 000000018004cfc4 f i libucrt:output.obj
 0001:0004c080       ??$extract_argument_from_va_list@F_J@?$positional_parameter_base@DV?$string_output_adapter@D@__crt_stdio_output@@@__crt_stdio_output@@IEAA_NAEA_J@Z 000000018004d080 f i libucrt:output.obj
 0001:0004c13c       ??$extract_argument_from_va_list@F_J@?$positional_parameter_base@_WV?$stream_output_adapter@_W@__crt_stdio_output@@@__crt_stdio_output@@IEAA_NAEA_J@Z 000000018004d13c f i libucrt:output.obj
 0001:0004c1fc       ??$extract_argument_from_va_list@F_J@?$positional_parameter_base@_WV?$string_output_adapter@_W@__crt_stdio_output@@@__crt_stdio_output@@IEAA_NAEA_J@Z 000000018004d1fc f i libucrt:output.obj
 0001:0004c2bc       ??$extract_argument_from_va_list@F_J@?$standard_base@DV?$stream_output_adapter@D@__crt_stdio_output@@@__crt_stdio_output@@IEAA_NAEA_J@Z 000000018004d2bc f i libucrt:output.obj
 0001:0004c2d0       ??$extract_argument_from_va_list@F_J@?$standard_base@DV?$string_output_adapter@D@__crt_stdio_output@@@__crt_stdio_output@@IEAA_NAEA_J@Z 000000018004d2d0 f i libucrt:output.obj
 0001:0004c2e4       ??$extract_argument_from_va_list@F_J@?$standard_base@_WV?$stream_output_adapter@_W@__crt_stdio_output@@@__crt_stdio_output@@IEAA_NAEA_J@Z 000000018004d2e4 f i libucrt:output.obj
 0001:0004c2f8       ??$extract_argument_from_va_list@F_J@?$standard_base@_WV?$string_output_adapter@_W@__crt_stdio_output@@@__crt_stdio_output@@IEAA_NAEA_J@Z 000000018004d2f8 f i libucrt:output.obj
 0001:0004c30c       ??$extract_argument_from_va_list@GD@?$positional_parameter_base@DV?$stream_output_adapter@D@__crt_stdio_output@@@__crt_stdio_output@@IEAA_NAEAD@Z 000000018004d30c f i libucrt:output.obj
 0001:0004c3c4       ??$extract_argument_from_va_list@GD@?$positional_parameter_base@DV?$string_output_adapter@D@__crt_stdio_output@@@__crt_stdio_output@@IEAA_NAEAD@Z 000000018004d3c4 f i libucrt:output.obj
 0001:0004c47c       ??$extract_argument_from_va_list@GD@?$standard_base@DV?$stream_output_adapter@D@__crt_stdio_output@@@__crt_stdio_output@@IEAA_NAEAD@Z 000000018004d47c f i libucrt:output.obj
 0001:0004c490       ??$extract_argument_from_va_list@GD@?$standard_base@DV?$string_output_adapter@D@__crt_stdio_output@@@__crt_stdio_output@@IEAA_NAEAD@Z 000000018004d490 f i libucrt:output.obj
 0001:0004c4a4       ??$extract_argument_from_va_list@G_J@?$positional_parameter_base@DV?$stream_output_adapter@D@__crt_stdio_output@@@__crt_stdio_output@@IEAA_NAEA_J@Z 000000018004d4a4 f i libucrt:output.obj
 0001:0004c560       ??$extract_argument_from_va_list@G_J@?$positional_parameter_base@DV?$string_output_adapter@D@__crt_stdio_output@@@__crt_stdio_output@@IEAA_NAEA_J@Z 000000018004d560 f i libucrt:output.obj
 0001:0004c61c       ??$extract_argument_from_va_list@G_J@?$positional_parameter_base@_WV?$stream_output_adapter@_W@__crt_stdio_output@@@__crt_stdio_output@@IEAA_NAEA_J@Z 000000018004d61c f i libucrt:output.obj
 0001:0004c6dc       ??$extract_argument_from_va_list@G_J@?$positional_parameter_base@_WV?$string_output_adapter@_W@__crt_stdio_output@@@__crt_stdio_output@@IEAA_NAEA_J@Z 000000018004d6dc f i libucrt:output.obj
 0001:0004c79c       ??$extract_argument_from_va_list@G_J@?$standard_base@DV?$stream_output_adapter@D@__crt_stdio_output@@@__crt_stdio_output@@IEAA_NAEA_J@Z 000000018004d79c f i libucrt:output.obj
 0001:0004c7b0       ??$extract_argument_from_va_list@G_J@?$standard_base@DV?$string_output_adapter@D@__crt_stdio_output@@@__crt_stdio_output@@IEAA_NAEA_J@Z 000000018004d7b0 f i libucrt:output.obj
 0001:0004c7c4       ??$extract_argument_from_va_list@G_J@?$standard_base@_WV?$stream_output_adapter@_W@__crt_stdio_output@@@__crt_stdio_output@@IEAA_NAEA_J@Z 000000018004d7c4 f i libucrt:output.obj
 0001:0004c7d8       ??$extract_argument_from_va_list@G_J@?$standard_base@_WV?$string_output_adapter@_W@__crt_stdio_output@@@__crt_stdio_output@@IEAA_NAEA_J@Z 000000018004d7d8 f i libucrt:output.obj
 0001:0004c7ec       ??$extract_argument_from_va_list@H_J@?$positional_parameter_base@DV?$stream_output_adapter@D@__crt_stdio_output@@@__crt_stdio_output@@IEAA_NAEA_J@Z 000000018004d7ec f i libucrt:output.obj
 0001:0004c8a8       ??$extract_argument_from_va_list@H_J@?$positional_parameter_base@DV?$string_output_adapter@D@__crt_stdio_output@@@__crt_stdio_output@@IEAA_NAEA_J@Z 000000018004d8a8 f i libucrt:output.obj
 0001:0004c964       ??$extract_argument_from_va_list@H_J@?$positional_parameter_base@_WV?$stream_output_adapter@_W@__crt_stdio_output@@@__crt_stdio_output@@IEAA_NAEA_J@Z 000000018004d964 f i libucrt:output.obj
 0001:0004ca20       ??$extract_argument_from_va_list@H_J@?$positional_parameter_base@_WV?$string_output_adapter@_W@__crt_stdio_output@@@__crt_stdio_output@@IEAA_NAEA_J@Z 000000018004da20 f i libucrt:output.obj
 0001:0004cadc       ??$extract_argument_from_va_list@H_J@?$standard_base@DV?$stream_output_adapter@D@__crt_stdio_output@@@__crt_stdio_output@@IEAA_NAEA_J@Z 000000018004dadc f i libucrt:output.obj
 0001:0004caf0       ??$extract_argument_from_va_list@H_J@?$standard_base@DV?$string_output_adapter@D@__crt_stdio_output@@@__crt_stdio_output@@IEAA_NAEA_J@Z 000000018004daf0 f i libucrt:output.obj
 0001:0004cb04       ??$extract_argument_from_va_list@H_J@?$standard_base@_WV?$stream_output_adapter@_W@__crt_stdio_output@@@__crt_stdio_output@@IEAA_NAEA_J@Z 000000018004db04 f i libucrt:output.obj
 0001:0004cb18       ??$extract_argument_from_va_list@H_J@?$standard_base@_WV?$string_output_adapter@_W@__crt_stdio_output@@@__crt_stdio_output@@IEAA_NAEA_J@Z 000000018004db18 f i libucrt:output.obj
 0001:0004cb2c       ??$extract_argument_from_va_list@I_J@?$positional_parameter_base@DV?$stream_output_adapter@D@__crt_stdio_output@@@__crt_stdio_output@@IEAA_NAEA_J@Z 000000018004db2c f i libucrt:output.obj
 0001:0004cbe8       ??$extract_argument_from_va_list@I_J@?$positional_parameter_base@DV?$string_output_adapter@D@__crt_stdio_output@@@__crt_stdio_output@@IEAA_NAEA_J@Z 000000018004dbe8 f i libucrt:output.obj
 0001:0004cca4       ??$extract_argument_from_va_list@I_J@?$positional_parameter_base@_WV?$stream_output_adapter@_W@__crt_stdio_output@@@__crt_stdio_output@@IEAA_NAEA_J@Z 000000018004dca4 f i libucrt:output.obj
 0001:0004cd60       ??$extract_argument_from_va_list@I_J@?$positional_parameter_base@_WV?$string_output_adapter@_W@__crt_stdio_output@@@__crt_stdio_output@@IEAA_NAEA_J@Z 000000018004dd60 f i libucrt:output.obj
 0001:0004ce1c       ??$extract_argument_from_va_list@I_J@?$standard_base@DV?$stream_output_adapter@D@__crt_stdio_output@@@__crt_stdio_output@@IEAA_NAEA_J@Z 000000018004de1c f i libucrt:output.obj
 0001:0004ce30       ??$extract_argument_from_va_list@I_J@?$standard_base@DV?$string_output_adapter@D@__crt_stdio_output@@@__crt_stdio_output@@IEAA_NAEA_J@Z 000000018004de30 f i libucrt:output.obj
 0001:0004ce44       ??$extract_argument_from_va_list@I_J@?$standard_base@_WV?$stream_output_adapter@_W@__crt_stdio_output@@@__crt_stdio_output@@IEAA_NAEA_J@Z 000000018004de44 f i libucrt:output.obj
 0001:0004ce58       ??$extract_argument_from_va_list@I_J@?$standard_base@_WV?$string_output_adapter@_W@__crt_stdio_output@@@__crt_stdio_output@@IEAA_NAEA_J@Z 000000018004de58 f i libucrt:output.obj
 0001:0004ce6c       ??$extract_argument_from_va_list@PEADPEAD@?$positional_parameter_base@DV?$stream_output_adapter@D@__crt_stdio_output@@@__crt_stdio_output@@IEAA_NAEAPEAD@Z 000000018004de6c f i libucrt:output.obj
 0001:0004cf28       ??$extract_argument_from_va_list@PEADPEAD@?$positional_parameter_base@DV?$string_output_adapter@D@__crt_stdio_output@@@__crt_stdio_output@@IEAA_NAEAPEAD@Z 000000018004df28 f i libucrt:output.obj
 0001:0004cfe4       ??$extract_argument_from_va_list@PEADPEAD@?$positional_parameter_base@_WV?$stream_output_adapter@_W@__crt_stdio_output@@@__crt_stdio_output@@IEAA_NAEAPEAD@Z 000000018004dfe4 f i libucrt:output.obj
 0001:0004d0a0       ??$extract_argument_from_va_list@PEADPEAD@?$positional_parameter_base@_WV?$string_output_adapter@_W@__crt_stdio_output@@@__crt_stdio_output@@IEAA_NAEAPEAD@Z 000000018004e0a0 f i libucrt:output.obj
 0001:0004d15c       ??$extract_argument_from_va_list@PEADPEAD@?$standard_base@DV?$stream_output_adapter@D@__crt_stdio_output@@@__crt_stdio_output@@IEAA_NAEAPEAD@Z 000000018004e15c f i libucrt:output.obj
 0001:0004d170       ??$extract_argument_from_va_list@PEADPEAD@?$standard_base@DV?$string_output_adapter@D@__crt_stdio_output@@@__crt_stdio_output@@IEAA_NAEAPEAD@Z 000000018004e170 f i libucrt:output.obj
 0001:0004d184       ??$extract_argument_from_va_list@PEADPEAD@?$standard_base@_WV?$stream_output_adapter@_W@__crt_stdio_output@@@__crt_stdio_output@@IEAA_NAEAPEAD@Z 000000018004e184 f i libucrt:output.obj
 0001:0004d198       ??$extract_argument_from_va_list@PEADPEAD@?$standard_base@_WV?$string_output_adapter@_W@__crt_stdio_output@@@__crt_stdio_output@@IEAA_NAEAPEAD@Z 000000018004e198 f i libucrt:output.obj
 0001:0004d1ac       ??$extract_argument_from_va_list@PEAUansi_string@?1??type_case_Z@?$output_processor@DV?$stream_output_adapter@D@__crt_stdio_output@@V?$format_validation_base@DV?$stream_output_adapter@D@__crt_stdio_output@@@2@@__crt_stdio_output@@AEAA_NXZ@PEAU1?1??234@AEAA_NXZ@@?$standard_base@DV?$stream_output_adapter@D@__crt_stdio_output@@@__crt_stdio_output@@IEAA_NAEAPEAUansi_string@?1??type_case_Z@?$output_processor@DV?$stream_output_adapter@D@__crt_stdio_output@@V?$format_validation_base@DV?$stream_output_adapter@D@__crt_stdio_output@@@2@@1@AEAA_NXZ@@Z 000000018004e1ac f i libucrt:output.obj
 0001:0004d1c0       ??$extract_argument_from_va_list@PEAUansi_string@?1??type_case_Z@?$output_processor@DV?$stream_output_adapter@D@__crt_stdio_output@@V?$positional_parameter_base@DV?$stream_output_adapter@D@__crt_stdio_output@@@2@@__crt_stdio_output@@AEAA_NXZ@PEAU1?1??234@AEAA_NXZ@@?$positional_parameter_base@DV?$stream_output_adapter@D@__crt_stdio_output@@@__crt_stdio_output@@IEAA_NAEAPEAUansi_string@?1??type_case_Z@?$output_processor@DV?$stream_output_adapter@D@__crt_stdio_output@@V?$positional_parameter_base@DV?$stream_output_adapter@D@__crt_stdio_output@@@2@@1@AEAA_NXZ@@Z 000000018004e1c0 f i libucrt:output.obj
 0001:0004d27c       ??$extract_argument_from_va_list@PEAUansi_string@?1??type_case_Z@?$output_processor@DV?$stream_output_adapter@D@__crt_stdio_output@@V?$positional_parameter_base@DV?$stream_output_adapter@D@__crt_stdio_output@@@2@@__crt_stdio_output@@AEAA_NXZ@PEAU1?1??234@AEAA_NXZ@@?$standard_base@DV?$stream_output_adapter@D@__crt_stdio_output@@@__crt_stdio_output@@IEAA_NAEAPEAUansi_string@?1??type_case_Z@?$output_processor@DV?$stream_output_adapter@D@__crt_stdio_output@@V?$positional_parameter_base@DV?$stream_output_adapter@D@__crt_stdio_output@@@2@@1@AEAA_NXZ@@Z 000000018004e27c f i libucrt:output.obj
 0001:0004d290       ??$extract_argument_from_va_list@PEAUansi_string@?1??type_case_Z@?$output_processor@DV?$stream_output_adapter@D@__crt_stdio_output@@V?$standard_base@DV?$stream_output_adapter@D@__crt_stdio_output@@@2@@__crt_stdio_output@@AEAA_NXZ@PEAU1?1??234@AEAA_NXZ@@?$standard_base@DV?$stream_output_adapter@D@__crt_stdio_output@@@__crt_stdio_output@@IEAA_NAEAPEAUansi_string@?1??type_case_Z@?$output_processor@DV?$stream_output_adapter@D@__crt_stdio_output@@V?$standard_base@DV?$stream_output_adapter@D@__crt_stdio_output@@@2@@1@AEAA_NXZ@@Z 000000018004e290 f i libucrt:output.obj
 0001:0004d2a4       ??$extract_argument_from_va_list@PEAUansi_string@?1??type_case_Z@?$output_processor@DV?$string_output_adapter@D@__crt_stdio_output@@V?$format_validation_base@DV?$string_output_adapter@D@__crt_stdio_output@@@2@@__crt_stdio_output@@AEAA_NXZ@PEAU1?1??234@AEAA_NXZ@@?$standard_base@DV?$string_output_adapter@D@__crt_stdio_output@@@__crt_stdio_output@@IEAA_NAEAPEAUansi_string@?1??type_case_Z@?$output_processor@DV?$string_output_adapter@D@__crt_stdio_output@@V?$format_validation_base@DV?$string_output_adapter@D@__crt_stdio_output@@@2@@1@AEAA_NXZ@@Z 000000018004e2a4 f i libucrt:output.obj
 0001:0004d2b8       ??$extract_argument_from_va_list@PEAUansi_string@?1??type_case_Z@?$output_processor@DV?$string_output_adapter@D@__crt_stdio_output@@V?$positional_parameter_base@DV?$string_output_adapter@D@__crt_stdio_output@@@2@@__crt_stdio_output@@AEAA_NXZ@PEAU1?1??234@AEAA_NXZ@@?$positional_parameter_base@DV?$string_output_adapter@D@__crt_stdio_output@@@__crt_stdio_output@@IEAA_NAEAPEAUansi_string@?1??type_case_Z@?$output_processor@DV?$string_output_adapter@D@__crt_stdio_output@@V?$positional_parameter_base@DV?$string_output_adapter@D@__crt_stdio_output@@@2@@1@AEAA_NXZ@@Z 000000018004e2b8 f i libucrt:output.obj
 0001:0004d374       ??$extract_argument_from_va_list@PEAUansi_string@?1??type_case_Z@?$output_processor@DV?$string_output_adapter@D@__crt_stdio_output@@V?$positional_parameter_base@DV?$string_output_adapter@D@__crt_stdio_output@@@2@@__crt_stdio_output@@AEAA_NXZ@PEAU1?1??234@AEAA_NXZ@@?$standard_base@DV?$string_output_adapter@D@__crt_stdio_output@@@__crt_stdio_output@@IEAA_NAEAPEAUansi_string@?1??type_case_Z@?$output_processor@DV?$string_output_adapter@D@__crt_stdio_output@@V?$positional_parameter_base@DV?$string_output_adapter@D@__crt_stdio_output@@@2@@1@AEAA_NXZ@@Z 000000018004e374 f i libucrt:output.obj
 0001:0004d388       ??$extract_argument_from_va_list@PEAUansi_string@?1??type_case_Z@?$output_processor@DV?$string_output_adapter@D@__crt_stdio_output@@V?$standard_base@DV?$string_output_adapter@D@__crt_stdio_output@@@2@@__crt_stdio_output@@AEAA_NXZ@PEAU1?1??234@AEAA_NXZ@@?$standard_base@DV?$string_output_adapter@D@__crt_stdio_output@@@__crt_stdio_output@@IEAA_NAEAPEAUansi_string@?1??type_case_Z@?$output_processor@DV?$string_output_adapter@D@__crt_stdio_output@@V?$standard_base@DV?$string_output_adapter@D@__crt_stdio_output@@@2@@1@AEAA_NXZ@@Z 000000018004e388 f i libucrt:output.obj
 0001:0004d39c       ??$extract_argument_from_va_list@PEAUansi_string@?1??type_case_Z@?$output_processor@_WV?$stream_output_adapter@_W@__crt_stdio_output@@V?$format_validation_base@_WV?$stream_output_adapter@_W@__crt_stdio_output@@@2@@__crt_stdio_output@@AEAA_NXZ@PEAU1?1??234@AEAA_NXZ@@?$standard_base@_WV?$stream_output_adapter@_W@__crt_stdio_output@@@__crt_stdio_output@@IEAA_NAEAPEAUansi_string@?1??type_case_Z@?$output_processor@_WV?$stream_output_adapter@_W@__crt_stdio_output@@V?$format_validation_base@_WV?$stream_output_adapter@_W@__crt_stdio_output@@@2@@1@AEAA_NXZ@@Z 000000018004e39c f i libucrt:output.obj
 0001:0004d3b0       ??$extract_argument_from_va_list@PEAUansi_string@?1??type_case_Z@?$output_processor@_WV?$stream_output_adapter@_W@__crt_stdio_output@@V?$positional_parameter_base@_WV?$stream_output_adapter@_W@__crt_stdio_output@@@2@@__crt_stdio_output@@AEAA_NXZ@PEAU1?1??234@AEAA_NXZ@@?$positional_parameter_base@_WV?$stream_output_adapter@_W@__crt_stdio_output@@@__crt_stdio_output@@IEAA_NAEAPEAUansi_string@?1??type_case_Z@?$output_processor@_WV?$stream_output_adapter@_W@__crt_stdio_output@@V?$positional_parameter_base@_WV?$stream_output_adapter@_W@__crt_stdio_output@@@2@@1@AEAA_NXZ@@Z 000000018004e3b0 f i libucrt:output.obj
 0001:0004d46c       ??$extract_argument_from_va_list@PEAUansi_string@?1??type_case_Z@?$output_processor@_WV?$stream_output_adapter@_W@__crt_stdio_output@@V?$positional_parameter_base@_WV?$stream_output_adapter@_W@__crt_stdio_output@@@2@@__crt_stdio_output@@AEAA_NXZ@PEAU1?1??234@AEAA_NXZ@@?$standard_base@_WV?$stream_output_adapter@_W@__crt_stdio_output@@@__crt_stdio_output@@IEAA_NAEAPEAUansi_string@?1??type_case_Z@?$output_processor@_WV?$stream_output_adapter@_W@__crt_stdio_output@@V?$positional_parameter_base@_WV?$stream_output_adapter@_W@__crt_stdio_output@@@2@@1@AEAA_NXZ@@Z 000000018004e46c f i libucrt:output.obj
 0001:0004d480       ??$extract_argument_from_va_list@PEAUansi_string@?1??type_case_Z@?$output_processor@_WV?$stream_output_adapter@_W@__crt_stdio_output@@V?$standard_base@_WV?$stream_output_adapter@_W@__crt_stdio_output@@@2@@__crt_stdio_output@@AEAA_NXZ@PEAU1?1??234@AEAA_NXZ@@?$standard_base@_WV?$stream_output_adapter@_W@__crt_stdio_output@@@__crt_stdio_output@@IEAA_NAEAPEAUansi_string@?1??type_case_Z@?$output_processor@_WV?$stream_output_adapter@_W@__crt_stdio_output@@V?$standard_base@_WV?$stream_output_adapter@_W@__crt_stdio_output@@@2@@1@AEAA_NXZ@@Z 000000018004e480 f i libucrt:output.obj
 0001:0004d494       ??$extract_argument_from_va_list@PEAUansi_string@?1??type_case_Z@?$output_processor@_WV?$string_output_adapter@_W@__crt_stdio_output@@V?$format_validation_base@_WV?$string_output_adapter@_W@__crt_stdio_output@@@2@@__crt_stdio_output@@AEAA_NXZ@PEAU1?1??234@AEAA_NXZ@@?$standard_base@_WV?$string_output_adapter@_W@__crt_stdio_output@@@__crt_stdio_output@@IEAA_NAEAPEAUansi_string@?1??type_case_Z@?$output_processor@_WV?$string_output_adapter@_W@__crt_stdio_output@@V?$format_validation_base@_WV?$string_output_adapter@_W@__crt_stdio_output@@@2@@1@AEAA_NXZ@@Z 000000018004e494 f i libucrt:output.obj
 0001:0004d4a8       ??$extract_argument_from_va_list@PEAUansi_string@?1??type_case_Z@?$output_processor@_WV?$string_output_adapter@_W@__crt_stdio_output@@V?$positional_parameter_base@_WV?$string_output_adapter@_W@__crt_stdio_output@@@2@@__crt_stdio_output@@AEAA_NXZ@PEAU1?1??234@AEAA_NXZ@@?$positional_parameter_base@_WV?$string_output_adapter@_W@__crt_stdio_output@@@__crt_stdio_output@@IEAA_NAEAPEAUansi_string@?1??type_case_Z@?$output_processor@_WV?$string_output_adapter@_W@__crt_stdio_output@@V?$positional_parameter_base@_WV?$string_output_adapter@_W@__crt_stdio_output@@@2@@1@AEAA_NXZ@@Z 000000018004e4a8 f i libucrt:output.obj
 0001:0004d564       ??$extract_argument_from_va_list@PEAUansi_string@?1??type_case_Z@?$output_processor@_WV?$string_output_adapter@_W@__crt_stdio_output@@V?$positional_parameter_base@_WV?$string_output_adapter@_W@__crt_stdio_output@@@2@@__crt_stdio_output@@AEAA_NXZ@PEAU1?1??234@AEAA_NXZ@@?$standard_base@_WV?$string_output_adapter@_W@__crt_stdio_output@@@__crt_stdio_output@@IEAA_NAEAPEAUansi_string@?1??type_case_Z@?$output_processor@_WV?$string_output_adapter@_W@__crt_stdio_output@@V?$positional_parameter_base@_WV?$string_output_adapter@_W@__crt_stdio_output@@@2@@1@AEAA_NXZ@@Z 000000018004e564 f i libucrt:output.obj
 0001:0004d578       ??$extract_argument_from_va_list@PEAUansi_string@?1??type_case_Z@?$output_processor@_WV?$string_output_adapter@_W@__crt_stdio_output@@V?$standard_base@_WV?$string_output_adapter@_W@__crt_stdio_output@@@2@@__crt_stdio_output@@AEAA_NXZ@PEAU1?1??234@AEAA_NXZ@@?$standard_base@_WV?$string_output_adapter@_W@__crt_stdio_output@@@__crt_stdio_output@@IEAA_NAEAPEAUansi_string@?1??type_case_Z@?$output_processor@_WV?$string_output_adapter@_W@__crt_stdio_output@@V?$standard_base@_WV?$string_output_adapter@_W@__crt_stdio_output@@@2@@1@AEAA_NXZ@@Z 000000018004e578 f i libucrt:output.obj
 0001:0004d58c       ??$extract_argument_from_va_list@PEAXPEAX@?$positional_parameter_base@DV?$stream_output_adapter@D@__crt_stdio_output@@@__crt_stdio_output@@IEAA_NAEAPEAX@Z 000000018004e58c f i libucrt:output.obj
 0001:0004d648       ??$extract_argument_from_va_list@PEAXPEAX@?$positional_parameter_base@DV?$string_output_adapter@D@__crt_stdio_output@@@__crt_stdio_output@@IEAA_NAEAPEAX@Z 000000018004e648 f i libucrt:output.obj
 0001:0004d704       ??$extract_argument_from_va_list@PEAXPEAX@?$positional_parameter_base@_WV?$stream_output_adapter@_W@__crt_stdio_output@@@__crt_stdio_output@@IEAA_NAEAPEAX@Z 000000018004e704 f i libucrt:output.obj
 0001:0004d7c0       ??$extract_argument_from_va_list@PEAXPEAX@?$positional_parameter_base@_WV?$string_output_adapter@_W@__crt_stdio_output@@@__crt_stdio_output@@IEAA_NAEAPEAX@Z 000000018004e7c0 f i libucrt:output.obj
 0001:0004d87c       ??$extract_argument_from_va_list@PEAXPEAX@?$standard_base@DV?$stream_output_adapter@D@__crt_stdio_output@@@__crt_stdio_output@@IEAA_NAEAPEAX@Z 000000018004e87c f i libucrt:output.obj
 0001:0004d890       ??$extract_argument_from_va_list@PEAXPEAX@?$standard_base@DV?$string_output_adapter@D@__crt_stdio_output@@@__crt_stdio_output@@IEAA_NAEAPEAX@Z 000000018004e890 f i libucrt:output.obj
 0001:0004d8a4       ??$extract_argument_from_va_list@PEAXPEAX@?$standard_base@_WV?$stream_output_adapter@_W@__crt_stdio_output@@@__crt_stdio_output@@IEAA_NAEAPEAX@Z 000000018004e8a4 f i libucrt:output.obj
 0001:0004d8b8       ??$extract_argument_from_va_list@PEAXPEAX@?$standard_base@_WV?$string_output_adapter@_W@__crt_stdio_output@@@__crt_stdio_output@@IEAA_NAEAPEAX@Z 000000018004e8b8 f i libucrt:output.obj
 0001:0004d8cc       ??$extract_argument_from_va_list@U_CRT_DOUBLE@@U1@@?$positional_parameter_base@DV?$stream_output_adapter@D@__crt_stdio_output@@@__crt_stdio_output@@IEAA_NAEAU_CRT_DOUBLE@@@Z 000000018004e8cc f i libucrt:output.obj
 0001:0004d988       ??$extract_argument_from_va_list@U_CRT_DOUBLE@@U1@@?$positional_parameter_base@DV?$string_output_adapter@D@__crt_stdio_output@@@__crt_stdio_output@@IEAA_NAEAU_CRT_DOUBLE@@@Z 000000018004e988 f i libucrt:output.obj
 0001:0004da44       ??$extract_argument_from_va_list@U_CRT_DOUBLE@@U1@@?$positional_parameter_base@_WV?$stream_output_adapter@_W@__crt_stdio_output@@@__crt_stdio_output@@IEAA_NAEAU_CRT_DOUBLE@@@Z 000000018004ea44 f i libucrt:output.obj
 0001:0004db00       ??$extract_argument_from_va_list@U_CRT_DOUBLE@@U1@@?$positional_parameter_base@_WV?$string_output_adapter@_W@__crt_stdio_output@@@__crt_stdio_output@@IEAA_NAEAU_CRT_DOUBLE@@@Z 000000018004eb00 f i libucrt:output.obj
 0001:0004dbbc       ??$extract_argument_from_va_list@U_CRT_DOUBLE@@U1@@?$standard_base@DV?$stream_output_adapter@D@__crt_stdio_output@@@__crt_stdio_output@@IEAA_NAEAU_CRT_DOUBLE@@@Z 000000018004ebbc f i libucrt:output.obj
 0001:0004dbd4       ??$extract_argument_from_va_list@U_CRT_DOUBLE@@U1@@?$standard_base@DV?$string_output_adapter@D@__crt_stdio_output@@@__crt_stdio_output@@IEAA_NAEAU_CRT_DOUBLE@@@Z 000000018004ebd4 f i libucrt:output.obj
 0001:0004dbec       ??$extract_argument_from_va_list@U_CRT_DOUBLE@@U1@@?$standard_base@_WV?$stream_output_adapter@_W@__crt_stdio_output@@@__crt_stdio_output@@IEAA_NAEAU_CRT_DOUBLE@@@Z 000000018004ebec f i libucrt:output.obj
 0001:0004dc04       ??$extract_argument_from_va_list@U_CRT_DOUBLE@@U1@@?$standard_base@_WV?$string_output_adapter@_W@__crt_stdio_output@@@__crt_stdio_output@@IEAA_NAEAU_CRT_DOUBLE@@@Z 000000018004ec04 f i libucrt:output.obj
 0001:0004dc1c       ??$extract_argument_from_va_list@_J_J@?$positional_parameter_base@DV?$stream_output_adapter@D@__crt_stdio_output@@@__crt_stdio_output@@IEAA_NAEA_J@Z 000000018004ec1c f i libucrt:output.obj
 0001:0004dcd8       ??$extract_argument_from_va_list@_J_J@?$positional_parameter_base@DV?$string_output_adapter@D@__crt_stdio_output@@@__crt_stdio_output@@IEAA_NAEA_J@Z 000000018004ecd8 f i libucrt:output.obj
 0001:0004dd94       ??$extract_argument_from_va_list@_J_J@?$positional_parameter_base@_WV?$stream_output_adapter@_W@__crt_stdio_output@@@__crt_stdio_output@@IEAA_NAEA_J@Z 000000018004ed94 f i libucrt:output.obj
 0001:0004de50       ??$extract_argument_from_va_list@_J_J@?$positional_parameter_base@_WV?$string_output_adapter@_W@__crt_stdio_output@@@__crt_stdio_output@@IEAA_NAEA_J@Z 000000018004ee50 f i libucrt:output.obj
 0001:0004df0c       ??$extract_argument_from_va_list@_J_J@?$standard_base@DV?$stream_output_adapter@D@__crt_stdio_output@@@__crt_stdio_output@@IEAA_NAEA_J@Z 000000018004ef0c f i libucrt:output.obj
 0001:0004df20       ??$extract_argument_from_va_list@_J_J@?$standard_base@DV?$string_output_adapter@D@__crt_stdio_output@@@__crt_stdio_output@@IEAA_NAEA_J@Z 000000018004ef20 f i libucrt:output.obj
 0001:0004df34       ??$extract_argument_from_va_list@_J_J@?$standard_base@_WV?$stream_output_adapter@_W@__crt_stdio_output@@@__crt_stdio_output@@IEAA_NAEA_J@Z 000000018004ef34 f i libucrt:output.obj
 0001:0004df48       ??$extract_argument_from_va_list@_J_J@?$standard_base@_WV?$string_output_adapter@_W@__crt_stdio_output@@@__crt_stdio_output@@IEAA_NAEA_J@Z 000000018004ef48 f i libucrt:output.obj
 0001:0004df5c       ??$extract_argument_from_va_list@_K_J@?$positional_parameter_base@DV?$stream_output_adapter@D@__crt_stdio_output@@@__crt_stdio_output@@IEAA_NAEA_J@Z 000000018004ef5c f i libucrt:output.obj
 0001:0004e018       ??$extract_argument_from_va_list@_K_J@?$positional_parameter_base@DV?$string_output_adapter@D@__crt_stdio_output@@@__crt_stdio_output@@IEAA_NAEA_J@Z 000000018004f018 f i libucrt:output.obj
 0001:0004e0d4       ??$extract_argument_from_va_list@_K_J@?$positional_parameter_base@_WV?$stream_output_adapter@_W@__crt_stdio_output@@@__crt_stdio_output@@IEAA_NAEA_J@Z 000000018004f0d4 f i libucrt:output.obj
 0001:0004e190       ??$extract_argument_from_va_list@_K_J@?$positional_parameter_base@_WV?$string_output_adapter@_W@__crt_stdio_output@@@__crt_stdio_output@@IEAA_NAEA_J@Z 000000018004f190 f i libucrt:output.obj
 0001:0004e24c       ??$extract_argument_from_va_list@_K_J@?$standard_base@DV?$stream_output_adapter@D@__crt_stdio_output@@@__crt_stdio_output@@IEAA_NAEA_J@Z 000000018004f24c f i libucrt:output.obj
 0001:0004e260       ??$extract_argument_from_va_list@_K_J@?$standard_base@DV?$string_output_adapter@D@__crt_stdio_output@@@__crt_stdio_output@@IEAA_NAEA_J@Z 000000018004f260 f i libucrt:output.obj
 0001:0004e274       ??$extract_argument_from_va_list@_K_J@?$standard_base@_WV?$stream_output_adapter@_W@__crt_stdio_output@@@__crt_stdio_output@@IEAA_NAEA_J@Z 000000018004f274 f i libucrt:output.obj
 0001:0004e288       ??$extract_argument_from_va_list@_K_J@?$standard_base@_WV?$string_output_adapter@_W@__crt_stdio_output@@@__crt_stdio_output@@IEAA_NAEA_J@Z 000000018004f288 f i libucrt:output.obj
 0001:0004e29c       ??$extract_argument_from_va_list@_W_W@?$positional_parameter_base@DV?$stream_output_adapter@D@__crt_stdio_output@@@__crt_stdio_output@@IEAA_NAEA_W@Z 000000018004f29c f i libucrt:output.obj
 0001:0004e358       ??$extract_argument_from_va_list@_W_W@?$positional_parameter_base@DV?$string_output_adapter@D@__crt_stdio_output@@@__crt_stdio_output@@IEAA_NAEA_W@Z 000000018004f358 f i libucrt:output.obj
 0001:0004e414       ??$extract_argument_from_va_list@_W_W@?$positional_parameter_base@_WV?$stream_output_adapter@_W@__crt_stdio_output@@@__crt_stdio_output@@IEAA_NAEA_W@Z 000000018004f414 f i libucrt:output.obj
 0001:0004e4d4       ??$extract_argument_from_va_list@_W_W@?$positional_parameter_base@_WV?$string_output_adapter@_W@__crt_stdio_output@@@__crt_stdio_output@@IEAA_NAEA_W@Z 000000018004f4d4 f i libucrt:output.obj
 0001:0004e594       ??$extract_argument_from_va_list@_W_W@?$standard_base@DV?$stream_output_adapter@D@__crt_stdio_output@@@__crt_stdio_output@@IEAA_NAEA_W@Z 000000018004f594 f i libucrt:output.obj
 0001:0004e5a8       ??$extract_argument_from_va_list@_W_W@?$standard_base@DV?$string_output_adapter@D@__crt_stdio_output@@@__crt_stdio_output@@IEAA_NAEA_W@Z 000000018004f5a8 f i libucrt:output.obj
 0001:0004e5bc       ??$extract_argument_from_va_list@_W_W@?$standard_base@_WV?$stream_output_adapter@_W@__crt_stdio_output@@@__crt_stdio_output@@IEAA_NAEA_W@Z 000000018004f5bc f i libucrt:output.obj
 0001:0004e5d0       ??$extract_argument_from_va_list@_W_W@?$standard_base@_WV?$string_output_adapter@_W@__crt_stdio_output@@@__crt_stdio_output@@IEAA_NAEA_W@Z 000000018004f5d0 f i libucrt:output.obj
 0001:0004e5e4       ??$get_parameter_type@D@?$positional_parameter_base@DV?$stream_output_adapter@D@__crt_stdio_output@@@__crt_stdio_output@@CA?AW4parameter_type@01@PEAD@Z 000000018004f5e4 f i libucrt:output.obj
 0001:0004e5ec       ??$get_parameter_type@D@?$positional_parameter_base@DV?$string_output_adapter@D@__crt_stdio_output@@@__crt_stdio_output@@CA?AW4parameter_type@01@PEAD@Z 000000018004f5ec f i libucrt:output.obj
 0001:0004e5f4       ??$get_parameter_type@D@?$positional_parameter_base@_WV?$stream_output_adapter@_W@__crt_stdio_output@@@__crt_stdio_output@@CA?AW4parameter_type@01@PEAD@Z 000000018004f5f4 f i libucrt:output.obj
 0001:0004e5fc       ??$get_parameter_type@D@?$positional_parameter_base@_WV?$string_output_adapter@_W@__crt_stdio_output@@@__crt_stdio_output@@CA?AW4parameter_type@01@PEAD@Z 000000018004f5fc f i libucrt:output.obj
 0001:0004e604       ??$get_parameter_type@Uansi_string@?1??type_case_Z@?$output_processor@DV?$stream_output_adapter@D@__crt_stdio_output@@V?$positional_parameter_base@DV?$stream_output_adapter@D@__crt_stdio_output@@@2@@__crt_stdio_output@@AEAA_NXZ@@?$positional_parameter_base@DV?$stream_output_adapter@D@__crt_stdio_output@@@__crt_stdio_output@@CA?AW4parameter_type@01@PEAUansi_string@?1??type_case_Z@?$output_processor@DV?$stream_output_adapter@D@__crt_stdio_output@@V?$positional_parameter_base@DV?$stream_output_adapter@D@__crt_stdio_output@@@2@@1@AEAA_NXZ@@Z 000000018004f604 f i libucrt:output.obj
 0001:0004e60c       ??$get_parameter_type@Uansi_string@?1??type_case_Z@?$output_processor@DV?$string_output_adapter@D@__crt_stdio_output@@V?$positional_parameter_base@DV?$string_output_adapter@D@__crt_stdio_output@@@2@@__crt_stdio_output@@AEAA_NXZ@@?$positional_parameter_base@DV?$string_output_adapter@D@__crt_stdio_output@@@__crt_stdio_output@@CA?AW4parameter_type@01@PEAUansi_string@?1??type_case_Z@?$output_processor@DV?$string_output_adapter@D@__crt_stdio_output@@V?$positional_parameter_base@DV?$string_output_adapter@D@__crt_stdio_output@@@2@@1@AEAA_NXZ@@Z 000000018004f60c f i libucrt:output.obj
 0001:0004e614       ??$get_parameter_type@Uansi_string@?1??type_case_Z@?$output_processor@_WV?$stream_output_adapter@_W@__crt_stdio_output@@V?$positional_parameter_base@_WV?$stream_output_adapter@_W@__crt_stdio_output@@@2@@__crt_stdio_output@@AEAA_NXZ@@?$positional_parameter_base@_WV?$stream_output_adapter@_W@__crt_stdio_output@@@__crt_stdio_output@@CA?AW4parameter_type@01@PEAUansi_string@?1??type_case_Z@?$output_processor@_WV?$stream_output_adapter@_W@__crt_stdio_output@@V?$positional_parameter_base@_WV?$stream_output_adapter@_W@__crt_stdio_output@@@2@@1@AEAA_NXZ@@Z 000000018004f614 f i libucrt:output.obj
 0001:0004e61c       ??$get_parameter_type@Uansi_string@?1??type_case_Z@?$output_processor@_WV?$string_output_adapter@_W@__crt_stdio_output@@V?$positional_parameter_base@_WV?$string_output_adapter@_W@__crt_stdio_output@@@2@@__crt_stdio_output@@AEAA_NXZ@@?$positional_parameter_base@_WV?$string_output_adapter@_W@__crt_stdio_output@@@__crt_stdio_output@@CA?AW4parameter_type@01@PEAUansi_string@?1??type_case_Z@?$output_processor@_WV?$string_output_adapter@_W@__crt_stdio_output@@V?$positional_parameter_base@_WV?$string_output_adapter@_W@__crt_stdio_output@@@2@@1@AEAA_NXZ@@Z 000000018004f61c f i libucrt:output.obj
 0001:0004e624       ??$get_parameter_type@X@?$positional_parameter_base@DV?$stream_output_adapter@D@__crt_stdio_output@@@__crt_stdio_output@@CA?AW4parameter_type@01@PEAX@Z 000000018004f624 f i libucrt:output.obj
 0001:0004e62c       ??$get_parameter_type@X@?$positional_parameter_base@DV?$string_output_adapter@D@__crt_stdio_output@@@__crt_stdio_output@@CA?AW4parameter_type@01@PEAX@Z 000000018004f62c f i libucrt:output.obj
 0001:0004e634       ??$get_parameter_type@X@?$positional_parameter_base@_WV?$stream_output_adapter@_W@__crt_stdio_output@@@__crt_stdio_output@@CA?AW4parameter_type@01@PEAX@Z 000000018004f634 f i libucrt:output.obj
 0001:0004e63c       ??$get_parameter_type@X@?$positional_parameter_base@_WV?$string_output_adapter@_W@__crt_stdio_output@@@__crt_stdio_output@@CA?AW4parameter_type@01@PEAX@Z 000000018004f63c f i libucrt:output.obj
 0001:0004e644       ??$is_character_specifier@D@?$positional_parameter_base@DV?$stream_output_adapter@D@__crt_stdio_output@@@__crt_stdio_output@@CA_ND@Z 000000018004f644 f i libucrt:output.obj
 0001:0004e650       ??$is_character_specifier@D@?$positional_parameter_base@DV?$string_output_adapter@D@__crt_stdio_output@@@__crt_stdio_output@@CA_ND@Z 000000018004f650 f i libucrt:output.obj
 0001:0004e65c       ??$is_character_specifier@_W@?$positional_parameter_base@_WV?$stream_output_adapter@_W@__crt_stdio_output@@@__crt_stdio_output@@CA_N_W@Z 000000018004f65c f i libucrt:output.obj
 0001:0004e66c       ??$is_character_specifier@_W@?$positional_parameter_base@_WV?$string_output_adapter@_W@__crt_stdio_output@@@__crt_stdio_output@@CA_N_W@Z 000000018004f66c f i libucrt:output.obj
 0001:0004e67c       ??$is_integral_specifier@D@?$positional_parameter_base@DV?$stream_output_adapter@D@__crt_stdio_output@@@__crt_stdio_output@@CA_ND@Z 000000018004f67c f i libucrt:output.obj
 0001:0004e6a0       ??$is_integral_specifier@D@?$positional_parameter_base@DV?$string_output_adapter@D@__crt_stdio_output@@@__crt_stdio_output@@CA_ND@Z 000000018004f6a0 f i libucrt:output.obj
 0001:0004e6c4       ??$is_integral_specifier@_W@?$positional_parameter_base@_WV?$stream_output_adapter@_W@__crt_stdio_output@@@__crt_stdio_output@@CA_N_W@Z 000000018004f6c4 f i libucrt:output.obj
 0001:0004e6ec       ??$is_integral_specifier@_W@?$positional_parameter_base@_WV?$string_output_adapter@_W@__crt_stdio_output@@@__crt_stdio_output@@CA_N_W@Z 000000018004f6ec f i libucrt:output.obj
 0001:0004e714       ??$is_pointer_specifier@D@?$positional_parameter_base@DV?$stream_output_adapter@D@__crt_stdio_output@@@__crt_stdio_output@@CA_ND@Z 000000018004f714 f i libucrt:output.obj
 0001:0004e71c       ??$is_pointer_specifier@D@?$positional_parameter_base@DV?$string_output_adapter@D@__crt_stdio_output@@@__crt_stdio_output@@CA_ND@Z 000000018004f71c f i libucrt:output.obj
 0001:0004e724       ??$is_pointer_specifier@_W@?$positional_parameter_base@_WV?$stream_output_adapter@_W@__crt_stdio_output@@@__crt_stdio_output@@CA_N_W@Z 000000018004f724 f i libucrt:output.obj
 0001:0004e72c       ??$is_pointer_specifier@_W@?$positional_parameter_base@_WV?$string_output_adapter@_W@__crt_stdio_output@@@__crt_stdio_output@@CA_N_W@Z 000000018004f72c f i libucrt:output.obj
 0001:0004e734       ??$is_string_specifier@D@?$positional_parameter_base@DV?$stream_output_adapter@D@__crt_stdio_output@@@__crt_stdio_output@@CA_ND@Z 000000018004f734 f i libucrt:output.obj
 0001:0004e740       ??$is_string_specifier@D@?$positional_parameter_base@DV?$string_output_adapter@D@__crt_stdio_output@@@__crt_stdio_output@@CA_ND@Z 000000018004f740 f i libucrt:output.obj
 0001:0004e74c       ??$is_string_specifier@_W@?$positional_parameter_base@_WV?$stream_output_adapter@_W@__crt_stdio_output@@@__crt_stdio_output@@CA_N_W@Z 000000018004f74c f i libucrt:output.obj
 0001:0004e75c       ??$is_string_specifier@_W@?$positional_parameter_base@_WV?$string_output_adapter@_W@__crt_stdio_output@@@__crt_stdio_output@@CA_N_W@Z 000000018004f75c f i libucrt:output.obj
 0001:0004e76c       ??$is_wide_character_specifier@D@__crt_stdio_output@@YA_N_KDW4length_modifier@0@@Z 000000018004f76c f i libucrt:output.obj
 0001:0004e794       ??$is_wide_character_specifier@_W@__crt_stdio_output@@YA_N_K_WW4length_modifier@0@@Z 000000018004f794 f i libucrt:output.obj
 0001:0004e7d4       ??$peek_va_arg@C@__crt_stdio_output@@YACPEAD@Z 000000018004f7d4 f i libucrt:output.obj
 0001:0004e7d8       ??$peek_va_arg@E@__crt_stdio_output@@YAEPEAD@Z 000000018004f7d8 f i libucrt:output.obj
 0001:0004e7dc       ??$peek_va_arg@F@__crt_stdio_output@@YAFPEAD@Z 000000018004f7dc f i libucrt:output.obj
 0001:0004e7e0       ??$peek_va_arg@G@__crt_stdio_output@@YAGPEAD@Z 000000018004f7e0 f i libucrt:output.obj
 0001:0004e7e4       ??$peek_va_arg@H@__crt_stdio_output@@YAHPEAD@Z 000000018004f7e4 f i libucrt:output.obj
 0001:0004e7e8       ??$peek_va_arg@I@__crt_stdio_output@@YAIPEAD@Z 000000018004f7e8 f i libucrt:output.obj
 0001:0004e7ec       ??$peek_va_arg@PEAD@__crt_stdio_output@@YAPEADPEAD@Z 000000018004f7ec f i libucrt:output.obj
 0001:0004e7f0       ??$peek_va_arg@PEAUansi_string@?1??type_case_Z@?$output_processor@DV?$stream_output_adapter@D@__crt_stdio_output@@V?$positional_parameter_base@DV?$stream_output_adapter@D@__crt_stdio_output@@@2@@__crt_stdio_output@@AEAA_NXZ@@__crt_stdio_output@@YAPEAUansi_string@?1??type_case_Z@?$output_processor@DV?$stream_output_adapter@D@__crt_stdio_output@@V?$positional_parameter_base@DV?$stream_output_adapter@D@__crt_stdio_output@@@2@@0@AEAA_NXZ@PEAD@Z 000000018004f7f0 f i libucrt:output.obj
 0001:0004e7f4       ??$peek_va_arg@PEAUansi_string@?1??type_case_Z@?$output_processor@DV?$string_output_adapter@D@__crt_stdio_output@@V?$positional_parameter_base@DV?$string_output_adapter@D@__crt_stdio_output@@@2@@__crt_stdio_output@@AEAA_NXZ@@__crt_stdio_output@@YAPEAUansi_string@?1??type_case_Z@?$output_processor@DV?$string_output_adapter@D@__crt_stdio_output@@V?$positional_parameter_base@DV?$string_output_adapter@D@__crt_stdio_output@@@2@@0@AEAA_NXZ@PEAD@Z 000000018004f7f4 f i libucrt:output.obj
 0001:0004e7f8       ??$peek_va_arg@PEAUansi_string@?1??type_case_Z@?$output_processor@_WV?$stream_output_adapter@_W@__crt_stdio_output@@V?$positional_parameter_base@_WV?$stream_output_adapter@_W@__crt_stdio_output@@@2@@__crt_stdio_output@@AEAA_NXZ@@__crt_stdio_output@@YAPEAUansi_string@?1??type_case_Z@?$output_processor@_WV?$stream_output_adapter@_W@__crt_stdio_output@@V?$positional_parameter_base@_WV?$stream_output_adapter@_W@__crt_stdio_output@@@2@@0@AEAA_NXZ@PEAD@Z 000000018004f7f8 f i libucrt:output.obj
 0001:0004e7fc       ??$peek_va_arg@PEAUansi_string@?1??type_case_Z@?$output_processor@_WV?$string_output_adapter@_W@__crt_stdio_output@@V?$positional_parameter_base@_WV?$string_output_adapter@_W@__crt_stdio_output@@@2@@__crt_stdio_output@@AEAA_NXZ@@__crt_stdio_output@@YAPEAUansi_string@?1??type_case_Z@?$output_processor@_WV?$string_output_adapter@_W@__crt_stdio_output@@V?$positional_parameter_base@_WV?$string_output_adapter@_W@__crt_stdio_output@@@2@@0@AEAA_NXZ@PEAD@Z 000000018004f7fc f i libucrt:output.obj
 0001:0004e800       ??$peek_va_arg@PEAX@__crt_stdio_output@@YAPEAXPEAD@Z 000000018004f800 f i libucrt:output.obj
 0001:0004e804       ??$peek_va_arg@U_CRT_DOUBLE@@@__crt_stdio_output@@YA?AU_CRT_DOUBLE@@PEAD@Z 000000018004f804 f i libucrt:output.obj
 0001:0004e808       ??$peek_va_arg@_J@__crt_stdio_output@@YA_JPEAD@Z 000000018004f808 f i libucrt:output.obj
 0001:0004e80c       ??$peek_va_arg@_K@__crt_stdio_output@@YA_KPEAD@Z 000000018004f80c f i libucrt:output.obj
 0001:0004e810       ??$peek_va_arg@_W@__crt_stdio_output@@YA_WPEAD@Z 000000018004f810 f i libucrt:output.obj
 0001:0004e814       ??$puttc_nolock@AEBDPEAU_iobuf@@@?$__crt_char_traits@D@@SAHAEBD$$QEAPEAU_iobuf@@@Z 000000018004f814 f i libucrt:output.obj
 0001:0004e820       ??$puttc_nolock@AEB_WPEAU_iobuf@@@?$__crt_char_traits@_W@@SAGAEB_W$$QEAPEAU_iobuf@@@Z 000000018004f820 f i libucrt:output.obj
 0001:0004e82c       ??$read_va_arg@C@__crt_stdio_output@@YACAEAPEAD@Z 000000018004f82c f i libucrt:output.obj
 0001:0004e838       ??$read_va_arg@E@__crt_stdio_output@@YAEAEAPEAD@Z 000000018004f838 f i libucrt:output.obj
 0001:0004e844       ??$read_va_arg@F@__crt_stdio_output@@YAFAEAPEAD@Z 000000018004f844 f i libucrt:output.obj
 0001:0004e850       ??$read_va_arg@G@__crt_stdio_output@@YAGAEAPEAD@Z 000000018004f850 f i libucrt:output.obj
 0001:0004e85c       ??$read_va_arg@H@__crt_stdio_output@@YAHAEAPEAD@Z 000000018004f85c f i libucrt:output.obj
 0001:0004e868       ??$read_va_arg@I@__crt_stdio_output@@YAIAEAPEAD@Z 000000018004f868 f i libucrt:output.obj
 0001:0004e874       ??$read_va_arg@PEAD@__crt_stdio_output@@YAPEADAEAPEAD@Z 000000018004f874 f i libucrt:output.obj
 0001:0004e880       ??$read_va_arg@PEAUansi_string@?1??type_case_Z@?$output_processor@DV?$stream_output_adapter@D@__crt_stdio_output@@V?$format_validation_base@DV?$stream_output_adapter@D@__crt_stdio_output@@@2@@__crt_stdio_output@@AEAA_NXZ@@__crt_stdio_output@@YAPEAUansi_string@?1??type_case_Z@?$output_processor@DV?$stream_output_adapter@D@__crt_stdio_output@@V?$format_validation_base@DV?$stream_output_adapter@D@__crt_stdio_output@@@2@@0@AEAA_NXZ@AEAPEAD@Z 000000018004f880 f i libucrt:output.obj
 0001:0004e88c       ??$read_va_arg@PEAUansi_string@?1??type_case_Z@?$output_processor@DV?$stream_output_adapter@D@__crt_stdio_output@@V?$positional_parameter_base@DV?$stream_output_adapter@D@__crt_stdio_output@@@2@@__crt_stdio_output@@AEAA_NXZ@@__crt_stdio_output@@YAPEAUansi_string@?1??type_case_Z@?$output_processor@DV?$stream_output_adapter@D@__crt_stdio_output@@V?$positional_parameter_base@DV?$stream_output_adapter@D@__crt_stdio_output@@@2@@0@AEAA_NXZ@AEAPEAD@Z 000000018004f88c f i libucrt:output.obj
 0001:0004e898       ??$read_va_arg@PEAUansi_string@?1??type_case_Z@?$output_processor@DV?$stream_output_adapter@D@__crt_stdio_output@@V?$standard_base@DV?$stream_output_adapter@D@__crt_stdio_output@@@2@@__crt_stdio_output@@AEAA_NXZ@@__crt_stdio_output@@YAPEAUansi_string@?1??type_case_Z@?$output_processor@DV?$stream_output_adapter@D@__crt_stdio_output@@V?$standard_base@DV?$stream_output_adapter@D@__crt_stdio_output@@@2@@0@AEAA_NXZ@AEAPEAD@Z 000000018004f898 f i libucrt:output.obj
 0001:0004e8a4       ??$read_va_arg@PEAUansi_string@?1??type_case_Z@?$output_processor@DV?$string_output_adapter@D@__crt_stdio_output@@V?$format_validation_base@DV?$string_output_adapter@D@__crt_stdio_output@@@2@@__crt_stdio_output@@AEAA_NXZ@@__crt_stdio_output@@YAPEAUansi_string@?1??type_case_Z@?$output_processor@DV?$string_output_adapter@D@__crt_stdio_output@@V?$format_validation_base@DV?$string_output_adapter@D@__crt_stdio_output@@@2@@0@AEAA_NXZ@AEAPEAD@Z 000000018004f8a4 f i libucrt:output.obj
 0001:0004e8b0       ??$read_va_arg@PEAUansi_string@?1??type_case_Z@?$output_processor@DV?$string_output_adapter@D@__crt_stdio_output@@V?$positional_parameter_base@DV?$string_output_adapter@D@__crt_stdio_output@@@2@@__crt_stdio_output@@AEAA_NXZ@@__crt_stdio_output@@YAPEAUansi_string@?1??type_case_Z@?$output_processor@DV?$string_output_adapter@D@__crt_stdio_output@@V?$positional_parameter_base@DV?$string_output_adapter@D@__crt_stdio_output@@@2@@0@AEAA_NXZ@AEAPEAD@Z 000000018004f8b0 f i libucrt:output.obj
 0001:0004e8bc       ??$read_va_arg@PEAUansi_string@?1??type_case_Z@?$output_processor@DV?$string_output_adapter@D@__crt_stdio_output@@V?$standard_base@DV?$string_output_adapter@D@__crt_stdio_output@@@2@@__crt_stdio_output@@AEAA_NXZ@@__crt_stdio_output@@YAPEAUansi_string@?1??type_case_Z@?$output_processor@DV?$string_output_adapter@D@__crt_stdio_output@@V?$standard_base@DV?$string_output_adapter@D@__crt_stdio_output@@@2@@0@AEAA_NXZ@AEAPEAD@Z 000000018004f8bc f i libucrt:output.obj
 0001:0004e8c8       ??$read_va_arg@PEAUansi_string@?1??type_case_Z@?$output_processor@_WV?$stream_output_adapter@_W@__crt_stdio_output@@V?$format_validation_base@_WV?$stream_output_adapter@_W@__crt_stdio_output@@@2@@__crt_stdio_output@@AEAA_NXZ@@__crt_stdio_output@@YAPEAUansi_string@?1??type_case_Z@?$output_processor@_WV?$stream_output_adapter@_W@__crt_stdio_output@@V?$format_validation_base@_WV?$stream_output_adapter@_W@__crt_stdio_output@@@2@@0@AEAA_NXZ@AEAPEAD@Z 000000018004f8c8 f i libucrt:output.obj
 0001:0004e8d4       ??$read_va_arg@PEAUansi_string@?1??type_case_Z@?$output_processor@_WV?$stream_output_adapter@_W@__crt_stdio_output@@V?$positional_parameter_base@_WV?$stream_output_adapter@_W@__crt_stdio_output@@@2@@__crt_stdio_output@@AEAA_NXZ@@__crt_stdio_output@@YAPEAUansi_string@?1??type_case_Z@?$output_processor@_WV?$stream_output_adapter@_W@__crt_stdio_output@@V?$positional_parameter_base@_WV?$stream_output_adapter@_W@__crt_stdio_output@@@2@@0@AEAA_NXZ@AEAPEAD@Z 000000018004f8d4 f i libucrt:output.obj
 0001:0004e8e0       ??$read_va_arg@PEAUansi_string@?1??type_case_Z@?$output_processor@_WV?$stream_output_adapter@_W@__crt_stdio_output@@V?$standard_base@_WV?$stream_output_adapter@_W@__crt_stdio_output@@@2@@__crt_stdio_output@@AEAA_NXZ@@__crt_stdio_output@@YAPEAUansi_string@?1??type_case_Z@?$output_processor@_WV?$stream_output_adapter@_W@__crt_stdio_output@@V?$standard_base@_WV?$stream_output_adapter@_W@__crt_stdio_output@@@2@@0@AEAA_NXZ@AEAPEAD@Z 000000018004f8e0 f i libucrt:output.obj
 0001:0004e8ec       ??$read_va_arg@PEAUansi_string@?1??type_case_Z@?$output_processor@_WV?$string_output_adapter@_W@__crt_stdio_output@@V?$format_validation_base@_WV?$string_output_adapter@_W@__crt_stdio_output@@@2@@__crt_stdio_output@@AEAA_NXZ@@__crt_stdio_output@@YAPEAUansi_string@?1??type_case_Z@?$output_processor@_WV?$string_output_adapter@_W@__crt_stdio_output@@V?$format_validation_base@_WV?$string_output_adapter@_W@__crt_stdio_output@@@2@@0@AEAA_NXZ@AEAPEAD@Z 000000018004f8ec f i libucrt:output.obj
 0001:0004e8f8       ??$read_va_arg@PEAUansi_string@?1??type_case_Z@?$output_processor@_WV?$string_output_adapter@_W@__crt_stdio_output@@V?$positional_parameter_base@_WV?$string_output_adapter@_W@__crt_stdio_output@@@2@@__crt_stdio_output@@AEAA_NXZ@@__crt_stdio_output@@YAPEAUansi_string@?1??type_case_Z@?$output_processor@_WV?$string_output_adapter@_W@__crt_stdio_output@@V?$positional_parameter_base@_WV?$string_output_adapter@_W@__crt_stdio_output@@@2@@0@AEAA_NXZ@AEAPEAD@Z 000000018004f8f8 f i libucrt:output.obj
 0001:0004e904       ??$read_va_arg@PEAUansi_string@?1??type_case_Z@?$output_processor@_WV?$string_output_adapter@_W@__crt_stdio_output@@V?$standard_base@_WV?$string_output_adapter@_W@__crt_stdio_output@@@2@@__crt_stdio_output@@AEAA_NXZ@@__crt_stdio_output@@YAPEAUansi_string@?1??type_case_Z@?$output_processor@_WV?$string_output_adapter@_W@__crt_stdio_output@@V?$standard_base@_WV?$string_output_adapter@_W@__crt_stdio_output@@@2@@0@AEAA_NXZ@AEAPEAD@Z 000000018004f904 f i libucrt:output.obj
 0001:0004e910       ??$read_va_arg@PEAX@__crt_stdio_output@@YAPEAXAEAPEAD@Z 000000018004f910 f i libucrt:output.obj
 0001:0004e91c       ??$read_va_arg@U_CRT_DOUBLE@@@__crt_stdio_output@@YA?AU_CRT_DOUBLE@@AEAPEAD@Z 000000018004f91c f i libucrt:output.obj
 0001:0004e928       ??$read_va_arg@_J@__crt_stdio_output@@YA_JAEAPEAD@Z 000000018004f928 f i libucrt:output.obj
 0001:0004e934       ??$read_va_arg@_K@__crt_stdio_output@@YA_KAEAPEAD@Z 000000018004f934 f i libucrt:output.obj
 0001:0004e940       ??$read_va_arg@_W@__crt_stdio_output@@YA_WAEAPEAD@Z 000000018004f940 f i libucrt:output.obj
 0001:0004e94c       ??$scratch_count@D@formatting_buffer@__crt_stdio_output@@QEBA_KXZ 000000018004f94c f i libucrt:output.obj
 0001:0004e968       ??$scratch_data@D@formatting_buffer@__crt_stdio_output@@QEAAPEADXZ 000000018004f968 f i libucrt:output.obj
 0001:0004e98c       ??$tcstol@AEAPEBDPEAPEADH@?$__crt_char_traits@D@@SAJAEAPEBD$$QEAPEAPEAD$$QEAH@Z 000000018004f98c f i libucrt:output.obj
 0001:0004e99c       ??$tcstol@AEAPEB_WPEAPEA_WH@?$__crt_char_traits@_W@@SAJAEAPEB_W$$QEAPEAPEA_W$$QEAH@Z 000000018004f99c f i libucrt:output.obj
 0001:0004e9ac       ??$tcstol@PEBDPEAPEADH@?$__crt_char_traits@D@@SAJ$$QEAPEBD$$QEAPEAPEAD$$QEAH@Z 000000018004f9ac f i libucrt:output.obj
 0001:0004e9bc       ??$tcstol@PEB_WPEAPEA_WH@?$__crt_char_traits@_W@@SAJ$$QEAPEB_W$$QEAPEAPEA_W$$QEAH@Z 000000018004f9bc f i libucrt:output.obj
 0001:0004e9cc       ??$type_case_integer_parse_into_buffer@I@?$output_processor@DV?$stream_output_adapter@D@__crt_stdio_output@@V?$format_validation_base@DV?$stream_output_adapter@D@__crt_stdio_output@@@2@@__crt_stdio_output@@AEAAXII_N@Z 000000018004f9cc f i libucrt:output.obj
 0001:0004ea54       ??$type_case_integer_parse_into_buffer@I@?$output_processor@DV?$stream_output_adapter@D@__crt_stdio_output@@V?$positional_parameter_base@DV?$stream_output_adapter@D@__crt_stdio_output@@@2@@__crt_stdio_output@@AEAAXII_N@Z 000000018004fa54 f i libucrt:output.obj
 0001:0004eadc       ??$type_case_integer_parse_into_buffer@I@?$output_processor@DV?$stream_output_adapter@D@__crt_stdio_output@@V?$standard_base@DV?$stream_output_adapter@D@__crt_stdio_output@@@2@@__crt_stdio_output@@AEAAXII_N@Z 000000018004fadc f i libucrt:output.obj
 0001:0004eb64       ??$type_case_integer_parse_into_buffer@I@?$output_processor@DV?$string_output_adapter@D@__crt_stdio_output@@V?$format_validation_base@DV?$string_output_adapter@D@__crt_stdio_output@@@2@@__crt_stdio_output@@AEAAXII_N@Z 000000018004fb64 f i libucrt:output.obj
 0001:0004ebec       ??$type_case_integer_parse_into_buffer@I@?$output_processor@DV?$string_output_adapter@D@__crt_stdio_output@@V?$positional_parameter_base@DV?$string_output_adapter@D@__crt_stdio_output@@@2@@__crt_stdio_output@@AEAAXII_N@Z 000000018004fbec f i libucrt:output.obj
 0001:0004ec74       ??$type_case_integer_parse_into_buffer@I@?$output_processor@DV?$string_output_adapter@D@__crt_stdio_output@@V?$standard_base@DV?$string_output_adapter@D@__crt_stdio_output@@@2@@__crt_stdio_output@@AEAAXII_N@Z 000000018004fc74 f i libucrt:output.obj
 0001:0004ecfc       ??$type_case_integer_parse_into_buffer@I@?$output_processor@_WV?$stream_output_adapter@_W@__crt_stdio_output@@V?$format_validation_base@_WV?$stream_output_adapter@_W@__crt_stdio_output@@@2@@__crt_stdio_output@@AEAAXII_N@Z 000000018004fcfc f i libucrt:output.obj
 0001:0004eda0       ??$type_case_integer_parse_into_buffer@I@?$output_processor@_WV?$stream_output_adapter@_W@__crt_stdio_output@@V?$positional_parameter_base@_WV?$stream_output_adapter@_W@__crt_stdio_output@@@2@@__crt_stdio_output@@AEAAXII_N@Z 000000018004fda0 f i libucrt:output.obj
 0001:0004ee44       ??$type_case_integer_parse_into_buffer@I@?$output_processor@_WV?$stream_output_adapter@_W@__crt_stdio_output@@V?$standard_base@_WV?$stream_output_adapter@_W@__crt_stdio_output@@@2@@__crt_stdio_output@@AEAAXII_N@Z 000000018004fe44 f i libucrt:output.obj
 0001:0004eee8       ??$type_case_integer_parse_into_buffer@I@?$output_processor@_WV?$string_output_adapter@_W@__crt_stdio_output@@V?$format_validation_base@_WV?$string_output_adapter@_W@__crt_stdio_output@@@2@@__crt_stdio_output@@AEAAXII_N@Z 000000018004fee8 f i libucrt:output.obj
 0001:0004ef8c       ??$type_case_integer_parse_into_buffer@I@?$output_processor@_WV?$string_output_adapter@_W@__crt_stdio_output@@V?$positional_parameter_base@_WV?$string_output_adapter@_W@__crt_stdio_output@@@2@@__crt_stdio_output@@AEAAXII_N@Z 000000018004ff8c f i libucrt:output.obj
 0001:0004f030       ??$type_case_integer_parse_into_buffer@I@?$output_processor@_WV?$string_output_adapter@_W@__crt_stdio_output@@V?$standard_base@_WV?$string_output_adapter@_W@__crt_stdio_output@@@2@@__crt_stdio_output@@AEAAXII_N@Z 0000000180050030 f i libucrt:output.obj
 0001:0004f0d4       ??$type_case_integer_parse_into_buffer@_K@?$output_processor@DV?$stream_output_adapter@D@__crt_stdio_output@@V?$format_validation_base@DV?$stream_output_adapter@D@__crt_stdio_output@@@2@@__crt_stdio_output@@AEAAX_KI_N@Z 00000001800500d4 f i libucrt:output.obj
 0001:0004f164       ??$type_case_integer_parse_into_buffer@_K@?$output_processor@DV?$stream_output_adapter@D@__crt_stdio_output@@V?$positional_parameter_base@DV?$stream_output_adapter@D@__crt_stdio_output@@@2@@__crt_stdio_output@@AEAAX_KI_N@Z 0000000180050164 f i libucrt:output.obj
 0001:0004f1f4       ??$type_case_integer_parse_into_buffer@_K@?$output_processor@DV?$stream_output_adapter@D@__crt_stdio_output@@V?$standard_base@DV?$stream_output_adapter@D@__crt_stdio_output@@@2@@__crt_stdio_output@@AEAAX_KI_N@Z 00000001800501f4 f i libucrt:output.obj
 0001:0004f284       ??$type_case_integer_parse_into_buffer@_K@?$output_processor@DV?$string_output_adapter@D@__crt_stdio_output@@V?$format_validation_base@DV?$string_output_adapter@D@__crt_stdio_output@@@2@@__crt_stdio_output@@AEAAX_KI_N@Z 0000000180050284 f i libucrt:output.obj
 0001:0004f314       ??$type_case_integer_parse_into_buffer@_K@?$output_processor@DV?$string_output_adapter@D@__crt_stdio_output@@V?$positional_parameter_base@DV?$string_output_adapter@D@__crt_stdio_output@@@2@@__crt_stdio_output@@AEAAX_KI_N@Z 0000000180050314 f i libucrt:output.obj
 0001:0004f3a4       ??$type_case_integer_parse_into_buffer@_K@?$output_processor@DV?$string_output_adapter@D@__crt_stdio_output@@V?$standard_base@DV?$string_output_adapter@D@__crt_stdio_output@@@2@@__crt_stdio_output@@AEAAX_KI_N@Z 00000001800503a4 f i libucrt:output.obj
 0001:0004f434       ??$type_case_integer_parse_into_buffer@_K@?$output_processor@_WV?$stream_output_adapter@_W@__crt_stdio_output@@V?$format_validation_base@_WV?$stream_output_adapter@_W@__crt_stdio_output@@@2@@__crt_stdio_output@@AEAAX_KI_N@Z 0000000180050434 f i libucrt:output.obj
 0001:0004f4d8       ??$type_case_integer_parse_into_buffer@_K@?$output_processor@_WV?$stream_output_adapter@_W@__crt_stdio_output@@V?$positional_parameter_base@_WV?$stream_output_adapter@_W@__crt_stdio_output@@@2@@__crt_stdio_output@@AEAAX_KI_N@Z 00000001800504d8 f i libucrt:output.obj
 0001:0004f57c       ??$type_case_integer_parse_into_buffer@_K@?$output_processor@_WV?$stream_output_adapter@_W@__crt_stdio_output@@V?$standard_base@_WV?$stream_output_adapter@_W@__crt_stdio_output@@@2@@__crt_stdio_output@@AEAAX_KI_N@Z 000000018005057c f i libucrt:output.obj
 0001:0004f620       ??$type_case_integer_parse_into_buffer@_K@?$output_processor@_WV?$string_output_adapter@_W@__crt_stdio_output@@V?$format_validation_base@_WV?$string_output_adapter@_W@__crt_stdio_output@@@2@@__crt_stdio_output@@AEAAX_KI_N@Z 0000000180050620 f i libucrt:output.obj
 0001:0004f6c4       ??$type_case_integer_parse_into_buffer@_K@?$output_processor@_WV?$string_output_adapter@_W@__crt_stdio_output@@V?$positional_parameter_base@_WV?$string_output_adapter@_W@__crt_stdio_output@@@2@@__crt_stdio_output@@AEAAX_KI_N@Z 00000001800506c4 f i libucrt:output.obj
 0001:0004f768       ??$type_case_integer_parse_into_buffer@_K@?$output_processor@_WV?$string_output_adapter@_W@__crt_stdio_output@@V?$standard_base@_WV?$string_output_adapter@_W@__crt_stdio_output@@@2@@__crt_stdio_output@@AEAAX_KI_N@Z 0000000180050768 f i libucrt:output.obj
 0001:0004f80c       ??$write_multiple_characters@V?$stream_output_adapter@D@__crt_stdio_output@@D@__crt_stdio_output@@YAXAEBV?$stream_output_adapter@D@0@DHQEAH@Z 000000018005080c f i libucrt:output.obj
 0001:0004f898       ??$write_multiple_characters@V?$stream_output_adapter@_W@__crt_stdio_output@@D@__crt_stdio_output@@YAXAEBV?$stream_output_adapter@_W@0@DHQEAH@Z 0000000180050898 f i libucrt:output.obj
 0001:0004f92c       ??$write_multiple_characters@V?$string_output_adapter@D@__crt_stdio_output@@D@__crt_stdio_output@@YAXAEBV?$string_output_adapter@D@0@DHQEAH@Z 000000018005092c f i libucrt:output.obj
 0001:0004f9a4       ??$write_multiple_characters@V?$string_output_adapter@_W@__crt_stdio_output@@D@__crt_stdio_output@@YAXAEBV?$string_output_adapter@_W@0@DHQEAH@Z 00000001800509a4 f i libucrt:output.obj
 0001:0004fb84       ??0?$common_data@D@__crt_stdio_output@@IEAA@XZ 0000000180050b84 f i libucrt:output.obj
 0001:0004fbc0       ??0?$common_data@_W@__crt_stdio_output@@IEAA@XZ 0000000180050bc0 f i libucrt:output.obj
 0001:0004fc00       ??0?$output_adapter_data@DV?$stream_output_adapter@D@__crt_stdio_output@@@__crt_stdio_output@@IEAA@AEBV?$stream_output_adapter@D@1@_KQEBDQEAU__crt_locale_pointers@@QEAD@Z 0000000180050c00 f i libucrt:output.obj
 0001:0004fc60       ??0?$output_adapter_data@DV?$string_output_adapter@D@__crt_stdio_output@@@__crt_stdio_output@@IEAA@AEBV?$string_output_adapter@D@1@_KQEBDQEAU__crt_locale_pointers@@QEAD@Z 0000000180050c60 f i libucrt:output.obj
 0001:0004fcc0       ??0?$output_adapter_data@_WV?$stream_output_adapter@_W@__crt_stdio_output@@@__crt_stdio_output@@IEAA@AEBV?$stream_output_adapter@_W@1@_KQEB_WQEAU__crt_locale_pointers@@QEAD@Z 0000000180050cc0 f i libucrt:output.obj
 0001:0004fd24       ??0?$output_adapter_data@_WV?$string_output_adapter@_W@__crt_stdio_output@@@__crt_stdio_output@@IEAA@AEBV?$string_output_adapter@_W@1@_KQEB_WQEAU__crt_locale_pointers@@QEAD@Z 0000000180050d24 f i libucrt:output.obj
 0001:0004fd88       ??0?$output_processor@DV?$stream_output_adapter@D@__crt_stdio_output@@V?$format_validation_base@DV?$stream_output_adapter@D@__crt_stdio_output@@@2@@__crt_stdio_output@@QEAA@AEBV?$stream_output_adapter@D@1@_KQEBDQEAU__crt_locale_pointers@@QEAD@Z 0000000180050d88 f i libucrt:output.obj
 0001:0004fdf4       ??0?$output_processor@DV?$stream_output_adapter@D@__crt_stdio_output@@V?$positional_parameter_base@DV?$stream_output_adapter@D@__crt_stdio_output@@@2@@__crt_stdio_output@@QEAA@AEBV?$stream_output_adapter@D@1@_KQEBDQEAU__crt_locale_pointers@@QEAD@Z 0000000180050df4 f i libucrt:output.obj
 0001:0004fe7c       ??0?$output_processor@DV?$stream_output_adapter@D@__crt_stdio_output@@V?$standard_base@DV?$stream_output_adapter@D@__crt_stdio_output@@@2@@__crt_stdio_output@@QEAA@AEBV?$stream_output_adapter@D@1@_KQEBDQEAU__crt_locale_pointers@@QEAD@Z 0000000180050e7c f i libucrt:output.obj
 0001:0004fee8       ??0?$output_processor@DV?$string_output_adapter@D@__crt_stdio_output@@V?$format_validation_base@DV?$string_output_adapter@D@__crt_stdio_output@@@2@@__crt_stdio_output@@QEAA@AEBV?$string_output_adapter@D@1@_KQEBDQEAU__crt_locale_pointers@@QEAD@Z 0000000180050ee8 f i libucrt:output.obj
 0001:0004ff54       ??0?$output_processor@DV?$string_output_adapter@D@__crt_stdio_output@@V?$positional_parameter_base@DV?$string_output_adapter@D@__crt_stdio_output@@@2@@__crt_stdio_output@@QEAA@AEBV?$string_output_adapter@D@1@_KQEBDQEAU__crt_locale_pointers@@QEAD@Z 0000000180050f54 f i libucrt:output.obj
 0001:0004ffdc       ??0?$output_processor@DV?$string_output_adapter@D@__crt_stdio_output@@V?$standard_base@DV?$string_output_adapter@D@__crt_stdio_output@@@2@@__crt_stdio_output@@QEAA@AEBV?$string_output_adapter@D@1@_KQEBDQEAU__crt_locale_pointers@@QEAD@Z 0000000180050fdc f i libucrt:output.obj
 0001:00050048       ??0?$output_processor@_WV?$stream_output_adapter@_W@__crt_stdio_output@@V?$format_validation_base@_WV?$stream_output_adapter@_W@__crt_stdio_output@@@2@@__crt_stdio_output@@QEAA@AEBV?$stream_output_adapter@_W@1@_KQEB_WQEAU__crt_locale_pointers@@QEAD@Z 0000000180051048 f i libucrt:output.obj
 0001:000500b8       ??0?$output_processor@_WV?$stream_output_adapter@_W@__crt_stdio_output@@V?$positional_parameter_base@_WV?$stream_output_adapter@_W@__crt_stdio_output@@@2@@__crt_stdio_output@@QEAA@AEBV?$stream_output_adapter@_W@1@_KQEB_WQEAU__crt_locale_pointers@@QEAD@Z 00000001800510b8 f i libucrt:output.obj
 0001:00050144       ??0?$output_processor@_WV?$stream_output_adapter@_W@__crt_stdio_output@@V?$standard_base@_WV?$stream_output_adapter@_W@__crt_stdio_output@@@2@@__crt_stdio_output@@QEAA@AEBV?$stream_output_adapter@_W@1@_KQEB_WQEAU__crt_locale_pointers@@QEAD@Z 0000000180051144 f i libucrt:output.obj
 0001:000501b4       ??0?$output_processor@_WV?$string_output_adapter@_W@__crt_stdio_output@@V?$format_validation_base@_WV?$string_output_adapter@_W@__crt_stdio_output@@@2@@__crt_stdio_output@@QEAA@AEBV?$string_output_adapter@_W@1@_KQEB_WQEAU__crt_locale_pointers@@QEAD@Z 00000001800511b4 f i libucrt:output.obj
 0001:00050224       ??0?$output_processor@_WV?$string_output_adapter@_W@__crt_stdio_output@@V?$positional_parameter_base@_WV?$string_output_adapter@_W@__crt_stdio_output@@@2@@__crt_stdio_output@@QEAA@AEBV?$string_output_adapter@_W@1@_KQEB_WQEAU__crt_locale_pointers@@QEAD@Z 0000000180051224 f i libucrt:output.obj
 0001:000502b0       ??0?$output_processor@_WV?$string_output_adapter@_W@__crt_stdio_output@@V?$standard_base@_WV?$string_output_adapter@_W@__crt_stdio_output@@@2@@__crt_stdio_output@@QEAA@AEBV?$string_output_adapter@_W@1@_KQEB_WQEAU__crt_locale_pointers@@QEAD@Z 00000001800512b0 f i libucrt:output.obj
 0001:00050320       ??0?$stream_output_adapter@D@__crt_stdio_output@@QEAA@QEAU_iobuf@@@Z 0000000180051320 f i libucrt:output.obj
 0001:00050328       ??0?$stream_output_adapter@_W@__crt_stdio_output@@QEAA@QEAU_iobuf@@@Z 0000000180051328 f i libucrt:output.obj
 0001:00050330       ??0?$string_output_adapter@D@__crt_stdio_output@@QEAA@QEAU?$string_output_adapter_context@D@1@@Z 0000000180051330 f i libucrt:output.obj
 0001:00050338       ??0?$string_output_adapter@_W@__crt_stdio_output@@QEAA@QEAU?$string_output_adapter_context@_W@1@@Z 0000000180051338 f i libucrt:output.obj
 0001:00050340       ??0_LocaleUpdate@@QEAA@QEAU__crt_locale_pointers@@@Z 0000000180051340 f i libucrt:output.obj
 0001:000503dc       ??0__acrt_stdio_temporary_buffering_guard@@QEAA@QEAU_iobuf@@@Z 00000001800513dc f i libucrt:output.obj
 0001:000503fc       ??0__crt_deferred_errno_cache@@QEAA@XZ 00000001800513fc f i libucrt:output.obj
 0001:00050404       ??0__crt_errno_guard@@QEAA@QEAH@Z 0000000180051404 f i libucrt:output.obj
 0001:00050414       ??0__crt_stdio_stream@@QEAA@QEAU_iobuf@@@Z 0000000180051414 f i libucrt:output.obj
 0001:00050420       ??0formatting_buffer@__crt_stdio_output@@QEAA@XZ 0000000180051420 f i libucrt:output.obj
 0001:00050434       ??1?$common_data@D@__crt_stdio_output@@QEAA@XZ 0000000180051434 f i libucrt:output.obj
 0001:00050458       ??1?$common_data@_W@__crt_stdio_output@@QEAA@XZ 0000000180051458 f i libucrt:output.obj
 0001:0005047c       ??1?$format_validation_base@DV?$stream_output_adapter@D@__crt_stdio_output@@@__crt_stdio_output@@QEAA@XZ 000000018005147c f i libucrt:output.obj
 0001:000504a0       ??1?$format_validation_base@DV?$string_output_adapter@D@__crt_stdio_output@@@__crt_stdio_output@@QEAA@XZ 00000001800514a0 f i libucrt:output.obj
 0001:000504c4       ??1?$format_validation_base@_WV?$stream_output_adapter@_W@__crt_stdio_output@@@__crt_stdio_output@@QEAA@XZ 00000001800514c4 f i libucrt:output.obj
 0001:000504e8       ??1?$format_validation_base@_WV?$string_output_adapter@_W@__crt_stdio_output@@@__crt_stdio_output@@QEAA@XZ 00000001800514e8 f i libucrt:output.obj
 0001:0005050c       ??1?$output_adapter_data@DV?$stream_output_adapter@D@__crt_stdio_output@@@__crt_stdio_output@@QEAA@XZ 000000018005150c f i libucrt:output.obj
 0001:00050530       ??1?$output_adapter_data@DV?$string_output_adapter@D@__crt_stdio_output@@@__crt_stdio_output@@QEAA@XZ 0000000180051530 f i libucrt:output.obj
 0001:00050554       ??1?$output_adapter_data@_WV?$stream_output_adapter@_W@__crt_stdio_output@@@__crt_stdio_output@@QEAA@XZ 0000000180051554 f i libucrt:output.obj
 0001:00050578       ??1?$output_adapter_data@_WV?$string_output_adapter@_W@__crt_stdio_output@@@__crt_stdio_output@@QEAA@XZ 0000000180051578 f i libucrt:output.obj
 0001:0005059c       ??1?$output_processor@DV?$stream_output_adapter@D@__crt_stdio_output@@V?$format_validation_base@DV?$stream_output_adapter@D@__crt_stdio_output@@@2@@__crt_stdio_output@@QEAA@XZ 000000018005159c f i libucrt:output.obj
 0001:000505c0       ??1?$output_processor@DV?$stream_output_adapter@D@__crt_stdio_output@@V?$positional_parameter_base@DV?$stream_output_adapter@D@__crt_stdio_output@@@2@@__crt_stdio_output@@QEAA@XZ 00000001800515c0 f i libucrt:output.obj
 0001:000505e4       ??1?$output_processor@DV?$stream_output_adapter@D@__crt_stdio_output@@V?$standard_base@DV?$stream_output_adapter@D@__crt_stdio_output@@@2@@__crt_stdio_output@@QEAA@XZ 00000001800515e4 f i libucrt:output.obj
 0001:00050608       ??1?$output_processor@DV?$string_output_adapter@D@__crt_stdio_output@@V?$format_validation_base@DV?$string_output_adapter@D@__crt_stdio_output@@@2@@__crt_stdio_output@@QEAA@XZ 0000000180051608 f i libucrt:output.obj
 0001:0005062c       ??1?$output_processor@DV?$string_output_adapter@D@__crt_stdio_output@@V?$positional_parameter_base@DV?$string_output_adapter@D@__crt_stdio_output@@@2@@__crt_stdio_output@@QEAA@XZ 000000018005162c f i libucrt:output.obj
 0001:00050650       ??1?$output_processor@DV?$string_output_adapter@D@__crt_stdio_output@@V?$standard_base@DV?$string_output_adapter@D@__crt_stdio_output@@@2@@__crt_stdio_output@@QEAA@XZ 0000000180051650 f i libucrt:output.obj
 0001:00050674       ??1?$output_processor@_WV?$stream_output_adapter@_W@__crt_stdio_output@@V?$format_validation_base@_WV?$stream_output_adapter@_W@__crt_stdio_output@@@2@@__crt_stdio_output@@QEAA@XZ 0000000180051674 f i libucrt:output.obj
 0001:00050698       ??1?$output_processor@_WV?$stream_output_adapter@_W@__crt_stdio_output@@V?$positional_parameter_base@_WV?$stream_output_adapter@_W@__crt_stdio_output@@@2@@__crt_stdio_output@@QEAA@XZ 0000000180051698 f i libucrt:output.obj
 0001:000506bc       ??1?$output_processor@_WV?$stream_output_adapter@_W@__crt_stdio_output@@V?$standard_base@_WV?$stream_output_adapter@_W@__crt_stdio_output@@@2@@__crt_stdio_output@@QEAA@XZ 00000001800516bc f i libucrt:output.obj
 0001:000506e0       ??1?$output_processor@_WV?$string_output_adapter@_W@__crt_stdio_output@@V?$format_validation_base@_WV?$string_output_adapter@_W@__crt_stdio_output@@@2@@__crt_stdio_output@@QEAA@XZ 00000001800516e0 f i libucrt:output.obj
 0001:00050704       ??1?$output_processor@_WV?$string_output_adapter@_W@__crt_stdio_output@@V?$positional_parameter_base@_WV?$string_output_adapter@_W@__crt_stdio_output@@@2@@__crt_stdio_output@@QEAA@XZ 0000000180051704 f i libucrt:output.obj
 0001:00050728       ??1?$output_processor@_WV?$string_output_adapter@_W@__crt_stdio_output@@V?$standard_base@_WV?$string_output_adapter@_W@__crt_stdio_output@@@2@@__crt_stdio_output@@QEAA@XZ 0000000180051728 f i libucrt:output.obj
 0001:0005074c       ??1?$positional_parameter_base@DV?$stream_output_adapter@D@__crt_stdio_output@@@__crt_stdio_output@@QEAA@XZ 000000018005174c f i libucrt:output.obj
 0001:00050770       ??1?$positional_parameter_base@DV?$string_output_adapter@D@__crt_stdio_output@@@__crt_stdio_output@@QEAA@XZ 0000000180051770 f i libucrt:output.obj
 0001:00050794       ??1?$positional_parameter_base@_WV?$stream_output_adapter@_W@__crt_stdio_output@@@__crt_stdio_output@@QEAA@XZ 0000000180051794 f i libucrt:output.obj
 0001:000507b8       ??1?$positional_parameter_base@_WV?$string_output_adapter@_W@__crt_stdio_output@@@__crt_stdio_output@@QEAA@XZ 00000001800517b8 f i libucrt:output.obj
 0001:000507dc       ??1?$standard_base@DV?$stream_output_adapter@D@__crt_stdio_output@@@__crt_stdio_output@@QEAA@XZ 00000001800517dc f i libucrt:output.obj
 0001:00050800       ??1?$standard_base@DV?$string_output_adapter@D@__crt_stdio_output@@@__crt_stdio_output@@QEAA@XZ 0000000180051800 f i libucrt:output.obj
 0001:00050824       ??1?$standard_base@_WV?$stream_output_adapter@_W@__crt_stdio_output@@@__crt_stdio_output@@QEAA@XZ 0000000180051824 f i libucrt:output.obj
 0001:00050848       ??1?$standard_base@_WV?$string_output_adapter@_W@__crt_stdio_output@@@__crt_stdio_output@@QEAA@XZ 0000000180051848 f i libucrt:output.obj
 0001:0005086c       ??1_LocaleUpdate@@QEAA@XZ  000000018005186c f i libucrt:output.obj
 0001:00050880       ??1__acrt_stdio_temporary_buffering_guard@@QEAA@XZ 0000000180051880 f i libucrt:output.obj
 0001:0005088c       ??1__crt_errno_guard@@QEAA@XZ 000000018005188c f i libucrt:output.obj
 0001:000508a0       ??1formatting_buffer@__crt_stdio_output@@QEAA@XZ 00000001800518a0 f i libucrt:output.obj
 0001:000508c4       ??4?$__crt_unique_heap_ptr@DU__crt_internal_free_policy@@@@QEAAAEAV0@$$QEAV0@@Z 00000001800518c4 f i libucrt:output.obj
 0001:000508f8       ??A?$spectre_mitigated_lookup_table@Ustate_transition_pair@__crt_stdio_output@@$0IA@@__crt_stdio_output@@QEBAAEBUstate_transition_pair@1@_K@Z 00000001800518f8 f i libucrt:output.obj
 0001:00050900       ??C__crt_stdio_stream@@QEBAPEAU__crt_stdio_stream_data@@XZ 0000000180051900 f i libucrt:output.obj
 0001:000510c8       ?GetLocaleT@_LocaleUpdate@@QEAAPEAU__crt_locale_pointers@@XZ 00000001800520c8 f i libucrt:output.obj
 0001:000510d0       ?__crt_interlocked_read_32@@YAHPEDH@Z 00000001800520d0 f i libucrt:output.obj
 0001:000510d4       ?adjust_hexit@?$output_processor@DV?$stream_output_adapter@D@__crt_stdio_output@@V?$format_validation_base@DV?$stream_output_adapter@D@__crt_stdio_output@@@2@@__crt_stdio_output@@CADH_N@Z 00000001800520d4 f i libucrt:output.obj
 0001:000510e0       ?adjust_hexit@?$output_processor@DV?$stream_output_adapter@D@__crt_stdio_output@@V?$positional_parameter_base@DV?$stream_output_adapter@D@__crt_stdio_output@@@2@@__crt_stdio_output@@CADH_N@Z 00000001800520e0 f i libucrt:output.obj
 0001:000510ec       ?adjust_hexit@?$output_processor@DV?$stream_output_adapter@D@__crt_stdio_output@@V?$standard_base@DV?$stream_output_adapter@D@__crt_stdio_output@@@2@@__crt_stdio_output@@CADH_N@Z 00000001800520ec f i libucrt:output.obj
 0001:000510f8       ?adjust_hexit@?$output_processor@DV?$string_output_adapter@D@__crt_stdio_output@@V?$format_validation_base@DV?$string_output_adapter@D@__crt_stdio_output@@@2@@__crt_stdio_output@@CADH_N@Z 00000001800520f8 f i libucrt:output.obj
 0001:00051104       ?adjust_hexit@?$output_processor@DV?$string_output_adapter@D@__crt_stdio_output@@V?$positional_parameter_base@DV?$string_output_adapter@D@__crt_stdio_output@@@2@@__crt_stdio_output@@CADH_N@Z 0000000180052104 f i libucrt:output.obj
 0001:00051110       ?adjust_hexit@?$output_processor@DV?$string_output_adapter@D@__crt_stdio_output@@V?$standard_base@DV?$string_output_adapter@D@__crt_stdio_output@@@2@@__crt_stdio_output@@CADH_N@Z 0000000180052110 f i libucrt:output.obj
 0001:0005111c       ?adjust_hexit@?$output_processor@_WV?$stream_output_adapter@_W@__crt_stdio_output@@V?$format_validation_base@_WV?$stream_output_adapter@_W@__crt_stdio_output@@@2@@__crt_stdio_output@@CADH_N@Z 000000018005211c f i libucrt:output.obj
 0001:00051128       ?adjust_hexit@?$output_processor@_WV?$stream_output_adapter@_W@__crt_stdio_output@@V?$positional_parameter_base@_WV?$stream_output_adapter@_W@__crt_stdio_output@@@2@@__crt_stdio_output@@CADH_N@Z 0000000180052128 f i libucrt:output.obj
 0001:00051134       ?adjust_hexit@?$output_processor@_WV?$stream_output_adapter@_W@__crt_stdio_output@@V?$standard_base@_WV?$stream_output_adapter@_W@__crt_stdio_output@@@2@@__crt_stdio_output@@CADH_N@Z 0000000180052134 f i libucrt:output.obj
 0001:00051140       ?adjust_hexit@?$output_processor@_WV?$string_output_adapter@_W@__crt_stdio_output@@V?$format_validation_base@_WV?$string_output_adapter@_W@__crt_stdio_output@@@2@@__crt_stdio_output@@CADH_N@Z 0000000180052140 f i libucrt:output.obj
 0001:0005114c       ?adjust_hexit@?$output_processor@_WV?$string_output_adapter@_W@__crt_stdio_output@@V?$positional_parameter_base@_WV?$string_output_adapter@_W@__crt_stdio_output@@@2@@__crt_stdio_output@@CADH_N@Z 000000018005214c f i libucrt:output.obj
 0001:00051158       ?adjust_hexit@?$output_processor@_WV?$string_output_adapter@_W@__crt_stdio_output@@V?$standard_base@_WV?$string_output_adapter@_W@__crt_stdio_output@@@2@@__crt_stdio_output@@CADH_N@Z 0000000180052158 f i libucrt:output.obj
 0001:00051164       ?advance_to_next_pass@?$positional_parameter_base@DV?$stream_output_adapter@D@__crt_stdio_output@@@__crt_stdio_output@@IEAA_NXZ 0000000180052164 f i libucrt:output.obj
 0001:000511b4       ?advance_to_next_pass@?$positional_parameter_base@DV?$string_output_adapter@D@__crt_stdio_output@@@__crt_stdio_output@@IEAA_NXZ 00000001800521b4 f i libucrt:output.obj
 0001:00051204       ?advance_to_next_pass@?$positional_parameter_base@_WV?$stream_output_adapter@_W@__crt_stdio_output@@@__crt_stdio_output@@IEAA_NXZ 0000000180052204 f i libucrt:output.obj
 0001:00051254       ?advance_to_next_pass@?$positional_parameter_base@_WV?$string_output_adapter@_W@__crt_stdio_output@@@__crt_stdio_output@@IEAA_NXZ 0000000180052254 f i libucrt:output.obj
 0001:000512a4       ?advance_to_next_pass@?$standard_base@DV?$stream_output_adapter@D@__crt_stdio_output@@@__crt_stdio_output@@IEAA_NXZ 00000001800522a4 f i libucrt:output.obj
 0001:000512b8       ?advance_to_next_pass@?$standard_base@DV?$string_output_adapter@D@__crt_stdio_output@@@__crt_stdio_output@@IEAA_NXZ 00000001800522b8 f i libucrt:output.obj
 0001:000512cc       ?advance_to_next_pass@?$standard_base@_WV?$stream_output_adapter@_W@__crt_stdio_output@@@__crt_stdio_output@@IEAA_NXZ 00000001800522cc f i libucrt:output.obj
 0001:000512e0       ?advance_to_next_pass@?$standard_base@_WV?$string_output_adapter@_W@__crt_stdio_output@@@__crt_stdio_output@@IEAA_NXZ 00000001800522e0 f i libucrt:output.obj
 0001:00051300       ?crop_zeroes@__crt_stdio_output@@YAXPEADQEAU__crt_locale_pointers@@@Z 0000000180052300 f i libucrt:output.obj
 0001:00051394       ?find_next_state@?$output_processor@DV?$stream_output_adapter@D@__crt_stdio_output@@V?$format_validation_base@DV?$stream_output_adapter@D@__crt_stdio_output@@@2@@__crt_stdio_output@@AEBA?AW4state@2@DW432@@Z 0000000180052394 f i libucrt:output.obj
 0001:000513c4       ?find_next_state@?$output_processor@DV?$stream_output_adapter@D@__crt_stdio_output@@V?$positional_parameter_base@DV?$stream_output_adapter@D@__crt_stdio_output@@@2@@__crt_stdio_output@@AEBA?AW4state@2@DW432@@Z 00000001800523c4 f i libucrt:output.obj
 0001:000513f4       ?find_next_state@?$output_processor@DV?$stream_output_adapter@D@__crt_stdio_output@@V?$standard_base@DV?$stream_output_adapter@D@__crt_stdio_output@@@2@@__crt_stdio_output@@AEBA?AW4state@2@DW432@@Z 00000001800523f4 f i libucrt:output.obj
 0001:00051424       ?find_next_state@?$output_processor@DV?$string_output_adapter@D@__crt_stdio_output@@V?$format_validation_base@DV?$string_output_adapter@D@__crt_stdio_output@@@2@@__crt_stdio_output@@AEBA?AW4state@2@DW432@@Z 0000000180052424 f i libucrt:output.obj
 0001:00051454       ?find_next_state@?$output_processor@DV?$string_output_adapter@D@__crt_stdio_output@@V?$positional_parameter_base@DV?$string_output_adapter@D@__crt_stdio_output@@@2@@__crt_stdio_output@@AEBA?AW4state@2@DW432@@Z 0000000180052454 f i libucrt:output.obj
 0001:00051484       ?find_next_state@?$output_processor@DV?$string_output_adapter@D@__crt_stdio_output@@V?$standard_base@DV?$string_output_adapter@D@__crt_stdio_output@@@2@@__crt_stdio_output@@AEBA?AW4state@2@DW432@@Z 0000000180052484 f i libucrt:output.obj
 0001:000514b4       ?find_next_state@?$output_processor@_WV?$stream_output_adapter@_W@__crt_stdio_output@@V?$format_validation_base@_WV?$stream_output_adapter@_W@__crt_stdio_output@@@2@@__crt_stdio_output@@AEBA?AW4state@2@_WW432@@Z 00000001800524b4 f i libucrt:output.obj
 0001:000514ec       ?find_next_state@?$output_processor@_WV?$stream_output_adapter@_W@__crt_stdio_output@@V?$positional_parameter_base@_WV?$stream_output_adapter@_W@__crt_stdio_output@@@2@@__crt_stdio_output@@AEBA?AW4state@2@_WW432@@Z 00000001800524ec f i libucrt:output.obj
 0001:00051524       ?find_next_state@?$output_processor@_WV?$stream_output_adapter@_W@__crt_stdio_output@@V?$standard_base@_WV?$stream_output_adapter@_W@__crt_stdio_output@@@2@@__crt_stdio_output@@AEBA?AW4state@2@_WW432@@Z 0000000180052524 f i libucrt:output.obj
 0001:0005155c       ?find_next_state@?$output_processor@_WV?$string_output_adapter@_W@__crt_stdio_output@@V?$format_validation_base@_WV?$string_output_adapter@_W@__crt_stdio_output@@@2@@__crt_stdio_output@@AEBA?AW4state@2@_WW432@@Z 000000018005255c f i libucrt:output.obj
 0001:00051594       ?find_next_state@?$output_processor@_WV?$string_output_adapter@_W@__crt_stdio_output@@V?$positional_parameter_base@_WV?$string_output_adapter@_W@__crt_stdio_output@@@2@@__crt_stdio_output@@AEBA?AW4state@2@_WW432@@Z 0000000180052594 f i libucrt:output.obj
 0001:000515cc       ?find_next_state@?$output_processor@_WV?$string_output_adapter@_W@__crt_stdio_output@@V?$standard_base@_WV?$string_output_adapter@_W@__crt_stdio_output@@@2@@__crt_stdio_output@@AEBA?AW4state@2@_WW432@@Z 00000001800525cc f i libucrt:output.obj
 0001:00051610       ?force_decimal_point@__crt_stdio_output@@YAXPEADQEAU__crt_locale_pointers@@@Z 0000000180052610 f i libucrt:output.obj
 0001:00051688       ?get@__crt_deferred_errno_cache@@QEAAAEAHXZ 0000000180052688 f i libucrt:output.obj
 0001:000516a8       ?get_flags@__crt_stdio_stream@@QEBAJXZ 00000001800526a8 f i libucrt:output.obj
 0001:000516b0       ?get_parameter_type@?$positional_parameter_base@DV?$stream_output_adapter@D@__crt_stdio_output@@@__crt_stdio_output@@CA?AW4parameter_type@12@F@Z 00000001800526b0 f i libucrt:output.obj
 0001:000516b8       ?get_parameter_type@?$positional_parameter_base@DV?$stream_output_adapter@D@__crt_stdio_output@@@__crt_stdio_output@@CA?AW4parameter_type@12@G@Z 00000001800526b8 f i libucrt:output.obj
 0001:000516c0       ?get_parameter_type@?$positional_parameter_base@DV?$stream_output_adapter@D@__crt_stdio_output@@@__crt_stdio_output@@CA?AW4parameter_type@12@H@Z 00000001800526c0 f i libucrt:output.obj
 0001:000516c8       ?get_parameter_type@?$positional_parameter_base@DV?$stream_output_adapter@D@__crt_stdio_output@@@__crt_stdio_output@@CA?AW4parameter_type@12@I@Z 00000001800526c8 f i libucrt:output.obj
 0001:000516d0       ?get_parameter_type@?$positional_parameter_base@DV?$stream_output_adapter@D@__crt_stdio_output@@@__crt_stdio_output@@CA?AW4parameter_type@12@U_CRT_DOUBLE@@@Z 00000001800526d0 f i libucrt:output.obj
 0001:000516d8       ?get_parameter_type@?$positional_parameter_base@DV?$stream_output_adapter@D@__crt_stdio_output@@@__crt_stdio_output@@CA?AW4parameter_type@12@_J@Z 00000001800526d8 f i libucrt:output.obj
 0001:000516e0       ?get_parameter_type@?$positional_parameter_base@DV?$stream_output_adapter@D@__crt_stdio_output@@@__crt_stdio_output@@CA?AW4parameter_type@12@_K@Z 00000001800526e0 f i libucrt:output.obj
 0001:000516e8       ?get_parameter_type@?$positional_parameter_base@DV?$stream_output_adapter@D@__crt_stdio_output@@@__crt_stdio_output@@CA?AW4parameter_type@12@_W@Z 00000001800526e8 f i libucrt:output.obj
 0001:000516f0       ?get_parameter_type@?$positional_parameter_base@DV?$string_output_adapter@D@__crt_stdio_output@@@__crt_stdio_output@@CA?AW4parameter_type@12@F@Z 00000001800526f0 f i libucrt:output.obj
 0001:000516f8       ?get_parameter_type@?$positional_parameter_base@DV?$string_output_adapter@D@__crt_stdio_output@@@__crt_stdio_output@@CA?AW4parameter_type@12@G@Z 00000001800526f8 f i libucrt:output.obj
 0001:00051700       ?get_parameter_type@?$positional_parameter_base@DV?$string_output_adapter@D@__crt_stdio_output@@@__crt_stdio_output@@CA?AW4parameter_type@12@H@Z 0000000180052700 f i libucrt:output.obj
 0001:00051708       ?get_parameter_type@?$positional_parameter_base@DV?$string_output_adapter@D@__crt_stdio_output@@@__crt_stdio_output@@CA?AW4parameter_type@12@I@Z 0000000180052708 f i libucrt:output.obj
 0001:00051710       ?get_parameter_type@?$positional_parameter_base@DV?$string_output_adapter@D@__crt_stdio_output@@@__crt_stdio_output@@CA?AW4parameter_type@12@U_CRT_DOUBLE@@@Z 0000000180052710 f i libucrt:output.obj
 0001:00051718       ?get_parameter_type@?$positional_parameter_base@DV?$string_output_adapter@D@__crt_stdio_output@@@__crt_stdio_output@@CA?AW4parameter_type@12@_J@Z 0000000180052718 f i libucrt:output.obj
 0001:00051720       ?get_parameter_type@?$positional_parameter_base@DV?$string_output_adapter@D@__crt_stdio_output@@@__crt_stdio_output@@CA?AW4parameter_type@12@_K@Z 0000000180052720 f i libucrt:output.obj
 0001:00051728       ?get_parameter_type@?$positional_parameter_base@DV?$string_output_adapter@D@__crt_stdio_output@@@__crt_stdio_output@@CA?AW4parameter_type@12@_W@Z 0000000180052728 f i libucrt:output.obj
 0001:00051730       ?get_parameter_type@?$positional_parameter_base@_WV?$stream_output_adapter@_W@__crt_stdio_output@@@__crt_stdio_output@@CA?AW4parameter_type@12@F@Z 0000000180052730 f i libucrt:output.obj
 0001:00051738       ?get_parameter_type@?$positional_parameter_base@_WV?$stream_output_adapter@_W@__crt_stdio_output@@@__crt_stdio_output@@CA?AW4parameter_type@12@G@Z 0000000180052738 f i libucrt:output.obj
 0001:00051740       ?get_parameter_type@?$positional_parameter_base@_WV?$stream_output_adapter@_W@__crt_stdio_output@@@__crt_stdio_output@@CA?AW4parameter_type@12@H@Z 0000000180052740 f i libucrt:output.obj
 0001:00051748       ?get_parameter_type@?$positional_parameter_base@_WV?$stream_output_adapter@_W@__crt_stdio_output@@@__crt_stdio_output@@CA?AW4parameter_type@12@I@Z 0000000180052748 f i libucrt:output.obj
 0001:00051750       ?get_parameter_type@?$positional_parameter_base@_WV?$stream_output_adapter@_W@__crt_stdio_output@@@__crt_stdio_output@@CA?AW4parameter_type@12@U_CRT_DOUBLE@@@Z 0000000180052750 f i libucrt:output.obj
 0001:00051758       ?get_parameter_type@?$positional_parameter_base@_WV?$stream_output_adapter@_W@__crt_stdio_output@@@__crt_stdio_output@@CA?AW4parameter_type@12@_J@Z 0000000180052758 f i libucrt:output.obj
 0001:00051760       ?get_parameter_type@?$positional_parameter_base@_WV?$stream_output_adapter@_W@__crt_stdio_output@@@__crt_stdio_output@@CA?AW4parameter_type@12@_K@Z 0000000180052760 f i libucrt:output.obj
 0001:00051768       ?get_parameter_type@?$positional_parameter_base@_WV?$stream_output_adapter@_W@__crt_stdio_output@@@__crt_stdio_output@@CA?AW4parameter_type@12@_W@Z 0000000180052768 f i libucrt:output.obj
 0001:00051770       ?get_parameter_type@?$positional_parameter_base@_WV?$string_output_adapter@_W@__crt_stdio_output@@@__crt_stdio_output@@CA?AW4parameter_type@12@F@Z 0000000180052770 f i libucrt:output.obj
 0001:00051778       ?get_parameter_type@?$positional_parameter_base@_WV?$string_output_adapter@_W@__crt_stdio_output@@@__crt_stdio_output@@CA?AW4parameter_type@12@G@Z 0000000180052778 f i libucrt:output.obj
 0001:00051780       ?get_parameter_type@?$positional_parameter_base@_WV?$string_output_adapter@_W@__crt_stdio_output@@@__crt_stdio_output@@CA?AW4parameter_type@12@H@Z 0000000180052780 f i libucrt:output.obj
 0001:00051788       ?get_parameter_type@?$positional_parameter_base@_WV?$string_output_adapter@_W@__crt_stdio_output@@@__crt_stdio_output@@CA?AW4parameter_type@12@I@Z 0000000180052788 f i libucrt:output.obj
 0001:00051790       ?get_parameter_type@?$positional_parameter_base@_WV?$string_output_adapter@_W@__crt_stdio_output@@@__crt_stdio_output@@CA?AW4parameter_type@12@U_CRT_DOUBLE@@@Z 0000000180052790 f i libucrt:output.obj
 0001:00051798       ?get_parameter_type@?$positional_parameter_base@_WV?$string_output_adapter@_W@__crt_stdio_output@@@__crt_stdio_output@@CA?AW4parameter_type@12@_J@Z 0000000180052798 f i libucrt:output.obj
 0001:000517a0       ?get_parameter_type@?$positional_parameter_base@_WV?$string_output_adapter@_W@__crt_stdio_output@@@__crt_stdio_output@@CA?AW4parameter_type@12@_K@Z 00000001800527a0 f i libucrt:output.obj
 0001:000517a8       ?get_parameter_type@?$positional_parameter_base@_WV?$string_output_adapter@_W@__crt_stdio_output@@@__crt_stdio_output@@CA?AW4parameter_type@12@_W@Z 00000001800527a8 f i libucrt:output.obj
 0001:000517b0       ?has_flag@?$output_processor@DV?$stream_output_adapter@D@__crt_stdio_output@@V?$format_validation_base@DV?$stream_output_adapter@D@__crt_stdio_output@@@2@@__crt_stdio_output@@AEBA_NI@Z 00000001800527b0 f i libucrt:output.obj
 0001:000517b8       ?has_flag@?$output_processor@DV?$stream_output_adapter@D@__crt_stdio_output@@V?$positional_parameter_base@DV?$stream_output_adapter@D@__crt_stdio_output@@@2@@__crt_stdio_output@@AEBA_NI@Z 00000001800527b8 f i libucrt:output.obj
 0001:000517c0       ?has_flag@?$output_processor@DV?$stream_output_adapter@D@__crt_stdio_output@@V?$standard_base@DV?$stream_output_adapter@D@__crt_stdio_output@@@2@@__crt_stdio_output@@AEBA_NI@Z 00000001800527c0 f i libucrt:output.obj
 0001:000517c8       ?has_flag@?$output_processor@DV?$string_output_adapter@D@__crt_stdio_output@@V?$format_validation_base@DV?$string_output_adapter@D@__crt_stdio_output@@@2@@__crt_stdio_output@@AEBA_NI@Z 00000001800527c8 f i libucrt:output.obj
 0001:000517d0       ?has_flag@?$output_processor@DV?$string_output_adapter@D@__crt_stdio_output@@V?$positional_parameter_base@DV?$string_output_adapter@D@__crt_stdio_output@@@2@@__crt_stdio_output@@AEBA_NI@Z 00000001800527d0 f i libucrt:output.obj
 0001:000517d8       ?has_flag@?$output_processor@DV?$string_output_adapter@D@__crt_stdio_output@@V?$standard_base@DV?$string_output_adapter@D@__crt_stdio_output@@@2@@__crt_stdio_output@@AEBA_NI@Z 00000001800527d8 f i libucrt:output.obj
 0001:000517e0       ?has_flag@?$output_processor@_WV?$stream_output_adapter@_W@__crt_stdio_output@@V?$format_validation_base@_WV?$stream_output_adapter@_W@__crt_stdio_output@@@2@@__crt_stdio_output@@AEBA_NI@Z 00000001800527e0 f i libucrt:output.obj
 0001:000517e8       ?has_flag@?$output_processor@_WV?$stream_output_adapter@_W@__crt_stdio_output@@V?$positional_parameter_base@_WV?$stream_output_adapter@_W@__crt_stdio_output@@@2@@__crt_stdio_output@@AEBA_NI@Z 00000001800527e8 f i libucrt:output.obj
 0001:000517f0       ?has_flag@?$output_processor@_WV?$stream_output_adapter@_W@__crt_stdio_output@@V?$standard_base@_WV?$stream_output_adapter@_W@__crt_stdio_output@@@2@@__crt_stdio_output@@AEBA_NI@Z 00000001800527f0 f i libucrt:output.obj
 0001:000517f8       ?has_flag@?$output_processor@_WV?$string_output_adapter@_W@__crt_stdio_output@@V?$format_validation_base@_WV?$string_output_adapter@_W@__crt_stdio_output@@@2@@__crt_stdio_output@@AEBA_NI@Z 00000001800527f8 f i libucrt:output.obj
 0001:00051800       ?has_flag@?$output_processor@_WV?$string_output_adapter@_W@__crt_stdio_output@@V?$positional_parameter_base@_WV?$string_output_adapter@_W@__crt_stdio_output@@@2@@__crt_stdio_output@@AEBA_NI@Z 0000000180052800 f i libucrt:output.obj
 0001:00051808       ?has_flag@?$output_processor@_WV?$string_output_adapter@_W@__crt_stdio_output@@V?$standard_base@_WV?$string_output_adapter@_W@__crt_stdio_output@@@2@@__crt_stdio_output@@AEBA_NI@Z 0000000180052808 f i libucrt:output.obj
 0001:00051810       ?is_positional_parameter_reappearance_consistent@?$positional_parameter_base@DV?$stream_output_adapter@D@__crt_stdio_output@@@__crt_stdio_output@@AEAA_NAEBUparameter_data@12@W4parameter_type@12@DW4length_modifier@2@@Z 0000000180052810 f i libucrt:output.obj
 0001:000519b0       ?is_positional_parameter_reappearance_consistent@?$positional_parameter_base@DV?$string_output_adapter@D@__crt_stdio_output@@@__crt_stdio_output@@AEAA_NAEBUparameter_data@12@W4parameter_type@12@DW4length_modifier@2@@Z 00000001800529b0 f i libucrt:output.obj
 0001:00051b50       ?is_positional_parameter_reappearance_consistent@?$positional_parameter_base@_WV?$stream_output_adapter@_W@__crt_stdio_output@@@__crt_stdio_output@@AEAA_NAEBUparameter_data@12@W4parameter_type@12@_WW4length_modifier@2@@Z 0000000180052b50 f i libucrt:output.obj
 0001:00051cbc       ?is_positional_parameter_reappearance_consistent@?$positional_parameter_base@_WV?$string_output_adapter@_W@__crt_stdio_output@@@__crt_stdio_output@@AEAA_NAEBUparameter_data@12@W4parameter_type@12@_WW4length_modifier@2@@Z 0000000180052cbc f i libucrt:output.obj
 0001:00051e28       ?is_string_backed@__crt_stdio_stream@@QEBA_NXZ 0000000180052e28 f i libucrt:output.obj
 0001:00051e34       ?narrow_null_string@?$output_processor@DV?$stream_output_adapter@D@__crt_stdio_output@@V?$format_validation_base@DV?$stream_output_adapter@D@__crt_stdio_output@@@2@@__crt_stdio_output@@CAPEADXZ 0000000180052e34 f i libucrt:output.obj
 0001:00051e3c       ?narrow_null_string@?$output_processor@DV?$stream_output_adapter@D@__crt_stdio_output@@V?$positional_parameter_base@DV?$stream_output_adapter@D@__crt_stdio_output@@@2@@__crt_stdio_output@@CAPEADXZ 0000000180052e3c f i libucrt:output.obj
 0001:00051e44       ?narrow_null_string@?$output_processor@DV?$stream_output_adapter@D@__crt_stdio_output@@V?$standard_base@DV?$stream_output_adapter@D@__crt_stdio_output@@@2@@__crt_stdio_output@@CAPEADXZ 0000000180052e44 f i libucrt:output.obj
 0001:00051e4c       ?narrow_null_string@?$output_processor@DV?$string_output_adapter@D@__crt_stdio_output@@V?$format_validation_base@DV?$string_output_adapter@D@__crt_stdio_output@@@2@@__crt_stdio_output@@CAPEADXZ 0000000180052e4c f i libucrt:output.obj
 0001:00051e54       ?narrow_null_string@?$output_processor@DV?$string_output_adapter@D@__crt_stdio_output@@V?$positional_parameter_base@DV?$string_output_adapter@D@__crt_stdio_output@@@2@@__crt_stdio_output@@CAPEADXZ 0000000180052e54 f i libucrt:output.obj
 0001:00051e5c       ?narrow_null_string@?$output_processor@DV?$string_output_adapter@D@__crt_stdio_output@@V?$standard_base@DV?$string_output_adapter@D@__crt_stdio_output@@@2@@__crt_stdio_output@@CAPEADXZ 0000000180052e5c f i libucrt:output.obj
 0001:00051e64       ?narrow_null_string@?$output_processor@_WV?$stream_output_adapter@_W@__crt_stdio_output@@V?$format_validation_base@_WV?$stream_output_adapter@_W@__crt_stdio_output@@@2@@__crt_stdio_output@@CAPEADXZ 0000000180052e64 f i libucrt:output.obj
 0001:00051e6c       ?narrow_null_string@?$output_processor@_WV?$stream_output_adapter@_W@__crt_stdio_output@@V?$positional_parameter_base@_WV?$stream_output_adapter@_W@__crt_stdio_output@@@2@@__crt_stdio_output@@CAPEADXZ 0000000180052e6c f i libucrt:output.obj
 0001:00051e74       ?narrow_null_string@?$output_processor@_WV?$stream_output_adapter@_W@__crt_stdio_output@@V?$standard_base@_WV?$stream_output_adapter@_W@__crt_stdio_output@@@2@@__crt_stdio_output@@CAPEADXZ 0000000180052e74 f i libucrt:output.obj
 0001:00051e7c       ?narrow_null_string@?$output_processor@_WV?$string_output_adapter@_W@__crt_stdio_output@@V?$format_validation_base@_WV?$string_output_adapter@_W@__crt_stdio_output@@@2@@__crt_stdio_output@@CAPEADXZ 0000000180052e7c f i libucrt:output.obj
 0001:00051e84       ?narrow_null_string@?$output_processor@_WV?$string_output_adapter@_W@__crt_stdio_output@@V?$positional_parameter_base@_WV?$string_output_adapter@_W@__crt_stdio_output@@@2@@__crt_stdio_output@@CAPEADXZ 0000000180052e84 f i libucrt:output.obj
 0001:00051e8c       ?narrow_null_string@?$output_processor@_WV?$string_output_adapter@_W@__crt_stdio_output@@V?$standard_base@_WV?$string_output_adapter@_W@__crt_stdio_output@@@2@@__crt_stdio_output@@CAPEADXZ 0000000180052e8c f i libucrt:output.obj
 0001:00051e94       ?parse_int_from_format_string@?$output_processor@DV?$stream_output_adapter@D@__crt_stdio_output@@V?$format_validation_base@DV?$stream_output_adapter@D@__crt_stdio_output@@@2@@__crt_stdio_output@@AEAA_NQEAH@Z 0000000180052e94 f i libucrt:output.obj
 0001:00051f38       ?parse_int_from_format_string@?$output_processor@DV?$stream_output_adapter@D@__crt_stdio_output@@V?$positional_parameter_base@DV?$stream_output_adapter@D@__crt_stdio_output@@@2@@__crt_stdio_output@@AEAA_NQEAH@Z 0000000180052f38 f i libucrt:output.obj
 0001:00051fdc       ?parse_int_from_format_string@?$output_processor@DV?$stream_output_adapter@D@__crt_stdio_output@@V?$standard_base@DV?$stream_output_adapter@D@__crt_stdio_output@@@2@@__crt_stdio_output@@AEAA_NQEAH@Z 0000000180052fdc f i libucrt:output.obj
 0001:00052080       ?parse_int_from_format_string@?$output_processor@DV?$string_output_adapter@D@__crt_stdio_output@@V?$format_validation_base@DV?$string_output_adapter@D@__crt_stdio_output@@@2@@__crt_stdio_output@@AEAA_NQEAH@Z 0000000180053080 f i libucrt:output.obj
 0001:00052124       ?parse_int_from_format_string@?$output_processor@DV?$string_output_adapter@D@__crt_stdio_output@@V?$positional_parameter_base@DV?$string_output_adapter@D@__crt_stdio_output@@@2@@__crt_stdio_output@@AEAA_NQEAH@Z 0000000180053124 f i libucrt:output.obj
 0001:000521c8       ?parse_int_from_format_string@?$output_processor@DV?$string_output_adapter@D@__crt_stdio_output@@V?$standard_base@DV?$string_output_adapter@D@__crt_stdio_output@@@2@@__crt_stdio_output@@AEAA_NQEAH@Z 00000001800531c8 f i libucrt:output.obj
 0001:0005226c       ?parse_int_from_format_string@?$output_processor@_WV?$stream_output_adapter@_W@__crt_stdio_output@@V?$format_validation_base@_WV?$stream_output_adapter@_W@__crt_stdio_output@@@2@@__crt_stdio_output@@AEAA_NQEAH@Z 000000018005326c f i libucrt:output.obj
 0001:00052310       ?parse_int_from_format_string@?$output_processor@_WV?$stream_output_adapter@_W@__crt_stdio_output@@V?$positional_parameter_base@_WV?$stream_output_adapter@_W@__crt_stdio_output@@@2@@__crt_stdio_output@@AEAA_NQEAH@Z 0000000180053310 f i libucrt:output.obj
 0001:000523b4       ?parse_int_from_format_string@?$output_processor@_WV?$stream_output_adapter@_W@__crt_stdio_output@@V?$standard_base@_WV?$stream_output_adapter@_W@__crt_stdio_output@@@2@@__crt_stdio_output@@AEAA_NQEAH@Z 00000001800533b4 f i libucrt:output.obj
 0001:00052458       ?parse_int_from_format_string@?$output_processor@_WV?$string_output_adapter@_W@__crt_stdio_output@@V?$format_validation_base@_WV?$string_output_adapter@_W@__crt_stdio_output@@@2@@__crt_stdio_output@@AEAA_NQEAH@Z 0000000180053458 f i libucrt:output.obj
 0001:000524fc       ?parse_int_from_format_string@?$output_processor@_WV?$string_output_adapter@_W@__crt_stdio_output@@V?$positional_parameter_base@_WV?$string_output_adapter@_W@__crt_stdio_output@@@2@@__crt_stdio_output@@AEAA_NQEAH@Z 00000001800534fc f i libucrt:output.obj
 0001:000525a0       ?parse_int_from_format_string@?$output_processor@_WV?$string_output_adapter@_W@__crt_stdio_output@@V?$standard_base@_WV?$string_output_adapter@_W@__crt_stdio_output@@@2@@__crt_stdio_output@@AEAA_NQEAH@Z 00000001800535a0 f i libucrt:output.obj
 0001:00052644       ?process@?$output_processor@DV?$stream_output_adapter@D@__crt_stdio_output@@V?$format_validation_base@DV?$stream_output_adapter@D@__crt_stdio_output@@@2@@__crt_stdio_output@@QEAAHXZ 0000000180053644 f i libucrt:output.obj
 0001:00052868       ?process@?$output_processor@DV?$stream_output_adapter@D@__crt_stdio_output@@V?$positional_parameter_base@DV?$stream_output_adapter@D@__crt_stdio_output@@@2@@__crt_stdio_output@@QEAAHXZ 0000000180053868 f i libucrt:output.obj
 0001:00052b0c       ?process@?$output_processor@DV?$stream_output_adapter@D@__crt_stdio_output@@V?$standard_base@DV?$stream_output_adapter@D@__crt_stdio_output@@@2@@__crt_stdio_output@@QEAAHXZ 0000000180053b0c f i libucrt:output.obj
 0001:00052d20       ?process@?$output_processor@DV?$string_output_adapter@D@__crt_stdio_output@@V?$format_validation_base@DV?$string_output_adapter@D@__crt_stdio_output@@@2@@__crt_stdio_output@@QEAAHXZ 0000000180053d20 f i libucrt:output.obj
 0001:00052f34       ?process@?$output_processor@DV?$string_output_adapter@D@__crt_stdio_output@@V?$positional_parameter_base@DV?$string_output_adapter@D@__crt_stdio_output@@@2@@__crt_stdio_output@@QEAAHXZ 0000000180053f34 f i libucrt:output.obj
 0001:000531c8       ?process@?$output_processor@DV?$string_output_adapter@D@__crt_stdio_output@@V?$standard_base@DV?$string_output_adapter@D@__crt_stdio_output@@@2@@__crt_stdio_output@@QEAAHXZ 00000001800541c8 f i libucrt:output.obj
 0001:000533d0       ?process@?$output_processor@_WV?$stream_output_adapter@_W@__crt_stdio_output@@V?$format_validation_base@_WV?$stream_output_adapter@_W@__crt_stdio_output@@@2@@__crt_stdio_output@@QEAAHXZ 00000001800543d0 f i libucrt:output.obj
 0001:00053654       ?process@?$output_processor@_WV?$stream_output_adapter@_W@__crt_stdio_output@@V?$positional_parameter_base@_WV?$stream_output_adapter@_W@__crt_stdio_output@@@2@@__crt_stdio_output@@QEAAHXZ 0000000180054654 f i libucrt:output.obj
 0001:00053910       ?process@?$output_processor@_WV?$stream_output_adapter@_W@__crt_stdio_output@@V?$standard_base@_WV?$stream_output_adapter@_W@__crt_stdio_output@@@2@@__crt_stdio_output@@QEAAHXZ 0000000180054910 f i libucrt:output.obj
 0001:00053b88       ?process@?$output_processor@_WV?$string_output_adapter@_W@__crt_stdio_output@@V?$format_validation_base@_WV?$string_output_adapter@_W@__crt_stdio_output@@@2@@__crt_stdio_output@@QEAAHXZ 0000000180054b88 f i libucrt:output.obj
 0001:00053e00       ?process@?$output_processor@_WV?$string_output_adapter@_W@__crt_stdio_output@@V?$positional_parameter_base@_WV?$string_output_adapter@_W@__crt_stdio_output@@@2@@__crt_stdio_output@@QEAAHXZ 0000000180054e00 f i libucrt:output.obj
 0001:000540bc       ?process@?$output_processor@_WV?$string_output_adapter@_W@__crt_stdio_output@@V?$standard_base@_WV?$string_output_adapter@_W@__crt_stdio_output@@@2@@__crt_stdio_output@@QEAAHXZ 00000001800550bc f i libucrt:output.obj
 0001:00054328       ?public_stream@__crt_stdio_stream@@QEBAPEAU_iobuf@@XZ 0000000180055328 f i libucrt:output.obj
 0001:0005432c       ?set_flag@?$output_processor@DV?$stream_output_adapter@D@__crt_stdio_output@@V?$format_validation_base@DV?$stream_output_adapter@D@__crt_stdio_output@@@2@@__crt_stdio_output@@AEAAXI@Z 000000018005532c f i libucrt:output.obj
 0001:00054330       ?set_flag@?$output_processor@DV?$stream_output_adapter@D@__crt_stdio_output@@V?$positional_parameter_base@DV?$stream_output_adapter@D@__crt_stdio_output@@@2@@__crt_stdio_output@@AEAAXI@Z 0000000180055330 f i libucrt:output.obj
 0001:00054334       ?set_flag@?$output_processor@DV?$stream_output_adapter@D@__crt_stdio_output@@V?$standard_base@DV?$stream_output_adapter@D@__crt_stdio_output@@@2@@__crt_stdio_output@@AEAAXI@Z 0000000180055334 f i libucrt:output.obj
 0001:00054338       ?set_flag@?$output_processor@DV?$string_output_adapter@D@__crt_stdio_output@@V?$format_validation_base@DV?$string_output_adapter@D@__crt_stdio_output@@@2@@__crt_stdio_output@@AEAAXI@Z 0000000180055338 f i libucrt:output.obj
 0001:0005433c       ?set_flag@?$output_processor@DV?$string_output_adapter@D@__crt_stdio_output@@V?$positional_parameter_base@DV?$string_output_adapter@D@__crt_stdio_output@@@2@@__crt_stdio_output@@AEAAXI@Z 000000018005533c f i libucrt:output.obj
 0001:00054340       ?set_flag@?$output_processor@DV?$string_output_adapter@D@__crt_stdio_output@@V?$standard_base@DV?$string_output_adapter@D@__crt_stdio_output@@@2@@__crt_stdio_output@@AEAAXI@Z 0000000180055340 f i libucrt:output.obj
 0001:00054344       ?set_flag@?$output_processor@_WV?$stream_output_adapter@_W@__crt_stdio_output@@V?$format_validation_base@_WV?$stream_output_adapter@_W@__crt_stdio_output@@@2@@__crt_stdio_output@@AEAAXI@Z 0000000180055344 f i libucrt:output.obj
 0001:00054348       ?set_flag@?$output_processor@_WV?$stream_output_adapter@_W@__crt_stdio_output@@V?$positional_parameter_base@_WV?$stream_output_adapter@_W@__crt_stdio_output@@@2@@__crt_stdio_output@@AEAAXI@Z 0000000180055348 f i libucrt:output.obj
 0001:0005434c       ?set_flag@?$output_processor@_WV?$stream_output_adapter@_W@__crt_stdio_output@@V?$standard_base@_WV?$stream_output_adapter@_W@__crt_stdio_output@@@2@@__crt_stdio_output@@AEAAXI@Z 000000018005534c f i libucrt:output.obj
 0001:00054350       ?set_flag@?$output_processor@_WV?$string_output_adapter@_W@__crt_stdio_output@@V?$format_validation_base@_WV?$string_output_adapter@_W@__crt_stdio_output@@@2@@__crt_stdio_output@@AEAAXI@Z 0000000180055350 f i libucrt:output.obj
 0001:00054354       ?set_flag@?$output_processor@_WV?$string_output_adapter@_W@__crt_stdio_output@@V?$positional_parameter_base@_WV?$string_output_adapter@_W@__crt_stdio_output@@@2@@__crt_stdio_output@@AEAAXI@Z 0000000180055354 f i libucrt:output.obj
 0001:00054358       ?set_flag@?$output_processor@_WV?$string_output_adapter@_W@__crt_stdio_output@@V?$standard_base@_WV?$string_output_adapter@_W@__crt_stdio_output@@@2@@__crt_stdio_output@@AEAAXI@Z 0000000180055358 f i libucrt:output.obj
 0001:0005435c       ?should_format@?$positional_parameter_base@DV?$stream_output_adapter@D@__crt_stdio_output@@@__crt_stdio_output@@IEAA_NXZ 000000018005535c f i libucrt:output.obj
 0001:00054374       ?should_format@?$positional_parameter_base@DV?$string_output_adapter@D@__crt_stdio_output@@@__crt_stdio_output@@IEAA_NXZ 0000000180055374 f i libucrt:output.obj
 0001:0005438c       ?should_format@?$positional_parameter_base@_WV?$stream_output_adapter@_W@__crt_stdio_output@@@__crt_stdio_output@@IEAA_NXZ 000000018005538c f i libucrt:output.obj
 0001:000543a4       ?should_format@?$positional_parameter_base@_WV?$string_output_adapter@_W@__crt_stdio_output@@@__crt_stdio_output@@IEAA_NXZ 00000001800553a4 f i libucrt:output.obj
 0001:000543bc       ?should_format@?$standard_base@DV?$stream_output_adapter@D@__crt_stdio_output@@@__crt_stdio_output@@IEAA_NXZ 00000001800553bc f i libucrt:output.obj
 0001:000543c0       ?should_format@?$standard_base@DV?$string_output_adapter@D@__crt_stdio_output@@@__crt_stdio_output@@IEAA_NXZ 00000001800553c0 f i libucrt:output.obj
 0001:000543c4       ?should_format@?$standard_base@_WV?$stream_output_adapter@_W@__crt_stdio_output@@@__crt_stdio_output@@IEAA_NXZ 00000001800553c4 f i libucrt:output.obj
 0001:000543c8       ?should_format@?$standard_base@_WV?$string_output_adapter@_W@__crt_stdio_output@@@__crt_stdio_output@@IEAA_NXZ 00000001800553c8 f i libucrt:output.obj
 0001:000543cc       ?should_skip_normal_state_processing@?$positional_parameter_base@DV?$stream_output_adapter@D@__crt_stdio_output@@@__crt_stdio_output@@IEAA_NXZ 00000001800553cc f i libucrt:output.obj
 0001:000543f4       ?should_skip_normal_state_processing@?$positional_parameter_base@DV?$string_output_adapter@D@__crt_stdio_output@@@__crt_stdio_output@@IEAA_NXZ 00000001800553f4 f i libucrt:output.obj
 0001:0005441c       ?should_skip_normal_state_processing@?$positional_parameter_base@_WV?$stream_output_adapter@_W@__crt_stdio_output@@@__crt_stdio_output@@IEAA_NXZ 000000018005541c f i libucrt:output.obj
 0001:00054444       ?should_skip_normal_state_processing@?$positional_parameter_base@_WV?$string_output_adapter@_W@__crt_stdio_output@@@__crt_stdio_output@@IEAA_NXZ 0000000180055444 f i libucrt:output.obj
 0001:0005446c       ?should_skip_normal_state_processing@?$standard_base@DV?$stream_output_adapter@D@__crt_stdio_output@@@__crt_stdio_output@@IEAA_NXZ 000000018005546c f i libucrt:output.obj
 0001:00054470       ?should_skip_normal_state_processing@?$standard_base@DV?$string_output_adapter@D@__crt_stdio_output@@@__crt_stdio_output@@IEAA_NXZ 0000000180055470 f i libucrt:output.obj
 0001:00054474       ?should_skip_normal_state_processing@?$standard_base@_WV?$stream_output_adapter@_W@__crt_stdio_output@@@__crt_stdio_output@@IEAA_NXZ 0000000180055474 f i libucrt:output.obj
 0001:00054478       ?should_skip_normal_state_processing@?$standard_base@_WV?$string_output_adapter@_W@__crt_stdio_output@@@__crt_stdio_output@@IEAA_NXZ 0000000180055478 f i libucrt:output.obj
 0001:0005447c       ?should_skip_type_state_output@?$positional_parameter_base@DV?$stream_output_adapter@D@__crt_stdio_output@@@__crt_stdio_output@@IEBA_NXZ 000000018005547c f i libucrt:output.obj
 0001:00054498       ?should_skip_type_state_output@?$positional_parameter_base@DV?$string_output_adapter@D@__crt_stdio_output@@@__crt_stdio_output@@IEBA_NXZ 0000000180055498 f i libucrt:output.obj
 0001:000544b4       ?should_skip_type_state_output@?$positional_parameter_base@_WV?$stream_output_adapter@_W@__crt_stdio_output@@@__crt_stdio_output@@IEBA_NXZ 00000001800554b4 f i libucrt:output.obj
 0001:000544d0       ?should_skip_type_state_output@?$positional_parameter_base@_WV?$string_output_adapter@_W@__crt_stdio_output@@@__crt_stdio_output@@IEBA_NXZ 00000001800554d0 f i libucrt:output.obj
 0001:000544ec       ?should_skip_type_state_output@?$standard_base@DV?$stream_output_adapter@D@__crt_stdio_output@@@__crt_stdio_output@@IEBA_NXZ 00000001800554ec f i libucrt:output.obj
 0001:000544f0       ?should_skip_type_state_output@?$standard_base@DV?$string_output_adapter@D@__crt_stdio_output@@@__crt_stdio_output@@IEBA_NXZ 00000001800554f0 f i libucrt:output.obj
 0001:000544f4       ?should_skip_type_state_output@?$standard_base@_WV?$stream_output_adapter@_W@__crt_stdio_output@@@__crt_stdio_output@@IEBA_NXZ 00000001800554f4 f i libucrt:output.obj
 0001:000544f8       ?should_skip_type_state_output@?$standard_base@_WV?$string_output_adapter@_W@__crt_stdio_output@@@__crt_stdio_output@@IEBA_NXZ 00000001800554f8 f i libucrt:output.obj
 0001:000544fc       ?state_case_dot@?$output_processor@DV?$stream_output_adapter@D@__crt_stdio_output@@V?$format_validation_base@DV?$stream_output_adapter@D@__crt_stdio_output@@@2@@__crt_stdio_output@@AEAA_NXZ 00000001800554fc f i libucrt:output.obj
 0001:00054504       ?state_case_dot@?$output_processor@DV?$stream_output_adapter@D@__crt_stdio_output@@V?$positional_parameter_base@DV?$stream_output_adapter@D@__crt_stdio_output@@@2@@__crt_stdio_output@@AEAA_NXZ 0000000180055504 f i libucrt:output.obj
 0001:0005450c       ?state_case_dot@?$output_processor@DV?$stream_output_adapter@D@__crt_stdio_output@@V?$standard_base@DV?$stream_output_adapter@D@__crt_stdio_output@@@2@@__crt_stdio_output@@AEAA_NXZ 000000018005550c f i libucrt:output.obj
 0001:00054514       ?state_case_dot@?$output_processor@DV?$string_output_adapter@D@__crt_stdio_output@@V?$format_validation_base@DV?$string_output_adapter@D@__crt_stdio_output@@@2@@__crt_stdio_output@@AEAA_NXZ 0000000180055514 f i libucrt:output.obj
 0001:0005451c       ?state_case_dot@?$output_processor@DV?$string_output_adapter@D@__crt_stdio_output@@V?$positional_parameter_base@DV?$string_output_adapter@D@__crt_stdio_output@@@2@@__crt_stdio_output@@AEAA_NXZ 000000018005551c f i libucrt:output.obj
 0001:00054524       ?state_case_dot@?$output_processor@DV?$string_output_adapter@D@__crt_stdio_output@@V?$standard_base@DV?$string_output_adapter@D@__crt_stdio_output@@@2@@__crt_stdio_output@@AEAA_NXZ 0000000180055524 f i libucrt:output.obj
 0001:0005452c       ?state_case_dot@?$output_processor@_WV?$stream_output_adapter@_W@__crt_stdio_output@@V?$format_validation_base@_WV?$stream_output_adapter@_W@__crt_stdio_output@@@2@@__crt_stdio_output@@AEAA_NXZ 000000018005552c f i libucrt:output.obj
 0001:00054534       ?state_case_dot@?$output_processor@_WV?$stream_output_adapter@_W@__crt_stdio_output@@V?$positional_parameter_base@_WV?$stream_output_adapter@_W@__crt_stdio_output@@@2@@__crt_stdio_output@@AEAA_NXZ 0000000180055534 f i libucrt:output.obj
 0001:0005453c       ?state_case_dot@?$output_processor@_WV?$stream_output_adapter@_W@__crt_stdio_output@@V?$standard_base@_WV?$stream_output_adapter@_W@__crt_stdio_output@@@2@@__crt_stdio_output@@AEAA_NXZ 000000018005553c f i libucrt:output.obj
 0001:00054544       ?state_case_dot@?$output_processor@_WV?$string_output_adapter@_W@__crt_stdio_output@@V?$format_validation_base@_WV?$string_output_adapter@_W@__crt_stdio_output@@@2@@__crt_stdio_output@@AEAA_NXZ 0000000180055544 f i libucrt:output.obj
 0001:0005454c       ?state_case_dot@?$output_processor@_WV?$string_output_adapter@_W@__crt_stdio_output@@V?$positional_parameter_base@_WV?$string_output_adapter@_W@__crt_stdio_output@@@2@@__crt_stdio_output@@AEAA_NXZ 000000018005554c f i libucrt:output.obj
 0001:00054554       ?state_case_dot@?$output_processor@_WV?$string_output_adapter@_W@__crt_stdio_output@@V?$standard_base@_WV?$string_output_adapter@_W@__crt_stdio_output@@@2@@__crt_stdio_output@@AEAA_NXZ 0000000180055554 f i libucrt:output.obj
 0001:0005455c       ?state_case_flag@?$output_processor@DV?$stream_output_adapter@D@__crt_stdio_output@@V?$format_validation_base@DV?$stream_output_adapter@D@__crt_stdio_output@@@2@@__crt_stdio_output@@AEAA_NXZ 000000018005555c f i libucrt:output.obj
 0001:00054594       ?state_case_flag@?$output_processor@DV?$stream_output_adapter@D@__crt_stdio_output@@V?$positional_parameter_base@DV?$stream_output_adapter@D@__crt_stdio_output@@@2@@__crt_stdio_output@@AEAA_NXZ 0000000180055594 f i libucrt:output.obj
 0001:000545cc       ?state_case_flag@?$output_processor@DV?$stream_output_adapter@D@__crt_stdio_output@@V?$standard_base@DV?$stream_output_adapter@D@__crt_stdio_output@@@2@@__crt_stdio_output@@AEAA_NXZ 00000001800555cc f i libucrt:output.obj
 0001:00054604       ?state_case_flag@?$output_processor@DV?$string_output_adapter@D@__crt_stdio_output@@V?$format_validation_base@DV?$string_output_adapter@D@__crt_stdio_output@@@2@@__crt_stdio_output@@AEAA_NXZ 0000000180055604 f i libucrt:output.obj
 0001:0005463c       ?state_case_flag@?$output_processor@DV?$string_output_adapter@D@__crt_stdio_output@@V?$positional_parameter_base@DV?$string_output_adapter@D@__crt_stdio_output@@@2@@__crt_stdio_output@@AEAA_NXZ 000000018005563c f i libucrt:output.obj
 0001:00054674       ?state_case_flag@?$output_processor@DV?$string_output_adapter@D@__crt_stdio_output@@V?$standard_base@DV?$string_output_adapter@D@__crt_stdio_output@@@2@@__crt_stdio_output@@AEAA_NXZ 0000000180055674 f i libucrt:output.obj
 0001:000546ac       ?state_case_flag@?$output_processor@_WV?$stream_output_adapter@_W@__crt_stdio_output@@V?$format_validation_base@_WV?$stream_output_adapter@_W@__crt_stdio_output@@@2@@__crt_stdio_output@@AEAA_NXZ 00000001800556ac f i libucrt:output.obj
 0001:000546f0       ?state_case_flag@?$output_processor@_WV?$stream_output_adapter@_W@__crt_stdio_output@@V?$positional_parameter_base@_WV?$stream_output_adapter@_W@__crt_stdio_output@@@2@@__crt_stdio_output@@AEAA_NXZ 00000001800556f0 f i libucrt:output.obj
 0001:00054734       ?state_case_flag@?$output_processor@_WV?$stream_output_adapter@_W@__crt_stdio_output@@V?$standard_base@_WV?$stream_output_adapter@_W@__crt_stdio_output@@@2@@__crt_stdio_output@@AEAA_NXZ 0000000180055734 f i libucrt:output.obj
 0001:00054778       ?state_case_flag@?$output_processor@_WV?$string_output_adapter@_W@__crt_stdio_output@@V?$format_validation_base@_WV?$string_output_adapter@_W@__crt_stdio_output@@@2@@__crt_stdio_output@@AEAA_NXZ 0000000180055778 f i libucrt:output.obj
 0001:000547bc       ?state_case_flag@?$output_processor@_WV?$string_output_adapter@_W@__crt_stdio_output@@V?$positional_parameter_base@_WV?$string_output_adapter@_W@__crt_stdio_output@@@2@@__crt_stdio_output@@AEAA_NXZ 00000001800557bc f i libucrt:output.obj
 0001:00054800       ?state_case_flag@?$output_processor@_WV?$string_output_adapter@_W@__crt_stdio_output@@V?$standard_base@_WV?$string_output_adapter@_W@__crt_stdio_output@@@2@@__crt_stdio_output@@AEAA_NXZ 0000000180055800 f i libucrt:output.obj
 0001:00054844       ?state_case_normal@?$output_processor@DV?$stream_output_adapter@D@__crt_stdio_output@@V?$format_validation_base@DV?$stream_output_adapter@D@__crt_stdio_output@@@2@@__crt_stdio_output@@AEAA_NXZ 0000000180055844 f i libucrt:output.obj
 0001:000548b4       ?state_case_normal@?$output_processor@DV?$stream_output_adapter@D@__crt_stdio_output@@V?$positional_parameter_base@DV?$stream_output_adapter@D@__crt_stdio_output@@@2@@__crt_stdio_output@@AEAA_NXZ 00000001800558b4 f i libucrt:output.obj
 0001:00054948       ?state_case_normal@?$output_processor@DV?$stream_output_adapter@D@__crt_stdio_output@@V?$standard_base@DV?$stream_output_adapter@D@__crt_stdio_output@@@2@@__crt_stdio_output@@AEAA_NXZ 0000000180055948 f i libucrt:output.obj
 0001:000549b8       ?state_case_normal@?$output_processor@DV?$string_output_adapter@D@__crt_stdio_output@@V?$format_validation_base@DV?$string_output_adapter@D@__crt_stdio_output@@@2@@__crt_stdio_output@@AEAA_NXZ 00000001800559b8 f i libucrt:output.obj
 0001:00054a2c       ?state_case_normal@?$output_processor@DV?$string_output_adapter@D@__crt_stdio_output@@V?$positional_parameter_base@DV?$string_output_adapter@D@__crt_stdio_output@@@2@@__crt_stdio_output@@AEAA_NXZ 0000000180055a2c f i libucrt:output.obj
 0001:00054ac4       ?state_case_normal@?$output_processor@DV?$string_output_adapter@D@__crt_stdio_output@@V?$standard_base@DV?$string_output_adapter@D@__crt_stdio_output@@@2@@__crt_stdio_output@@AEAA_NXZ 0000000180055ac4 f i libucrt:output.obj
 0001:00054b38       ?state_case_normal@?$output_processor@_WV?$stream_output_adapter@_W@__crt_stdio_output@@V?$format_validation_base@_WV?$stream_output_adapter@_W@__crt_stdio_output@@@2@@__crt_stdio_output@@AEAA_NXZ 0000000180055b38 f i libucrt:output.obj
 0001:00054b90       ?state_case_normal@?$output_processor@_WV?$stream_output_adapter@_W@__crt_stdio_output@@V?$positional_parameter_base@_WV?$stream_output_adapter@_W@__crt_stdio_output@@@2@@__crt_stdio_output@@AEAA_NXZ 0000000180055b90 f i libucrt:output.obj
 0001:00054c0c       ?state_case_normal@?$output_processor@_WV?$stream_output_adapter@_W@__crt_stdio_output@@V?$standard_base@_WV?$stream_output_adapter@_W@__crt_stdio_output@@@2@@__crt_stdio_output@@AEAA_NXZ 0000000180055c0c f i libucrt:output.obj
 0001:00054c64       ?state_case_normal@?$output_processor@_WV?$string_output_adapter@_W@__crt_stdio_output@@V?$format_validation_base@_WV?$string_output_adapter@_W@__crt_stdio_output@@@2@@__crt_stdio_output@@AEAA_NXZ 0000000180055c64 f i libucrt:output.obj
 0001:00054cb8       ?state_case_normal@?$output_processor@_WV?$string_output_adapter@_W@__crt_stdio_output@@V?$positional_parameter_base@_WV?$string_output_adapter@_W@__crt_stdio_output@@@2@@__crt_stdio_output@@AEAA_NXZ 0000000180055cb8 f i libucrt:output.obj
 0001:00054d30       ?state_case_normal@?$output_processor@_WV?$string_output_adapter@_W@__crt_stdio_output@@V?$standard_base@_WV?$string_output_adapter@_W@__crt_stdio_output@@@2@@__crt_stdio_output@@AEAA_NXZ 0000000180055d30 f i libucrt:output.obj
 0001:00054d84       ?state_case_normal_common@?$output_processor@DV?$stream_output_adapter@D@__crt_stdio_output@@V?$format_validation_base@DV?$stream_output_adapter@D@__crt_stdio_output@@@2@@__crt_stdio_output@@AEAA_NXZ 0000000180055d84 f i libucrt:output.obj
 0001:00054de0       ?state_case_normal_common@?$output_processor@DV?$stream_output_adapter@D@__crt_stdio_output@@V?$positional_parameter_base@DV?$stream_output_adapter@D@__crt_stdio_output@@@2@@__crt_stdio_output@@AEAA_NXZ 0000000180055de0 f i libucrt:output.obj
 0001:00054e3c       ?state_case_normal_common@?$output_processor@DV?$stream_output_adapter@D@__crt_stdio_output@@V?$standard_base@DV?$stream_output_adapter@D@__crt_stdio_output@@@2@@__crt_stdio_output@@AEAA_NXZ 0000000180055e3c f i libucrt:output.obj
 0001:00054e98       ?state_case_normal_common@?$output_processor@DV?$string_output_adapter@D@__crt_stdio_output@@V?$format_validation_base@DV?$string_output_adapter@D@__crt_stdio_output@@@2@@__crt_stdio_output@@AEAA_NXZ 0000000180055e98 f i libucrt:output.obj
 0001:00054ef8       ?state_case_normal_common@?$output_processor@DV?$string_output_adapter@D@__crt_stdio_output@@V?$positional_parameter_base@DV?$string_output_adapter@D@__crt_stdio_output@@@2@@__crt_stdio_output@@AEAA_NXZ 0000000180055ef8 f i libucrt:output.obj
 0001:00054f58       ?state_case_normal_common@?$output_processor@DV?$string_output_adapter@D@__crt_stdio_output@@V?$standard_base@DV?$string_output_adapter@D@__crt_stdio_output@@@2@@__crt_stdio_output@@AEAA_NXZ 0000000180055f58 f i libucrt:output.obj
 0001:00054fb8       ?state_case_normal_common@?$output_processor@_WV?$stream_output_adapter@_W@__crt_stdio_output@@V?$format_validation_base@_WV?$stream_output_adapter@_W@__crt_stdio_output@@@2@@__crt_stdio_output@@AEAA_NXZ 0000000180055fb8 f i libucrt:output.obj
 0001:00055010       ?state_case_normal_common@?$output_processor@_WV?$stream_output_adapter@_W@__crt_stdio_output@@V?$positional_parameter_base@_WV?$stream_output_adapter@_W@__crt_stdio_output@@@2@@__crt_stdio_output@@AEAA_NXZ 0000000180056010 f i libucrt:output.obj
 0001:00055068       ?state_case_normal_common@?$output_processor@_WV?$stream_output_adapter@_W@__crt_stdio_output@@V?$standard_base@_WV?$stream_output_adapter@_W@__crt_stdio_output@@@2@@__crt_stdio_output@@AEAA_NXZ 0000000180056068 f i libucrt:output.obj
 0001:000550c0       ?state_case_normal_common@?$output_processor@_WV?$string_output_adapter@_W@__crt_stdio_output@@V?$format_validation_base@_WV?$string_output_adapter@_W@__crt_stdio_output@@@2@@__crt_stdio_output@@AEAA_NXZ 00000001800560c0 f i libucrt:output.obj
 0001:00055114       ?state_case_normal_common@?$output_processor@_WV?$string_output_adapter@_W@__crt_stdio_output@@V?$positional_parameter_base@_WV?$string_output_adapter@_W@__crt_stdio_output@@@2@@__crt_stdio_output@@AEAA_NXZ 0000000180056114 f i libucrt:output.obj
 0001:00055168       ?state_case_normal_common@?$output_processor@_WV?$string_output_adapter@_W@__crt_stdio_output@@V?$standard_base@_WV?$string_output_adapter@_W@__crt_stdio_output@@@2@@__crt_stdio_output@@AEAA_NXZ 0000000180056168 f i libucrt:output.obj
 0001:000551bc       ?state_case_normal_tchar@?$output_processor@DV?$stream_output_adapter@D@__crt_stdio_output@@V?$format_validation_base@DV?$stream_output_adapter@D@__crt_stdio_output@@@2@@__crt_stdio_output@@AEAA_ND@Z 00000001800561bc f i libucrt:output.obj
 0001:00055260       ?state_case_normal_tchar@?$output_processor@DV?$stream_output_adapter@D@__crt_stdio_output@@V?$positional_parameter_base@DV?$stream_output_adapter@D@__crt_stdio_output@@@2@@__crt_stdio_output@@AEAA_ND@Z 0000000180056260 f i libucrt:output.obj
 0001:00055304       ?state_case_normal_tchar@?$output_processor@DV?$stream_output_adapter@D@__crt_stdio_output@@V?$standard_base@DV?$stream_output_adapter@D@__crt_stdio_output@@@2@@__crt_stdio_output@@AEAA_ND@Z 0000000180056304 f i libucrt:output.obj
 0001:000553a8       ?state_case_normal_tchar@?$output_processor@DV?$string_output_adapter@D@__crt_stdio_output@@V?$format_validation_base@DV?$string_output_adapter@D@__crt_stdio_output@@@2@@__crt_stdio_output@@AEAA_ND@Z 00000001800563a8 f i libucrt:output.obj
 0001:00055450       ?state_case_normal_tchar@?$output_processor@DV?$string_output_adapter@D@__crt_stdio_output@@V?$positional_parameter_base@DV?$string_output_adapter@D@__crt_stdio_output@@@2@@__crt_stdio_output@@AEAA_ND@Z 0000000180056450 f i libucrt:output.obj
 0001:000554f8       ?state_case_normal_tchar@?$output_processor@DV?$string_output_adapter@D@__crt_stdio_output@@V?$standard_base@DV?$string_output_adapter@D@__crt_stdio_output@@@2@@__crt_stdio_output@@AEAA_ND@Z 00000001800564f8 f i libucrt:output.obj
 0001:000555a0       ?state_case_normal_tchar@?$output_processor@_WV?$stream_output_adapter@_W@__crt_stdio_output@@V?$format_validation_base@_WV?$stream_output_adapter@_W@__crt_stdio_output@@@2@@__crt_stdio_output@@AEAA_N_W@Z 00000001800565a0 f i libucrt:output.obj
 0001:000555a8       ?state_case_normal_tchar@?$output_processor@_WV?$stream_output_adapter@_W@__crt_stdio_output@@V?$positional_parameter_base@_WV?$stream_output_adapter@_W@__crt_stdio_output@@@2@@__crt_stdio_output@@AEAA_N_W@Z 00000001800565a8 f i libucrt:output.obj
 0001:000555b0       ?state_case_normal_tchar@?$output_processor@_WV?$stream_output_adapter@_W@__crt_stdio_output@@V?$standard_base@_WV?$stream_output_adapter@_W@__crt_stdio_output@@@2@@__crt_stdio_output@@AEAA_N_W@Z 00000001800565b0 f i libucrt:output.obj
 0001:000555b8       ?state_case_normal_tchar@?$output_processor@_WV?$string_output_adapter@_W@__crt_stdio_output@@V?$format_validation_base@_WV?$string_output_adapter@_W@__crt_stdio_output@@@2@@__crt_stdio_output@@AEAA_N_W@Z 00000001800565b8 f i libucrt:output.obj
 0001:000555c0       ?state_case_normal_tchar@?$output_processor@_WV?$string_output_adapter@_W@__crt_stdio_output@@V?$positional_parameter_base@_WV?$string_output_adapter@_W@__crt_stdio_output@@@2@@__crt_stdio_output@@AEAA_N_W@Z 00000001800565c0 f i libucrt:output.obj
 0001:000555c8       ?state_case_normal_tchar@?$output_processor@_WV?$string_output_adapter@_W@__crt_stdio_output@@V?$standard_base@_WV?$string_output_adapter@_W@__crt_stdio_output@@@2@@__crt_stdio_output@@AEAA_N_W@Z 00000001800565c8 f i libucrt:output.obj
 0001:000555d0       ?state_case_percent@?$output_processor@DV?$stream_output_adapter@D@__crt_stdio_output@@V?$format_validation_base@DV?$stream_output_adapter@D@__crt_stdio_output@@@2@@__crt_stdio_output@@AEAA_NXZ 00000001800565d0 f i libucrt:output.obj
 0001:000555e8       ?state_case_percent@?$output_processor@DV?$stream_output_adapter@D@__crt_stdio_output@@V?$positional_parameter_base@DV?$stream_output_adapter@D@__crt_stdio_output@@@2@@__crt_stdio_output@@AEAA_NXZ 00000001800565e8 f i libucrt:output.obj
 0001:00055600       ?state_case_percent@?$output_processor@DV?$stream_output_adapter@D@__crt_stdio_output@@V?$standard_base@DV?$stream_output_adapter@D@__crt_stdio_output@@@2@@__crt_stdio_output@@AEAA_NXZ 0000000180056600 f i libucrt:output.obj
 0001:00055618       ?state_case_percent@?$output_processor@DV?$string_output_adapter@D@__crt_stdio_output@@V?$format_validation_base@DV?$string_output_adapter@D@__crt_stdio_output@@@2@@__crt_stdio_output@@AEAA_NXZ 0000000180056618 f i libucrt:output.obj
 0001:00055630       ?state_case_percent@?$output_processor@DV?$string_output_adapter@D@__crt_stdio_output@@V?$positional_parameter_base@DV?$string_output_adapter@D@__crt_stdio_output@@@2@@__crt_stdio_output@@AEAA_NXZ 0000000180056630 f i libucrt:output.obj
 0001:00055648       ?state_case_percent@?$output_processor@DV?$string_output_adapter@D@__crt_stdio_output@@V?$standard_base@DV?$string_output_adapter@D@__crt_stdio_output@@@2@@__crt_stdio_output@@AEAA_NXZ 0000000180056648 f i libucrt:output.obj
 0001:00055660       ?state_case_percent@?$output_processor@_WV?$stream_output_adapter@_W@__crt_stdio_output@@V?$format_validation_base@_WV?$stream_output_adapter@_W@__crt_stdio_output@@@2@@__crt_stdio_output@@AEAA_NXZ 0000000180056660 f i libucrt:output.obj
 0001:00055678       ?state_case_percent@?$output_processor@_WV?$stream_output_adapter@_W@__crt_stdio_output@@V?$positional_parameter_base@_WV?$stream_output_adapter@_W@__crt_stdio_output@@@2@@__crt_stdio_output@@AEAA_NXZ 0000000180056678 f i libucrt:output.obj
 0001:00055690       ?state_case_percent@?$output_processor@_WV?$stream_output_adapter@_W@__crt_stdio_output@@V?$standard_base@_WV?$stream_output_adapter@_W@__crt_stdio_output@@@2@@__crt_stdio_output@@AEAA_NXZ 0000000180056690 f i libucrt:output.obj
 0001:000556a8       ?state_case_percent@?$output_processor@_WV?$string_output_adapter@_W@__crt_stdio_output@@V?$format_validation_base@_WV?$string_output_adapter@_W@__crt_stdio_output@@@2@@__crt_stdio_output@@AEAA_NXZ 00000001800566a8 f i libucrt:output.obj
 0001:000556c0       ?state_case_percent@?$output_processor@_WV?$string_output_adapter@_W@__crt_stdio_output@@V?$positional_parameter_base@_WV?$string_output_adapter@_W@__crt_stdio_output@@@2@@__crt_stdio_output@@AEAA_NXZ 00000001800566c0 f i libucrt:output.obj
 0001:000556d8       ?state_case_percent@?$output_processor@_WV?$string_output_adapter@_W@__crt_stdio_output@@V?$standard_base@_WV?$string_output_adapter@_W@__crt_stdio_output@@@2@@__crt_stdio_output@@AEAA_NXZ 00000001800566d8 f i libucrt:output.obj
 0001:000556f0       ?state_case_precision@?$output_processor@DV?$stream_output_adapter@D@__crt_stdio_output@@V?$format_validation_base@DV?$stream_output_adapter@D@__crt_stdio_output@@@2@@__crt_stdio_output@@AEAA_NXZ 00000001800566f0 f i libucrt:output.obj
 0001:00055718       ?state_case_precision@?$output_processor@DV?$stream_output_adapter@D@__crt_stdio_output@@V?$positional_parameter_base@DV?$stream_output_adapter@D@__crt_stdio_output@@@2@@__crt_stdio_output@@AEAA_NXZ 0000000180056718 f i libucrt:output.obj
 0001:00055764       ?state_case_precision@?$output_processor@DV?$stream_output_adapter@D@__crt_stdio_output@@V?$standard_base@DV?$stream_output_adapter@D@__crt_stdio_output@@@2@@__crt_stdio_output@@AEAA_NXZ 0000000180056764 f i libucrt:output.obj
 0001:0005578c       ?state_case_precision@?$output_processor@DV?$string_output_adapter@D@__crt_stdio_output@@V?$format_validation_base@DV?$string_output_adapter@D@__crt_stdio_output@@@2@@__crt_stdio_output@@AEAA_NXZ 000000018005678c f i libucrt:output.obj
 0001:000557b4       ?state_case_precision@?$output_processor@DV?$string_output_adapter@D@__crt_stdio_output@@V?$positional_parameter_base@DV?$string_output_adapter@D@__crt_stdio_output@@@2@@__crt_stdio_output@@AEAA_NXZ 00000001800567b4 f i libucrt:output.obj
 0001:00055800       ?state_case_precision@?$output_processor@DV?$string_output_adapter@D@__crt_stdio_output@@V?$standard_base@DV?$string_output_adapter@D@__crt_stdio_output@@@2@@__crt_stdio_output@@AEAA_NXZ 0000000180056800 f i libucrt:output.obj
 0001:00055828       ?state_case_precision@?$output_processor@_WV?$stream_output_adapter@_W@__crt_stdio_output@@V?$format_validation_base@_WV?$stream_output_adapter@_W@__crt_stdio_output@@@2@@__crt_stdio_output@@AEAA_NXZ 0000000180056828 f i libucrt:output.obj
 0001:00055850       ?state_case_precision@?$output_processor@_WV?$stream_output_adapter@_W@__crt_stdio_output@@V?$positional_parameter_base@_WV?$stream_output_adapter@_W@__crt_stdio_output@@@2@@__crt_stdio_output@@AEAA_NXZ 0000000180056850 f i libucrt:output.obj
 0001:0005589c       ?state_case_precision@?$output_processor@_WV?$stream_output_adapter@_W@__crt_stdio_output@@V?$standard_base@_WV?$stream_output_adapter@_W@__crt_stdio_output@@@2@@__crt_stdio_output@@AEAA_NXZ 000000018005689c f i libucrt:output.obj
 0001:000558c4       ?state_case_precision@?$output_processor@_WV?$string_output_adapter@_W@__crt_stdio_output@@V?$format_validation_base@_WV?$string_output_adapter@_W@__crt_stdio_output@@@2@@__crt_stdio_output@@AEAA_NXZ 00000001800568c4 f i libucrt:output.obj
 0001:000558ec       ?state_case_precision@?$output_processor@_WV?$string_output_adapter@_W@__crt_stdio_output@@V?$positional_parameter_base@_WV?$string_output_adapter@_W@__crt_stdio_output@@@2@@__crt_stdio_output@@AEAA_NXZ 00000001800568ec f i libucrt:output.obj
 0001:00055938       ?state_case_precision@?$output_processor@_WV?$string_output_adapter@_W@__crt_stdio_output@@V?$standard_base@_WV?$string_output_adapter@_W@__crt_stdio_output@@@2@@__crt_stdio_output@@AEAA_NXZ 0000000180056938 f i libucrt:output.obj
 0001:00055960       ?state_case_size@?$output_processor@DV?$stream_output_adapter@D@__crt_stdio_output@@V?$format_validation_base@DV?$stream_output_adapter@D@__crt_stdio_output@@@2@@__crt_stdio_output@@AEAA_NXZ 0000000180056960 f i libucrt:output.obj
 0001:00055ad0       ?state_case_size@?$output_processor@DV?$stream_output_adapter@D@__crt_stdio_output@@V?$positional_parameter_base@DV?$stream_output_adapter@D@__crt_stdio_output@@@2@@__crt_stdio_output@@AEAA_NXZ 0000000180056ad0 f i libucrt:output.obj
 0001:00055c40       ?state_case_size@?$output_processor@DV?$stream_output_adapter@D@__crt_stdio_output@@V?$standard_base@DV?$stream_output_adapter@D@__crt_stdio_output@@@2@@__crt_stdio_output@@AEAA_NXZ 0000000180056c40 f i libucrt:output.obj
 0001:00055db0       ?state_case_size@?$output_processor@DV?$string_output_adapter@D@__crt_stdio_output@@V?$format_validation_base@DV?$string_output_adapter@D@__crt_stdio_output@@@2@@__crt_stdio_output@@AEAA_NXZ 0000000180056db0 f i libucrt:output.obj
 0001:00055f20       ?state_case_size@?$output_processor@DV?$string_output_adapter@D@__crt_stdio_output@@V?$positional_parameter_base@DV?$string_output_adapter@D@__crt_stdio_output@@@2@@__crt_stdio_output@@AEAA_NXZ 0000000180056f20 f i libucrt:output.obj
 0001:00056090       ?state_case_size@?$output_processor@DV?$string_output_adapter@D@__crt_stdio_output@@V?$standard_base@DV?$string_output_adapter@D@__crt_stdio_output@@@2@@__crt_stdio_output@@AEAA_NXZ 0000000180057090 f i libucrt:output.obj
 0001:00056200       ?state_case_size@?$output_processor@_WV?$stream_output_adapter@_W@__crt_stdio_output@@V?$format_validation_base@_WV?$stream_output_adapter@_W@__crt_stdio_output@@@2@@__crt_stdio_output@@AEAA_NXZ 0000000180057200 f i libucrt:output.obj
 0001:00056394       ?state_case_size@?$output_processor@_WV?$stream_output_adapter@_W@__crt_stdio_output@@V?$positional_parameter_base@_WV?$stream_output_adapter@_W@__crt_stdio_output@@@2@@__crt_stdio_output@@AEAA_NXZ 0000000180057394 f i libucrt:output.obj
 0001:00056528       ?state_case_size@?$output_processor@_WV?$stream_output_adapter@_W@__crt_stdio_output@@V?$standard_base@_WV?$stream_output_adapter@_W@__crt_stdio_output@@@2@@__crt_stdio_output@@AEAA_NXZ 0000000180057528 f i libucrt:output.obj
 0001:000566bc       ?state_case_size@?$output_processor@_WV?$string_output_adapter@_W@__crt_stdio_output@@V?$format_validation_base@_WV?$string_output_adapter@_W@__crt_stdio_output@@@2@@__crt_stdio_output@@AEAA_NXZ 00000001800576bc f i libucrt:output.obj
 0001:00056850       ?state_case_size@?$output_processor@_WV?$string_output_adapter@_W@__crt_stdio_output@@V?$positional_parameter_base@_WV?$string_output_adapter@_W@__crt_stdio_output@@@2@@__crt_stdio_output@@AEAA_NXZ 0000000180057850 f i libucrt:output.obj
 0001:000569e4       ?state_case_size@?$output_processor@_WV?$string_output_adapter@_W@__crt_stdio_output@@V?$standard_base@_WV?$string_output_adapter@_W@__crt_stdio_output@@@2@@__crt_stdio_output@@AEAA_NXZ 00000001800579e4 f i libucrt:output.obj
 0001:00056b78       ?state_case_type@?$output_processor@DV?$stream_output_adapter@D@__crt_stdio_output@@V?$format_validation_base@DV?$stream_output_adapter@D@__crt_stdio_output@@@2@@__crt_stdio_output@@AEAA_NXZ 0000000180057b78 f i libucrt:output.obj
 0001:00056dfc       ?state_case_type@?$output_processor@DV?$stream_output_adapter@D@__crt_stdio_output@@V?$positional_parameter_base@DV?$stream_output_adapter@D@__crt_stdio_output@@@2@@__crt_stdio_output@@AEAA_NXZ 0000000180057dfc f i libucrt:output.obj
 0001:00057098       ?state_case_type@?$output_processor@DV?$stream_output_adapter@D@__crt_stdio_output@@V?$standard_base@DV?$stream_output_adapter@D@__crt_stdio_output@@@2@@__crt_stdio_output@@AEAA_NXZ 0000000180058098 f i libucrt:output.obj
 0001:0005731c       ?state_case_type@?$output_processor@DV?$string_output_adapter@D@__crt_stdio_output@@V?$format_validation_base@DV?$string_output_adapter@D@__crt_stdio_output@@@2@@__crt_stdio_output@@AEAA_NXZ 000000018005831c f i libucrt:output.obj
 0001:00057584       ?state_case_type@?$output_processor@DV?$string_output_adapter@D@__crt_stdio_output@@V?$positional_parameter_base@DV?$string_output_adapter@D@__crt_stdio_output@@@2@@__crt_stdio_output@@AEAA_NXZ 0000000180058584 f i libucrt:output.obj
 0001:00057800       ?state_case_type@?$output_processor@DV?$string_output_adapter@D@__crt_stdio_output@@V?$standard_base@DV?$string_output_adapter@D@__crt_stdio_output@@@2@@__crt_stdio_output@@AEAA_NXZ 0000000180058800 f i libucrt:output.obj
 0001:00057a68       ?state_case_type@?$output_processor@_WV?$stream_output_adapter@_W@__crt_stdio_output@@V?$format_validation_base@_WV?$stream_output_adapter@_W@__crt_stdio_output@@@2@@__crt_stdio_output@@AEAA_NXZ 0000000180058a68 f i libucrt:output.obj
 0001:00057d48       ?state_case_type@?$output_processor@_WV?$stream_output_adapter@_W@__crt_stdio_output@@V?$positional_parameter_base@_WV?$stream_output_adapter@_W@__crt_stdio_output@@@2@@__crt_stdio_output@@AEAA_NXZ 0000000180058d48 f i libucrt:output.obj
 0001:0005803c       ?state_case_type@?$output_processor@_WV?$stream_output_adapter@_W@__crt_stdio_output@@V?$standard_base@_WV?$stream_output_adapter@_W@__crt_stdio_output@@@2@@__crt_stdio_output@@AEAA_NXZ 000000018005903c f i libucrt:output.obj
 0001:0005831c       ?state_case_type@?$output_processor@_WV?$string_output_adapter@_W@__crt_stdio_output@@V?$format_validation_base@_WV?$string_output_adapter@_W@__crt_stdio_output@@@2@@__crt_stdio_output@@AEAA_NXZ 000000018005931c f i libucrt:output.obj
 0001:000585e8       ?state_case_type@?$output_processor@_WV?$string_output_adapter@_W@__crt_stdio_output@@V?$positional_parameter_base@_WV?$string_output_adapter@_W@__crt_stdio_output@@@2@@__crt_stdio_output@@AEAA_NXZ 00000001800595e8 f i libucrt:output.obj
 0001:000588c8       ?state_case_type@?$output_processor@_WV?$string_output_adapter@_W@__crt_stdio_output@@V?$standard_base@_WV?$string_output_adapter@_W@__crt_stdio_output@@@2@@__crt_stdio_output@@AEAA_NXZ 00000001800598c8 f i libucrt:output.obj
 0001:00058b94       ?state_case_width@?$output_processor@DV?$stream_output_adapter@D@__crt_stdio_output@@V?$format_validation_base@DV?$stream_output_adapter@D@__crt_stdio_output@@@2@@__crt_stdio_output@@AEAA_NXZ 0000000180059b94 f i libucrt:output.obj
 0001:00058bc8       ?state_case_width@?$output_processor@DV?$stream_output_adapter@D@__crt_stdio_output@@V?$positional_parameter_base@DV?$stream_output_adapter@D@__crt_stdio_output@@@2@@__crt_stdio_output@@AEAA_NXZ 0000000180059bc8 f i libucrt:output.obj
 0001:00058c18       ?state_case_width@?$output_processor@DV?$stream_output_adapter@D@__crt_stdio_output@@V?$standard_base@DV?$stream_output_adapter@D@__crt_stdio_output@@@2@@__crt_stdio_output@@AEAA_NXZ 0000000180059c18 f i libucrt:output.obj
 0001:00058c4c       ?state_case_width@?$output_processor@DV?$string_output_adapter@D@__crt_stdio_output@@V?$format_validation_base@DV?$string_output_adapter@D@__crt_stdio_output@@@2@@__crt_stdio_output@@AEAA_NXZ 0000000180059c4c f i libucrt:output.obj
 0001:00058c80       ?state_case_width@?$output_processor@DV?$string_output_adapter@D@__crt_stdio_output@@V?$positional_parameter_base@DV?$string_output_adapter@D@__crt_stdio_output@@@2@@__crt_stdio_output@@AEAA_NXZ 0000000180059c80 f i libucrt:output.obj
 0001:00058cd0       ?state_case_width@?$output_processor@DV?$string_output_adapter@D@__crt_stdio_output@@V?$standard_base@DV?$string_output_adapter@D@__crt_stdio_output@@@2@@__crt_stdio_output@@AEAA_NXZ 0000000180059cd0 f i libucrt:output.obj
 0001:00058d04       ?state_case_width@?$output_processor@_WV?$stream_output_adapter@_W@__crt_stdio_output@@V?$format_validation_base@_WV?$stream_output_adapter@_W@__crt_stdio_output@@@2@@__crt_stdio_output@@AEAA_NXZ 0000000180059d04 f i libucrt:output.obj
 0001:00058d38       ?state_case_width@?$output_processor@_WV?$stream_output_adapter@_W@__crt_stdio_output@@V?$positional_parameter_base@_WV?$stream_output_adapter@_W@__crt_stdio_output@@@2@@__crt_stdio_output@@AEAA_NXZ 0000000180059d38 f i libucrt:output.obj
 0001:00058d8c       ?state_case_width@?$output_processor@_WV?$stream_output_adapter@_W@__crt_stdio_output@@V?$standard_base@_WV?$stream_output_adapter@_W@__crt_stdio_output@@@2@@__crt_stdio_output@@AEAA_NXZ 0000000180059d8c f i libucrt:output.obj
 0001:00058dc0       ?state_case_width@?$output_processor@_WV?$string_output_adapter@_W@__crt_stdio_output@@V?$format_validation_base@_WV?$string_output_adapter@_W@__crt_stdio_output@@@2@@__crt_stdio_output@@AEAA_NXZ 0000000180059dc0 f i libucrt:output.obj
 0001:00058df4       ?state_case_width@?$output_processor@_WV?$string_output_adapter@_W@__crt_stdio_output@@V?$positional_parameter_base@_WV?$string_output_adapter@_W@__crt_stdio_output@@@2@@__crt_stdio_output@@AEAA_NXZ 0000000180059df4 f i libucrt:output.obj
 0001:00058e48       ?state_case_width@?$output_processor@_WV?$string_output_adapter@_W@__crt_stdio_output@@V?$standard_base@_WV?$string_output_adapter@_W@__crt_stdio_output@@@2@@__crt_stdio_output@@AEAA_NXZ 0000000180059e48 f i libucrt:output.obj
 0001:00058e7c       ?state_count@?$format_validation_base@DV?$stream_output_adapter@D@__crt_stdio_output@@@__crt_stdio_output@@KAIXZ 0000000180059e7c f i libucrt:output.obj
 0001:00058e84       ?state_count@?$format_validation_base@DV?$string_output_adapter@D@__crt_stdio_output@@@__crt_stdio_output@@KAIXZ 0000000180059e84 f i libucrt:output.obj
 0001:00058e8c       ?state_count@?$format_validation_base@_WV?$stream_output_adapter@_W@__crt_stdio_output@@@__crt_stdio_output@@KAIXZ 0000000180059e8c f i libucrt:output.obj
 0001:00058e94       ?state_count@?$format_validation_base@_WV?$string_output_adapter@_W@__crt_stdio_output@@@__crt_stdio_output@@KAIXZ 0000000180059e94 f i libucrt:output.obj
 0001:00058e9c       ?state_count@?$standard_base@DV?$stream_output_adapter@D@__crt_stdio_output@@@__crt_stdio_output@@KAIXZ 0000000180059e9c f i libucrt:output.obj
 0001:00058ea4       ?state_count@?$standard_base@DV?$string_output_adapter@D@__crt_stdio_output@@@__crt_stdio_output@@KAIXZ 0000000180059ea4 f i libucrt:output.obj
 0001:00058eac       ?state_count@?$standard_base@_WV?$stream_output_adapter@_W@__crt_stdio_output@@@__crt_stdio_output@@KAIXZ 0000000180059eac f i libucrt:output.obj
 0001:00058eb4       ?state_count@?$standard_base@_WV?$string_output_adapter@_W@__crt_stdio_output@@@__crt_stdio_output@@KAIXZ 0000000180059eb4 f i libucrt:output.obj
 0001:00058ebc       ?state_transition_table@?$format_validation_base@DV?$stream_output_adapter@D@__crt_stdio_output@@@__crt_stdio_output@@KAAEBV?$spectre_mitigated_lookup_table@Ustate_transition_pair@__crt_stdio_output@@$0IA@@2@XZ 0000000180059ebc f i libucrt:output.obj
 0001:00058ec4       ?state_transition_table@?$format_validation_base@DV?$string_output_adapter@D@__crt_stdio_output@@@__crt_stdio_output@@KAAEBV?$spectre_mitigated_lookup_table@Ustate_transition_pair@__crt_stdio_output@@$0IA@@2@XZ 0000000180059ec4 f i libucrt:output.obj
 0001:00058ecc       ?state_transition_table@?$format_validation_base@_WV?$stream_output_adapter@_W@__crt_stdio_output@@@__crt_stdio_output@@KAAEBV?$spectre_mitigated_lookup_table@Ustate_transition_pair@__crt_stdio_output@@$0IA@@2@XZ 0000000180059ecc f i libucrt:output.obj
 0001:00058ed4       ?state_transition_table@?$format_validation_base@_WV?$string_output_adapter@_W@__crt_stdio_output@@@__crt_stdio_output@@KAAEBV?$spectre_mitigated_lookup_table@Ustate_transition_pair@__crt_stdio_output@@$0IA@@2@XZ 0000000180059ed4 f i libucrt:output.obj
 0001:00058edc       ?state_transition_table@?$standard_base@DV?$stream_output_adapter@D@__crt_stdio_output@@@__crt_stdio_output@@KAAEBV?$spectre_mitigated_lookup_table@Ustate_transition_pair@__crt_stdio_output@@$0IA@@2@XZ 0000000180059edc f i libucrt:output.obj
 0001:00058ee4       ?state_transition_table@?$standard_base@DV?$string_output_adapter@D@__crt_stdio_output@@@__crt_stdio_output@@KAAEBV?$spectre_mitigated_lookup_table@Ustate_transition_pair@__crt_stdio_output@@$0IA@@2@XZ 0000000180059ee4 f i libucrt:output.obj
 0001:00058eec       ?state_transition_table@?$standard_base@_WV?$stream_output_adapter@_W@__crt_stdio_output@@@__crt_stdio_output@@KAAEBV?$spectre_mitigated_lookup_table@Ustate_transition_pair@__crt_stdio_output@@$0IA@@2@XZ 0000000180059eec f i libucrt:output.obj
 0001:00058ef4       ?state_transition_table@?$standard_base@_WV?$string_output_adapter@_W@__crt_stdio_output@@@__crt_stdio_output@@KAAEBV?$spectre_mitigated_lookup_table@Ustate_transition_pair@__crt_stdio_output@@$0IA@@2@XZ 0000000180059ef4 f i libucrt:output.obj
 0001:00058efc       ?tchar_string@?$common_data@D@__crt_stdio_output@@IEAAAEAPEADD@Z 0000000180059efc f i libucrt:output.obj
 0001:00058f04       ?tchar_string@?$common_data@D@__crt_stdio_output@@IEAAAEAPEADXZ 0000000180059f04 f i libucrt:output.obj
 0001:00058f0c       ?tchar_string@?$common_data@_W@__crt_stdio_output@@IEAAAEAPEA_WXZ 0000000180059f0c f i libucrt:output.obj
 0001:00058f14       ?tchar_string@?$common_data@_W@__crt_stdio_output@@IEAAAEAPEA_W_W@Z 0000000180059f14 f i libucrt:output.obj
 0001:00058f20       ?to_integer_size@__crt_stdio_output@@YA_KW4length_modifier@1@@Z 0000000180059f20 f i libucrt:output.obj
 0001:00058f88       ?type_case_X@?$output_processor@DV?$stream_output_adapter@D@__crt_stdio_output@@V?$format_validation_base@DV?$stream_output_adapter@D@__crt_stdio_output@@@2@@__crt_stdio_output@@AEAA_NXZ 0000000180059f88 f i libucrt:output.obj
 0001:00058f98       ?type_case_X@?$output_processor@DV?$stream_output_adapter@D@__crt_stdio_output@@V?$positional_parameter_base@DV?$stream_output_adapter@D@__crt_stdio_output@@@2@@__crt_stdio_output@@AEAA_NXZ 0000000180059f98 f i libucrt:output.obj
 0001:00058fa8       ?type_case_X@?$output_processor@DV?$stream_output_adapter@D@__crt_stdio_output@@V?$standard_base@DV?$stream_output_adapter@D@__crt_stdio_output@@@2@@__crt_stdio_output@@AEAA_NXZ 0000000180059fa8 f i libucrt:output.obj
 0001:00058fb8       ?type_case_X@?$output_processor@DV?$string_output_adapter@D@__crt_stdio_output@@V?$format_validation_base@DV?$string_output_adapter@D@__crt_stdio_output@@@2@@__crt_stdio_output@@AEAA_NXZ 0000000180059fb8 f i libucrt:output.obj
 0001:00058fc8       ?type_case_X@?$output_processor@DV?$string_output_adapter@D@__crt_stdio_output@@V?$positional_parameter_base@DV?$string_output_adapter@D@__crt_stdio_output@@@2@@__crt_stdio_output@@AEAA_NXZ 0000000180059fc8 f i libucrt:output.obj
 0001:00058fd8       ?type_case_X@?$output_processor@DV?$string_output_adapter@D@__crt_stdio_output@@V?$standard_base@DV?$string_output_adapter@D@__crt_stdio_output@@@2@@__crt_stdio_output@@AEAA_NXZ 0000000180059fd8 f i libucrt:output.obj
 0001:00058fe8       ?type_case_X@?$output_processor@_WV?$stream_output_adapter@_W@__crt_stdio_output@@V?$format_validation_base@_WV?$stream_output_adapter@_W@__crt_stdio_output@@@2@@__crt_stdio_output@@AEAA_NXZ 0000000180059fe8 f i libucrt:output.obj
 0001:00058ff8       ?type_case_X@?$output_processor@_WV?$stream_output_adapter@_W@__crt_stdio_output@@V?$positional_parameter_base@_WV?$stream_output_adapter@_W@__crt_stdio_output@@@2@@__crt_stdio_output@@AEAA_NXZ 0000000180059ff8 f i libucrt:output.obj
 0001:00059008       ?type_case_X@?$output_processor@_WV?$stream_output_adapter@_W@__crt_stdio_output@@V?$standard_base@_WV?$stream_output_adapter@_W@__crt_stdio_output@@@2@@__crt_stdio_output@@AEAA_NXZ 000000018005a008 f i libucrt:output.obj
 0001:00059018       ?type_case_X@?$output_processor@_WV?$string_output_adapter@_W@__crt_stdio_output@@V?$format_validation_base@_WV?$string_output_adapter@_W@__crt_stdio_output@@@2@@__crt_stdio_output@@AEAA_NXZ 000000018005a018 f i libucrt:output.obj
 0001:00059028       ?type_case_X@?$output_processor@_WV?$string_output_adapter@_W@__crt_stdio_output@@V?$positional_parameter_base@_WV?$string_output_adapter@_W@__crt_stdio_output@@@2@@__crt_stdio_output@@AEAA_NXZ 000000018005a028 f i libucrt:output.obj
 0001:00059038       ?type_case_X@?$output_processor@_WV?$string_output_adapter@_W@__crt_stdio_output@@V?$standard_base@_WV?$string_output_adapter@_W@__crt_stdio_output@@@2@@__crt_stdio_output@@AEAA_NXZ 000000018005a038 f i libucrt:output.obj
 0001:00059048       ?type_case_Z@?$output_processor@DV?$stream_output_adapter@D@__crt_stdio_output@@V?$format_validation_base@DV?$stream_output_adapter@D@__crt_stdio_output@@@2@@__crt_stdio_output@@AEAA_NXZ 000000018005a048 f i libucrt:output.obj
