 NvClothDEBUG_x64

 Timestamp is 64f7545c (Wed Sep  6 01:16:28 2023)

 Preferred load address is 0000000180000000

 Start         Length     Name                   Class
 0001:00000000 0000f690H .text$di                CODE
 0001:0000f690 00185970H .text$mn                CODE
 0001:00195000 00001020H .text$mn$00             CODE
 0001:00196020 000020c8H .text$x                 CODE
 0002:00000000 00000110H .CRT$XCA                DATA
 0002:00000110 000002b8H .CRT$XCU                DATA
 0002:000003c8 00000110H .CRT$XCZ                DATA
 0002:000004d8 00000110H .CRT$XIA                DATA
 0002:000005e8 00000130H .CRT$XIC                DATA
 0002:00000718 00000110H .CRT$XIZ                DATA
 0002:00000828 00000110H .CRT$XPA                DATA
 0002:00000938 00000120H .CRT$XPX                DATA
 0002:00000a58 00000110H .CRT$XPXA               DATA
 0002:00000b68 00000110H .CRT$XPZ                DATA
 0002:00000c78 00000110H .CRT$XTA                DATA
 0002:00000d88 00000118H .CRT$XTZ                DATA
 0002:00000ea0 0007b5b8H .rdata                  DATA
 0002:0007c458 00000740H .rdata$r                DATA
 0002:0007cb98 00000190H .rdata$zzzdbg           DATA
 0002:0007cd28 00000110H .rtc$IAA                DATA
 0002:0007ce38 000002f0H .rtc$IMZ                DATA
 0002:0007d128 00000110H .rtc$IZZ                DATA
 0002:0007d238 00000110H .rtc$TAA                DATA
 0002:0007d348 000002f0H .rtc$TMZ                DATA
 0002:0007d638 00000118H .rtc$TZZ                DATA
 0002:0007d750 0000db58H .xdata                  DATA
 0002:0008b2a8 00000278H .xdata$x                DATA
 0002:0008b520 00000b5dH .edata                  DATA
 0003:00000000 00000e30H .data                   DATA
 0003:00000e30 000002f0H .data$r                 DATA
 0003:00001120 00002681H .bss                    DATA
 0004:00000000 000118c8H .pdata                  DATA
 0005:00000000 00000398H .idata$5                DATA
 0005:00000398 00000014H .idata$2                DATA
 0005:000003ac 00000014H .idata$3                DATA
 0005:000003c0 00000398H .idata$4                DATA
 0005:00000758 00000822H .idata$6                DATA
 0006:00000000 000002cbH .gfids$y                DATA
 0007:00000000 0000011bH .00cfg                  DATA
 0008:00000000 00000125H .gehcont$y              DATA
 0009:00000000 00000170H .rsrc$01                DATA
 0009:00000170 000002ccH .rsrc$02                DATA

  Address         Publics by Value              Rva+Base               Lib:Object

 0000:00000000       __guard_longjmp_table      0000000000000000     <absolute>
 0000:00000000       ___safe_se_handler_table   0000000000000000     <absolute>
 0000:00000000       __guard_longjmp_count      0000000000000000     <absolute>
 0000:00000000       __guard_fids_table         0000000000000000     <absolute>
 0000:00000000       __guard_fids_count         0000000000000000     <absolute>
 0000:00000000       ___safe_se_handler_count   0000000000000000     <absolute>
 0000:00000000       __dynamic_value_reloc_table 0000000000000000     <absolute>
 0000:00000000       __guard_iat_count          0000000000000000     <absolute>
 0000:00000000       __guard_iat_table          0000000000000000     <absolute>
 0000:00000100       __guard_flags              0000000000000100     <absolute>
 0000:00000000       __ImageBase                0000000180000000     <linker-defined>
 0001:0000f690       ?atomicExchange@ps@cloth@nv@@YAHPECHH@Z 0000000180010690 f   PsWindowsAtomic.obj
 0001:0000f6b0       ?atomicCompareExchange@ps@cloth@nv@@YAHPECHHH@Z 00000001800106b0 f   PsWindowsAtomic.obj
 0001:0000f700       ?atomicCompareExchangePointer@ps@cloth@nv@@YAPEAXPEAPECXPEAX1@Z 0000000180010700 f   PsWindowsAtomic.obj
 0001:0000f750       ?atomicIncrement@ps@cloth@nv@@YAHPECH@Z 0000000180010750 f   PsWindowsAtomic.obj
 0001:0000f770       ?atomicDecrement@ps@cloth@nv@@YAHPECH@Z 0000000180010770 f   PsWindowsAtomic.obj
 0001:0000f790       ?atomicAdd@ps@cloth@nv@@YAHPECHH@Z 0000000180010790 f   PsWindowsAtomic.obj
 0001:0000f800       ?atomicMax@ps@cloth@nv@@YAHPECHH@Z 0000000180010800 f   PsWindowsAtomic.obj
 0001:0000f8f0       ??0DxCloth@cloth@nv@@QEAA@AEAVDxFactory@12@AEAVDxFabric@12@U?$Range@$$CBVPxVec4@physx@@@12@@Z 00000001800108f0 f   DxCloth.obj
 0001:000100b0       ??0DxCloth@cloth@nv@@QEAA@AEAVDxFactory@12@AEBV012@@Z 00000001800110b0 f   DxCloth.obj
 0001:00010550       ??1DxCloth@cloth@nv@@UEAA@XZ 0000000180011550 f   DxCloth.obj
 0001:000107a0       ?getNumParticles@DxCloth@cloth@nv@@UEBAIXZ 00000001800117a0 f   DxCloth.obj
 0001:000107c0       ?lockParticles@DxCloth@cloth@nv@@UEBAXXZ 00000001800117c0 f   DxCloth.obj
 0001:00010800       ?unlockParticles@DxCloth@cloth@nv@@UEBAXXZ 0000000180011800 f   DxCloth.obj
 0001:00010840       ?getCurrentParticles@DxCloth@cloth@nv@@UEAA?AU?$MappedRange@VPxVec4@physx@@@23@XZ 0000000180011840 f   DxCloth.obj
 0001:000108c0       ?getCurrentParticles@DxCloth@cloth@nv@@UEBA?AU?$MappedRange@$$CBVPxVec4@physx@@@23@XZ 00000001800118c0 f   DxCloth.obj
 0001:00010930       ?getPreviousParticles@DxCloth@cloth@nv@@UEAA?AU?$MappedRange@VPxVec4@physx@@@23@XZ 0000000180011930 f   DxCloth.obj
 0001:000109c0       ?getPreviousParticles@DxCloth@cloth@nv@@UEBA?AU?$MappedRange@$$CBVPxVec4@physx@@@23@XZ 00000001800119c0 f   DxCloth.obj
 0001:00010a50       ?getGpuParticles@DxCloth@cloth@nv@@UEAA?AUGpuParticles@23@XZ 0000000180011a50 f   DxCloth.obj
 0001:00010b20       ?setPhaseConfig@DxCloth@cloth@nv@@UEAAXU?$Range@$$CBUPhaseConfig@cloth@nv@@@23@@Z 0000000180011b20 f   DxCloth.obj
 0001:00010cb0       ?setSelfCollisionIndices@DxCloth@cloth@nv@@UEAAXU?$Range@$$CBI@23@@Z 0000000180011cb0 f   DxCloth.obj
 0001:00010da0       ?getNumVirtualParticles@DxCloth@cloth@nv@@UEBAIXZ 0000000180011da0 f   DxCloth.obj
 0001:00010de0       ?getParticleAccelerations@DxCloth@cloth@nv@@UEAA?AU?$Range@VPxVec4@physx@@@23@XZ 0000000180011de0 f   DxCloth.obj
 0001:00010f50       ?clearParticleAccelerations@DxCloth@cloth@nv@@UEAAXXZ 0000000180011f50 f   DxCloth.obj
 0001:00011020       ?setVirtualParticles@DxCloth@cloth@nv@@UEAAXU?$Range@$$BY03$$CBI@23@U?$Range@$$CBVPxVec3@physx@@@23@@Z 0000000180012020 f   DxCloth.obj
 0001:00011320       ?notifyChanged@DxCloth@cloth@nv@@QEAAXXZ 0000000180012320 f   DxCloth.obj
 0001:00011340       ?updateClothData@DxCloth@cloth@nv@@QEAA_NAEAUDxClothData@23@@Z 0000000180012340 f   DxCloth.obj
 0001:00011560       ?getSharedMemorySize@DxCloth@cloth@nv@@QEBAIXZ 0000000180012560 f   DxCloth.obj
 0001:000117e0       ?setPhaseConfigInternal@DxCloth@cloth@nv@@QEAAXU?$Range@$$CBUPhaseConfig@cloth@nv@@@23@@Z 00000001800127e0 f   DxCloth.obj
 0001:00011a40       ?push@DxCloth@cloth@nv@@QEAA?AU?$Range@VPxVec4@physx@@@23@AEAUDxConstraints@23@@Z 0000000180012a40 f   DxCloth.obj
 0001:00011c60       ?clear@DxCloth@cloth@nv@@QEAAXAEAUDxConstraints@23@@Z 0000000180012c60 f   DxCloth.obj
 0001:00011ce0       ?mapParticles@DxCloth@cloth@nv@@QEAAXXZ 0000000180012ce0 f   DxCloth.obj
 0001:00011e00       ?unmapParticles@DxCloth@cloth@nv@@QEAAXXZ 0000000180012e00 f   DxCloth.obj
 0001:00011eb0       ?clampTriangleCount@DxCloth@cloth@nv@@QEAA?AU?$Range@$$CBVPxVec3@physx@@@23@U423@I@Z 0000000180012eb0 f   DxCloth.obj
 0001:00012d70       ??$?0I@?$Vec4T@G@cloth@nv@@QEAA@AEBU?$Vec4T@I@12@@Z 0000000180013d70 f i DxCloth.obj
 0001:00012de0       ??$?4VNonTrackingAllocator@ps@cloth@nv@@@?$DxBatchedVector@I@cloth@nv@@QEAAAEAV012@AEBV?$Array@IVNonTrackingAllocator@ps@cloth@nv@@@ps@12@@Z 0000000180013de0 f i DxCloth.obj
 0001:00012e60       ??$?4VNonTrackingAllocator@ps@cloth@nv@@@?$DxBatchedVector@U?$Vec4T@G@cloth@nv@@@cloth@nv@@QEAAAEAV012@AEBV?$Array@U?$Vec4T@G@cloth@nv@@VNonTrackingAllocator@ps@23@@ps@12@@Z 0000000180013e60 f i DxCloth.obj
 0001:00012ee0       ??$?4VNonTrackingAllocator@ps@cloth@nv@@@?$DxBatchedVector@VPxVec4@physx@@@cloth@nv@@QEAAAEAV012@AEBV?$Array@VPxVec4@physx@@VNonTrackingAllocator@ps@cloth@nv@@@ps@12@@Z 0000000180013ee0 f i DxCloth.obj
 0001:00012f60       ??$?AH@?$Vec4T@I@cloth@nv@@QEBAAEBIH@Z 0000000180013f60 f i DxCloth.obj
 0001:00012f80       ??$?RAEBEAEBE@?$less@X@std@@QEBA_NAEBE0@Z 0000000180013f80 f i DxCloth.obj
 0001:00012ff0       ??$?RAEBHAEBH@?$less@X@std@@QEBA_NAEBH0@Z 0000000180013ff0 f i DxCloth.obj
 0001:00013060       ??$?RAEBIAEBI@?$less@X@std@@QEBA_NAEBI0@Z 0000000180014060 f i DxCloth.obj
 0001:000130d0       ??$?RAEBMAEBM@?$less@X@std@@QEBA_NAEBM0@Z 00000001800140d0 f i DxCloth.obj
 0001:00013140       ??$?RAEBQEBVPxVec3@physx@@AEBQEBV01@@?$less@X@std@@QEBA_NAEBQEBVPxVec3@physx@@0@Z 0000000180014140 f i DxCloth.obj
 0001:000131b0       ??$?RAEBQEBVPxVec4@physx@@AEBQEBV01@@?$less@X@std@@QEBA_NAEBQEBVPxVec4@physx@@0@Z 00000001800141b0 f i DxCloth.obj
 0001:00013220       ??$?RAEB_JAEB_J@?$less@X@std@@QEBA_NAEB_J0@Z 0000000180014220 f i DxCloth.obj
 0001:00013290       ??$PX_UNUSED@W4PxIDENTITY@physx@@@@YAXAEBW4PxIDENTITY@physx@@@Z 0000000180014290 f i DxCloth.obj
 0001:000132a0       ??$PX_UNUSED@W4PxZERO@physx@@@@YAXAEBW4PxZERO@physx@@@Z 00000001800142a0 f i DxCloth.obj
 0001:000132b0       ??$PxMax@M@physx@@YAMMM@Z  00000001800142b0 f i DxCloth.obj
 0001:00013300       ??$PxMin@M@physx@@YAMMM@Z  0000000180014300 f i DxCloth.obj
 0001:00013350       ??$_Debug_lt@AEBEAEBE@std@@YA_NAEBE0PEB_WI@Z 0000000180014350 f i DxCloth.obj
 0001:000133e0       ??$_Debug_lt@AEBHAEBH@std@@YA_NAEBH0PEB_WI@Z 00000001800143e0 f i DxCloth.obj
 0001:00013470       ??$_Debug_lt@AEBIAEBI@std@@YA_NAEBI0PEB_WI@Z 0000000180014470 f i DxCloth.obj
 0001:00013500       ??$_Debug_lt@AEBMAEBM@std@@YA_NAEBM0PEB_WI@Z 0000000180014500 f i DxCloth.obj
 0001:00013590       ??$_Debug_lt@AEBQEBVPxVec3@physx@@AEBQEBV12@@std@@YA_NAEBQEBVPxVec3@physx@@0PEB_WI@Z 0000000180014590 f i DxCloth.obj
 0001:00013620       ??$_Debug_lt@AEBQEBVPxVec4@physx@@AEBQEBV12@@std@@YA_NAEBQEBVPxVec4@physx@@0PEB_WI@Z 0000000180014620 f i DxCloth.obj
 0001:000136b0       ??$_Debug_lt@AEB_JAEB_J@std@@YA_NAEB_J0PEB_WI@Z 00000001800146b0 f i DxCloth.obj
 0001:00013740       ??$_Debug_lt_pred@U?$less@X@std@@AEBEAEBE@std@@YA_N$$QEAU?$less@X@0@AEBE1PEB_WI@Z 0000000180014740 f i DxCloth.obj
 0001:00013810       ??$_Debug_lt_pred@U?$less@X@std@@AEBHAEBH@std@@YA_N$$QEAU?$less@X@0@AEBH1PEB_WI@Z 0000000180014810 f i DxCloth.obj
 0001:000138e0       ??$_Debug_lt_pred@U?$less@X@std@@AEBIAEBI@std@@YA_N$$QEAU?$less@X@0@AEBI1PEB_WI@Z 00000001800148e0 f i DxCloth.obj
 0001:000139b0       ??$_Debug_lt_pred@U?$less@X@std@@AEBMAEBM@std@@YA_N$$QEAU?$less@X@0@AEBM1PEB_WI@Z 00000001800149b0 f i DxCloth.obj
 0001:00013a80       ??$_Debug_lt_pred@U?$less@X@std@@AEBQEBVPxVec3@physx@@AEBQEBV34@@std@@YA_N$$QEAU?$less@X@0@AEBQEBVPxVec3@physx@@1PEB_WI@Z 0000000180014a80 f i DxCloth.obj
 0001:00013b50       ??$_Debug_lt_pred@U?$less@X@std@@AEBQEBVPxVec4@physx@@AEBQEBV34@@std@@YA_N$$QEAU?$less@X@0@AEBQEBVPxVec4@physx@@1PEB_WI@Z 0000000180014b50 f i DxCloth.obj
 0001:00013c20       ??$_Debug_lt_pred@U?$less@X@std@@AEB_JAEB_J@std@@YA_N$$QEAU?$less@X@0@AEB_J1PEB_WI@Z 0000000180014c20 f i DxCloth.obj
 0001:00013cf0       ??$copy@VDxCloth@cloth@nv@@V123@@cloth@nv@@YAXAEAVDxCloth@01@AEBV201@@Z 0000000180014cf0 f i DxCloth.obj
 0001:000141b0       ??$copy@VNonTrackingAllocator@ps@cloth@nv@@@?$Array@UPhaseConfig@cloth@nv@@VNonTrackingAllocator@ps@23@@ps@cloth@nv@@IEAAXAEBV0123@@Z 00000001800151b0 f i DxCloth.obj
 0001:000142b0       ??$copy@VNonTrackingAllocator@ps@cloth@nv@@@?$Array@VPxVec4@physx@@VNonTrackingAllocator@ps@cloth@nv@@@ps@cloth@nv@@IEAAXAEBV0123@@Z 00000001800152b0 f i DxCloth.obj
 0001:000143b0       ??$forward@AEBE@std@@YAAEBEAEBE@Z 00000001800153b0 f i DxCloth.obj
 0001:000143c0       ??$forward@AEBH@std@@YAAEBHAEBH@Z 00000001800153c0 f i DxCloth.obj
 0001:000143d0       ??$forward@AEBI@std@@YAAEBIAEBI@Z 00000001800153d0 f i DxCloth.obj
 0001:000143e0       ??$forward@AEBM@std@@YAAEBMAEBM@Z 00000001800153e0 f i DxCloth.obj
 0001:000143f0       ??$forward@AEBQEBVPxVec3@physx@@@std@@YAAEBQEBVPxVec3@physx@@AEBQEBV12@@Z 00000001800153f0 f i DxCloth.obj
 0001:00014400       ??$forward@AEBQEBVPxVec4@physx@@@std@@YAAEBQEBVPxVec4@physx@@AEBQEBV12@@Z 0000000180015400 f i DxCloth.obj
 0001:00014410       ??$forward@AEB_J@std@@YAAEB_JAEB_J@Z 0000000180015410 f i DxCloth.obj
 0001:00014420       ??$getMappedParticles@$$CBVPxVec4@physx@@@?$ClothImpl@VDxCloth@cloth@nv@@@cloth@nv@@QEBA?AU?$MappedRange@$$CBVPxVec4@physx@@@12@PEBVPxVec4@physx@@@Z 0000000180015420 f i DxCloth.obj
 0001:00014550       ??$getMappedParticles@VPxVec4@physx@@@?$ClothImpl@VDxCloth@cloth@nv@@@cloth@nv@@QEBA?AU?$MappedRange@VPxVec4@physx@@@12@PEAVPxVec4@physx@@@Z 0000000180015550 f i DxCloth.obj
 0001:00014680       ??$initialize@VDxCloth@cloth@nv@@@cloth@nv@@YAXAEAVDxCloth@01@PEBVPxVec4@physx@@1@Z 0000000180015680 f i DxCloth.obj
 0001:00014d00       ??$max@E@std@@YAAEBEAEBE0@Z 0000000180015d00 f i DxCloth.obj
 0001:00014d90       ??$max@H@std@@YAAEBHAEBH0@Z 0000000180015d90 f i DxCloth.obj
 0001:00014e20       ??$max@I@std@@YAAEBIAEBI0@Z 0000000180015e20 f i DxCloth.obj
 0001:00014eb0       ??$min@H@std@@YAAEBHAEBH0@Z 0000000180015eb0 f i DxCloth.obj
 0001:00014f40       ??$min@I@std@@YAAEBIAEBI0@Z 0000000180015f40 f i DxCloth.obj
 0001:00014fd0       ??$min@M@std@@YAAEBMAEBM0@Z 0000000180015fd0 f i DxCloth.obj
 0001:00015060       ??$min@PEBVPxVec3@physx@@@std@@YAAEBQEBVPxVec3@physx@@AEBQEBV12@0@Z 0000000180016060 f i DxCloth.obj
 0001:000150f0       ??$min@PEBVPxVec4@physx@@@std@@YAAEBQEBVPxVec4@physx@@AEBQEBV12@0@Z 00000001800160f0 f i DxCloth.obj
 0001:00015180       ??$min@_J@std@@YAAEB_JAEB_J0@Z 0000000180016180 f i DxCloth.obj
 0001:00015210       ??$move@PEAI@cloth@nv@@YAXPEAIIII@Z 0000000180016210 f i DxCloth.obj
 0001:000152f0       ??$move@PEAUIndexPair@cloth@nv@@@cloth@nv@@YAXPEAUIndexPair@01@III@Z 00000001800162f0 f i DxCloth.obj
 0001:000153d0       ??$move@PEAVPxVec3@physx@@@cloth@nv@@YAXPEAVPxVec3@physx@@III@Z 00000001800163d0 f i DxCloth.obj
 0001:00015520       ??$move@PEAVPxVec4@physx@@@cloth@nv@@YAXPEAVPxVec4@physx@@III@Z 0000000180016520 f i DxCloth.obj
 0001:00015670       ??$swap@I@ps@cloth@nv@@YAXAEAI0@Z 0000000180016670 f i DxCloth.obj
 0001:000156d0       ??$swap@PEAVPxVec4@physx@@@ps@cloth@nv@@YAXAEAPEAVPxVec4@physx@@0@Z 00000001800166d0 f i DxCloth.obj
 0001:00015740       ??$swap@V?$DxBatchedVector@VPxVec4@physx@@@cloth@nv@@@ps@cloth@nv@@YAXAEAV?$DxBatchedVector@VPxVec4@physx@@@12@0@Z 0000000180016740 f i DxCloth.obj
 0001:000157d0       ??$swap@V?$DxBuffer@I@cloth@nv@@@ps@cloth@nv@@YAXAEAV?$DxBuffer@I@12@0@Z 00000001800167d0 f i DxCloth.obj
 0001:00015880       ??$swap@V?$DxBuffer@U?$Vec4T@G@cloth@nv@@@cloth@nv@@@ps@cloth@nv@@YAXAEAV?$DxBuffer@U?$Vec4T@G@cloth@nv@@@12@0@Z 0000000180016880 f i DxCloth.obj
 0001:00015930       ??$swap@V?$DxBuffer@UDxPhaseConfig@cloth@nv@@@cloth@nv@@@ps@cloth@nv@@YAXAEAV?$DxBuffer@UDxPhaseConfig@cloth@nv@@@12@0@Z 0000000180016930 f i DxCloth.obj
 0001:000159e0       ??$swap@V?$DxBuffer@UIndexPair@cloth@nv@@@cloth@nv@@@ps@cloth@nv@@YAXAEAV?$DxBuffer@UIndexPair@cloth@nv@@@12@0@Z 00000001800169e0 f i DxCloth.obj
 0001:00015a90       ??$swap@V?$DxBuffer@VPxVec3@physx@@@cloth@nv@@@ps@cloth@nv@@YAXAEAV?$DxBuffer@VPxVec3@physx@@@12@0@Z 0000000180016a90 f i DxCloth.obj
 0001:00015b40       ??$swap@V?$DxBuffer@VPxVec4@physx@@@cloth@nv@@@ps@cloth@nv@@YAXAEAV?$DxBuffer@VPxVec4@physx@@@12@0@Z 0000000180016b40 f i DxCloth.obj
 0001:00015bf0       ??0?$Array@IVNonTrackingAllocator@ps@cloth@nv@@@ps@cloth@nv@@QEAA@AEBVNonTrackingAllocator@123@@Z 0000000180016bf0 f i DxCloth.obj
 0001:00015c40       ??0?$Array@U?$Vec4T@G@cloth@nv@@VNonTrackingAllocator@ps@23@@ps@cloth@nv@@QEAA@AEBVNonTrackingAllocator@123@@Z 0000000180016c40 f i DxCloth.obj
 0001:00015c90       ??0?$Array@UDxPhaseConfig@cloth@nv@@VNonTrackingAllocator@ps@23@@ps@cloth@nv@@QEAA@AEBVNonTrackingAllocator@123@@Z 0000000180016c90 f i DxCloth.obj
 0001:00015ce0       ??0?$Array@UPhaseConfig@cloth@nv@@VNonTrackingAllocator@ps@23@@ps@cloth@nv@@QEAA@AEBV0123@AEBVNonTrackingAllocator@123@@Z 0000000180016ce0 f i DxCloth.obj
 0001:00015d40       ??0?$Array@UPhaseConfig@cloth@nv@@VNonTrackingAllocator@ps@23@@ps@cloth@nv@@QEAA@AEBVNonTrackingAllocator@123@@Z 0000000180016d40 f i DxCloth.obj
 0001:00015d90       ??0?$Array@VPxVec4@physx@@VNonTrackingAllocator@ps@cloth@nv@@@ps@cloth@nv@@QEAA@AEBV0123@AEBVNonTrackingAllocator@123@@Z 0000000180016d90 f i DxCloth.obj
 0001:00015df0       ??0?$Array@VPxVec4@physx@@VNonTrackingAllocator@ps@cloth@nv@@@ps@cloth@nv@@QEAA@AEBVNonTrackingAllocator@123@@Z 0000000180016df0 f i DxCloth.obj
 0001:00015e40       ??0?$ClothImpl@VDxCloth@cloth@nv@@@cloth@nv@@QEAA@XZ 0000000180016e40 f i DxCloth.obj
 0001:00015ff0       ??0?$DxBatchedVector@I@cloth@nv@@QEAA@AEAV?$DxBatchedStorage@I@12@@Z 0000000180016ff0 f i DxCloth.obj
 0001:00016070       ??0?$DxBatchedVector@I@cloth@nv@@QEAA@AEBV012@@Z 0000000180017070 f i DxCloth.obj
 0001:000162e0       ??0?$DxBatchedVector@U?$Vec4T@G@cloth@nv@@@cloth@nv@@QEAA@AEAV?$DxBatchedStorage@U?$Vec4T@G@cloth@nv@@@12@@Z 00000001800172e0 f i DxCloth.obj
 0001:00016360       ??0?$DxBatchedVector@U?$Vec4T@G@cloth@nv@@@cloth@nv@@QEAA@AEBV012@@Z 0000000180017360 f i DxCloth.obj
 0001:000165d0       ??0?$DxBatchedVector@UDxPhaseConfig@cloth@nv@@@cloth@nv@@QEAA@AEAV?$DxBatchedStorage@UDxPhaseConfig@cloth@nv@@@12@@Z 00000001800175d0 f i DxCloth.obj
 0001:00016650       ??0?$DxBatchedVector@UDxPhaseConfig@cloth@nv@@@cloth@nv@@QEAA@AEBV012@@Z 0000000180017650 f i DxCloth.obj
 0001:000168c0       ??0?$DxBatchedVector@UIndexPair@cloth@nv@@@cloth@nv@@QEAA@AEAV?$DxBatchedStorage@UIndexPair@cloth@nv@@@12@@Z 00000001800178c0 f i DxCloth.obj
 0001:00016940       ??0?$DxBatchedVector@UIndexPair@cloth@nv@@@cloth@nv@@QEAA@AEBV012@@Z 0000000180017940 f i DxCloth.obj
 0001:00016bb0       ??0?$DxBatchedVector@VPxVec3@physx@@@cloth@nv@@QEAA@AEAV?$DxBatchedStorage@VPxVec3@physx@@@12@@Z 0000000180017bb0 f i DxCloth.obj
 0001:00016c30       ??0?$DxBatchedVector@VPxVec3@physx@@@cloth@nv@@QEAA@AEBV012@@Z 0000000180017c30 f i DxCloth.obj
 0001:00016ea0       ??0?$DxBatchedVector@VPxVec4@physx@@@cloth@nv@@QEAA@AEAV?$DxBatchedStorage@VPxVec4@physx@@@12@@Z 0000000180017ea0 f i DxCloth.obj
 0001:00016f20       ??0?$DxBatchedVector@VPxVec4@physx@@@cloth@nv@@QEAA@AEBV012@@Z 0000000180017f20 f i DxCloth.obj
 0001:00017190       ??0?$DxBuffer@I@cloth@nv@@QEAA@AEBV012@@Z 0000000180018190 f i DxCloth.obj
 0001:00017260       ??0?$DxBuffer@I@cloth@nv@@QEAA@PEAVDxContextManagerCallback@12@AEBUDxBufferFlags@12@@Z 0000000180018260 f i DxCloth.obj
 0001:00017300       ??0?$DxBuffer@U?$Vec4T@G@cloth@nv@@@cloth@nv@@QEAA@AEBV012@@Z 0000000180018300 f i DxCloth.obj
 0001:000173d0       ??0?$DxBuffer@U?$Vec4T@G@cloth@nv@@@cloth@nv@@QEAA@PEAVDxContextManagerCallback@12@AEBUDxBufferFlags@12@@Z 00000001800183d0 f i DxCloth.obj
 0001:00017470       ??0?$DxBuffer@UDxPhaseConfig@cloth@nv@@@cloth@nv@@QEAA@AEBV012@@Z 0000000180018470 f i DxCloth.obj
 0001:00017540       ??0?$DxBuffer@UDxPhaseConfig@cloth@nv@@@cloth@nv@@QEAA@PEAVDxContextManagerCallback@12@AEBUDxBufferFlags@12@@Z 0000000180018540 f i DxCloth.obj
 0001:000175e0       ??0?$DxBuffer@UIndexPair@cloth@nv@@@cloth@nv@@QEAA@AEBV012@@Z 00000001800185e0 f i DxCloth.obj
 0001:000176b0       ??0?$DxBuffer@UIndexPair@cloth@nv@@@cloth@nv@@QEAA@PEAVDxContextManagerCallback@12@AEBUDxBufferFlags@12@@Z 00000001800186b0 f i DxCloth.obj
 0001:00017750       ??0?$DxBuffer@VPxVec3@physx@@@cloth@nv@@QEAA@AEBV012@@Z 0000000180018750 f i DxCloth.obj
 0001:00017820       ??0?$DxBuffer@VPxVec3@physx@@@cloth@nv@@QEAA@PEAVDxContextManagerCallback@12@AEBUDxBufferFlags@12@@Z 0000000180018820 f i DxCloth.obj
 0001:000178c0       ??0?$DxBuffer@VPxVec4@physx@@@cloth@nv@@QEAA@AEBV012@@Z 00000001800188c0 f i DxCloth.obj
 0001:00017990       ??0?$DxBuffer@VPxVec4@physx@@@cloth@nv@@QEAA@PEAVDxContextManagerCallback@12@AEBUDxBufferFlags@12@@Z 0000000180018990 f i DxCloth.obj
 0001:00017a30       ??0?$DxVectorMap@V?$DxBatchedVector@I@cloth@nv@@@cloth@nv@@QEAA@AEAV?$DxBatchedVector@I@12@W4D3D11_MAP@@@Z 0000000180018a30 f i DxCloth.obj
 0001:00017ac0       ??0?$DxVectorMap@V?$DxBatchedVector@UIndexPair@cloth@nv@@@cloth@nv@@@cloth@nv@@QEAA@AEAV?$DxBatchedVector@UIndexPair@cloth@nv@@@12@W4D3D11_MAP@@@Z 0000000180018ac0 f i DxCloth.obj
 0001:00017b50       ??0?$DxVectorMap@V?$DxBatchedVector@VPxVec3@physx@@@cloth@nv@@@cloth@nv@@QEAA@AEAV?$DxBatchedVector@VPxVec3@physx@@@12@W4D3D11_MAP@@@Z 0000000180018b50 f i DxCloth.obj
 0001:00017be0       ??0?$DxVectorMap@V?$DxBatchedVector@VPxVec4@physx@@@cloth@nv@@@cloth@nv@@QEAA@AEAV?$DxBatchedVector@VPxVec4@physx@@@12@W4D3D11_MAP@@@Z 0000000180018be0 f i DxCloth.obj
 0001:00017c70       ??0?$MappedRange@$$CBVPxVec4@physx@@@cloth@nv@@QEAA@PEBVPxVec4@physx@@0AEBVCloth@12@P8512@EBAXXZ2@Z 0000000180018c70 f i DxCloth.obj
 0001:00017d20       ??0?$MappedRange@VPxVec4@physx@@@cloth@nv@@QEAA@PEAVPxVec4@physx@@0AEBVCloth@12@P8512@EBAXXZ2@Z 0000000180018d20 f i DxCloth.obj
 0001:00017dd0       ??0?$Range@$$CBUPhaseConfig@cloth@nv@@@cloth@nv@@QEAA@PEBUPhaseConfig@12@0@Z 0000000180018dd0 f i DxCloth.obj
 0001:00017e10       ??0?$Range@$$CBVPxVec3@physx@@@cloth@nv@@QEAA@PEBVPxVec3@physx@@0@Z 0000000180018e10 f i DxCloth.obj
 0001:00017e50       ??0?$Range@$$CBVPxVec4@physx@@@cloth@nv@@QEAA@PEBVPxVec4@physx@@0@Z 0000000180018e50 f i DxCloth.obj
 0001:00017e90       ??0?$Range@VPxVec4@physx@@@cloth@nv@@QEAA@PEAVPxVec4@physx@@0@Z 0000000180018e90 f i DxCloth.obj
 0001:00017ed0       ??0Allocator@ps@cloth@nv@@QEAA@PEBD@Z 0000000180018ed0 f i DxCloth.obj
 0001:00017ef0       ??0CD3D11_BOX@@QEAA@JJJJJJ@Z 0000000180018ef0 f i DxCloth.obj
 0001:00017f70       ??0CD3D11_BUFFER_DESC@@QEAA@IIW4D3D11_USAGE@@III@Z 0000000180018f70 f i DxCloth.obj
 0001:00017ff0       ??0Cloth@cloth@nv@@IEAA@XZ 0000000180018ff0 f i DxCloth.obj
 0001:00018020       ??0DxConstraints@cloth@nv@@QEAA@AEAV?$DxBatchedStorage@VPxVec4@physx@@@12@@Z 0000000180019020 f i DxCloth.obj
 0001:000180b0       ??0DxConstraints@cloth@nv@@QEAA@AEBU012@@Z 00000001800190b0 f i DxCloth.obj
 0001:00018170       ??0MovingAverage@cloth@nv@@QEAA@I@Z 0000000180019170 f i DxCloth.obj
 0001:00018240       ??0NonTrackingAllocator@ps@cloth@nv@@QEAA@PEBD@Z 0000000180019240 f i DxCloth.obj
 0001:00018260       ??0PxQuat@physx@@QEAA@MMMM@Z 0000000180019260 f i DxCloth.obj
 0001:000182e0       ??0PxQuat@physx@@QEAA@W4PxIDENTITY@1@@Z 00000001800192e0 f i DxCloth.obj
 0001:00018370       ??0PxQuat@physx@@QEAA@XZ   0000000180019370 f i DxCloth.obj
 0001:00018380       ??0PxTransform@physx@@QEAA@W4PxIDENTITY@1@@Z 0000000180019380 f i DxCloth.obj
 0001:000183f0       ??0PxTransform@physx@@QEAA@XZ 00000001800193f0 f i DxCloth.obj
 0001:00018450       ??0PxVec3@physx@@QEAA@AEBV01@@Z 0000000180019450 f i DxCloth.obj
 0001:000184b0       ??0PxVec3@physx@@QEAA@M@Z  00000001800194b0 f i DxCloth.obj
 0001:00018510       ??0PxVec3@physx@@QEAA@MMM@Z 0000000180019510 f i DxCloth.obj
 0001:00018580       ??0PxVec3@physx@@QEAA@W4PxZERO@1@@Z 0000000180019580 f i DxCloth.obj
 0001:00018600       ??0PxVec3@physx@@QEAA@XZ   0000000180019600 f i DxCloth.obj
 0001:00018610       ??0PxVec4@physx@@QEAA@AEBV01@@Z 0000000180019610 f i DxCloth.obj
 0001:00018690       ??0PxVec4@physx@@QEAA@M@Z  0000000180019690 f i DxCloth.obj
 0001:00018700       ??0PxVec4@physx@@QEAA@MMMM@Z 0000000180019700 f i DxCloth.obj
 0001:00018780       ??0PxVec4@physx@@QEAA@XZ   0000000180019780 f i DxCloth.obj
 0001:00018790       ??0Simd4fScalarFactory@cloth@nv@@QEAA@AEBM@Z 0000000180019790 f i DxCloth.obj
 0001:000187c0       ??0Simd4fTupleFactory@cloth@nv@@QEAA@IIII@Z 00000001800197c0 f i DxCloth.obj
 0001:00018880       ??0Simd4iScalarFactory@cloth@nv@@QEAA@AEBH@Z 0000000180019880 f i DxCloth.obj
 0001:000188b0       ??1?$Array@IVNonTrackingAllocator@ps@cloth@nv@@@ps@cloth@nv@@QEAA@XZ 00000001800198b0 f i DxCloth.obj
 0001:00018950       ??1?$Array@U?$Vec4T@G@cloth@nv@@VNonTrackingAllocator@ps@23@@ps@cloth@nv@@QEAA@XZ 0000000180019950 f i DxCloth.obj
 0001:000189f0       ??1?$Array@U?$Vec4T@I@cloth@nv@@VNonTrackingAllocator@ps@23@@ps@cloth@nv@@QEAA@XZ 00000001800199f0 f i DxCloth.obj
 0001:00018a90       ??1?$Array@UDxPhaseConfig@cloth@nv@@VNonTrackingAllocator@ps@23@@ps@cloth@nv@@QEAA@XZ 0000000180019a90 f i DxCloth.obj
 0001:00018b30       ??1?$Array@UPhaseConfig@cloth@nv@@VNonTrackingAllocator@ps@23@@ps@cloth@nv@@QEAA@XZ 0000000180019b30 f i DxCloth.obj
 0001:00018bd0       ??1?$Array@VPxVec4@physx@@VNonTrackingAllocator@ps@cloth@nv@@@ps@cloth@nv@@QEAA@XZ 0000000180019bd0 f i DxCloth.obj
 0001:00018c70       ??1?$ClothImpl@VDxCloth@cloth@nv@@@cloth@nv@@UEAA@XZ 0000000180019c70 f i DxCloth.obj
 0001:00018cd0       ??1?$DxBatchedVector@I@cloth@nv@@QEAA@XZ 0000000180019cd0 f i DxCloth.obj
 0001:00018d20       ??1?$DxBatchedVector@U?$Vec4T@G@cloth@nv@@@cloth@nv@@QEAA@XZ 0000000180019d20 f i DxCloth.obj
 0001:00018d70       ??1?$DxBatchedVector@UDxPhaseConfig@cloth@nv@@@cloth@nv@@QEAA@XZ 0000000180019d70 f i DxCloth.obj
 0001:00018dc0       ??1?$DxBatchedVector@UIndexPair@cloth@nv@@@cloth@nv@@QEAA@XZ 0000000180019dc0 f i DxCloth.obj
 0001:00018e10       ??1?$DxBatchedVector@VPxVec3@physx@@@cloth@nv@@QEAA@XZ 0000000180019e10 f i DxCloth.obj
 0001:00018e60       ??1?$DxBatchedVector@VPxVec4@physx@@@cloth@nv@@QEAA@XZ 0000000180019e60 f i DxCloth.obj
 0001:00018eb0       ??1?$DxBuffer@I@cloth@nv@@QEAA@XZ 0000000180019eb0 f i DxCloth.obj
 0001:00018fa0       ??1?$DxBuffer@U?$Vec4T@G@cloth@nv@@@cloth@nv@@QEAA@XZ 0000000180019fa0 f i DxCloth.obj
 0001:00019090       ??1?$DxBuffer@UDxPhaseConfig@cloth@nv@@@cloth@nv@@QEAA@XZ 000000018001a090 f i DxCloth.obj
 0001:00019180       ??1?$DxBuffer@UIndexPair@cloth@nv@@@cloth@nv@@QEAA@XZ 000000018001a180 f i DxCloth.obj
 0001:00019270       ??1?$DxBuffer@VPxVec3@physx@@@cloth@nv@@QEAA@XZ 000000018001a270 f i DxCloth.obj
 0001:00019360       ??1?$DxBuffer@VPxVec4@physx@@@cloth@nv@@QEAA@XZ 000000018001a360 f i DxCloth.obj
 0001:00019450       ??1?$DxVectorMap@V?$DxBatchedVector@I@cloth@nv@@@cloth@nv@@QEAA@XZ 000000018001a450 f i DxCloth.obj
 0001:000194b0       ??1?$DxVectorMap@V?$DxBatchedVector@UIndexPair@cloth@nv@@@cloth@nv@@@cloth@nv@@QEAA@XZ 000000018001a4b0 f i DxCloth.obj
 0001:00019510       ??1?$DxVectorMap@V?$DxBatchedVector@VPxVec3@physx@@@cloth@nv@@@cloth@nv@@QEAA@XZ 000000018001a510 f i DxCloth.obj
 0001:00019570       ??1?$DxVectorMap@V?$DxBatchedVector@VPxVec4@physx@@@cloth@nv@@@cloth@nv@@QEAA@XZ 000000018001a570 f i DxCloth.obj
 0001:000195d0       ??1CD3D11_BOX@@QEAA@XZ     000000018001a5d0 f i DxCloth.obj
 0001:000195e0       ??1CD3D11_BUFFER_DESC@@QEAA@XZ 000000018001a5e0 f i DxCloth.obj
 0001:000195f0       ??1Cloth@cloth@nv@@UEAA@XZ 000000018001a5f0 f i DxCloth.obj
 0001:00019610       ??1DxConstraints@cloth@nv@@QEAA@XZ 000000018001a610 f i DxCloth.obj
 0001:00019680       ??1MovingAverage@cloth@nv@@QEAA@XZ 000000018001a680 f i DxCloth.obj
 0001:000196e0       ??1TripletScheduler@cloth@nv@@QEAA@XZ 000000018001a6e0 f i DxCloth.obj
 0001:00019750       ??2@YAPEAX_KPEAX@Z         000000018001a750 f i DxCloth.obj
 0001:00019770       ??3UserAllocated@cloth@nv@@SAXPEAX@Z 000000018001a770 f i DxCloth.obj
 0001:000197d0       ??4?$DxBatchedVector@VPxVec4@physx@@@cloth@nv@@QEAAAEAV012@AEBV012@@Z 000000018001a7d0 f i DxCloth.obj
 0001:00019ac0       ??4?$DxBuffer@I@cloth@nv@@QEAAAEAV012@AEBV012@@Z 000000018001aac0 f i DxCloth.obj
 0001:00019c90       ??4?$DxBuffer@U?$Vec4T@G@cloth@nv@@@cloth@nv@@QEAAAEAV012@AEBV012@@Z 000000018001ac90 f i DxCloth.obj
 0001:00019e60       ??4?$DxBuffer@UDxPhaseConfig@cloth@nv@@@cloth@nv@@QEAAAEAV012@AEBV012@@Z 000000018001ae60 f i DxCloth.obj
 0001:0001a020       ??4?$DxBuffer@UIndexPair@cloth@nv@@@cloth@nv@@QEAAAEAV012@AEBV012@@Z 000000018001b020 f i DxCloth.obj
 0001:0001a1f0       ??4?$DxBuffer@VPxVec3@physx@@@cloth@nv@@QEAAAEAV012@AEBV012@@Z 000000018001b1f0 f i DxCloth.obj
 0001:0001a3b0       ??4?$DxBuffer@VPxVec4@physx@@@cloth@nv@@QEAAAEAV012@AEBV012@@Z 000000018001b3b0 f i DxCloth.obj
 0001:0001a570       ??4Allocator@ps@cloth@nv@@QEAAAEAV0123@$$QEAV0123@@Z 000000018001b570 f i DxCloth.obj
 0001:0001a590       ??4Allocator@ps@cloth@nv@@QEAAAEAV0123@AEBV0123@@Z 000000018001b590 f i DxCloth.obj
 0001:0001a5b0       ??4MovingAverage@cloth@nv@@QEAAAEAU012@AEBU012@@Z 000000018001b5b0 f i DxCloth.obj
 0001:0001a6f0       ??4PxQuat@physx@@QEAAAEAV01@AEBV01@@Z 000000018001b6f0 f i DxCloth.obj
 0001:0001a770       ??4PxTransform@physx@@QEAAAEAV01@$$QEAV01@@Z 000000018001b770 f i DxCloth.obj
 0001:0001a7e0       ??4PxTransform@physx@@QEAAAEAV01@AEBV01@@Z 000000018001b7e0 f i DxCloth.obj
 0001:0001a850       ??4PxVec3@physx@@QEAAAEAV01@AEBV01@@Z 000000018001b850 f i DxCloth.obj
 0001:0001a8b0       ??4PxVec4@physx@@QEAAAEAV01@AEBV01@@Z 000000018001b8b0 f i DxCloth.obj
 0001:0001a930       ??4TripletSchedulerTestInterface@cloth@nv@@QEAAAEAU012@AEBU012@@Z 000000018001b930 f i DxCloth.obj
 0001:0001a960       ??8PxVec3@physx@@QEBA_NAEBV01@@Z 000000018001b960 f i DxCloth.obj
 0001:0001aa00       ??A?$Array@IVNonTrackingAllocator@ps@cloth@nv@@@ps@cloth@nv@@QEAAAEAII@Z 000000018001ba00 f i DxCloth.obj
 0001:0001aab0       ??A?$DxVectorMap@V?$DxBatchedVector@I@cloth@nv@@@cloth@nv@@QEAAAEAII@Z 000000018001bab0 f i DxCloth.obj
 0001:0001aae0       ??A?$DxVectorMap@V?$DxBatchedVector@UIndexPair@cloth@nv@@@cloth@nv@@@cloth@nv@@QEAAAEAUIndexPair@12@I@Z 000000018001bae0 f i DxCloth.obj
 0001:0001ab10       ??A?$DxVectorMap@V?$DxBatchedVector@VPxVec3@physx@@@cloth@nv@@@cloth@nv@@QEAAAEAVPxVec3@physx@@I@Z 000000018001bb10 f i DxCloth.obj
 0001:0001ab40       ??A?$DxVectorMap@V?$DxBatchedVector@VPxVec4@physx@@@cloth@nv@@@cloth@nv@@QEAAAEAVPxVec4@physx@@I@Z 000000018001bb40 f i DxCloth.obj
 0001:0001ab70       ??A?$Range@$$CBI@cloth@nv@@QEBAAEBII@Z 000000018001bb70 f i DxCloth.obj
 0001:0001ac30       ??A?$Range@$$CBVPxVec3@physx@@@cloth@nv@@QEBAAEBVPxVec3@physx@@I@Z 000000018001bc30 f i DxCloth.obj
 0001:0001acf0       ??A?$Range@$$CBVPxVec4@physx@@@cloth@nv@@QEBAAEBVPxVec4@physx@@I@Z 000000018001bcf0 f i DxCloth.obj
 0001:0001adb0       ??DPxVec4@physx@@QEBA?AV01@M@Z 000000018001bdb0 f i DxCloth.obj
 0001:0001ae70       ??GPxQuat@physx@@QEBA?AV01@AEBV01@@Z 000000018001be70 f i DxCloth.obj
 0001:0001af40       ??GPxVec3@physx@@QEBA?AV01@AEBV01@@Z 000000018001bf40 f i DxCloth.obj
 0001:0001aff0       ??GPxVec4@physx@@QEBA?AV01@AEBV01@@Z 000000018001bff0 f i DxCloth.obj
 0001:0001b0c0       ??GPxVec4@physx@@QEBA?AV01@XZ 000000018001c0c0 f i DxCloth.obj
 0001:0001b180       ??HPxVec4@physx@@QEBA?AV01@AEBV01@@Z 000000018001c180 f i DxCloth.obj
 0001:0001b250       ??YPxVec3@physx@@QEAAAEAV01@AEBV01@@Z 000000018001c250 f i DxCloth.obj
 0001:0001b2d4       ??_9Cloth@cloth@nv@@$BCI@AA 000000018001c2d4 f i DxCloth.obj
 0001:0001b2dc       ??_9Cloth@cloth@nv@@$BDA@AA 000000018001c2dc f i DxCloth.obj
 0001:0001b2f0       ??_FAllocator@ps@cloth@nv@@QEAAXXZ 000000018001c2f0 f i DxCloth.obj
 0001:0001b330       ??_E?$ClothImpl@VDxCloth@cloth@nv@@@cloth@nv@@UEAAPEAXI@Z 000000018001c330 f i DxCloth.obj
 0001:0001b330       ??_G?$ClothImpl@VDxCloth@cloth@nv@@@cloth@nv@@UEAAPEAXI@Z 000000018001c330 f i DxCloth.obj
 0001:0001b3c0       ??_GCloth@cloth@nv@@UEAAPEAXI@Z 000000018001c3c0 f i DxCloth.obj
 0001:0001b3c0       ??_ECloth@cloth@nv@@UEAAPEAXI@Z 000000018001c3c0 f i DxCloth.obj
 0001:0001b450       ??_EDxCloth@cloth@nv@@UEAAPEAXI@Z 000000018001c450 f i DxCloth.obj
 0001:0001b450       ??_GDxCloth@cloth@nv@@UEAAPEAXI@Z 000000018001c450 f i DxCloth.obj
 0001:0001b4e0       ?__empty_global_delete@@YAXPEAX@Z 000000018001c4e0 f i DxCloth.obj
 0001:0001b4f0       ?__empty_global_delete@@YAXPEAX_K@Z 000000018001c4f0 f i DxCloth.obj
 0001:0001b500       ?add@?$DxBatchedStorage@I@cloth@nv@@AEAAXPEAV?$DxBatchedVector@I@23@@Z 000000018001c500 f i DxCloth.obj
 0001:0001b570       ?add@?$DxBatchedStorage@U?$Vec4T@G@cloth@nv@@@cloth@nv@@AEAAXPEAV?$DxBatchedVector@U?$Vec4T@G@cloth@nv@@@23@@Z 000000018001c570 f i DxCloth.obj
 0001:0001b5e0       ?add@?$DxBatchedStorage@UDxPhaseConfig@cloth@nv@@@cloth@nv@@AEAAXPEAV?$DxBatchedVector@UDxPhaseConfig@cloth@nv@@@23@@Z 000000018001c5e0 f i DxCloth.obj
 0001:0001b650       ?add@?$DxBatchedStorage@UIndexPair@cloth@nv@@@cloth@nv@@AEAAXPEAV?$DxBatchedVector@UIndexPair@cloth@nv@@@23@@Z 000000018001c650 f i DxCloth.obj
 0001:0001b6c0       ?add@?$DxBatchedStorage@VPxVec3@physx@@@cloth@nv@@AEAAXPEAV?$DxBatchedVector@VPxVec3@physx@@@23@@Z 000000018001c6c0 f i DxCloth.obj
 0001:0001b730       ?add@?$DxBatchedStorage@VPxVec4@physx@@@cloth@nv@@AEAAXPEAV?$DxBatchedVector@VPxVec4@physx@@@23@@Z 000000018001c730 f i DxCloth.obj
 0001:0001b7a0       ?allocate@?$Array@IVNonTrackingAllocator@ps@cloth@nv@@@ps@cloth@nv@@IEAAPEAII@Z 000000018001c7a0 f i DxCloth.obj
 0001:0001b870       ?allocate@?$Array@PEAV?$DxBatchedVector@I@cloth@nv@@VNonTrackingAllocator@ps@23@@ps@cloth@nv@@IEAAPEAPEAV?$DxBatchedVector@I@34@I@Z 000000018001c870 f i DxCloth.obj
 0001:0001b940       ?allocate@?$Array@PEAV?$DxBatchedVector@U?$Vec4T@G@cloth@nv@@@cloth@nv@@VNonTrackingAllocator@ps@23@@ps@cloth@nv@@IEAAPEAPEAV?$DxBatchedVector@U?$Vec4T@G@cloth@nv@@@34@I@Z 000000018001c940 f i DxCloth.obj
 0001:0001ba10       ?allocate@?$Array@PEAV?$DxBatchedVector@UDxPhaseConfig@cloth@nv@@@cloth@nv@@VNonTrackingAllocator@ps@23@@ps@cloth@nv@@IEAAPEAPEAV?$DxBatchedVector@UDxPhaseConfig@cloth@nv@@@34@I@Z 000000018001ca10 f i DxCloth.obj
 0001:0001bae0       ?allocate@?$Array@PEAV?$DxBatchedVector@UIndexPair@cloth@nv@@@cloth@nv@@VNonTrackingAllocator@ps@23@@ps@cloth@nv@@IEAAPEAPEAV?$DxBatchedVector@UIndexPair@cloth@nv@@@34@I@Z 000000018001cae0 f i DxCloth.obj
 0001:0001bbb0       ?allocate@?$Array@PEAV?$DxBatchedVector@VPxVec3@physx@@@cloth@nv@@VNonTrackingAllocator@ps@23@@ps@cloth@nv@@IEAAPEAPEAV?$DxBatchedVector@VPxVec3@physx@@@34@I@Z 000000018001cbb0 f i DxCloth.obj
 0001:0001bc80       ?allocate@?$Array@PEAV?$DxBatchedVector@VPxVec4@physx@@@cloth@nv@@VNonTrackingAllocator@ps@23@@ps@cloth@nv@@IEAAPEAPEAV?$DxBatchedVector@VPxVec4@physx@@@34@I@Z 000000018001cc80 f i DxCloth.obj
 0001:0001bd50       ?allocate@?$Array@U?$Vec4T@G@cloth@nv@@VNonTrackingAllocator@ps@23@@ps@cloth@nv@@IEAAPEAU?$Vec4T@G@34@I@Z 000000018001cd50 f i DxCloth.obj
 0001:0001be20       ?allocate@?$Array@UDxPhaseConfig@cloth@nv@@VNonTrackingAllocator@ps@23@@ps@cloth@nv@@IEAAPEAUDxPhaseConfig@34@I@Z 000000018001ce20 f i DxCloth.obj
 0001:0001bef0       ?allocate@?$Array@UPhaseConfig@cloth@nv@@VNonTrackingAllocator@ps@23@@ps@cloth@nv@@IEAAPEAUPhaseConfig@34@I@Z 000000018001cef0 f i DxCloth.obj
 0001:0001bfc0       ?allocate@?$Array@VPxVec4@physx@@VNonTrackingAllocator@ps@cloth@nv@@@ps@cloth@nv@@IEAAPEAVPxVec4@physx@@I@Z 000000018001cfc0 f i DxCloth.obj
 0001:0001c090       ?allocate@NonTrackingAllocator@ps@cloth@nv@@QEAAPEAX_KPEBDH@Z 000000018001d090 f i DxCloth.obj
 0001:0001c140       ?assign@?$Array@IVNonTrackingAllocator@ps@cloth@nv@@@ps@cloth@nv@@QEAAXPEBI0@Z 000000018001d140 f i DxCloth.obj
 0001:0001c1e0       ?assign@?$Array@UPhaseConfig@cloth@nv@@VNonTrackingAllocator@ps@23@@ps@cloth@nv@@QEAAXPEBUPhaseConfig@34@0@Z 000000018001d1e0 f i DxCloth.obj
 0001:0001c290       ?assign@?$DxBatchedStorage@I@cloth@nv@@AEAAXPEAV?$DxBatchedVector@I@23@PEBII@Z 000000018001d290 f i DxCloth.obj
 0001:0001c3a0       ?assign@?$DxBatchedStorage@U?$Vec4T@G@cloth@nv@@@cloth@nv@@AEAAXPEAV?$DxBatchedVector@U?$Vec4T@G@cloth@nv@@@23@PEBU?$Vec4T@G@23@I@Z 000000018001d3a0 f i DxCloth.obj
 0001:0001c4b0       ?assign@?$DxBatchedStorage@UDxPhaseConfig@cloth@nv@@@cloth@nv@@AEAAXPEAV?$DxBatchedVector@UDxPhaseConfig@cloth@nv@@@23@PEBUDxPhaseConfig@23@I@Z 000000018001d4b0 f i DxCloth.obj
 0001:0001c5c0       ?assign@?$DxBatchedStorage@UIndexPair@cloth@nv@@@cloth@nv@@AEAAXPEAV?$DxBatchedVector@UIndexPair@cloth@nv@@@23@PEBUIndexPair@23@I@Z 000000018001d5c0 f i DxCloth.obj
 0001:0001c6d0       ?assign@?$DxBatchedStorage@VPxVec3@physx@@@cloth@nv@@AEAAXPEAV?$DxBatchedVector@VPxVec3@physx@@@23@PEBVPxVec3@physx@@I@Z 000000018001d6d0 f i DxCloth.obj
 0001:0001c7e0       ?assign@?$DxBatchedStorage@VPxVec4@physx@@@cloth@nv@@AEAAXPEAV?$DxBatchedVector@VPxVec4@physx@@@23@PEBVPxVec4@physx@@I@Z 000000018001d7e0 f i DxCloth.obj
 0001:0001c8f0       ?assign@?$DxBatchedVector@I@cloth@nv@@QEAAXPEBI0@Z 000000018001d8f0 f i DxCloth.obj
 0001:0001c970       ?assign@?$DxBatchedVector@U?$Vec4T@G@cloth@nv@@@cloth@nv@@QEAAXPEBU?$Vec4T@G@23@0@Z 000000018001d970 f i DxCloth.obj
 0001:0001c9f0       ?assign@?$DxBatchedVector@UDxPhaseConfig@cloth@nv@@@cloth@nv@@QEAAXPEBUDxPhaseConfig@23@0@Z 000000018001d9f0 f i DxCloth.obj
 0001:0001ca70       ?assign@?$DxBatchedVector@VPxVec3@physx@@@cloth@nv@@QEAAXPEBVPxVec3@physx@@0@Z 000000018001da70 f i DxCloth.obj
 0001:0001caf0       ?assign@?$DxBatchedVector@VPxVec4@physx@@@cloth@nv@@QEAAXPEBVPxVec4@physx@@0@Z 000000018001daf0 f i DxCloth.obj
 0001:0001cb70       ?begin@?$Array@IVNonTrackingAllocator@ps@cloth@nv@@@ps@cloth@nv@@QEAAPEAIXZ 000000018001db70 f i DxCloth.obj
 0001:0001cb90       ?begin@?$Array@IVNonTrackingAllocator@ps@cloth@nv@@@ps@cloth@nv@@QEBAPEBIXZ 000000018001db90 f i DxCloth.obj
 0001:0001cbb0       ?begin@?$Array@PEAV?$DxBatchedVector@I@cloth@nv@@VNonTrackingAllocator@ps@23@@ps@cloth@nv@@QEAAPEAPEAV?$DxBatchedVector@I@34@XZ 000000018001dbb0 f i DxCloth.obj
 0001:0001cbd0       ?begin@?$Array@PEAV?$DxBatchedVector@U?$Vec4T@G@cloth@nv@@@cloth@nv@@VNonTrackingAllocator@ps@23@@ps@cloth@nv@@QEAAPEAPEAV?$DxBatchedVector@U?$Vec4T@G@cloth@nv@@@34@XZ 000000018001dbd0 f i DxCloth.obj
 0001:0001cbf0       ?begin@?$Array@PEAV?$DxBatchedVector@UDxPhaseConfig@cloth@nv@@@cloth@nv@@VNonTrackingAllocator@ps@23@@ps@cloth@nv@@QEAAPEAPEAV?$DxBatchedVector@UDxPhaseConfig@cloth@nv@@@34@XZ 000000018001dbf0 f i DxCloth.obj
 0001:0001cc10       ?begin@?$Array@PEAV?$DxBatchedVector@UIndexPair@cloth@nv@@@cloth@nv@@VNonTrackingAllocator@ps@23@@ps@cloth@nv@@QEAAPEAPEAV?$DxBatchedVector@UIndexPair@cloth@nv@@@34@XZ 000000018001dc10 f i DxCloth.obj
 0001:0001cc30       ?begin@?$Array@PEAV?$DxBatchedVector@VPxVec3@physx@@@cloth@nv@@VNonTrackingAllocator@ps@23@@ps@cloth@nv@@QEAAPEAPEAV?$DxBatchedVector@VPxVec3@physx@@@34@XZ 000000018001dc30 f i DxCloth.obj
 0001:0001cc50       ?begin@?$Array@PEAV?$DxBatchedVector@VPxVec4@physx@@@cloth@nv@@VNonTrackingAllocator@ps@23@@ps@cloth@nv@@QEAAPEAPEAV?$DxBatchedVector@VPxVec4@physx@@@34@XZ 000000018001dc50 f i DxCloth.obj
 0001:0001cc70       ?begin@?$Array@U?$Vec4T@G@cloth@nv@@VNonTrackingAllocator@ps@23@@ps@cloth@nv@@QEBAPEBU?$Vec4T@G@34@XZ 000000018001dc70 f i DxCloth.obj
 0001:0001cc90       ?begin@?$Array@U?$Vec4T@I@cloth@nv@@VNonTrackingAllocator@ps@23@@ps@cloth@nv@@QEAAPEAU?$Vec4T@I@34@XZ 000000018001dc90 f i DxCloth.obj
 0001:0001ccb0       ?begin@?$Array@U?$Vec4T@I@cloth@nv@@VNonTrackingAllocator@ps@23@@ps@cloth@nv@@QEBAPEBU?$Vec4T@I@34@XZ 000000018001dcb0 f i DxCloth.obj
 0001:0001ccd0       ?begin@?$Array@UDxPhaseConfig@cloth@nv@@VNonTrackingAllocator@ps@23@@ps@cloth@nv@@QEAAPEAUDxPhaseConfig@34@XZ 000000018001dcd0 f i DxCloth.obj
 0001:0001ccf0       ?begin@?$Array@UPhaseConfig@cloth@nv@@VNonTrackingAllocator@ps@23@@ps@cloth@nv@@QEAAPEAUPhaseConfig@34@XZ 000000018001dcf0 f i DxCloth.obj
 0001:0001cd10       ?begin@?$Array@UPhaseConfig@cloth@nv@@VNonTrackingAllocator@ps@23@@ps@cloth@nv@@QEBAPEBUPhaseConfig@34@XZ 000000018001dd10 f i DxCloth.obj
 0001:0001cd30       ?begin@?$Array@VPxVec4@physx@@VNonTrackingAllocator@ps@cloth@nv@@@ps@cloth@nv@@QEAAPEAVPxVec4@physx@@XZ 000000018001dd30 f i DxCloth.obj
 0001:0001cd50       ?begin@?$Array@VPxVec4@physx@@VNonTrackingAllocator@ps@cloth@nv@@@ps@cloth@nv@@QEBAPEBVPxVec4@physx@@XZ 000000018001dd50 f i DxCloth.obj
 0001:0001cd70       ?begin@?$DxVectorMap@V?$DxBatchedVector@I@cloth@nv@@@cloth@nv@@QEAAPEAIXZ 000000018001dd70 f i DxCloth.obj
 0001:0001cd90       ?begin@?$DxVectorMap@V?$DxBatchedVector@UIndexPair@cloth@nv@@@cloth@nv@@@cloth@nv@@QEAAPEAUIndexPair@23@XZ 000000018001dd90 f i DxCloth.obj
 0001:0001cdb0       ?begin@?$DxVectorMap@V?$DxBatchedVector@VPxVec3@physx@@@cloth@nv@@@cloth@nv@@QEAAPEAVPxVec3@physx@@XZ 000000018001ddb0 f i DxCloth.obj
 0001:0001cdd0       ?begin@?$DxVectorMap@V?$DxBatchedVector@VPxVec4@physx@@@cloth@nv@@@cloth@nv@@QEAAPEAVPxVec4@physx@@XZ 000000018001ddd0 f i DxCloth.obj
 0001:0001cdf0       ?begin@?$Range@$$CBI@cloth@nv@@QEBAPEBIXZ 000000018001ddf0 f i DxCloth.obj
 0001:0001ce10       ?begin@?$Range@$$CBUPhaseConfig@cloth@nv@@@cloth@nv@@QEBAPEBUPhaseConfig@23@XZ 000000018001de10 f i DxCloth.obj
 0001:0001ce30       ?begin@?$Range@$$CBVPxVec3@physx@@@cloth@nv@@QEBAPEBVPxVec3@physx@@XZ 000000018001de30 f i DxCloth.obj
 0001:0001ce50       ?begin@?$Range@$$CBVPxVec4@physx@@@cloth@nv@@QEBAPEBVPxVec4@physx@@XZ 000000018001de50 f i DxCloth.obj
 0001:0001ce70       ?buffer@?$DxBatchedVector@I@cloth@nv@@QEBAPEAUID3D11Buffer@@XZ 000000018001de70 f i DxCloth.obj
 0001:0001ce90       ?buffer@?$DxBatchedVector@U?$Vec4T@G@cloth@nv@@@cloth@nv@@QEBAPEAUID3D11Buffer@@XZ 000000018001de90 f i DxCloth.obj
 0001:0001ceb0       ?buffer@?$DxBatchedVector@UDxPhaseConfig@cloth@nv@@@cloth@nv@@QEBAPEAUID3D11Buffer@@XZ 000000018001deb0 f i DxCloth.obj
 0001:0001ced0       ?buffer@?$DxBatchedVector@UIndexPair@cloth@nv@@@cloth@nv@@QEBAPEAUID3D11Buffer@@XZ 000000018001ded0 f i DxCloth.obj
 0001:0001cef0       ?buffer@?$DxBatchedVector@VPxVec3@physx@@@cloth@nv@@QEBAPEAUID3D11Buffer@@XZ 000000018001def0 f i DxCloth.obj
 0001:0001cf10       ?buffer@?$DxBatchedVector@VPxVec4@physx@@@cloth@nv@@QEBAPEAUID3D11Buffer@@XZ 000000018001df10 f i DxCloth.obj
 0001:0001cf30       ?capacity@?$Array@IVNonTrackingAllocator@ps@cloth@nv@@@ps@cloth@nv@@QEBAIXZ 000000018001df30 f i DxCloth.obj
 0001:0001cf50       ?capacity@?$Array@PEAV?$DxBatchedVector@I@cloth@nv@@VNonTrackingAllocator@ps@23@@ps@cloth@nv@@QEBAIXZ 000000018001df50 f i DxCloth.obj
 0001:0001cf70       ?capacity@?$Array@PEAV?$DxBatchedVector@U?$Vec4T@G@cloth@nv@@@cloth@nv@@VNonTrackingAllocator@ps@23@@ps@cloth@nv@@QEBAIXZ 000000018001df70 f i DxCloth.obj
 0001:0001cf90       ?capacity@?$Array@PEAV?$DxBatchedVector@UDxPhaseConfig@cloth@nv@@@cloth@nv@@VNonTrackingAllocator@ps@23@@ps@cloth@nv@@QEBAIXZ 000000018001df90 f i DxCloth.obj
 0001:0001cfb0       ?capacity@?$Array@PEAV?$DxBatchedVector@UIndexPair@cloth@nv@@@cloth@nv@@VNonTrackingAllocator@ps@23@@ps@cloth@nv@@QEBAIXZ 000000018001dfb0 f i DxCloth.obj
 0001:0001cfd0       ?capacity@?$Array@PEAV?$DxBatchedVector@VPxVec3@physx@@@cloth@nv@@VNonTrackingAllocator@ps@23@@ps@cloth@nv@@QEBAIXZ 000000018001dfd0 f i DxCloth.obj
 0001:0001cff0       ?capacity@?$Array@PEAV?$DxBatchedVector@VPxVec4@physx@@@cloth@nv@@VNonTrackingAllocator@ps@23@@ps@cloth@nv@@QEBAIXZ 000000018001dff0 f i DxCloth.obj
 0001:0001d010       ?capacity@?$Array@U?$Vec4T@G@cloth@nv@@VNonTrackingAllocator@ps@23@@ps@cloth@nv@@QEBAIXZ 000000018001e010 f i DxCloth.obj
 0001:0001d030       ?capacity@?$Array@U?$Vec4T@I@cloth@nv@@VNonTrackingAllocator@ps@23@@ps@cloth@nv@@QEBAIXZ 000000018001e030 f i DxCloth.obj
 0001:0001d050       ?capacity@?$Array@UDxPhaseConfig@cloth@nv@@VNonTrackingAllocator@ps@23@@ps@cloth@nv@@QEBAIXZ 000000018001e050 f i DxCloth.obj
 0001:0001d070       ?capacity@?$Array@UPhaseConfig@cloth@nv@@VNonTrackingAllocator@ps@23@@ps@cloth@nv@@QEBAIXZ 000000018001e070 f i DxCloth.obj
 0001:0001d090       ?capacity@?$Array@VPxVec4@physx@@VNonTrackingAllocator@ps@cloth@nv@@@ps@cloth@nv@@QEBAIXZ 000000018001e090 f i DxCloth.obj
 0001:0001d0b0       ?capacity@?$DxBatchedVector@I@cloth@nv@@QEBAIXZ 000000018001e0b0 f i DxCloth.obj
 0001:0001d0d0       ?capacity@?$DxBatchedVector@UIndexPair@cloth@nv@@@cloth@nv@@QEBAIXZ 000000018001e0d0 f i DxCloth.obj
 0001:0001d0f0       ?capacity@?$DxBatchedVector@VPxVec3@physx@@@cloth@nv@@QEBAIXZ 000000018001e0f0 f i DxCloth.obj
 0001:0001d110       ?capacity@?$DxBatchedVector@VPxVec4@physx@@@cloth@nv@@QEBAIXZ 000000018001e110 f i DxCloth.obj
 0001:0001d130       ?capacityIncrement@?$Array@PEAV?$DxBatchedVector@I@cloth@nv@@VNonTrackingAllocator@ps@23@@ps@cloth@nv@@IEBAIXZ 000000018001e130 f i DxCloth.obj
 0001:0001d1a0       ?capacityIncrement@?$Array@PEAV?$DxBatchedVector@U?$Vec4T@G@cloth@nv@@@cloth@nv@@VNonTrackingAllocator@ps@23@@ps@cloth@nv@@IEBAIXZ 000000018001e1a0 f i DxCloth.obj
 0001:0001d210       ?capacityIncrement@?$Array@PEAV?$DxBatchedVector@UDxPhaseConfig@cloth@nv@@@cloth@nv@@VNonTrackingAllocator@ps@23@@ps@cloth@nv@@IEBAIXZ 000000018001e210 f i DxCloth.obj
 0001:0001d280       ?capacityIncrement@?$Array@PEAV?$DxBatchedVector@UIndexPair@cloth@nv@@@cloth@nv@@VNonTrackingAllocator@ps@23@@ps@cloth@nv@@IEBAIXZ 000000018001e280 f i DxCloth.obj
 0001:0001d2f0       ?capacityIncrement@?$Array@PEAV?$DxBatchedVector@VPxVec3@physx@@@cloth@nv@@VNonTrackingAllocator@ps@23@@ps@cloth@nv@@IEBAIXZ 000000018001e2f0 f i DxCloth.obj
 0001:0001d360       ?capacityIncrement@?$Array@PEAV?$DxBatchedVector@VPxVec4@physx@@@cloth@nv@@VNonTrackingAllocator@ps@23@@ps@cloth@nv@@IEBAIXZ 000000018001e360 f i DxCloth.obj
 0001:0001d3d0       ?capacityIncrement@?$Array@U?$Vec4T@G@cloth@nv@@VNonTrackingAllocator@ps@23@@ps@cloth@nv@@IEBAIXZ 000000018001e3d0 f i DxCloth.obj
 0001:0001d440       ?capacityIncrement@?$Array@UDxPhaseConfig@cloth@nv@@VNonTrackingAllocator@ps@23@@ps@cloth@nv@@IEBAIXZ 000000018001e440 f i DxCloth.obj
 0001:0001d4b0       ?capacityIncrement@?$Array@UPhaseConfig@cloth@nv@@VNonTrackingAllocator@ps@23@@ps@cloth@nv@@IEBAIXZ 000000018001e4b0 f i DxCloth.obj
 0001:0001d520       ?capacityIncrement@?$Array@VPxVec4@physx@@VNonTrackingAllocator@ps@cloth@nv@@@ps@cloth@nv@@IEBAIXZ 000000018001e520 f i DxCloth.obj
 0001:0001d590       ?clear@?$DxBatchedVector@VPxVec4@physx@@@cloth@nv@@QEAAXXZ 000000018001e590 f i DxCloth.obj
 0001:0001d610       ?clearInertia@?$ClothImpl@VDxCloth@cloth@nv@@@cloth@nv@@UEAAXXZ 000000018001e610 f i DxCloth.obj
 0001:0001d6d0       ?clearInterpolation@?$ClothImpl@VDxCloth@cloth@nv@@@cloth@nv@@UEAAXXZ 000000018001e6d0 f i DxCloth.obj
 0001:0001d820       ?clearMotionConstraints@?$ClothImpl@VDxCloth@cloth@nv@@@cloth@nv@@UEAAXXZ 000000018001e820 f i DxCloth.obj
 0001:0001d8a0       ?clearSeparationConstraints@?$ClothImpl@VDxCloth@cloth@nv@@@cloth@nv@@UEAAXXZ 000000018001e8a0 f i DxCloth.obj
 0001:0001d920       ?context@?$DxBuffer@I@cloth@nv@@QEBAPEAUID3D11DeviceContext@@XZ 000000018001e920 f i DxCloth.obj
 0001:0001d970       ?context@?$DxBuffer@U?$Vec4T@G@cloth@nv@@@cloth@nv@@QEBAPEAUID3D11DeviceContext@@XZ 000000018001e970 f i DxCloth.obj
 0001:0001d9c0       ?context@?$DxBuffer@UDxPhaseConfig@cloth@nv@@@cloth@nv@@QEBAPEAUID3D11DeviceContext@@XZ 000000018001e9c0 f i DxCloth.obj
 0001:0001da10       ?context@?$DxBuffer@UIndexPair@cloth@nv@@@cloth@nv@@QEBAPEAUID3D11DeviceContext@@XZ 000000018001ea10 f i DxCloth.obj
 0001:0001da60       ?context@?$DxBuffer@VPxVec3@physx@@@cloth@nv@@QEBAPEAUID3D11DeviceContext@@XZ 000000018001ea60 f i DxCloth.obj
 0001:0001dab0       ?context@?$DxBuffer@VPxVec4@physx@@@cloth@nv@@QEBAPEAUID3D11DeviceContext@@XZ 000000018001eab0 f i DxCloth.obj
 0001:0001db00       ?copy@?$Array@IVNonTrackingAllocator@ps@cloth@nv@@@ps@cloth@nv@@KAXPEAI0PEBI@Z 000000018001eb00 f i DxCloth.obj
 0001:0001dbd0       ?copy@?$Array@PEAV?$DxBatchedVector@I@cloth@nv@@VNonTrackingAllocator@ps@23@@ps@cloth@nv@@KAXPEAPEAV?$DxBatchedVector@I@34@0PEBQEAV534@@Z 000000018001ebd0 f i DxCloth.obj
 0001:0001dcb0       ?copy@?$Array@PEAV?$DxBatchedVector@U?$Vec4T@G@cloth@nv@@@cloth@nv@@VNonTrackingAllocator@ps@23@@ps@cloth@nv@@KAXPEAPEAV?$DxBatchedVector@U?$Vec4T@G@cloth@nv@@@34@0PEBQEAV534@@Z 000000018001ecb0 f i DxCloth.obj
 0001:0001dd90       ?copy@?$Array@PEAV?$DxBatchedVector@UDxPhaseConfig@cloth@nv@@@cloth@nv@@VNonTrackingAllocator@ps@23@@ps@cloth@nv@@KAXPEAPEAV?$DxBatchedVector@UDxPhaseConfig@cloth@nv@@@34@0PEBQEAV534@@Z 000000018001ed90 f i DxCloth.obj
 0001:0001de70       ?copy@?$Array@PEAV?$DxBatchedVector@UIndexPair@cloth@nv@@@cloth@nv@@VNonTrackingAllocator@ps@23@@ps@cloth@nv@@KAXPEAPEAV?$DxBatchedVector@UIndexPair@cloth@nv@@@34@0PEBQEAV534@@Z 000000018001ee70 f i DxCloth.obj
 0001:0001df50       ?copy@?$Array@PEAV?$DxBatchedVector@VPxVec3@physx@@@cloth@nv@@VNonTrackingAllocator@ps@23@@ps@cloth@nv@@KAXPEAPEAV?$DxBatchedVector@VPxVec3@physx@@@34@0PEBQEAV534@@Z 000000018001ef50 f i DxCloth.obj
 0001:0001e030       ?copy@?$Array@PEAV?$DxBatchedVector@VPxVec4@physx@@@cloth@nv@@VNonTrackingAllocator@ps@23@@ps@cloth@nv@@KAXPEAPEAV?$DxBatchedVector@VPxVec4@physx@@@34@0PEBQEAV534@@Z 000000018001f030 f i DxCloth.obj
 0001:0001e110       ?copy@?$Array@U?$Vec4T@G@cloth@nv@@VNonTrackingAllocator@ps@23@@ps@cloth@nv@@KAXPEAU?$Vec4T@G@34@0PEBU534@@Z 000000018001f110 f i DxCloth.obj
 0001:0001e1f0       ?copy@?$Array@UDxPhaseConfig@cloth@nv@@VNonTrackingAllocator@ps@23@@ps@cloth@nv@@KAXPEAUDxPhaseConfig@34@0PEBU534@@Z 000000018001f1f0 f i DxCloth.obj
 0001:0001e2d0       ?copy@?$Array@UPhaseConfig@cloth@nv@@VNonTrackingAllocator@ps@23@@ps@cloth@nv@@KAXPEAUPhaseConfig@34@0PEBU534@@Z 000000018001f2d0 f i DxCloth.obj
 0001:0001e3b0       ?copy@?$Array@VPxVec4@physx@@VNonTrackingAllocator@ps@cloth@nv@@@ps@cloth@nv@@KAXPEAVPxVec4@physx@@0PEBV56@@Z 000000018001f3b0 f i DxCloth.obj
 0001:0001e480       ?create@?$DxBuffer@I@cloth@nv@@AEAAXIPEAUD3D11_SUBRESOURCE_DATA@@@Z 000000018001f480 f i DxCloth.obj
 0001:0001e700       ?create@?$DxBuffer@U?$Vec4T@G@cloth@nv@@@cloth@nv@@AEAAXIPEAUD3D11_SUBRESOURCE_DATA@@@Z 000000018001f700 f i DxCloth.obj
 0001:0001e980       ?create@?$DxBuffer@UDxPhaseConfig@cloth@nv@@@cloth@nv@@AEAAXIPEAUD3D11_SUBRESOURCE_DATA@@@Z 000000018001f980 f i DxCloth.obj
 0001:0001ec00       ?create@?$DxBuffer@UIndexPair@cloth@nv@@@cloth@nv@@AEAAXIPEAUD3D11_SUBRESOURCE_DATA@@@Z 000000018001fc00 f i DxCloth.obj
 0001:0001ee80       ?create@?$DxBuffer@VPxVec3@physx@@@cloth@nv@@AEAAXIPEAUD3D11_SUBRESOURCE_DATA@@@Z 000000018001fe80 f i DxCloth.obj
 0001:0001f100       ?create@?$DxBuffer@VPxVec4@physx@@@cloth@nv@@AEAAXIPEAUD3D11_SUBRESOURCE_DATA@@@Z 0000000180020100 f i DxCloth.obj
 0001:0001f380       ?deallocate@?$Array@IVNonTrackingAllocator@ps@cloth@nv@@@ps@cloth@nv@@IEAAXPEAX@Z 0000000180020380 f i DxCloth.obj
 0001:0001f3d0       ?deallocate@?$Array@PEAV?$DxBatchedVector@I@cloth@nv@@VNonTrackingAllocator@ps@23@@ps@cloth@nv@@IEAAXPEAX@Z 00000001800203d0 f i DxCloth.obj
 0001:0001f420       ?deallocate@?$Array@PEAV?$DxBatchedVector@U?$Vec4T@G@cloth@nv@@@cloth@nv@@VNonTrackingAllocator@ps@23@@ps@cloth@nv@@IEAAXPEAX@Z 0000000180020420 f i DxCloth.obj
 0001:0001f470       ?deallocate@?$Array@PEAV?$DxBatchedVector@UDxPhaseConfig@cloth@nv@@@cloth@nv@@VNonTrackingAllocator@ps@23@@ps@cloth@nv@@IEAAXPEAX@Z 0000000180020470 f i DxCloth.obj
 0001:0001f4c0       ?deallocate@?$Array@PEAV?$DxBatchedVector@UIndexPair@cloth@nv@@@cloth@nv@@VNonTrackingAllocator@ps@23@@ps@cloth@nv@@IEAAXPEAX@Z 00000001800204c0 f i DxCloth.obj
 0001:0001f510       ?deallocate@?$Array@PEAV?$DxBatchedVector@VPxVec3@physx@@@cloth@nv@@VNonTrackingAllocator@ps@23@@ps@cloth@nv@@IEAAXPEAX@Z 0000000180020510 f i DxCloth.obj
 0001:0001f560       ?deallocate@?$Array@PEAV?$DxBatchedVector@VPxVec4@physx@@@cloth@nv@@VNonTrackingAllocator@ps@23@@ps@cloth@nv@@IEAAXPEAX@Z 0000000180020560 f i DxCloth.obj
 0001:0001f5b0       ?deallocate@?$Array@U?$Vec4T@G@cloth@nv@@VNonTrackingAllocator@ps@23@@ps@cloth@nv@@IEAAXPEAX@Z 00000001800205b0 f i DxCloth.obj
 0001:0001f600       ?deallocate@?$Array@U?$Vec4T@I@cloth@nv@@VNonTrackingAllocator@ps@23@@ps@cloth@nv@@IEAAXPEAX@Z 0000000180020600 f i DxCloth.obj
 0001:0001f650       ?deallocate@?$Array@UDxPhaseConfig@cloth@nv@@VNonTrackingAllocator@ps@23@@ps@cloth@nv@@IEAAXPEAX@Z 0000000180020650 f i DxCloth.obj
 0001:0001f6a0       ?deallocate@?$Array@UPhaseConfig@cloth@nv@@VNonTrackingAllocator@ps@23@@ps@cloth@nv@@IEAAXPEAX@Z 00000001800206a0 f i DxCloth.obj
 0001:0001f6f0       ?deallocate@?$Array@VPxVec4@physx@@VNonTrackingAllocator@ps@cloth@nv@@@ps@cloth@nv@@IEAAXPEAX@Z 00000001800206f0 f i DxCloth.obj
 0001:0001f740       ?deallocate@NonTrackingAllocator@ps@cloth@nv@@QEAAXPEAX@Z 0000000180020740 f i DxCloth.obj
 0001:0001f7b0       ?decRefCount@Fabric@cloth@nv@@QEAA_NXZ 00000001800207b0 f i DxCloth.obj
 0001:0001f8d0       ?destroy@?$Array@IVNonTrackingAllocator@ps@cloth@nv@@@ps@cloth@nv@@KAXPEAI0@Z 00000001800208d0 f i DxCloth.obj
 0001:0001f910       ?destroy@?$Array@PEAV?$DxBatchedVector@I@cloth@nv@@VNonTrackingAllocator@ps@23@@ps@cloth@nv@@KAXPEAPEAV?$DxBatchedVector@I@34@0@Z 0000000180020910 f i DxCloth.obj
 0001:0001f950       ?destroy@?$Array@PEAV?$DxBatchedVector@U?$Vec4T@G@cloth@nv@@@cloth@nv@@VNonTrackingAllocator@ps@23@@ps@cloth@nv@@KAXPEAPEAV?$DxBatchedVector@U?$Vec4T@G@cloth@nv@@@34@0@Z 0000000180020950 f i DxCloth.obj
 0001:0001f990       ?destroy@?$Array@PEAV?$DxBatchedVector@UDxPhaseConfig@cloth@nv@@@cloth@nv@@VNonTrackingAllocator@ps@23@@ps@cloth@nv@@KAXPEAPEAV?$DxBatchedVector@UDxPhaseConfig@cloth@nv@@@34@0@Z 0000000180020990 f i DxCloth.obj
 0001:0001f9d0       ?destroy@?$Array@PEAV?$DxBatchedVector@UIndexPair@cloth@nv@@@cloth@nv@@VNonTrackingAllocator@ps@23@@ps@cloth@nv@@KAXPEAPEAV?$DxBatchedVector@UIndexPair@cloth@nv@@@34@0@Z 00000001800209d0 f i DxCloth.obj
 0001:0001fa10       ?destroy@?$Array@PEAV?$DxBatchedVector@VPxVec3@physx@@@cloth@nv@@VNonTrackingAllocator@ps@23@@ps@cloth@nv@@KAXPEAPEAV?$DxBatchedVector@VPxVec3@physx@@@34@0@Z 0000000180020a10 f i DxCloth.obj
 0001:0001fa50       ?destroy@?$Array@PEAV?$DxBatchedVector@VPxVec4@physx@@@cloth@nv@@VNonTrackingAllocator@ps@23@@ps@cloth@nv@@KAXPEAPEAV?$DxBatchedVector@VPxVec4@physx@@@34@0@Z 0000000180020a50 f i DxCloth.obj
 0001:0001fa90       ?destroy@?$Array@U?$Vec4T@G@cloth@nv@@VNonTrackingAllocator@ps@23@@ps@cloth@nv@@KAXPEAU?$Vec4T@G@34@0@Z 0000000180020a90 f i DxCloth.obj
 0001:0001fad0       ?destroy@?$Array@U?$Vec4T@I@cloth@nv@@VNonTrackingAllocator@ps@23@@ps@cloth@nv@@KAXPEAU?$Vec4T@I@34@0@Z 0000000180020ad0 f i DxCloth.obj
 0001:0001fb10       ?destroy@?$Array@UDxPhaseConfig@cloth@nv@@VNonTrackingAllocator@ps@23@@ps@cloth@nv@@KAXPEAUDxPhaseConfig@34@0@Z 0000000180020b10 f i DxCloth.obj
 0001:0001fb50       ?destroy@?$Array@UPhaseConfig@cloth@nv@@VNonTrackingAllocator@ps@23@@ps@cloth@nv@@KAXPEAUPhaseConfig@34@0@Z 0000000180020b50 f i DxCloth.obj
 0001:0001fb90       ?destroy@?$Array@VPxVec4@physx@@VNonTrackingAllocator@ps@cloth@nv@@@ps@cloth@nv@@KAXPEAVPxVec4@physx@@0@Z 0000000180020b90 f i DxCloth.obj
 0001:0001fbd0       ?empty@?$Array@UPhaseConfig@cloth@nv@@VNonTrackingAllocator@ps@23@@ps@cloth@nv@@QEBA_NXZ 0000000180020bd0 f i DxCloth.obj
 0001:0001fc30       ?empty@?$Array@VPxVec4@physx@@VNonTrackingAllocator@ps@cloth@nv@@@ps@cloth@nv@@QEBA_NXZ 0000000180020c30 f i DxCloth.obj
 0001:0001fc90       ?empty@?$DxBatchedVector@I@cloth@nv@@QEBA_NXZ 0000000180020c90 f i DxCloth.obj
 0001:0001fcf0       ?empty@?$DxBatchedVector@VPxVec4@physx@@@cloth@nv@@QEBA_NXZ 0000000180020cf0 f i DxCloth.obj
 0001:0001fd50       ?empty@?$Range@$$CBUPhaseConfig@cloth@nv@@@cloth@nv@@QEBA_NXZ 0000000180020d50 f i DxCloth.obj
 0001:0001fdb0       ?empty@?$Range@$$CBVPxVec3@physx@@@cloth@nv@@QEBA_NXZ 0000000180020db0 f i DxCloth.obj
 0001:0001fe10       ?empty@?$Range@$$CBVPxVec4@physx@@@cloth@nv@@QEBA_NXZ 0000000180020e10 f i DxCloth.obj
 0001:0001fe70       ?enableContinuousCollision@?$ClothImpl@VDxCloth@cloth@nv@@@cloth@nv@@UEAAX_N@Z 0000000180020e70 f i DxCloth.obj
 0001:0001ff20       ?end@?$Array@IVNonTrackingAllocator@ps@cloth@nv@@@ps@cloth@nv@@QEAAPEAIXZ 0000000180020f20 f i DxCloth.obj
 0001:0001ff50       ?end@?$Array@IVNonTrackingAllocator@ps@cloth@nv@@@ps@cloth@nv@@QEBAPEBIXZ 0000000180020f50 f i DxCloth.obj
 0001:0001ff80       ?end@?$Array@U?$Vec4T@G@cloth@nv@@VNonTrackingAllocator@ps@23@@ps@cloth@nv@@QEBAPEBU?$Vec4T@G@34@XZ 0000000180020f80 f i DxCloth.obj
 0001:0001ffb0       ?end@?$Array@U?$Vec4T@I@cloth@nv@@VNonTrackingAllocator@ps@23@@ps@cloth@nv@@QEAAPEAU?$Vec4T@I@34@XZ 0000000180020fb0 f i DxCloth.obj
 0001:0001ffe0       ?end@?$Array@UPhaseConfig@cloth@nv@@VNonTrackingAllocator@ps@23@@ps@cloth@nv@@QEAAPEAUPhaseConfig@34@XZ 0000000180020fe0 f i DxCloth.obj
 0001:00020010       ?end@?$Array@VPxVec4@physx@@VNonTrackingAllocator@ps@cloth@nv@@@ps@cloth@nv@@QEAAPEAVPxVec4@physx@@XZ 0000000180021010 f i DxCloth.obj
 0001:00020040       ?end@?$Array@VPxVec4@physx@@VNonTrackingAllocator@ps@cloth@nv@@@ps@cloth@nv@@QEBAPEBVPxVec4@physx@@XZ 0000000180021040 f i DxCloth.obj
 0001:00020070       ?end@?$DxVectorMap@V?$DxBatchedVector@I@cloth@nv@@@cloth@nv@@QEAAPEAIXZ 0000000180021070 f i DxCloth.obj
 0001:000200a0       ?end@?$DxVectorMap@V?$DxBatchedVector@UIndexPair@cloth@nv@@@cloth@nv@@@cloth@nv@@QEAAPEAUIndexPair@23@XZ 00000001800210a0 f i DxCloth.obj
 0001:000200d0       ?end@?$Range@$$CBI@cloth@nv@@QEBAPEBIXZ 00000001800210d0 f i DxCloth.obj
 0001:000200f0       ?end@?$Range@$$CBUPhaseConfig@cloth@nv@@@cloth@nv@@QEBAPEBUPhaseConfig@23@XZ 00000001800210f0 f i DxCloth.obj
 0001:00020110       ?end@?$Range@$$CBVPxVec3@physx@@@cloth@nv@@QEBAPEBVPxVec3@physx@@XZ 0000000180021110 f i DxCloth.obj
 0001:00020130       ?end@?$Range@$$CBVPxVec4@physx@@@cloth@nv@@QEBAPEBVPxVec4@physx@@XZ 0000000180021130 f i DxCloth.obj
 0001:00020150       ?exp2@ps@cloth@nv@@YAMM@Z  0000000180021150 f i DxCloth.obj
 0001:00020190       ?find@?$Array@PEAV?$DxBatchedVector@I@cloth@nv@@VNonTrackingAllocator@ps@23@@ps@cloth@nv@@QEAAPEAPEAV?$DxBatchedVector@I@34@AEBQEAV534@@Z 0000000180021190 f i DxCloth.obj
 0001:00020220       ?find@?$Array@PEAV?$DxBatchedVector@U?$Vec4T@G@cloth@nv@@@cloth@nv@@VNonTrackingAllocator@ps@23@@ps@cloth@nv@@QEAAPEAPEAV?$DxBatchedVector@U?$Vec4T@G@cloth@nv@@@34@AEBQEAV534@@Z 0000000180021220 f i DxCloth.obj
 0001:000202b0       ?find@?$Array@PEAV?$DxBatchedVector@UDxPhaseConfig@cloth@nv@@@cloth@nv@@VNonTrackingAllocator@ps@23@@ps@cloth@nv@@QEAAPEAPEAV?$DxBatchedVector@UDxPhaseConfig@cloth@nv@@@34@AEBQEAV534@@Z 00000001800212b0 f i DxCloth.obj
 0001:00020340       ?find@?$Array@PEAV?$DxBatchedVector@UIndexPair@cloth@nv@@@cloth@nv@@VNonTrackingAllocator@ps@23@@ps@cloth@nv@@QEAAPEAPEAV?$DxBatchedVector@UIndexPair@cloth@nv@@@34@AEBQEAV534@@Z 0000000180021340 f i DxCloth.obj
 0001:000203d0       ?find@?$Array@PEAV?$DxBatchedVector@VPxVec3@physx@@@cloth@nv@@VNonTrackingAllocator@ps@23@@ps@cloth@nv@@QEAAPEAPEAV?$DxBatchedVector@VPxVec3@physx@@@34@AEBQEAV534@@Z 00000001800213d0 f i DxCloth.obj
 0001:00020460       ?find@?$Array@PEAV?$DxBatchedVector@VPxVec4@physx@@@cloth@nv@@VNonTrackingAllocator@ps@23@@ps@cloth@nv@@QEAAPEAPEAV?$DxBatchedVector@VPxVec4@physx@@@34@AEBQEAV534@@Z 0000000180021460 f i DxCloth.obj
 0001:000204f0       ?front@?$Array@VPxVec4@physx@@VNonTrackingAllocator@ps@cloth@nv@@@ps@cloth@nv@@QEAAAEAVPxVec4@physx@@XZ 00000001800214f0 f i DxCloth.obj
 0001:000205a0       ?front@?$Range@$$CBUPhaseConfig@cloth@nv@@@cloth@nv@@QEBAAEBUPhaseConfig@23@XZ 00000001800215a0 f i DxCloth.obj
 0001:00020650       ?front@?$Range@$$CBVPxVec3@physx@@@cloth@nv@@QEBAAEBVPxVec3@physx@@XZ 0000000180021650 f i DxCloth.obj
 0001:00020700       ?getAccelerationFilterWidth@?$ClothImpl@VDxCloth@cloth@nv@@@cloth@nv@@UEBAIXZ 0000000180021700 f i DxCloth.obj
 0001:00020750       ?getAngularDrag@?$ClothImpl@VDxCloth@cloth@nv@@@cloth@nv@@UEBA?AVPxVec3@physx@@XZ 0000000180021750 f i DxCloth.obj
 0001:000207e0       ?getAngularInertia@?$ClothImpl@VDxCloth@cloth@nv@@@cloth@nv@@UEBA?AVPxVec3@physx@@XZ 00000001800217e0 f i DxCloth.obj
 0001:00020840       ?getBoundingBoxCenter@?$ClothImpl@VDxCloth@cloth@nv@@@cloth@nv@@UEBAAEBVPxVec3@physx@@XZ 0000000180021840 f i DxCloth.obj
 0001:00020880       ?getBoundingBoxScale@?$ClothImpl@VDxCloth@cloth@nv@@@cloth@nv@@UEBAAEBVPxVec3@physx@@XZ 0000000180021880 f i DxCloth.obj
 0001:000208c0       ?getCentrifugalInertia@?$ClothImpl@VDxCloth@cloth@nv@@@cloth@nv@@UEBA?AVPxVec3@physx@@XZ 00000001800218c0 f i DxCloth.obj
 0001:00020920       ?getChildCloth@?$ClothImpl@VDxCloth@cloth@nv@@@cloth@nv@@QEAAPEAVDxCloth@23@XZ 0000000180021920 f i DxCloth.obj
 0001:00020930       ?getChildCloth@?$ClothImpl@VDxCloth@cloth@nv@@@cloth@nv@@QEBAPEBVDxCloth@23@XZ 0000000180021930 f i DxCloth.obj
 0001:00020940       ?getCollisionMassScale@?$ClothImpl@VDxCloth@cloth@nv@@@cloth@nv@@UEBAMXZ 0000000180021940 f i DxCloth.obj
 0001:00020990       ?getDamping@?$ClothImpl@VDxCloth@cloth@nv@@@cloth@nv@@UEBA?AVPxVec3@physx@@XZ 0000000180021990 f i DxCloth.obj
 0001:00020a20       ?getDragCoefficient@?$ClothImpl@VDxCloth@cloth@nv@@@cloth@nv@@UEBAMXZ 0000000180021a20 f i DxCloth.obj
 0001:00020a80       ?getFabric@?$ClothImpl@VDxCloth@cloth@nv@@@cloth@nv@@UEBAAEAVFabric@23@XZ 0000000180021a80 f i DxCloth.obj
 0001:00020ad0       ?getFactory@?$ClothImpl@VDxCloth@cloth@nv@@@cloth@nv@@UEBAAEAVFactory@23@XZ 0000000180021ad0 f i DxCloth.obj
 0001:00020b20       ?getFluidDensity@?$ClothImpl@VDxCloth@cloth@nv@@@cloth@nv@@UEBAMXZ 0000000180021b20 f i DxCloth.obj
 0001:00020b60       ?getFriction@?$ClothImpl@VDxCloth@cloth@nv@@@cloth@nv@@UEBAMXZ 0000000180021b60 f i DxCloth.obj
 0001:00020bb0       ?getGravity@?$ClothImpl@VDxCloth@cloth@nv@@@cloth@nv@@UEBA?AVPxVec3@physx@@XZ 0000000180021bb0 f i DxCloth.obj
 0001:00020c10       ?getLiftCoefficient@?$ClothImpl@VDxCloth@cloth@nv@@@cloth@nv@@UEBAMXZ 0000000180021c10 f i DxCloth.obj
 0001:00020c70       ?getLinearDrag@?$ClothImpl@VDxCloth@cloth@nv@@@cloth@nv@@UEBA?AVPxVec3@physx@@XZ 0000000180021c70 f i DxCloth.obj
 0001:00020d00       ?getLinearInertia@?$ClothImpl@VDxCloth@cloth@nv@@@cloth@nv@@UEBA?AVPxVec3@physx@@XZ 0000000180021d00 f i DxCloth.obj
 0001:00020d60       ?getMotionConstraintBias@?$ClothImpl@VDxCloth@cloth@nv@@@cloth@nv@@UEBAMXZ 0000000180021d60 f i DxCloth.obj
 0001:00020db0       ?getMotionConstraintScale@?$ClothImpl@VDxCloth@cloth@nv@@@cloth@nv@@UEBAMXZ 0000000180021db0 f i DxCloth.obj
 0001:00020e00       ?getMotionConstraintStiffness@?$ClothImpl@VDxCloth@cloth@nv@@@cloth@nv@@UEBAMXZ 0000000180021e00 f i DxCloth.obj
 0001:00020e60       ?getMotionConstraints@?$ClothImpl@VDxCloth@cloth@nv@@@cloth@nv@@UEAA?AU?$Range@VPxVec4@physx@@@23@XZ 0000000180021e60 f i DxCloth.obj
 0001:00020f00       ?getNumCapsules@?$ClothImpl@VDxCloth@cloth@nv@@@cloth@nv@@UEBAIXZ 0000000180021f00 f i DxCloth.obj
 0001:00020f50       ?getNumConvexes@?$ClothImpl@VDxCloth@cloth@nv@@@cloth@nv@@UEBAIXZ 0000000180021f50 f i DxCloth.obj
 0001:00020fa0       ?getNumMotionConstraints@?$ClothImpl@VDxCloth@cloth@nv@@@cloth@nv@@UEBAIXZ 0000000180021fa0 f i DxCloth.obj
 0001:00020ff0       ?getNumParticleAccelerations@?$ClothImpl@VDxCloth@cloth@nv@@@cloth@nv@@UEBAIXZ 0000000180021ff0 f i DxCloth.obj
 0001:00021040       ?getNumPlanes@?$ClothImpl@VDxCloth@cloth@nv@@@cloth@nv@@UEBAIXZ 0000000180022040 f i DxCloth.obj
 0001:00021090       ?getNumRestPositions@?$ClothImpl@VDxCloth@cloth@nv@@@cloth@nv@@UEBAIXZ 0000000180022090 f i DxCloth.obj
 0001:000210e0       ?getNumSelfCollisionIndices@?$ClothImpl@VDxCloth@cloth@nv@@@cloth@nv@@UEBAIXZ 00000001800220e0 f i DxCloth.obj
 0001:00021130       ?getNumSeparationConstraints@?$ClothImpl@VDxCloth@cloth@nv@@@cloth@nv@@UEBAIXZ 0000000180022130 f i DxCloth.obj
 0001:00021180       ?getNumSpheres@?$ClothImpl@VDxCloth@cloth@nv@@@cloth@nv@@UEBAIXZ 0000000180022180 f i DxCloth.obj
 0001:000211d0       ?getNumTriangles@?$ClothImpl@VDxCloth@cloth@nv@@@cloth@nv@@UEBAIXZ 00000001800221d0 f i DxCloth.obj
 0001:00021230       ?getNumVirtualParticleWeights@?$ClothImpl@VDxCloth@cloth@nv@@@cloth@nv@@UEBAIXZ 0000000180022230 f i DxCloth.obj
 0001:00021280       ?getPreviousIterationDt@?$ClothImpl@VDxCloth@cloth@nv@@@cloth@nv@@UEBAMXZ 0000000180022280 f i DxCloth.obj
 0001:000212c0       ?getRotation@?$ClothImpl@VDxCloth@cloth@nv@@@cloth@nv@@UEBAAEBVPxQuat@physx@@XZ 00000001800222c0 f i DxCloth.obj
 0001:000212e0       ?getSelfCollisionDistance@?$ClothImpl@VDxCloth@cloth@nv@@@cloth@nv@@UEBAMXZ 00000001800222e0 f i DxCloth.obj
 0001:00021330       ?getSelfCollisionStiffness@?$ClothImpl@VDxCloth@cloth@nv@@@cloth@nv@@UEBAMXZ 0000000180022330 f i DxCloth.obj
 0001:00021390       ?getSeparationConstraints@?$ClothImpl@VDxCloth@cloth@nv@@@cloth@nv@@UEAA?AU?$Range@VPxVec4@physx@@@23@XZ 0000000180022390 f i DxCloth.obj
 0001:00021430       ?getSleepAfterCount@?$ClothImpl@VDxCloth@cloth@nv@@@cloth@nv@@UEBAIXZ 0000000180022430 f i DxCloth.obj
 0001:00021450       ?getSleepPassCount@?$ClothImpl@VDxCloth@cloth@nv@@@cloth@nv@@UEBAIXZ 0000000180022450 f i DxCloth.obj
 0001:00021470       ?getSleepTestInterval@?$ClothImpl@VDxCloth@cloth@nv@@@cloth@nv@@UEBAIXZ 0000000180022470 f i DxCloth.obj
 0001:00021490       ?getSleepThreshold@?$ClothImpl@VDxCloth@cloth@nv@@@cloth@nv@@UEBAMXZ 0000000180022490 f i DxCloth.obj
 0001:000214d0       ?getSolverFrequency@?$ClothImpl@VDxCloth@cloth@nv@@@cloth@nv@@UEBAMXZ 00000001800224d0 f i DxCloth.obj
 0001:00021510       ?getStiffnessFrequency@?$ClothImpl@VDxCloth@cloth@nv@@@cloth@nv@@UEBAMXZ 0000000180022510 f i DxCloth.obj
 0001:00021550       ?getTetherConstraintScale@?$ClothImpl@VDxCloth@cloth@nv@@@cloth@nv@@UEBAMXZ 0000000180022550 f i DxCloth.obj
 0001:000215a0       ?getTetherConstraintStiffness@?$ClothImpl@VDxCloth@cloth@nv@@@cloth@nv@@UEBAMXZ 00000001800225a0 f i DxCloth.obj
 0001:00021600       ?getTranslation@?$ClothImpl@VDxCloth@cloth@nv@@@cloth@nv@@UEBAAEBVPxVec3@physx@@XZ 0000000180022600 f i DxCloth.obj
 0001:00021620       ?getUserData@?$ClothImpl@VDxCloth@cloth@nv@@@cloth@nv@@UEBAPEAXXZ 0000000180022620 f i DxCloth.obj
 0001:00021670       ?getWindVelocity@?$ClothImpl@VDxCloth@cloth@nv@@@cloth@nv@@UEBA?AVPxVec3@physx@@XZ 0000000180022670 f i DxCloth.obj
 0001:000216d0       ?getXYZ@PxVec4@physx@@QEBA?AVPxVec3@2@XZ 00000001800226d0 f i DxCloth.obj
 0001:00021740       ?grow@?$Array@IVNonTrackingAllocator@ps@cloth@nv@@@ps@cloth@nv@@IEAAXI@Z 0000000180022740 f i DxCloth.obj
 0001:000217f0       ?grow@?$Array@U?$Vec4T@G@cloth@nv@@VNonTrackingAllocator@ps@23@@ps@cloth@nv@@IEAAXI@Z 00000001800227f0 f i DxCloth.obj
 0001:000218a0       ?grow@?$Array@UDxPhaseConfig@cloth@nv@@VNonTrackingAllocator@ps@23@@ps@cloth@nv@@IEAAXI@Z 00000001800228a0 f i DxCloth.obj
 0001:00021950       ?grow@?$Array@UPhaseConfig@cloth@nv@@VNonTrackingAllocator@ps@23@@ps@cloth@nv@@IEAAXI@Z 0000000180022950 f i DxCloth.obj
 0001:00021a00       ?grow@?$Array@VPxVec4@physx@@VNonTrackingAllocator@ps@cloth@nv@@@ps@cloth@nv@@IEAAXI@Z 0000000180022a00 f i DxCloth.obj
 0001:00021ab0       ?growAndPushBack@?$Array@PEAV?$DxBatchedVector@I@cloth@nv@@VNonTrackingAllocator@ps@23@@ps@cloth@nv@@IEAAAEAPEAV?$DxBatchedVector@I@34@AEBQEAV534@@Z 0000000180022ab0 f i DxCloth.obj
 0001:00021cd0       ?growAndPushBack@?$Array@PEAV?$DxBatchedVector@U?$Vec4T@G@cloth@nv@@@cloth@nv@@VNonTrackingAllocator@ps@23@@ps@cloth@nv@@IEAAAEAPEAV?$DxBatchedVector@U?$Vec4T@G@cloth@nv@@@34@AEBQEAV534@@Z 0000000180022cd0 f i DxCloth.obj
 0001:00021ef0       ?growAndPushBack@?$Array@PEAV?$DxBatchedVector@UDxPhaseConfig@cloth@nv@@@cloth@nv@@VNonTrackingAllocator@ps@23@@ps@cloth@nv@@IEAAAEAPEAV?$DxBatchedVector@UDxPhaseConfig@cloth@nv@@@34@AEBQEAV534@@Z 0000000180022ef0 f i DxCloth.obj
 0001:00022110       ?growAndPushBack@?$Array@PEAV?$DxBatchedVector@UIndexPair@cloth@nv@@@cloth@nv@@VNonTrackingAllocator@ps@23@@ps@cloth@nv@@IEAAAEAPEAV?$DxBatchedVector@UIndexPair@cloth@nv@@@34@AEBQEAV534@@Z 0000000180023110 f i DxCloth.obj
 0001:00022330       ?growAndPushBack@?$Array@PEAV?$DxBatchedVector@VPxVec3@physx@@@cloth@nv@@VNonTrackingAllocator@ps@23@@ps@cloth@nv@@IEAAAEAPEAV?$DxBatchedVector@VPxVec3@physx@@@34@AEBQEAV534@@Z 0000000180023330 f i DxCloth.obj
 0001:00022550       ?growAndPushBack@?$Array@PEAV?$DxBatchedVector@VPxVec4@physx@@@cloth@nv@@VNonTrackingAllocator@ps@23@@ps@cloth@nv@@IEAAAEAPEAV?$DxBatchedVector@VPxVec4@physx@@@34@AEBQEAV534@@Z 0000000180023550 f i DxCloth.obj
 0001:00022770       ?growAndPushBack@?$Array@U?$Vec4T@G@cloth@nv@@VNonTrackingAllocator@ps@23@@ps@cloth@nv@@IEAAAEAU?$Vec4T@G@34@AEBU534@@Z 0000000180023770 f i DxCloth.obj
 0001:00022990       ?growAndPushBack@?$Array@UDxPhaseConfig@cloth@nv@@VNonTrackingAllocator@ps@23@@ps@cloth@nv@@IEAAAEAUDxPhaseConfig@34@AEBU534@@Z 0000000180023990 f i DxCloth.obj
 0001:00022c10       ?growAndPushBack@?$Array@UPhaseConfig@cloth@nv@@VNonTrackingAllocator@ps@23@@ps@cloth@nv@@IEAAAEAUPhaseConfig@34@AEBU534@@Z 0000000180023c10 f i DxCloth.obj
 0001:00022e90       ?growAndPushBack@?$Array@VPxVec4@physx@@VNonTrackingAllocator@ps@cloth@nv@@@ps@cloth@nv@@IEAAAEAVPxVec4@physx@@AEBV56@@Z 0000000180023e90 f i DxCloth.obj
 0001:000230c0       ?ignoreVelocityDiscontinuity@?$ClothImpl@VDxCloth@cloth@nv@@@cloth@nv@@UEAAXXZ 00000001800240c0 f i DxCloth.obj
 0001:000230e0       ?incRefCount@Fabric@cloth@nv@@QEAAXXZ 00000001800240e0 f i DxCloth.obj
 0001:00023190       ?isAsleep@?$ClothImpl@VDxCloth@cloth@nv@@@cloth@nv@@UEBA_NXZ 0000000180024190 f i DxCloth.obj
 0001:000231e0       ?isContinuousCollisionEnabled@?$ClothImpl@VDxCloth@cloth@nv@@@cloth@nv@@UEBA_NXZ 00000001800241e0 f i DxCloth.obj
 0001:00023230       ?isInUserMemory@?$Array@IVNonTrackingAllocator@ps@cloth@nv@@@ps@cloth@nv@@QEBAIXZ 0000000180024230 f i DxCloth.obj
 0001:00023250       ?isInUserMemory@?$Array@PEAV?$DxBatchedVector@I@cloth@nv@@VNonTrackingAllocator@ps@23@@ps@cloth@nv@@QEBAIXZ 0000000180024250 f i DxCloth.obj
 0001:00023270       ?isInUserMemory@?$Array@PEAV?$DxBatchedVector@U?$Vec4T@G@cloth@nv@@@cloth@nv@@VNonTrackingAllocator@ps@23@@ps@cloth@nv@@QEBAIXZ 0000000180024270 f i DxCloth.obj
 0001:00023290       ?isInUserMemory@?$Array@PEAV?$DxBatchedVector@UDxPhaseConfig@cloth@nv@@@cloth@nv@@VNonTrackingAllocator@ps@23@@ps@cloth@nv@@QEBAIXZ 0000000180024290 f i DxCloth.obj
 0001:000232b0       ?isInUserMemory@?$Array@PEAV?$DxBatchedVector@UIndexPair@cloth@nv@@@cloth@nv@@VNonTrackingAllocator@ps@23@@ps@cloth@nv@@QEBAIXZ 00000001800242b0 f i DxCloth.obj
 0001:000232d0       ?isInUserMemory@?$Array@PEAV?$DxBatchedVector@VPxVec3@physx@@@cloth@nv@@VNonTrackingAllocator@ps@23@@ps@cloth@nv@@QEBAIXZ 00000001800242d0 f i DxCloth.obj
 0001:000232f0       ?isInUserMemory@?$Array@PEAV?$DxBatchedVector@VPxVec4@physx@@@cloth@nv@@VNonTrackingAllocator@ps@23@@ps@cloth@nv@@QEBAIXZ 00000001800242f0 f i DxCloth.obj
 0001:00023310       ?isInUserMemory@?$Array@U?$Vec4T@G@cloth@nv@@VNonTrackingAllocator@ps@23@@ps@cloth@nv@@QEBAIXZ 0000000180024310 f i DxCloth.obj
 0001:00023330       ?isInUserMemory@?$Array@U?$Vec4T@I@cloth@nv@@VNonTrackingAllocator@ps@23@@ps@cloth@nv@@QEBAIXZ 0000000180024330 f i DxCloth.obj
 0001:00023350       ?isInUserMemory@?$Array@UDxPhaseConfig@cloth@nv@@VNonTrackingAllocator@ps@23@@ps@cloth@nv@@QEBAIXZ 0000000180024350 f i DxCloth.obj
 0001:00023370       ?isInUserMemory@?$Array@UPhaseConfig@cloth@nv@@VNonTrackingAllocator@ps@23@@ps@cloth@nv@@QEBAIXZ 0000000180024370 f i DxCloth.obj
 0001:00023390       ?isInUserMemory@?$Array@VPxVec4@physx@@VNonTrackingAllocator@ps@cloth@nv@@@ps@cloth@nv@@QEBAIXZ 0000000180024390 f i DxCloth.obj
 0001:000233b0       ?isRawBuffer@DxBufferFlags@cloth@nv@@QEAA_NXZ 00000001800243b0 f i DxCloth.obj
 0001:00023410       ?isSleeping@?$ClothImpl@VDxCloth@cloth@nv@@@cloth@nv@@UEBA_NXZ 0000000180024410 f i DxCloth.obj
 0001:00023480       ?log2@ps@cloth@nv@@YAMM@Z  0000000180024480 f i DxCloth.obj
 0001:000234c0       ?magnitudeSquared@PxQuat@physx@@QEBAMXZ 00000001800244c0 f i DxCloth.obj
 0001:00023560       ?magnitudeSquared@PxVec3@physx@@QEBAMXZ 0000000180024560 f i DxCloth.obj
 0001:000235e0       ?manager@?$DxBatchedVector@I@cloth@nv@@QEBAPEAVDxContextManagerCallback@23@XZ 00000001800245e0 f i DxCloth.obj
 0001:00023600       ?manager@?$DxBatchedVector@UIndexPair@cloth@nv@@@cloth@nv@@QEBAPEAVDxContextManagerCallback@23@XZ 0000000180024600 f i DxCloth.obj
 0001:00023620       ?manager@?$DxBatchedVector@VPxVec3@physx@@@cloth@nv@@QEBAPEAVDxContextManagerCallback@23@XZ 0000000180024620 f i DxCloth.obj
 0001:00023640       ?manager@?$DxBatchedVector@VPxVec4@physx@@@cloth@nv@@QEBAPEAVDxContextManagerCallback@23@XZ 0000000180024640 f i DxCloth.obj
 0001:00023660       ?map@?$DxBatchedStorage@I@cloth@nv@@AEAAPEAIW4D3D11_MAP@@@Z 0000000180024660 f i DxCloth.obj
 0001:000236f0       ?map@?$DxBatchedStorage@U?$Vec4T@G@cloth@nv@@@cloth@nv@@AEAAPEAU?$Vec4T@G@23@W4D3D11_MAP@@@Z 00000001800246f0 f i DxCloth.obj
 0001:00023780       ?map@?$DxBatchedStorage@UDxPhaseConfig@cloth@nv@@@cloth@nv@@AEAAPEAUDxPhaseConfig@23@W4D3D11_MAP@@@Z 0000000180024780 f i DxCloth.obj
 0001:00023810       ?map@?$DxBatchedStorage@UIndexPair@cloth@nv@@@cloth@nv@@AEAAPEAUIndexPair@23@W4D3D11_MAP@@@Z 0000000180024810 f i DxCloth.obj
 0001:000238a0       ?map@?$DxBatchedStorage@VPxVec3@physx@@@cloth@nv@@AEAAPEAVPxVec3@physx@@W4D3D11_MAP@@@Z 00000001800248a0 f i DxCloth.obj
 0001:00023930       ?map@?$DxBatchedStorage@VPxVec4@physx@@@cloth@nv@@AEAAPEAVPxVec4@physx@@W4D3D11_MAP@@@Z 0000000180024930 f i DxCloth.obj
 0001:000239c0       ?map@?$DxBatchedVector@I@cloth@nv@@QEAAPEAIW4D3D11_MAP@@@Z 00000001800249c0 f i DxCloth.obj
 0001:00023a50       ?map@?$DxBatchedVector@UIndexPair@cloth@nv@@@cloth@nv@@QEAAPEAUIndexPair@23@W4D3D11_MAP@@@Z 0000000180024a50 f i DxCloth.obj
 0001:00023ae0       ?map@?$DxBatchedVector@VPxVec3@physx@@@cloth@nv@@QEAAPEAVPxVec3@physx@@W4D3D11_MAP@@@Z 0000000180024ae0 f i DxCloth.obj
 0001:00023b70       ?map@?$DxBatchedVector@VPxVec4@physx@@@cloth@nv@@QEAAPEAVPxVec4@physx@@W4D3D11_MAP@@@Z 0000000180024b70 f i DxCloth.obj
 0001:00023c00       ?map@?$DxBuffer@I@cloth@nv@@QEAAPEAIW4D3D11_MAP@@@Z 0000000180024c00 f i DxCloth.obj
 0001:00023cc0       ?map@?$DxBuffer@U?$Vec4T@G@cloth@nv@@@cloth@nv@@QEAAPEAU?$Vec4T@G@23@W4D3D11_MAP@@@Z 0000000180024cc0 f i DxCloth.obj
 0001:00023d80       ?map@?$DxBuffer@UDxPhaseConfig@cloth@nv@@@cloth@nv@@QEAAPEAUDxPhaseConfig@23@W4D3D11_MAP@@@Z 0000000180024d80 f i DxCloth.obj
 0001:00023e40       ?map@?$DxBuffer@UIndexPair@cloth@nv@@@cloth@nv@@QEAAPEAUIndexPair@23@W4D3D11_MAP@@@Z 0000000180024e40 f i DxCloth.obj
 0001:00023f00       ?map@?$DxBuffer@VPxVec3@physx@@@cloth@nv@@QEAAPEAVPxVec3@physx@@W4D3D11_MAP@@@Z 0000000180024f00 f i DxCloth.obj
 0001:00023fc0       ?map@?$DxBuffer@VPxVec4@physx@@@cloth@nv@@QEAAPEAVPxVec4@physx@@W4D3D11_MAP@@@Z 0000000180024fc0 f i DxCloth.obj
 0001:00024080       ?maximum@PxVec4@physx@@QEBA?AV12@AEBV12@@Z 0000000180025080 f i DxCloth.obj
 0001:00024190       ?minimum@PxVec4@physx@@QEBA?AV12@AEBV12@@Z 0000000180025190 f i DxCloth.obj
 0001:000242a0       ?pop@DxConstraints@cloth@nv@@QEAAXXZ 00000001800252a0 f i DxCloth.obj
 0001:00024320       ?popFront@?$Range@$$CBUPhaseConfig@cloth@nv@@@cloth@nv@@QEAAXXZ 0000000180025320 f i DxCloth.obj
 0001:000243e0       ?popFront@?$Range@$$CBVPxVec3@physx@@@cloth@nv@@QEAAXXZ 00000001800253e0 f i DxCloth.obj
 0001:000244a0       ?pushBack@?$Array@PEAV?$DxBatchedVector@I@cloth@nv@@VNonTrackingAllocator@ps@23@@ps@cloth@nv@@QEAAAEAPEAV?$DxBatchedVector@I@34@AEBQEAV534@@Z 00000001800254a0 f i DxCloth.obj
 0001:000245b0       ?pushBack@?$Array@PEAV?$DxBatchedVector@U?$Vec4T@G@cloth@nv@@@cloth@nv@@VNonTrackingAllocator@ps@23@@ps@cloth@nv@@QEAAAEAPEAV?$DxBatchedVector@U?$Vec4T@G@cloth@nv@@@34@AEBQEAV534@@Z 00000001800255b0 f i DxCloth.obj
 0001:000246c0       ?pushBack@?$Array@PEAV?$DxBatchedVector@UDxPhaseConfig@cloth@nv@@@cloth@nv@@VNonTrackingAllocator@ps@23@@ps@cloth@nv@@QEAAAEAPEAV?$DxBatchedVector@UDxPhaseConfig@cloth@nv@@@34@AEBQEAV534@@Z 00000001800256c0 f i DxCloth.obj
 0001:000247d0       ?pushBack@?$Array@PEAV?$DxBatchedVector@UIndexPair@cloth@nv@@@cloth@nv@@VNonTrackingAllocator@ps@23@@ps@cloth@nv@@QEAAAEAPEAV?$DxBatchedVector@UIndexPair@cloth@nv@@@34@AEBQEAV534@@Z 00000001800257d0 f i DxCloth.obj
 0001:000248e0       ?pushBack@?$Array@PEAV?$DxBatchedVector@VPxVec3@physx@@@cloth@nv@@VNonTrackingAllocator@ps@23@@ps@cloth@nv@@QEAAAEAPEAV?$DxBatchedVector@VPxVec3@physx@@@34@AEBQEAV534@@Z 00000001800258e0 f i DxCloth.obj
 0001:000249f0       ?pushBack@?$Array@PEAV?$DxBatchedVector@VPxVec4@physx@@@cloth@nv@@VNonTrackingAllocator@ps@23@@ps@cloth@nv@@QEAAAEAPEAV?$DxBatchedVector@VPxVec4@physx@@@34@AEBQEAV534@@Z 00000001800259f0 f i DxCloth.obj
 0001:00024b00       ?pushBack@?$Array@U?$Vec4T@G@cloth@nv@@VNonTrackingAllocator@ps@23@@ps@cloth@nv@@QEAAAEAU?$Vec4T@G@34@AEBU534@@Z 0000000180025b00 f i DxCloth.obj
 0001:00024c10       ?pushBack@?$Array@UDxPhaseConfig@cloth@nv@@VNonTrackingAllocator@ps@23@@ps@cloth@nv@@QEAAAEAUDxPhaseConfig@34@AEBU534@@Z 0000000180025c10 f i DxCloth.obj
 0001:00024d20       ?pushBack@?$Array@UPhaseConfig@cloth@nv@@VNonTrackingAllocator@ps@23@@ps@cloth@nv@@QEAAAEAUPhaseConfig@34@AEBU534@@Z 0000000180025d20 f i DxCloth.obj
 0001:00024e30       ?pushBack@?$Array@VPxVec4@physx@@VNonTrackingAllocator@ps@cloth@nv@@@ps@cloth@nv@@QEAAAEAVPxVec4@physx@@AEBV56@@Z 0000000180025e30 f i DxCloth.obj
 0001:00024f30       ?pushBack@?$DxVectorMap@V?$DxBatchedVector@VPxVec3@physx@@@cloth@nv@@@cloth@nv@@QEAAXAEBVPxVec3@physx@@@Z 0000000180025f30 f i DxCloth.obj
 0001:00025040       ?pushBack@?$DxVectorMap@V?$DxBatchedVector@VPxVec4@physx@@@cloth@nv@@@cloth@nv@@QEAAXAEBVPxVec4@physx@@@Z 0000000180026040 f i DxCloth.obj
 0001:00025150       ?putToSleep@?$ClothImpl@VDxCloth@cloth@nv@@@cloth@nv@@UEAAXXZ 0000000180026150 f i DxCloth.obj
 0001:00025180       ?recreate@?$Array@IVNonTrackingAllocator@ps@cloth@nv@@@ps@cloth@nv@@IEAAXI@Z 0000000180026180 f i DxCloth.obj
 0001:000252f0       ?recreate@?$Array@U?$Vec4T@G@cloth@nv@@VNonTrackingAllocator@ps@23@@ps@cloth@nv@@IEAAXI@Z 00000001800262f0 f i DxCloth.obj
 0001:00025460       ?recreate@?$Array@UDxPhaseConfig@cloth@nv@@VNonTrackingAllocator@ps@23@@ps@cloth@nv@@IEAAXI@Z 0000000180026460 f i DxCloth.obj
 0001:000255e0       ?recreate@?$Array@UPhaseConfig@cloth@nv@@VNonTrackingAllocator@ps@23@@ps@cloth@nv@@IEAAXI@Z 00000001800265e0 f i DxCloth.obj
 0001:00025760       ?recreate@?$Array@VPxVec4@physx@@VNonTrackingAllocator@ps@cloth@nv@@@ps@cloth@nv@@IEAAXI@Z 0000000180026760 f i DxCloth.obj
 0001:000258e0       ?remove@?$Array@PEAV?$DxBatchedVector@I@cloth@nv@@VNonTrackingAllocator@ps@23@@ps@cloth@nv@@QEAAXI@Z 00000001800268e0 f i DxCloth.obj
 0001:00025a40       ?remove@?$Array@PEAV?$DxBatchedVector@U?$Vec4T@G@cloth@nv@@@cloth@nv@@VNonTrackingAllocator@ps@23@@ps@cloth@nv@@QEAAXI@Z 0000000180026a40 f i DxCloth.obj
 0001:00025ba0       ?remove@?$Array@PEAV?$DxBatchedVector@UDxPhaseConfig@cloth@nv@@@cloth@nv@@VNonTrackingAllocator@ps@23@@ps@cloth@nv@@QEAAXI@Z 0000000180026ba0 f i DxCloth.obj
 0001:00025d00       ?remove@?$Array@PEAV?$DxBatchedVector@UIndexPair@cloth@nv@@@cloth@nv@@VNonTrackingAllocator@ps@23@@ps@cloth@nv@@QEAAXI@Z 0000000180026d00 f i DxCloth.obj
 0001:00025e60       ?remove@?$Array@PEAV?$DxBatchedVector@VPxVec3@physx@@@cloth@nv@@VNonTrackingAllocator@ps@23@@ps@cloth@nv@@QEAAXI@Z 0000000180026e60 f i DxCloth.obj
 0001:00025fc0       ?remove@?$Array@PEAV?$DxBatchedVector@VPxVec4@physx@@@cloth@nv@@VNonTrackingAllocator@ps@23@@ps@cloth@nv@@QEAAXI@Z 0000000180026fc0 f i DxCloth.obj
 0001:00026120       ?remove@?$DxBatchedStorage@I@cloth@nv@@AEAAXPEAV?$DxBatchedVector@I@23@@Z 0000000180027120 f i DxCloth.obj
 0001:00026220       ?remove@?$DxBatchedStorage@U?$Vec4T@G@cloth@nv@@@cloth@nv@@AEAAXPEAV?$DxBatchedVector@U?$Vec4T@G@cloth@nv@@@23@@Z 0000000180027220 f i DxCloth.obj
 0001:00026320       ?remove@?$DxBatchedStorage@UDxPhaseConfig@cloth@nv@@@cloth@nv@@AEAAXPEAV?$DxBatchedVector@UDxPhaseConfig@cloth@nv@@@23@@Z 0000000180027320 f i DxCloth.obj
 0001:00026420       ?remove@?$DxBatchedStorage@UIndexPair@cloth@nv@@@cloth@nv@@AEAAXPEAV?$DxBatchedVector@UIndexPair@cloth@nv@@@23@@Z 0000000180027420 f i DxCloth.obj
 0001:00026520       ?remove@?$DxBatchedStorage@VPxVec3@physx@@@cloth@nv@@AEAAXPEAV?$DxBatchedVector@VPxVec3@physx@@@23@@Z 0000000180027520 f i DxCloth.obj
 0001:00026620       ?remove@?$DxBatchedStorage@VPxVec4@physx@@@cloth@nv@@AEAAXPEAV?$DxBatchedVector@VPxVec4@physx@@@23@@Z 0000000180027620 f i DxCloth.obj
 0001:00026720       ?replace@?$DxBatchedStorage@I@cloth@nv@@AEAAXIIPEBI0@Z 0000000180027720 f i DxCloth.obj
 0001:00026db0       ?replace@?$DxBatchedStorage@U?$Vec4T@G@cloth@nv@@@cloth@nv@@AEAAXIIPEBU?$Vec4T@G@23@0@Z 0000000180027db0 f i DxCloth.obj
 0001:00027440       ?replace@?$DxBatchedStorage@UDxPhaseConfig@cloth@nv@@@cloth@nv@@AEAAXIIPEBUDxPhaseConfig@23@0@Z 0000000180028440 f i DxCloth.obj
 0001:00027ae0       ?replace@?$DxBatchedStorage@UIndexPair@cloth@nv@@@cloth@nv@@AEAAXIIPEBUIndexPair@23@0@Z 0000000180028ae0 f i DxCloth.obj
 0001:00028170       ?replace@?$DxBatchedStorage@VPxVec3@physx@@@cloth@nv@@AEAAXIIPEBVPxVec3@physx@@0@Z 0000000180029170 f i DxCloth.obj
 0001:00028810       ?replace@?$DxBatchedStorage@VPxVec4@physx@@@cloth@nv@@AEAAXIIPEBVPxVec4@physx@@0@Z 0000000180029810 f i DxCloth.obj
 0001:00028ea0       ?replaceWithLast@?$DxVectorMap@V?$DxBatchedVector@I@cloth@nv@@@cloth@nv@@QEAAXPEAI@Z 0000000180029ea0 f i DxCloth.obj
 0001:00028f20       ?replaceWithLast@?$DxVectorMap@V?$DxBatchedVector@UIndexPair@cloth@nv@@@cloth@nv@@@cloth@nv@@QEAAXPEAUIndexPair@23@@Z 0000000180029f20 f i DxCloth.obj
 0001:00028fa0       ?reserve@?$Array@IVNonTrackingAllocator@ps@cloth@nv@@@ps@cloth@nv@@QEAAXI@Z 0000000180029fa0 f i DxCloth.obj
 0001:00029000       ?reserve@?$Array@U?$Vec4T@G@cloth@nv@@VNonTrackingAllocator@ps@23@@ps@cloth@nv@@QEAAXI@Z 000000018002a000 f i DxCloth.obj
 0001:00029060       ?reserve@?$Array@UDxPhaseConfig@cloth@nv@@VNonTrackingAllocator@ps@23@@ps@cloth@nv@@QEAAXI@Z 000000018002a060 f i DxCloth.obj
 0001:000290c0       ?reserve@?$Array@UPhaseConfig@cloth@nv@@VNonTrackingAllocator@ps@23@@ps@cloth@nv@@QEAAXI@Z 000000018002a0c0 f i DxCloth.obj
 0001:00029120       ?reserve@?$Array@VPxVec4@physx@@VNonTrackingAllocator@ps@cloth@nv@@@ps@cloth@nv@@QEAAXI@Z 000000018002a120 f i DxCloth.obj
 0001:00029180       ?reserve@?$DxBatchedStorage@I@cloth@nv@@AEAAXPEAV?$DxBatchedVector@I@23@I@Z 000000018002a180 f i DxCloth.obj
 0001:00029260       ?reserve@?$DxBatchedStorage@U?$Vec4T@G@cloth@nv@@@cloth@nv@@AEAAXPEAV?$DxBatchedVector@U?$Vec4T@G@cloth@nv@@@23@I@Z 000000018002a260 f i DxCloth.obj
 0001:00029340       ?reserve@?$DxBatchedStorage@UDxPhaseConfig@cloth@nv@@@cloth@nv@@AEAAXPEAV?$DxBatchedVector@UDxPhaseConfig@cloth@nv@@@23@I@Z 000000018002a340 f i DxCloth.obj
 0001:00029420       ?reserve@?$DxBatchedStorage@UIndexPair@cloth@nv@@@cloth@nv@@AEAAXPEAV?$DxBatchedVector@UIndexPair@cloth@nv@@@23@I@Z 000000018002a420 f i DxCloth.obj
 0001:00029500       ?reserve@?$DxBatchedStorage@VPxVec3@physx@@@cloth@nv@@AEAAXPEAV?$DxBatchedVector@VPxVec3@physx@@@23@I@Z 000000018002a500 f i DxCloth.obj
 0001:000295e0       ?reserve@?$DxBatchedStorage@VPxVec4@physx@@@cloth@nv@@AEAAXPEAV?$DxBatchedVector@VPxVec4@physx@@@23@I@Z 000000018002a5e0 f i DxCloth.obj
 0001:000296c0       ?reserve@?$DxBatchedVector@I@cloth@nv@@QEAAXI@Z 000000018002a6c0 f i DxCloth.obj
 0001:00029710       ?reserve@?$DxBatchedVector@UIndexPair@cloth@nv@@@cloth@nv@@QEAAXI@Z 000000018002a710 f i DxCloth.obj
 0001:00029760       ?reserve@?$DxBatchedVector@VPxVec3@physx@@@cloth@nv@@QEAAXI@Z 000000018002a760 f i DxCloth.obj
 0001:000297b0       ?reserve@?$DxBatchedVector@VPxVec4@physx@@@cloth@nv@@QEAAXI@Z 000000018002a7b0 f i DxCloth.obj
 0001:00029800       ?reserve@?$DxBuffer@I@cloth@nv@@QEAAXI@Z 000000018002a800 f i DxCloth.obj
 0001:000299a0       ?reserve@?$DxBuffer@U?$Vec4T@G@cloth@nv@@@cloth@nv@@QEAAXI@Z 000000018002a9a0 f i DxCloth.obj
 0001:00029b40       ?reserve@?$DxBuffer@UDxPhaseConfig@cloth@nv@@@cloth@nv@@QEAAXI@Z 000000018002ab40 f i DxCloth.obj
 0001:00029ce0       ?reserve@?$DxBuffer@UIndexPair@cloth@nv@@@cloth@nv@@QEAAXI@Z 000000018002ace0 f i DxCloth.obj
 0001:00029e80       ?reserve@?$DxBuffer@VPxVec3@physx@@@cloth@nv@@QEAAXI@Z 000000018002ae80 f i DxCloth.obj
 0001:0002a020       ?reserve@?$DxBuffer@VPxVec4@physx@@@cloth@nv@@QEAAXI@Z 000000018002b020 f i DxCloth.obj
 0001:0002a1c0       ?reset@MovingAverage@cloth@nv@@QEAAXXZ 000000018002b1c0 f i DxCloth.obj
 0001:0002a1f0       ?resize@?$DxBatchedVector@I@cloth@nv@@QEAAXI@Z 000000018002b1f0 f i DxCloth.obj
 0001:0002a250       ?resize@?$DxBatchedVector@UIndexPair@cloth@nv@@@cloth@nv@@QEAAXI@Z 000000018002b250 f i DxCloth.obj
 0001:0002a2b0       ?resize@?$DxBatchedVector@VPxVec3@physx@@@cloth@nv@@QEAAXI@Z 000000018002b2b0 f i DxCloth.obj
 0001:0002a310       ?resize@?$DxBatchedVector@VPxVec4@physx@@@cloth@nv@@QEAAXI@Z 000000018002b310 f i DxCloth.obj
 0001:0002a370       ?resize@?$DxVectorMap@V?$DxBatchedVector@I@cloth@nv@@@cloth@nv@@QEAAXIAEBI@Z 000000018002b370 f i DxCloth.obj
 0001:0002a440       ?resize@?$DxVectorMap@V?$DxBatchedVector@UIndexPair@cloth@nv@@@cloth@nv@@@cloth@nv@@QEAAXIAEBUIndexPair@23@@Z 000000018002b440 f i DxCloth.obj
 0001:0002a510       ?resize@?$DxVectorMap@V?$DxBatchedVector@VPxVec3@physx@@@cloth@nv@@@cloth@nv@@QEAAXIAEBVPxVec3@physx@@@Z 000000018002b510 f i DxCloth.obj
 0001:0002a5e0       ?resize@?$DxVectorMap@V?$DxBatchedVector@VPxVec4@physx@@@cloth@nv@@@cloth@nv@@QEAAXIAEBVPxVec4@physx@@@Z 000000018002b5e0 f i DxCloth.obj
 0001:0002a6b0       ?resize@MovingAverage@cloth@nv@@QEAAXI@Z 000000018002b6b0 f i DxCloth.obj
 0001:0002a8c0       ?resizeUninitialized@?$Array@IVNonTrackingAllocator@ps@cloth@nv@@@ps@cloth@nv@@QEAAXI@Z 000000018002b8c0 f i DxCloth.obj
 0001:0002a920       ?resizeUninitialized@?$Array@UPhaseConfig@cloth@nv@@VNonTrackingAllocator@ps@23@@ps@cloth@nv@@QEAAXI@Z 000000018002b920 f i DxCloth.obj
 0001:0002a980       ?resizeUninitialized@?$Array@VPxVec4@physx@@VNonTrackingAllocator@ps@cloth@nv@@@ps@cloth@nv@@QEAAXI@Z 000000018002b980 f i DxCloth.obj
 0001:0002a9e0       ?safeExp2@cloth@nv@@YA?AVPxVec3@physx@@AEBV34@@Z 000000018002b9e0 f i DxCloth.obj
 0001:0002aa90       ?safeExp2@cloth@nv@@YAMM@Z 000000018002ba90 f i DxCloth.obj
 0001:0002aaf0       ?safeLog2@cloth@nv@@YA?AVPxVec3@physx@@AEBV34@@Z 000000018002baf0 f i DxCloth.obj
 0001:0002aba0       ?safeLog2@cloth@nv@@YAMM@Z 000000018002bba0 f i DxCloth.obj
 0001:0002ac80       ?selectMax@intrinsics@physx@@YAMMM@Z 000000018002bc80 f i DxCloth.obj
 0001:0002acf0       ?selectMin@intrinsics@physx@@YAMMM@Z 000000018002bcf0 f i DxCloth.obj
 0001:0002ad60       ?setAcceleationFilterWidth@?$ClothImpl@VDxCloth@cloth@nv@@@cloth@nv@@UEAAXI@Z 000000018002bd60 f i DxCloth.obj
 0001:0002adb0       ?setAngularDrag@?$ClothImpl@VDxCloth@cloth@nv@@@cloth@nv@@UEAAXAEBVPxVec3@physx@@@Z 000000018002bdb0 f i DxCloth.obj
 0001:0002ae90       ?setAngularInertia@?$ClothImpl@VDxCloth@cloth@nv@@@cloth@nv@@UEAAXAEBVPxVec3@physx@@@Z 000000018002be90 f i DxCloth.obj
 0001:0002af50       ?setCapsules@?$ClothImpl@VDxCloth@cloth@nv@@@cloth@nv@@UEAAXU?$Range@$$CBI@23@II@Z 000000018002bf50 f i DxCloth.obj
 0001:0002b4f0       ?setCentrifugalInertia@?$ClothImpl@VDxCloth@cloth@nv@@@cloth@nv@@UEAAXAEBVPxVec3@physx@@@Z 000000018002c4f0 f i DxCloth.obj
 0001:0002b5b0       ?setCollisionMassScale@?$ClothImpl@VDxCloth@cloth@nv@@@cloth@nv@@UEAAXM@Z 000000018002c5b0 f i DxCloth.obj
 0001:0002b660       ?setConvexes@?$ClothImpl@VDxCloth@cloth@nv@@@cloth@nv@@UEAAXU?$Range@$$CBI@23@II@Z 000000018002c660 f i DxCloth.obj
 0001:0002bb90       ?setDamping@?$ClothImpl@VDxCloth@cloth@nv@@@cloth@nv@@UEAAXAEBVPxVec3@physx@@@Z 000000018002cb90 f i DxCloth.obj
 0001:0002bc70       ?setDragCoefficient@?$ClothImpl@VDxCloth@cloth@nv@@@cloth@nv@@UEAAXM@Z 000000018002cc70 f i DxCloth.obj
 0001:0002bda0       ?setFluidDensity@?$ClothImpl@VDxCloth@cloth@nv@@@cloth@nv@@UEAAXM@Z 000000018002cda0 f i DxCloth.obj
 0001:0002beb0       ?setFriction@?$ClothImpl@VDxCloth@cloth@nv@@@cloth@nv@@UEAAXM@Z 000000018002ceb0 f i DxCloth.obj
 0001:0002bf20       ?setGravity@?$ClothImpl@VDxCloth@cloth@nv@@@cloth@nv@@UEAAXAEBVPxVec3@physx@@@Z 000000018002cf20 f i DxCloth.obj
 0001:0002bfe0       ?setLiftCoefficient@?$ClothImpl@VDxCloth@cloth@nv@@@cloth@nv@@UEAAXM@Z 000000018002cfe0 f i DxCloth.obj
 0001:0002c110       ?setLinearDrag@?$ClothImpl@VDxCloth@cloth@nv@@@cloth@nv@@UEAAXAEBVPxVec3@physx@@@Z 000000018002d110 f i DxCloth.obj
 0001:0002c1f0       ?setLinearInertia@?$ClothImpl@VDxCloth@cloth@nv@@@cloth@nv@@UEAAXAEBVPxVec3@physx@@@Z 000000018002d1f0 f i DxCloth.obj
 0001:0002c2b0       ?setMotionConstraintScaleBias@?$ClothImpl@VDxCloth@cloth@nv@@@cloth@nv@@UEAAXMM@Z 000000018002d2b0 f i DxCloth.obj
 0001:0002c3a0       ?setMotionConstraintStiffness@?$ClothImpl@VDxCloth@cloth@nv@@@cloth@nv@@UEAAXM@Z 000000018002d3a0 f i DxCloth.obj
 0001:0002c470       ?setPlanes@?$ClothImpl@VDxCloth@cloth@nv@@@cloth@nv@@UEAAXU?$Range@$$CBVPxVec4@physx@@@23@0@Z 000000018002d470 f i DxCloth.obj
 0001:0002c9d0       ?setPlanes@?$ClothImpl@VDxCloth@cloth@nv@@@cloth@nv@@UEAAXU?$Range@$$CBVPxVec4@physx@@@23@II@Z 000000018002d9d0 f i DxCloth.obj
 0001:0002d690       ?setRestPositions@?$ClothImpl@VDxCloth@cloth@nv@@@cloth@nv@@UEAAXU?$Range@$$CBVPxVec4@physx@@@23@@Z 000000018002e690 f i DxCloth.obj
 0001:0002d860       ?setRotation@?$ClothImpl@VDxCloth@cloth@nv@@@cloth@nv@@UEAAXAEBVPxQuat@physx@@@Z 000000018002e860 f i DxCloth.obj
 0001:0002d900       ?setSelfCollisionDistance@?$ClothImpl@VDxCloth@cloth@nv@@@cloth@nv@@UEAAXM@Z 000000018002e900 f i DxCloth.obj
 0001:0002d9b0       ?setSelfCollisionStiffness@?$ClothImpl@VDxCloth@cloth@nv@@@cloth@nv@@UEAAXM@Z 000000018002e9b0 f i DxCloth.obj
 0001:0002daf0       ?setSleepAfterCount@?$ClothImpl@VDxCloth@cloth@nv@@@cloth@nv@@UEAAXI@Z 000000018002eaf0 f i DxCloth.obj
 0001:0002db80       ?setSleepTestInterval@?$ClothImpl@VDxCloth@cloth@nv@@@cloth@nv@@UEAAXI@Z 000000018002eb80 f i DxCloth.obj
 0001:0002dc10       ?setSleepThreshold@?$ClothImpl@VDxCloth@cloth@nv@@@cloth@nv@@UEAAXM@Z 000000018002ec10 f i DxCloth.obj
 0001:0002dcb0       ?setSolverFrequency@?$ClothImpl@VDxCloth@cloth@nv@@@cloth@nv@@UEAAXM@Z 000000018002ecb0 f i DxCloth.obj
 0001:0002dd60       ?setSpheres@?$ClothImpl@VDxCloth@cloth@nv@@@cloth@nv@@UEAAXU?$Range@$$CBVPxVec4@physx@@@23@0@Z 000000018002ed60 f i DxCloth.obj
 0001:0002e2c0       ?setSpheres@?$ClothImpl@VDxCloth@cloth@nv@@@cloth@nv@@UEAAXU?$Range@$$CBVPxVec4@physx@@@23@II@Z 000000018002f2c0 f i DxCloth.obj
 0001:0002ee50       ?setStiffnessFrequency@?$ClothImpl@VDxCloth@cloth@nv@@@cloth@nv@@UEAAXM@Z 000000018002fe50 f i DxCloth.obj
 0001:0002eed0       ?setTetherConstraintScale@?$ClothImpl@VDxCloth@cloth@nv@@@cloth@nv@@UEAAXM@Z 000000018002fed0 f i DxCloth.obj
 0001:0002ef80       ?setTetherConstraintStiffness@?$ClothImpl@VDxCloth@cloth@nv@@@cloth@nv@@UEAAXM@Z 000000018002ff80 f i DxCloth.obj
 0001:0002f050       ?setTranslation@?$ClothImpl@VDxCloth@cloth@nv@@@cloth@nv@@UEAAXAEBVPxVec3@physx@@@Z 0000000180030050 f i DxCloth.obj
 0001:0002f110       ?setTriangles@?$ClothImpl@VDxCloth@cloth@nv@@@cloth@nv@@UEAAXU?$Range@$$CBVPxVec3@physx@@@23@0I@Z 0000000180030110 f i DxCloth.obj
 0001:0002f800       ?setTriangles@?$ClothImpl@VDxCloth@cloth@nv@@@cloth@nv@@UEAAXU?$Range@$$CBVPxVec3@physx@@@23@II@Z 0000000180030800 f i DxCloth.obj
 0001:00030180       ?setUserData@?$ClothImpl@VDxCloth@cloth@nv@@@cloth@nv@@UEAAXPEAX@Z 0000000180031180 f i DxCloth.obj
 0001:000301d0       ?setWindVelocity@?$ClothImpl@VDxCloth@cloth@nv@@@cloth@nv@@UEAAXVPxVec3@physx@@@Z 00000001800311d0 f i DxCloth.obj
 0001:00030280       ?simd4f@cloth@nv@@YA?AUSimd4fScalarFactory@12@AEBM@Z 0000000180031280 f i DxCloth.obj
 0001:000302d0       ?simd4i@cloth@nv@@YA?AUSimd4iScalarFactory@12@AEBH@Z 00000001800312d0 f i DxCloth.obj
 0001:00030320       ?size@?$Array@PEAV?$DxBatchedVector@I@cloth@nv@@VNonTrackingAllocator@ps@23@@ps@cloth@nv@@QEBAIXZ 0000000180031320 f i DxCloth.obj
 0001:00030340       ?size@?$Array@PEAV?$DxBatchedVector@U?$Vec4T@G@cloth@nv@@@cloth@nv@@VNonTrackingAllocator@ps@23@@ps@cloth@nv@@QEBAIXZ 0000000180031340 f i DxCloth.obj
 0001:00030360       ?size@?$Array@PEAV?$DxBatchedVector@UDxPhaseConfig@cloth@nv@@@cloth@nv@@VNonTrackingAllocator@ps@23@@ps@cloth@nv@@QEBAIXZ 0000000180031360 f i DxCloth.obj
 0001:00030380       ?size@?$Array@PEAV?$DxBatchedVector@UIndexPair@cloth@nv@@@cloth@nv@@VNonTrackingAllocator@ps@23@@ps@cloth@nv@@QEBAIXZ 0000000180031380 f i DxCloth.obj
 0001:000303a0       ?size@?$Array@PEAV?$DxBatchedVector@VPxVec3@physx@@@cloth@nv@@VNonTrackingAllocator@ps@23@@ps@cloth@nv@@QEBAIXZ 00000001800313a0 f i DxCloth.obj
 0001:000303c0       ?size@?$Array@PEAV?$DxBatchedVector@VPxVec4@physx@@@cloth@nv@@VNonTrackingAllocator@ps@23@@ps@cloth@nv@@QEBAIXZ 00000001800313c0 f i DxCloth.obj
 0001:000303e0       ?size@?$Array@UDxPhaseConfig@cloth@nv@@VNonTrackingAllocator@ps@23@@ps@cloth@nv@@QEBAIXZ 00000001800313e0 f i DxCloth.obj
 0001:00030400       ?size@?$Array@UPhaseConfig@cloth@nv@@VNonTrackingAllocator@ps@23@@ps@cloth@nv@@QEBAIXZ 0000000180031400 f i DxCloth.obj
 0001:00030420       ?size@?$Array@VPxVec4@physx@@VNonTrackingAllocator@ps@cloth@nv@@@ps@cloth@nv@@QEBAIXZ 0000000180031420 f i DxCloth.obj
 0001:00030440       ?size@?$DxBatchedVector@I@cloth@nv@@QEBAIXZ 0000000180031440 f i DxCloth.obj
 0001:00030460       ?size@?$DxBatchedVector@U?$Vec4T@G@cloth@nv@@@cloth@nv@@QEBAIXZ 0000000180031460 f i DxCloth.obj
 0001:00030480       ?size@?$DxBatchedVector@UDxPhaseConfig@cloth@nv@@@cloth@nv@@QEBAIXZ 0000000180031480 f i DxCloth.obj
 0001:000304a0       ?size@?$DxBatchedVector@UIndexPair@cloth@nv@@@cloth@nv@@QEBAIXZ 00000001800314a0 f i DxCloth.obj
 0001:000304c0       ?size@?$DxBatchedVector@VPxVec3@physx@@@cloth@nv@@QEBAIXZ 00000001800314c0 f i DxCloth.obj
 0001:000304e0       ?size@?$DxBatchedVector@VPxVec4@physx@@@cloth@nv@@QEBAIXZ 00000001800314e0 f i DxCloth.obj
 0001:00030500       ?size@?$DxVectorMap@V?$DxBatchedVector@VPxVec3@physx@@@cloth@nv@@@cloth@nv@@QEBAIXZ 0000000180031500 f i DxCloth.obj
 0001:00030540       ?size@?$DxVectorMap@V?$DxBatchedVector@VPxVec4@physx@@@cloth@nv@@@cloth@nv@@QEBAIXZ 0000000180031540 f i DxCloth.obj
 0001:00030580       ?size@?$Range@$$BY03$$CBI@cloth@nv@@QEBAIXZ 0000000180031580 f i DxCloth.obj
 0001:000305b0       ?size@?$Range@$$CBI@cloth@nv@@QEBAIXZ 00000001800315b0 f i DxCloth.obj
 0001:000305e0       ?size@?$Range@$$CBUPhaseConfig@cloth@nv@@@cloth@nv@@QEBAIXZ 00000001800315e0 f i DxCloth.obj
 0001:00030610       ?size@?$Range@$$CBVPxVec3@physx@@@cloth@nv@@QEBAIXZ 0000000180031610 f i DxCloth.obj
 0001:00030640       ?size@?$Range@$$CBVPxVec4@physx@@@cloth@nv@@QEBAIXZ 0000000180031640 f i DxCloth.obj
 0001:00030670       ?size@MovingAverage@cloth@nv@@QEBAIXZ 0000000180031670 f i DxCloth.obj
 0001:00030690       ?swap@?$Array@VPxVec4@physx@@VNonTrackingAllocator@ps@cloth@nv@@@ps@cloth@nv@@QEAAXAEAV1234@@Z 0000000180031690 f i DxCloth.obj
 0001:00030720       ?swap@?$DxBatchedVector@VPxVec4@physx@@@cloth@nv@@QEAAXAEAV123@@Z 0000000180031720 f i DxCloth.obj
 0001:00030830       ?teleport@?$ClothImpl@VDxCloth@cloth@nv@@@cloth@nv@@UEAAXAEBVPxVec3@physx@@@Z 0000000180031830 f i DxCloth.obj
 0001:000308a0       ?teleportToLocation@?$ClothImpl@VDxCloth@cloth@nv@@@cloth@nv@@UEAAXAEBVPxVec3@physx@@AEBVPxQuat@5@@Z 00000001800318a0 f i DxCloth.obj
 0001:00030950       ?unmap@?$DxBatchedStorage@I@cloth@nv@@AEAAXXZ 0000000180031950 f i DxCloth.obj
 0001:000309d0       ?unmap@?$DxBatchedStorage@U?$Vec4T@G@cloth@nv@@@cloth@nv@@AEAAXXZ 00000001800319d0 f i DxCloth.obj
 0001:00030a50       ?unmap@?$DxBatchedStorage@UDxPhaseConfig@cloth@nv@@@cloth@nv@@AEAAXXZ 0000000180031a50 f i DxCloth.obj
 0001:00030ad0       ?unmap@?$DxBatchedStorage@UIndexPair@cloth@nv@@@cloth@nv@@AEAAXXZ 0000000180031ad0 f i DxCloth.obj
 0001:00030b50       ?unmap@?$DxBatchedStorage@VPxVec3@physx@@@cloth@nv@@AEAAXXZ 0000000180031b50 f i DxCloth.obj
 0001:00030bd0       ?unmap@?$DxBatchedStorage@VPxVec4@physx@@@cloth@nv@@AEAAXXZ 0000000180031bd0 f i DxCloth.obj
 0001:00030c50       ?unmap@?$DxBatchedVector@I@cloth@nv@@QEAAXXZ 0000000180031c50 f i DxCloth.obj
 0001:00030c90       ?unmap@?$DxBatchedVector@UIndexPair@cloth@nv@@@cloth@nv@@QEAAXXZ 0000000180031c90 f i DxCloth.obj
 0001:00030cd0       ?unmap@?$DxBatchedVector@VPxVec3@physx@@@cloth@nv@@QEAAXXZ 0000000180031cd0 f i DxCloth.obj
 0001:00030d10       ?unmap@?$DxBatchedVector@VPxVec4@physx@@@cloth@nv@@QEAAXXZ 0000000180031d10 f i DxCloth.obj
 0001:00030d50       ?unmap@?$DxBuffer@I@cloth@nv@@QEAAXXZ 0000000180031d50 f i DxCloth.obj
 0001:00030dc0       ?unmap@?$DxBuffer@U?$Vec4T@G@cloth@nv@@@cloth@nv@@QEAAXXZ 0000000180031dc0 f i DxCloth.obj
 0001:00030e30       ?unmap@?$DxBuffer@UDxPhaseConfig@cloth@nv@@@cloth@nv@@QEAAXXZ 0000000180031e30 f i DxCloth.obj
 0001:00030ea0       ?unmap@?$DxBuffer@UIndexPair@cloth@nv@@@cloth@nv@@QEAAXXZ 0000000180031ea0 f i DxCloth.obj
 0001:00030f10       ?unmap@?$DxBuffer@VPxVec3@physx@@@cloth@nv@@QEAAXXZ 0000000180031f10 f i DxCloth.obj
 0001:00030f80       ?unmap@?$DxBuffer@VPxVec4@physx@@@cloth@nv@@QEAAXXZ 0000000180031f80 f i DxCloth.obj
 0001:00030ff0       ?update@?$DxBatchedStorage@I@cloth@nv@@AEAAXPEAV?$DxBatchedVector@I@23@H@Z 0000000180031ff0 f i DxCloth.obj
 0001:00031130       ?update@?$DxBatchedStorage@U?$Vec4T@G@cloth@nv@@@cloth@nv@@AEAAXPEAV?$DxBatchedVector@U?$Vec4T@G@cloth@nv@@@23@H@Z 0000000180032130 f i DxCloth.obj
 0001:00031270       ?update@?$DxBatchedStorage@UDxPhaseConfig@cloth@nv@@@cloth@nv@@AEAAXPEAV?$DxBatchedVector@UDxPhaseConfig@cloth@nv@@@23@H@Z 0000000180032270 f i DxCloth.obj
 0001:000313b0       ?update@?$DxBatchedStorage@UIndexPair@cloth@nv@@@cloth@nv@@AEAAXPEAV?$DxBatchedVector@UIndexPair@cloth@nv@@@23@H@Z 00000001800323b0 f i DxCloth.obj
 0001:000314f0       ?update@?$DxBatchedStorage@VPxVec3@physx@@@cloth@nv@@AEAAXPEAV?$DxBatchedVector@VPxVec3@physx@@@23@H@Z 00000001800324f0 f i DxCloth.obj
 0001:00031630       ?update@?$DxBatchedStorage@VPxVec4@physx@@@cloth@nv@@AEAAXPEAV?$DxBatchedVector@VPxVec4@physx@@@23@H@Z 0000000180032630 f i DxCloth.obj
 0001:00031770       ?updateIndex@cloth@nv@@YA_NAEAIIH@Z 0000000180032770 f i DxCloth.obj
 0001:00031800       ?wakeUp@?$ClothImpl@VDxCloth@cloth@nv@@@cloth@nv@@UEAAXXZ 0000000180032800 f i DxCloth.obj
 0001:00031820       fabsf                      0000000180032820 f i DxCloth.obj
 0001:00031860       ?clone@DxFactory@cloth@nv@@UEAAPEAVCloth@23@AEBV423@@Z 0000000180032860 f   DxClothClone.obj
 0001:00031900       ?clone@DxCloth@cloth@nv@@UEBAPEAVCloth@23@AEAVFactory@23@@Z 0000000180032900 f   DxClothClone.obj
 0001:000319f0       ?getPhaseConfigs@cloth@nv@@YA?AU?$Range@$$CBUPhaseConfig@cloth@nv@@@12@AEBVDxCloth@12@@Z 00000001800329f0 f   DxClothClone.obj
 0001:00031a40       ?setPhaseConfigs@cloth@nv@@YAXAEAVDxCloth@12@U?$Range@$$CBUPhaseConfig@cloth@nv@@@12@@Z 0000000180032a40 f   DxClothClone.obj
 0001:00031aa0       ?getParticleAccelerations@cloth@nv@@YA?AU?$Range@$$CBVPxVec4@physx@@@12@AEBVDxCloth@12@@Z 0000000180032aa0 f   DxClothClone.obj
 0001:00031af0       ?getSelfCollisionIndices@cloth@nv@@YA?AU?$Range@$$CBI@12@AEBVDxCloth@12@@Z 0000000180032af0 f   DxClothClone.obj
 0001:00031bf0       ??$?0$$BY03I@?$Range@$$BY03$$CBI@cloth@nv@@QEAA@AEBU?$Range@$$BY03I@12@@Z 0000000180032bf0 f i DxClothClone.obj
 0001:00031c60       ??$?0I@?$Range@$$CBI@cloth@nv@@QEAA@AEBU?$Range@I@12@@Z 0000000180032c60 f i DxClothClone.obj
 0001:00031cd0       ??$?0M@?$Range@$$CBM@cloth@nv@@QEAA@AEBU?$Range@M@12@@Z 0000000180032cd0 f i DxClothClone.obj
 0001:00031d40       ??$?0VPxVec3@physx@@@?$Range@$$CBVPxVec3@physx@@@cloth@nv@@QEAA@AEBU?$Range@VPxVec3@physx@@@12@@Z 0000000180032d40 f i DxClothClone.obj
 0001:00031db0       ??$?0VPxVec4@physx@@@?$Range@$$CBVPxVec4@physx@@@cloth@nv@@QEAA@AEBU?$Range@VPxVec4@physx@@@12@@Z 0000000180032db0 f i DxClothClone.obj
 0001:00031e20       ??$PX_UNUSED@UNvClothOverload@cloth@nv@@@@YAXAEBUNvClothOverload@cloth@nv@@@Z 0000000180032e20 f i DxClothClone.obj
 0001:00031e30       ??$array@I@cloth@nv@@YAAEAY03IAEAU?$Vec4T@I@01@@Z 0000000180032e30 f i DxClothClone.obj
 0001:00031e40       ??$convertCloth@VDxFactory@cloth@nv@@VDxCloth@23@@cloth@nv@@YAPEAVDxCloth@01@AEAVDxFactory@01@AEBV201@@Z 0000000180032e40 f i DxClothClone.obj
 0001:00033230       ??$convertCloth@VDxFactory@cloth@nv@@VSwCloth@23@@cloth@nv@@YAPEAVDxCloth@01@AEAVDxFactory@01@AEBVSwCloth@01@@Z 0000000180034230 f i DxClothClone.obj
 0001:00034610       ??$convertCloth@VSwFactory@cloth@nv@@VDxCloth@23@@cloth@nv@@YAPEAVSwCloth@01@AEAVSwFactory@01@AEBVDxCloth@01@@Z 0000000180035610 f i DxClothClone.obj
 0001:000359f0       ??$convertFabric@VDxFabric@cloth@nv@@VDxFactory@23@@cloth@nv@@YAPEAVDxFabric@01@AEBV201@AEAVDxFactory@01@@Z 00000001800369f0 f i DxClothClone.obj
 0001:00036560       ??$convertFabric@VDxFabric@cloth@nv@@VSwFactory@23@@cloth@nv@@YAPEAVSwFabric@01@AEBVDxFabric@01@AEAVSwFactory@01@@Z 0000000180037560 f i DxClothClone.obj
 0001:000370d0       ??$convertFabric@VSwFabric@cloth@nv@@VDxFactory@23@@cloth@nv@@YAPEAVDxFabric@01@AEBVSwFabric@01@AEAVDxFactory@01@@Z 00000001800380d0 f i DxClothClone.obj
 0001:00037c40       ??$copy@VDxCloth@cloth@nv@@VSwCloth@23@@cloth@nv@@YAXAEAVDxCloth@01@AEBVSwCloth@01@@Z 0000000180038c40 f i DxClothClone.obj
 0001:00038100       ??$copy@VSwCloth@cloth@nv@@VDxCloth@23@@cloth@nv@@YAXAEAVSwCloth@01@AEBVDxCloth@01@@Z 0000000180039100 f i DxClothClone.obj
 0001:000385c0       ??$makeRange@IVNonTrackingAllocator@ps@cloth@nv@@@cloth@nv@@YA?AU?$Range@$$CBI@01@AEBV?$Array@IVNonTrackingAllocator@ps@cloth@nv@@@ps@01@@Z 00000001800395c0 f i DxClothClone.obj
 0001:00038670       ??$makeRange@IVNonTrackingAllocator@ps@cloth@nv@@@cloth@nv@@YA?AU?$Range@I@01@AEAV?$Array@IVNonTrackingAllocator@ps@cloth@nv@@@ps@01@@Z 0000000180039670 f i DxClothClone.obj
 0001:00038720       ??$makeRange@MVNonTrackingAllocator@ps@cloth@nv@@@cloth@nv@@YA?AU?$Range@M@01@AEAV?$Array@MVNonTrackingAllocator@ps@cloth@nv@@@ps@01@@Z 0000000180039720 f i DxClothClone.obj
 0001:000387d0       ??$makeRange@UPhaseConfig@cloth@nv@@VNonTrackingAllocator@ps@23@@cloth@nv@@YA?AU?$Range@$$CBUPhaseConfig@cloth@nv@@@01@AEBV?$Array@UPhaseConfig@cloth@nv@@VNonTrackingAllocator@ps@23@@ps@01@@Z 00000001800397d0 f i DxClothClone.obj
 0001:00038890       ??$makeRange@VPxVec4@physx@@VNonTrackingAllocator@ps@cloth@nv@@@cloth@nv@@YA?AU?$Range@$$CBVPxVec4@physx@@@01@AEBV?$Array@VPxVec4@physx@@VNonTrackingAllocator@ps@cloth@nv@@@ps@01@@Z 0000000180039890 f i DxClothClone.obj
 0001:00038950       ??$makeRange@VPxVec4@physx@@VNonTrackingAllocator@ps@cloth@nv@@@cloth@nv@@YA?AU?$Range@VPxVec4@physx@@@01@AEAV?$Array@VPxVec4@physx@@VNonTrackingAllocator@ps@cloth@nv@@@ps@01@@Z 0000000180039950 f i DxClothClone.obj
 0001:00038a10       ??0?$Array@IVNonTrackingAllocator@ps@cloth@nv@@@ps@cloth@nv@@QEAA@IAEBIAEBVNonTrackingAllocator@123@@Z 0000000180039a10 f i DxClothClone.obj
 0001:00038aa0       ??0?$Array@MVNonTrackingAllocator@ps@cloth@nv@@@ps@cloth@nv@@QEAA@IAEBMAEBVNonTrackingAllocator@123@@Z 0000000180039aa0 f i DxClothClone.obj
 0001:00038b30       ??0?$Array@U?$Vec4T@I@cloth@nv@@VNonTrackingAllocator@ps@23@@ps@cloth@nv@@QEAA@IAEBU?$Vec4T@I@23@AEBVNonTrackingAllocator@123@@Z 0000000180039b30 f i DxClothClone.obj
 0001:00038bc0       ??0?$Array@VPxVec3@physx@@VNonTrackingAllocator@ps@cloth@nv@@@ps@cloth@nv@@QEAA@IAEBVPxVec3@physx@@AEBVNonTrackingAllocator@123@@Z 0000000180039bc0 f i DxClothClone.obj
 0001:00038c50       ??0?$Array@VPxVec4@physx@@VNonTrackingAllocator@ps@cloth@nv@@@ps@cloth@nv@@QEAA@IAEBVPxVec4@physx@@AEBVNonTrackingAllocator@123@@Z 0000000180039c50 f i DxClothClone.obj
 0001:00038ce0       ??0?$Range@$$BY03I@cloth@nv@@QEAA@PEAY03I0@Z 0000000180039ce0 f i DxClothClone.obj
 0001:00038d20       ??0?$Range@$$CBI@cloth@nv@@QEAA@PEBI0@Z 0000000180039d20 f i DxClothClone.obj
 0001:00038d60       ??0?$Range@I@cloth@nv@@QEAA@PEAI0@Z 0000000180039d60 f i DxClothClone.obj
 0001:00038da0       ??0?$Range@M@cloth@nv@@QEAA@PEAM0@Z 0000000180039da0 f i DxClothClone.obj
 0001:00038de0       ??0?$Range@VPxVec3@physx@@@cloth@nv@@QEAA@PEAVPxVec3@physx@@0@Z 0000000180039de0 f i DxClothClone.obj
 0001:00038e20       ??0?$Vec4T@I@cloth@nv@@QEAA@XZ 0000000180039e20 f i DxClothClone.obj
 0001:00038e30       ??0SwContextLock@cloth@nv@@QEAA@AEBVSwFactory@12@@Z 0000000180039e30 f i DxClothClone.obj
 0001:00038e50       ??1?$Array@MVNonTrackingAllocator@ps@cloth@nv@@@ps@cloth@nv@@QEAA@XZ 0000000180039e50 f i DxClothClone.obj
 0001:00038ef0       ??1?$Array@VPxVec3@physx@@VNonTrackingAllocator@ps@cloth@nv@@@ps@cloth@nv@@QEAA@XZ 0000000180039ef0 f i DxClothClone.obj
 0001:00038f90       ??1?$MappedRange@$$CBVPxVec4@physx@@@cloth@nv@@QEAA@XZ 0000000180039f90 f i DxClothClone.obj
 0001:00038ff0       ??1?$MappedRange@VPxVec4@physx@@@cloth@nv@@QEAA@XZ 0000000180039ff0 f i DxClothClone.obj
 0001:00039050       ??2UserAllocated@cloth@nv@@SAPEAX_KPEBDHUNvClothOverload@12@@Z 000000018003a050 f i DxClothClone.obj
 0001:000390e0       ?allocate@?$Array@MVNonTrackingAllocator@ps@cloth@nv@@@ps@cloth@nv@@IEAAPEAMI@Z 000000018003a0e0 f i DxClothClone.obj
 0001:000391b0       ?allocate@?$Array@U?$Vec4T@I@cloth@nv@@VNonTrackingAllocator@ps@23@@ps@cloth@nv@@IEAAPEAU?$Vec4T@I@34@I@Z 000000018003a1b0 f i DxClothClone.obj
 0001:00039280       ?allocate@?$Array@VPxVec3@physx@@VNonTrackingAllocator@ps@cloth@nv@@@ps@cloth@nv@@IEAAPEAVPxVec3@physx@@I@Z 000000018003a280 f i DxClothClone.obj
 0001:00039350       ?begin@?$Array@MVNonTrackingAllocator@ps@cloth@nv@@@ps@cloth@nv@@QEAAPEAMXZ 000000018003a350 f i DxClothClone.obj
 0001:00039370       ?begin@?$Array@PEAVDxFabric@cloth@nv@@VNonTrackingAllocator@ps@23@@ps@cloth@nv@@QEAAPEAPEAVDxFabric@34@XZ 000000018003a370 f i DxClothClone.obj
 0001:00039390       ?begin@?$Array@PEAVSwFabric@cloth@nv@@VNonTrackingAllocator@ps@23@@ps@cloth@nv@@QEAAPEAPEAVSwFabric@34@XZ 000000018003a390 f i DxClothClone.obj
 0001:000393b0       ?begin@?$Range@$$BY03I@cloth@nv@@QEBAPEAY03IXZ 000000018003a3b0 f i DxClothClone.obj
 0001:000393d0       ?begin@?$Range@I@cloth@nv@@QEBAPEAIXZ 000000018003a3d0 f i DxClothClone.obj
 0001:000393f0       ?begin@?$Range@M@cloth@nv@@QEBAPEAMXZ 000000018003a3f0 f i DxClothClone.obj
 0001:00039410       ?begin@?$Range@VPxVec3@physx@@@cloth@nv@@QEBAPEAVPxVec3@physx@@XZ 000000018003a410 f i DxClothClone.obj
 0001:00039430       ?begin@?$Range@VPxVec4@physx@@@cloth@nv@@QEBAPEAVPxVec4@physx@@XZ 000000018003a430 f i DxClothClone.obj
 0001:00039450       ?capacity@?$Array@MVNonTrackingAllocator@ps@cloth@nv@@@ps@cloth@nv@@QEBAIXZ 000000018003a450 f i DxClothClone.obj
 0001:00039470       ?capacity@?$Array@VPxVec3@physx@@VNonTrackingAllocator@ps@cloth@nv@@@ps@cloth@nv@@QEBAIXZ 000000018003a470 f i DxClothClone.obj
 0001:00039490       ?copy@?$Array@MVNonTrackingAllocator@ps@cloth@nv@@@ps@cloth@nv@@KAXPEAM0PEBM@Z 000000018003a490 f i DxClothClone.obj
 0001:00039570       ?copy@?$Array@U?$Vec4T@I@cloth@nv@@VNonTrackingAllocator@ps@23@@ps@cloth@nv@@KAXPEAU?$Vec4T@I@34@0PEBU534@@Z 000000018003a570 f i DxClothClone.obj
 0001:00039650       ?copy@?$Array@VPxVec3@physx@@VNonTrackingAllocator@ps@cloth@nv@@@ps@cloth@nv@@KAXPEAVPxVec3@physx@@0PEBV56@@Z 000000018003a650 f i DxClothClone.obj
 0001:00039720       ?create@?$Array@IVNonTrackingAllocator@ps@cloth@nv@@@ps@cloth@nv@@KAXPEAI0AEBI@Z 000000018003a720 f i DxClothClone.obj
 0001:000397d0       ?create@?$Array@MVNonTrackingAllocator@ps@cloth@nv@@@ps@cloth@nv@@KAXPEAM0AEBM@Z 000000018003a7d0 f i DxClothClone.obj
 0001:00039890       ?create@?$Array@U?$Vec4T@I@cloth@nv@@VNonTrackingAllocator@ps@23@@ps@cloth@nv@@KAXPEAU?$Vec4T@I@34@0AEBU534@@Z 000000018003a890 f i DxClothClone.obj
 0001:00039950       ?create@?$Array@VPxVec3@physx@@VNonTrackingAllocator@ps@cloth@nv@@@ps@cloth@nv@@KAXPEAVPxVec3@physx@@0AEBV56@@Z 000000018003a950 f i DxClothClone.obj
 0001:00039a00       ?create@?$Array@VPxVec4@physx@@VNonTrackingAllocator@ps@cloth@nv@@@ps@cloth@nv@@KAXPEAVPxVec4@physx@@0AEBV56@@Z 000000018003aa00 f i DxClothClone.obj
 0001:00039ab0       ?deallocate@?$Array@MVNonTrackingAllocator@ps@cloth@nv@@@ps@cloth@nv@@IEAAXPEAX@Z 000000018003aab0 f i DxClothClone.obj
 0001:00039b00       ?deallocate@?$Array@VPxVec3@physx@@VNonTrackingAllocator@ps@cloth@nv@@@ps@cloth@nv@@IEAAXPEAX@Z 000000018003ab00 f i DxClothClone.obj
 0001:00039b50       ?destroy@?$Array@MVNonTrackingAllocator@ps@cloth@nv@@@ps@cloth@nv@@KAXPEAM0@Z 000000018003ab50 f i DxClothClone.obj
 0001:00039b90       ?destroy@?$Array@VPxVec3@physx@@VNonTrackingAllocator@ps@cloth@nv@@@ps@cloth@nv@@KAXPEAVPxVec3@physx@@0@Z 000000018003ab90 f i DxClothClone.obj
 0001:00039bd0       ?empty@?$Array@IVNonTrackingAllocator@ps@cloth@nv@@@ps@cloth@nv@@QEBA_NXZ 000000018003abd0 f i DxClothClone.obj
 0001:00039c30       ?empty@?$Array@MVNonTrackingAllocator@ps@cloth@nv@@@ps@cloth@nv@@QEBA_NXZ 000000018003ac30 f i DxClothClone.obj
 0001:00039c90       ?empty@?$Array@U?$Vec4T@I@cloth@nv@@VNonTrackingAllocator@ps@23@@ps@cloth@nv@@QEBA_NXZ 000000018003ac90 f i DxClothClone.obj
 0001:00039cf0       ?empty@?$Array@VPxVec3@physx@@VNonTrackingAllocator@ps@cloth@nv@@@ps@cloth@nv@@QEBA_NXZ 000000018003acf0 f i DxClothClone.obj
 0001:00039d50       ?end@?$Array@PEAVDxFabric@cloth@nv@@VNonTrackingAllocator@ps@23@@ps@cloth@nv@@QEAAPEAPEAVDxFabric@34@XZ 000000018003ad50 f i DxClothClone.obj
 0001:00039d80       ?end@?$Array@PEAVSwFabric@cloth@nv@@VNonTrackingAllocator@ps@23@@ps@cloth@nv@@QEAAPEAPEAVSwFabric@34@XZ 000000018003ad80 f i DxClothClone.obj
 0001:00039db0       ?end@?$Range@$$BY03I@cloth@nv@@QEBAPEAY03IXZ 000000018003adb0 f i DxClothClone.obj
 0001:00039dd0       ?end@?$Range@I@cloth@nv@@QEBAPEAIXZ 000000018003add0 f i DxClothClone.obj
 0001:00039df0       ?end@?$Range@M@cloth@nv@@QEBAPEAMXZ 000000018003adf0 f i DxClothClone.obj
 0001:00039e10       ?end@?$Range@VPxVec3@physx@@@cloth@nv@@QEBAPEAVPxVec3@physx@@XZ 000000018003ae10 f i DxClothClone.obj
 0001:00039e30       ?end@?$Range@VPxVec4@physx@@@cloth@nv@@QEBAPEAVPxVec4@physx@@XZ 000000018003ae30 f i DxClothClone.obj
 0001:00039e50       ?front@?$Array@U?$Vec4T@I@cloth@nv@@VNonTrackingAllocator@ps@23@@ps@cloth@nv@@QEAAAEAU?$Vec4T@I@34@XZ 000000018003ae50 f i DxClothClone.obj
 0001:00039f00       ?front@?$Array@VPxVec3@physx@@VNonTrackingAllocator@ps@cloth@nv@@@ps@cloth@nv@@QEAAAEAVPxVec3@physx@@XZ 000000018003af00 f i DxClothClone.obj
 0001:00039fb0       ?getParticleAccelerations@cloth@nv@@YA?AU?$Range@$$CBVPxVec4@physx@@@12@AEBVSwCloth@12@@Z 000000018003afb0 f i DxClothClone.obj
 0001:0003a010       ?getPhaseConfigs@cloth@nv@@YA?AU?$Range@$$CBUPhaseConfig@cloth@nv@@@12@AEBVSwCloth@12@@Z 000000018003b010 f i DxClothClone.obj
 0001:0003a070       ?getSelfCollisionIndices@cloth@nv@@YA?AU?$Range@$$CBI@12@AEBVSwCloth@12@@Z 000000018003b070 f i DxClothClone.obj
 0001:0003a0d0       ?grow@?$Array@MVNonTrackingAllocator@ps@cloth@nv@@@ps@cloth@nv@@IEAAXI@Z 000000018003b0d0 f i DxClothClone.obj
 0001:0003a180       ?grow@?$Array@U?$Vec4T@I@cloth@nv@@VNonTrackingAllocator@ps@23@@ps@cloth@nv@@IEAAXI@Z 000000018003b180 f i DxClothClone.obj
 0001:0003a230       ?grow@?$Array@VPxVec3@physx@@VNonTrackingAllocator@ps@cloth@nv@@@ps@cloth@nv@@IEAAXI@Z 000000018003b230 f i DxClothClone.obj
 0001:0003a2e0       ?isInUserMemory@?$Array@MVNonTrackingAllocator@ps@cloth@nv@@@ps@cloth@nv@@QEBAIXZ 000000018003b2e0 f i DxClothClone.obj
 0001:0003a300       ?isInUserMemory@?$Array@VPxVec3@physx@@VNonTrackingAllocator@ps@cloth@nv@@@ps@cloth@nv@@QEBAIXZ 000000018003b300 f i DxClothClone.obj
 0001:0003a320       ?recreate@?$Array@MVNonTrackingAllocator@ps@cloth@nv@@@ps@cloth@nv@@IEAAXI@Z 000000018003b320 f i DxClothClone.obj
 0001:0003a490       ?recreate@?$Array@U?$Vec4T@I@cloth@nv@@VNonTrackingAllocator@ps@23@@ps@cloth@nv@@IEAAXI@Z 000000018003b490 f i DxClothClone.obj
 0001:0003a610       ?recreate@?$Array@VPxVec3@physx@@VNonTrackingAllocator@ps@cloth@nv@@@ps@cloth@nv@@IEAAXI@Z 000000018003b610 f i DxClothClone.obj
 0001:0003a790       ?reserve@?$Array@MVNonTrackingAllocator@ps@cloth@nv@@@ps@cloth@nv@@QEAAXI@Z 000000018003b790 f i DxClothClone.obj
 0001:0003a7f0       ?reserve@?$Array@U?$Vec4T@I@cloth@nv@@VNonTrackingAllocator@ps@23@@ps@cloth@nv@@QEAAXI@Z 000000018003b7f0 f i DxClothClone.obj
 0001:0003a850       ?reserve@?$Array@VPxVec3@physx@@VNonTrackingAllocator@ps@cloth@nv@@@ps@cloth@nv@@QEAAXI@Z 000000018003b850 f i DxClothClone.obj
 0001:0003a8b0       ?resize@?$Array@IVNonTrackingAllocator@ps@cloth@nv@@@ps@cloth@nv@@QEAAXIAEBI@Z 000000018003b8b0 f i DxClothClone.obj
 0001:0003a980       ?resize@?$Array@MVNonTrackingAllocator@ps@cloth@nv@@@ps@cloth@nv@@QEAAXIAEBM@Z 000000018003b980 f i DxClothClone.obj
 0001:0003aa50       ?resize@?$Array@U?$Vec4T@I@cloth@nv@@VNonTrackingAllocator@ps@23@@ps@cloth@nv@@QEAAXIAEBU?$Vec4T@I@34@@Z 000000018003ba50 f i DxClothClone.obj
 0001:0003ab20       ?resize@?$Array@VPxVec3@physx@@VNonTrackingAllocator@ps@cloth@nv@@@ps@cloth@nv@@QEAAXIAEBVPxVec3@physx@@@Z 000000018003bb20 f i DxClothClone.obj
 0001:0003abf0       ?resize@?$Array@VPxVec4@physx@@VNonTrackingAllocator@ps@cloth@nv@@@ps@cloth@nv@@QEAAXIAEBVPxVec4@physx@@@Z 000000018003bbf0 f i DxClothClone.obj
 0001:0003acc0       ?setPhaseConfigs@cloth@nv@@YAXAEAVSwCloth@12@U?$Range@$$CBUPhaseConfig@cloth@nv@@@12@@Z 000000018003bcc0 f i DxClothClone.obj
 0001:0003ad40       ?size@?$Array@IVNonTrackingAllocator@ps@cloth@nv@@@ps@cloth@nv@@QEBAIXZ 000000018003bd40 f i DxClothClone.obj
 0001:0003ad60       ?size@?$Array@MVNonTrackingAllocator@ps@cloth@nv@@@ps@cloth@nv@@QEBAIXZ 000000018003bd60 f i DxClothClone.obj
 0001:0003ad80       ?size@?$Array@U?$Vec4T@I@cloth@nv@@VNonTrackingAllocator@ps@23@@ps@cloth@nv@@QEBAIXZ 000000018003bd80 f i DxClothClone.obj
 0001:0003ada0       ?size@?$Array@VPxVec3@physx@@VNonTrackingAllocator@ps@cloth@nv@@@ps@cloth@nv@@QEBAIXZ 000000018003bda0 f i DxClothClone.obj
 0001:0003adc0       ??0DxTether@cloth@nv@@QEAA@GG@Z 000000018003bdc0 f   DxClothData.obj
 0001:0003ae00       ??0DxClothData@cloth@nv@@QEAA@AEAVDxCloth@12@@Z 000000018003be00 f   DxClothData.obj
 0001:0003b1e0       ??0DxFrameData@cloth@nv@@QEAA@AEAVDxCloth@12@IAEBU?$IterationState@T__m128@@@12@I@Z 000000018003c1e0 f   DxClothData.obj
 0001:0003ba70       ??0DxIterationData@cloth@nv@@QEAA@AEBU?$IterationState@T__m128@@@12@@Z 000000018003ca70 f   DxClothData.obj
 0001:0003c290       ??0Simd4fTupleFactory@cloth@nv@@QEAA@MMMM@Z 000000018003d290 f i DxClothData.obj
 0001:0003c340       ??BSimd4fOneFactory@cloth@nv@@QEBA?AT__m128@@XZ 000000018003d340 f i DxClothData.obj
 0001:0003c3a0       ??BSimd4fScalarFactory@cloth@nv@@QEBA?AT__m128@@XZ 000000018003d3a0 f i DxClothData.obj
 0001:0003c400       ??BSimd4fTupleFactory@cloth@nv@@QEBA?AT__m128@@XZ 000000018003d400 f i DxClothData.obj
 0001:0003c430       ??Dcloth@nv@@YA?AT__m128@@AEBT2@0@Z 000000018003d430 f i DxClothData.obj
 0001:0003c490       ??Gcloth@nv@@YA?AT__m128@@AEBT2@0@Z 000000018003d490 f i DxClothData.obj
 0001:0003c4f0       ??Gcloth@nv@@YA?AT__m128@@AEBT2@@Z 000000018003d4f0 f i DxClothData.obj
 0001:0003c560       ??Hcloth@nv@@YA?AT__m128@@AEBT2@0@Z 000000018003d560 f i DxClothData.obj
 0001:0003c5c0       ?array@cloth@nv@@YAAEAY02MAEAVPxVec3@physx@@@Z 000000018003d5c0 f i DxClothData.obj
 0001:0003c5d0       ?array@cloth@nv@@YAAEAY03$$CBMAEBT__m128@@@Z 000000018003d5d0 f i DxClothData.obj
 0001:0003c5e0       ?array@cloth@nv@@YAAEAY03MAEAT__m128@@@Z 000000018003d5e0 f i DxClothData.obj
 0001:0003c5f0       ?empty@?$DxBatchedVector@M@cloth@nv@@QEBA_NXZ 000000018003d5f0 f i DxClothData.obj
 0001:0003c650       ?empty@?$DxBatchedVector@VPxVec3@physx@@@cloth@nv@@QEBA_NXZ 000000018003d650 f i DxClothData.obj
 0001:0003c6b0       ?exp2@cloth@nv@@YA?AT__m128@@AEBT3@@Z 000000018003d6b0 f i DxClothData.obj
 0001:0003cd80       ?max@cloth@nv@@YA?AT__m128@@AEBT3@0@Z 000000018003dd80 f i DxClothData.obj
 0001:0003cde0       ?min@cloth@nv@@YA?AT__m128@@AEBT3@0@Z 000000018003dde0 f i DxClothData.obj
 0001:0003ce40       ?recip@cloth@nv@@YA?AT__m128@@AEBT3@@Z 000000018003de40 f i DxClothData.obj
 0001:0003ce90       ?simd4f@cloth@nv@@YA?AUSimd4fTupleFactory@12@MMMM@Z 000000018003de90 f i DxClothData.obj
 0001:0003cf10       ?size@?$DxBatchedVector@UDxTether@cloth@nv@@@cloth@nv@@QEBAIXZ 000000018003df10 f i DxClothData.obj
 0001:0003cf30       ??0DxContextLock@cloth@nv@@QEAA@AEBVDxFactory@12@@Z 000000018003df30 f   DxContextLock.obj
 0001:0003cf80       ??0DxContextLock@cloth@nv@@QEAA@PEAVDxContextManagerCallback@12@@Z 000000018003df80 f   DxContextLock.obj
 0001:0003cfd0       ??1DxContextLock@cloth@nv@@QEAA@XZ 000000018003dfd0 f   DxContextLock.obj
 0001:0003d010       ?acquire@DxContextLock@cloth@nv@@QEAAXXZ 000000018003e010 f   DxContextLock.obj
 0001:0003d050       ?release@DxContextLock@cloth@nv@@QEAAXXZ 000000018003e050 f   DxContextLock.obj
 0001:0003d0e0       ??0DxFabric@cloth@nv@@QEAA@AEAVDxFactory@12@IU?$Range@$$CBI@12@1U?$Range@$$CBM@12@21121I@Z 000000018003e0e0 f   DxFabric.obj
 0001:0003dd00       ??1DxFabric@cloth@nv@@UEAA@XZ 000000018003ed00 f   DxFabric.obj
 0001:0003dec0       ?getFactory@DxFabric@cloth@nv@@UEBAAEAVFactory@23@XZ 000000018003eec0 f   DxFabric.obj
 0001:0003dee0       ?getNumPhases@DxFabric@cloth@nv@@UEBAIXZ 000000018003eee0 f   DxFabric.obj
 0001:0003df20       ?getNumRestvalues@DxFabric@cloth@nv@@UEBAIXZ 000000018003ef20 f   DxFabric.obj
 0001:0003df60       ?getNumStiffnessValues@DxFabric@cloth@nv@@UEBAIXZ 000000018003ef60 f   DxFabric.obj
 0001:0003dfa0       ?getNumSets@DxFabric@cloth@nv@@UEBAIXZ 000000018003efa0 f   DxFabric.obj
 0001:0003dfe0       ?getNumIndices@DxFabric@cloth@nv@@UEBAIXZ 000000018003efe0 f   DxFabric.obj
 0001:0003e020       ?getNumParticles@DxFabric@cloth@nv@@UEBAIXZ 000000018003f020 f   DxFabric.obj
 0001:0003e040       ?getNumTethers@DxFabric@cloth@nv@@UEBAIXZ 000000018003f040 f   DxFabric.obj
 0001:0003e080       ?getNumTriangles@DxFabric@cloth@nv@@UEBAIXZ 000000018003f080 f   DxFabric.obj
 0001:0003e0b0       ?scaleRestvalues@DxFabric@cloth@nv@@UEAAXM@Z 000000018003f0b0 f   DxFabric.obj
 0001:0003e280       ?scaleTetherLengths@DxFabric@cloth@nv@@UEAAXM@Z 000000018003f280 f   DxFabric.obj
 0001:0003e730       ??$?4VNonTrackingAllocator@ps@cloth@nv@@@?$DxBatchedVector@UDxConstraint@cloth@nv@@@cloth@nv@@QEAAAEAV012@AEBV?$Array@UDxConstraint@cloth@nv@@VNonTrackingAllocator@ps@23@@ps@12@@Z 000000018003f730 f i DxFabric.obj
 0001:0003e7b0       ??$maxElement@I@ps@cloth@nv@@YAPEBIPEBI0@Z 000000018003f7b0 f i DxFabric.obj
 0001:0003e850       ??$maxElement@M@ps@cloth@nv@@YAPEBMPEBM0@Z 000000018003f850 f i DxFabric.obj
 0001:0003e8f0       ??$swap@V?$DxBuffer@M@cloth@nv@@@ps@cloth@nv@@YAXAEAV?$DxBuffer@M@12@0@Z 000000018003f8f0 f i DxFabric.obj
 0001:0003e9a0       ??$swap@V?$DxBuffer@UDxConstraint@cloth@nv@@@cloth@nv@@@ps@cloth@nv@@YAXAEAV?$DxBuffer@UDxConstraint@cloth@nv@@@12@0@Z 000000018003f9a0 f i DxFabric.obj
 0001:0003ea50       ??$swap@V?$DxBuffer@UDxTether@cloth@nv@@@cloth@nv@@@ps@cloth@nv@@YAXAEAV?$DxBuffer@UDxTether@cloth@nv@@@12@0@Z 000000018003fa50 f i DxFabric.obj
 0001:0003eb00       ??0?$Array@IVNonTrackingAllocator@ps@cloth@nv@@@ps@cloth@nv@@QEAA@PEBI0AEBVNonTrackingAllocator@123@@Z 000000018003fb00 f i DxFabric.obj
 0001:0003ec00       ??0?$Array@UDxConstraint@cloth@nv@@VNonTrackingAllocator@ps@23@@ps@cloth@nv@@QEAA@AEBVNonTrackingAllocator@123@@Z 000000018003fc00 f i DxFabric.obj
 0001:0003ec50       ??0?$Array@UDxConstraint@cloth@nv@@VNonTrackingAllocator@ps@23@@ps@cloth@nv@@QEAA@IAEBUDxConstraint@23@AEBVNonTrackingAllocator@123@@Z 000000018003fc50 f i DxFabric.obj
 0001:0003ece0       ??0?$Array@UDxTether@cloth@nv@@VNonTrackingAllocator@ps@23@@ps@cloth@nv@@QEAA@AEBVNonTrackingAllocator@123@@Z 000000018003fce0 f i DxFabric.obj
 0001:0003ed30       ??0?$DxBatchedVector@M@cloth@nv@@QEAA@AEAV?$DxBatchedStorage@M@12@@Z 000000018003fd30 f i DxFabric.obj
 0001:0003edb0       ??0?$DxBatchedVector@UDxConstraint@cloth@nv@@@cloth@nv@@QEAA@AEAV?$DxBatchedStorage@UDxConstraint@cloth@nv@@@12@@Z 000000018003fdb0 f i DxFabric.obj
 0001:0003ee30       ??0?$DxBatchedVector@UDxTether@cloth@nv@@@cloth@nv@@QEAA@AEAV?$DxBatchedStorage@UDxTether@cloth@nv@@@12@@Z 000000018003fe30 f i DxFabric.obj
 0001:0003eeb0       ??0?$DxBuffer@M@cloth@nv@@QEAA@AEBV012@@Z 000000018003feb0 f i DxFabric.obj
 0001:0003ef80       ??0?$DxBuffer@M@cloth@nv@@QEAA@PEAVDxContextManagerCallback@12@AEBUDxBufferFlags@12@@Z 000000018003ff80 f i DxFabric.obj
 0001:0003f020       ??0?$DxBuffer@UDxConstraint@cloth@nv@@@cloth@nv@@QEAA@AEBV012@@Z 0000000180040020 f i DxFabric.obj
 0001:0003f0f0       ??0?$DxBuffer@UDxConstraint@cloth@nv@@@cloth@nv@@QEAA@PEAVDxContextManagerCallback@12@AEBUDxBufferFlags@12@@Z 00000001800400f0 f i DxFabric.obj
 0001:0003f190       ??0?$DxBuffer@UDxTether@cloth@nv@@@cloth@nv@@QEAA@AEBV012@@Z 0000000180040190 f i DxFabric.obj
 0001:0003f260       ??0?$DxBuffer@UDxTether@cloth@nv@@@cloth@nv@@QEAA@PEAVDxContextManagerCallback@12@AEBUDxBufferFlags@12@@Z 0000000180040260 f i DxFabric.obj
 0001:0003f300       ??0Fabric@cloth@nv@@IEAA@XZ 0000000180040300 f i DxFabric.obj
 0001:0003f340       ??1?$Array@UDxConstraint@cloth@nv@@VNonTrackingAllocator@ps@23@@ps@cloth@nv@@QEAA@XZ 0000000180040340 f i DxFabric.obj
 0001:0003f3e0       ??1?$Array@UDxTether@cloth@nv@@VNonTrackingAllocator@ps@23@@ps@cloth@nv@@QEAA@XZ 00000001800403e0 f i DxFabric.obj
 0001:0003f480       ??1?$DxBatchedVector@M@cloth@nv@@QEAA@XZ 0000000180040480 f i DxFabric.obj
 0001:0003f4d0       ??1?$DxBatchedVector@UDxConstraint@cloth@nv@@@cloth@nv@@QEAA@XZ 00000001800404d0 f i DxFabric.obj
 0001:0003f520       ??1?$DxBatchedVector@UDxTether@cloth@nv@@@cloth@nv@@QEAA@XZ 0000000180040520 f i DxFabric.obj
 0001:0003f570       ??1?$DxBuffer@M@cloth@nv@@QEAA@XZ 0000000180040570 f i DxFabric.obj
 0001:0003f660       ??1?$DxBuffer@UDxConstraint@cloth@nv@@@cloth@nv@@QEAA@XZ 0000000180040660 f i DxFabric.obj
 0001:0003f750       ??1?$DxBuffer@UDxTether@cloth@nv@@@cloth@nv@@QEAA@XZ 0000000180040750 f i DxFabric.obj
 0001:0003f840       ??1Fabric@cloth@nv@@MEAA@XZ 0000000180040840 f i DxFabric.obj
 0001:0003f8f0       ??4?$DxBuffer@M@cloth@nv@@QEAAAEAV012@AEBV012@@Z 00000001800408f0 f i DxFabric.obj
 0001:0003fac0       ??4?$DxBuffer@UDxConstraint@cloth@nv@@@cloth@nv@@QEAAAEAV012@AEBV012@@Z 0000000180040ac0 f i DxFabric.obj
 0001:0003fc90       ??4?$DxBuffer@UDxTether@cloth@nv@@@cloth@nv@@QEAAAEAV012@AEBV012@@Z 0000000180040c90 f i DxFabric.obj
 0001:0003fe60       ??_GDxFabric@cloth@nv@@UEAAPEAXI@Z 0000000180040e60 f i DxFabric.obj
 0001:0003fe60       ??_EDxFabric@cloth@nv@@UEAAPEAXI@Z 0000000180040e60 f i DxFabric.obj
 0001:0003fef0       ??_EFabric@cloth@nv@@MEAAPEAXI@Z 0000000180040ef0 f i DxFabric.obj
 0001:0003fef0       ??_GFabric@cloth@nv@@MEAAPEAXI@Z 0000000180040ef0 f i DxFabric.obj
 0001:0003ff80       ?add@?$DxBatchedStorage@M@cloth@nv@@AEAAXPEAV?$DxBatchedVector@M@23@@Z 0000000180040f80 f i DxFabric.obj
 0001:0003fff0       ?add@?$DxBatchedStorage@UDxConstraint@cloth@nv@@@cloth@nv@@AEAAXPEAV?$DxBatchedVector@UDxConstraint@cloth@nv@@@23@@Z 0000000180040ff0 f i DxFabric.obj
 0001:00040060       ?add@?$DxBatchedStorage@UDxTether@cloth@nv@@@cloth@nv@@AEAAXPEAV?$DxBatchedVector@UDxTether@cloth@nv@@@23@@Z 0000000180041060 f i DxFabric.obj
 0001:000400d0       ?allocate@?$Array@PEAV?$DxBatchedVector@M@cloth@nv@@VNonTrackingAllocator@ps@23@@ps@cloth@nv@@IEAAPEAPEAV?$DxBatchedVector@M@34@I@Z 00000001800410d0 f i DxFabric.obj
 0001:000401a0       ?allocate@?$Array@PEAV?$DxBatchedVector@UDxConstraint@cloth@nv@@@cloth@nv@@VNonTrackingAllocator@ps@23@@ps@cloth@nv@@IEAAPEAPEAV?$DxBatchedVector@UDxConstraint@cloth@nv@@@34@I@Z 00000001800411a0 f i DxFabric.obj
 0001:00040270       ?allocate@?$Array@PEAV?$DxBatchedVector@UDxTether@cloth@nv@@@cloth@nv@@VNonTrackingAllocator@ps@23@@ps@cloth@nv@@IEAAPEAPEAV?$DxBatchedVector@UDxTether@cloth@nv@@@34@I@Z 0000000180041270 f i DxFabric.obj
 0001:00040340       ?allocate@?$Array@PEAVDxFabric@cloth@nv@@VNonTrackingAllocator@ps@23@@ps@cloth@nv@@IEAAPEAPEAVDxFabric@34@I@Z 0000000180041340 f i DxFabric.obj
 0001:00040410       ?allocate@?$Array@UDxConstraint@cloth@nv@@VNonTrackingAllocator@ps@23@@ps@cloth@nv@@IEAAPEAUDxConstraint@34@I@Z 0000000180041410 f i DxFabric.obj
 0001:000404e0       ?allocate@?$Array@UDxTether@cloth@nv@@VNonTrackingAllocator@ps@23@@ps@cloth@nv@@IEAAPEAUDxTether@34@I@Z 00000001800414e0 f i DxFabric.obj
 0001:000405b0       ?assign@?$DxBatchedStorage@M@cloth@nv@@AEAAXPEAV?$DxBatchedVector@M@23@PEBMI@Z 00000001800415b0 f i DxFabric.obj
 0001:000406c0       ?assign@?$DxBatchedStorage@UDxConstraint@cloth@nv@@@cloth@nv@@AEAAXPEAV?$DxBatchedVector@UDxConstraint@cloth@nv@@@23@PEBUDxConstraint@23@I@Z 00000001800416c0 f i DxFabric.obj
 0001:000407d0       ?assign@?$DxBatchedStorage@UDxTether@cloth@nv@@@cloth@nv@@AEAAXPEAV?$DxBatchedVector@UDxTether@cloth@nv@@@23@PEBUDxTether@23@I@Z 00000001800417d0 f i DxFabric.obj
 0001:000408e0       ?assign@?$DxBatchedVector@M@cloth@nv@@QEAAXPEBM0@Z 00000001800418e0 f i DxFabric.obj
 0001:00040960       ?assign@?$DxBatchedVector@UDxConstraint@cloth@nv@@@cloth@nv@@QEAAXPEBUDxConstraint@23@0@Z 0000000180041960 f i DxFabric.obj
 0001:000409e0       ?assign@?$DxBatchedVector@UDxTether@cloth@nv@@@cloth@nv@@QEAAXPEBUDxTether@23@0@Z 00000001800419e0 f i DxFabric.obj
 0001:00040a60       ?back@?$Range@$$CBI@cloth@nv@@QEBAAEBIXZ 0000000180041a60 f i DxFabric.obj
 0001:00040b20       ?begin@?$Array@PEAV?$DxBatchedVector@M@cloth@nv@@VNonTrackingAllocator@ps@23@@ps@cloth@nv@@QEAAPEAPEAV?$DxBatchedVector@M@34@XZ 0000000180041b20 f i DxFabric.obj
 0001:00040b40       ?begin@?$Array@PEAV?$DxBatchedVector@UDxConstraint@cloth@nv@@@cloth@nv@@VNonTrackingAllocator@ps@23@@ps@cloth@nv@@QEAAPEAPEAV?$DxBatchedVector@UDxConstraint@cloth@nv@@@34@XZ 0000000180041b40 f i DxFabric.obj
 0001:00040b60       ?begin@?$Array@PEAV?$DxBatchedVector@UDxTether@cloth@nv@@@cloth@nv@@VNonTrackingAllocator@ps@23@@ps@cloth@nv@@QEAAPEAPEAV?$DxBatchedVector@UDxTether@cloth@nv@@@34@XZ 0000000180041b60 f i DxFabric.obj
 0001:00040b80       ?begin@?$Array@UDxConstraint@cloth@nv@@VNonTrackingAllocator@ps@23@@ps@cloth@nv@@QEAAPEAUDxConstraint@34@XZ 0000000180041b80 f i DxFabric.obj
 0001:00040ba0       ?begin@?$Array@UDxConstraint@cloth@nv@@VNonTrackingAllocator@ps@23@@ps@cloth@nv@@QEBAPEBUDxConstraint@34@XZ 0000000180041ba0 f i DxFabric.obj
 0001:00040bc0       ?begin@?$Array@UDxTether@cloth@nv@@VNonTrackingAllocator@ps@23@@ps@cloth@nv@@QEAAPEAUDxTether@34@XZ 0000000180041bc0 f i DxFabric.obj
 0001:00040be0       ?begin@?$Range@$$CBM@cloth@nv@@QEBAPEBMXZ 0000000180041be0 f i DxFabric.obj
 0001:00040c00       ?buffer@?$DxBatchedVector@UDxConstraint@cloth@nv@@@cloth@nv@@QEBAPEAUID3D11Buffer@@XZ 0000000180041c00 f i DxFabric.obj
 0001:00040c20       ?capacity@?$Array@PEAV?$DxBatchedVector@M@cloth@nv@@VNonTrackingAllocator@ps@23@@ps@cloth@nv@@QEBAIXZ 0000000180041c20 f i DxFabric.obj
 0001:00040c40       ?capacity@?$Array@PEAV?$DxBatchedVector@UDxConstraint@cloth@nv@@@cloth@nv@@VNonTrackingAllocator@ps@23@@ps@cloth@nv@@QEBAIXZ 0000000180041c40 f i DxFabric.obj
 0001:00040c60       ?capacity@?$Array@PEAV?$DxBatchedVector@UDxTether@cloth@nv@@@cloth@nv@@VNonTrackingAllocator@ps@23@@ps@cloth@nv@@QEBAIXZ 0000000180041c60 f i DxFabric.obj
 0001:00040c80       ?capacity@?$Array@PEAVDxFabric@cloth@nv@@VNonTrackingAllocator@ps@23@@ps@cloth@nv@@QEBAIXZ 0000000180041c80 f i DxFabric.obj
 0001:00040ca0       ?capacity@?$Array@UDxConstraint@cloth@nv@@VNonTrackingAllocator@ps@23@@ps@cloth@nv@@QEBAIXZ 0000000180041ca0 f i DxFabric.obj
 0001:00040cc0       ?capacity@?$Array@UDxTether@cloth@nv@@VNonTrackingAllocator@ps@23@@ps@cloth@nv@@QEBAIXZ 0000000180041cc0 f i DxFabric.obj
 0001:00040ce0       ?capacityIncrement@?$Array@IVNonTrackingAllocator@ps@cloth@nv@@@ps@cloth@nv@@IEBAIXZ 0000000180041ce0 f i DxFabric.obj
 0001:00040d50       ?capacityIncrement@?$Array@PEAV?$DxBatchedVector@M@cloth@nv@@VNonTrackingAllocator@ps@23@@ps@cloth@nv@@IEBAIXZ 0000000180041d50 f i DxFabric.obj
 0001:00040dc0       ?capacityIncrement@?$Array@PEAV?$DxBatchedVector@UDxConstraint@cloth@nv@@@cloth@nv@@VNonTrackingAllocator@ps@23@@ps@cloth@nv@@IEBAIXZ 0000000180041dc0 f i DxFabric.obj
 0001:00040e30       ?capacityIncrement@?$Array@PEAV?$DxBatchedVector@UDxTether@cloth@nv@@@cloth@nv@@VNonTrackingAllocator@ps@23@@ps@cloth@nv@@IEBAIXZ 0000000180041e30 f i DxFabric.obj
 0001:00040ea0       ?capacityIncrement@?$Array@PEAVDxFabric@cloth@nv@@VNonTrackingAllocator@ps@23@@ps@cloth@nv@@IEBAIXZ 0000000180041ea0 f i DxFabric.obj
 0001:00040f10       ?capacityIncrement@?$Array@UDxTether@cloth@nv@@VNonTrackingAllocator@ps@23@@ps@cloth@nv@@IEBAIXZ 0000000180041f10 f i DxFabric.obj
 0001:00040f80       ?context@?$DxBuffer@M@cloth@nv@@QEBAPEAUID3D11DeviceContext@@XZ 0000000180041f80 f i DxFabric.obj
 0001:00040fd0       ?context@?$DxBuffer@UDxConstraint@cloth@nv@@@cloth@nv@@QEBAPEAUID3D11DeviceContext@@XZ 0000000180041fd0 f i DxFabric.obj
 0001:00041020       ?context@?$DxBuffer@UDxTether@cloth@nv@@@cloth@nv@@QEBAPEAUID3D11DeviceContext@@XZ 0000000180042020 f i DxFabric.obj
 0001:00041070       ?copy@?$Array@PEAV?$DxBatchedVector@M@cloth@nv@@VNonTrackingAllocator@ps@23@@ps@cloth@nv@@KAXPEAPEAV?$DxBatchedVector@M@34@0PEBQEAV534@@Z 0000000180042070 f i DxFabric.obj
 0001:00041150       ?copy@?$Array@PEAV?$DxBatchedVector@UDxConstraint@cloth@nv@@@cloth@nv@@VNonTrackingAllocator@ps@23@@ps@cloth@nv@@KAXPEAPEAV?$DxBatchedVector@UDxConstraint@cloth@nv@@@34@0PEBQEAV534@@Z 0000000180042150 f i DxFabric.obj
 0001:00041230       ?copy@?$Array@PEAV?$DxBatchedVector@UDxTether@cloth@nv@@@cloth@nv@@VNonTrackingAllocator@ps@23@@ps@cloth@nv@@KAXPEAPEAV?$DxBatchedVector@UDxTether@cloth@nv@@@34@0PEBQEAV534@@Z 0000000180042230 f i DxFabric.obj
 0001:00041310       ?copy@?$Array@PEAVDxFabric@cloth@nv@@VNonTrackingAllocator@ps@23@@ps@cloth@nv@@KAXPEAPEAVDxFabric@34@0PEBQEAV534@@Z 0000000180042310 f i DxFabric.obj
 0001:000413f0       ?copy@?$Array@UDxConstraint@cloth@nv@@VNonTrackingAllocator@ps@23@@ps@cloth@nv@@KAXPEAUDxConstraint@34@0PEBU534@@Z 00000001800423f0 f i DxFabric.obj
 0001:000414d0       ?copy@?$Array@UDxTether@cloth@nv@@VNonTrackingAllocator@ps@23@@ps@cloth@nv@@KAXPEAUDxTether@34@0PEBU534@@Z 00000001800424d0 f i DxFabric.obj
 0001:000415a0       ?create@?$Array@UDxConstraint@cloth@nv@@VNonTrackingAllocator@ps@23@@ps@cloth@nv@@KAXPEAUDxConstraint@34@0AEBU534@@Z 00000001800425a0 f i DxFabric.obj
 0001:00041650       ?create@?$DxBuffer@M@cloth@nv@@AEAAXIPEAUD3D11_SUBRESOURCE_DATA@@@Z 0000000180042650 f i DxFabric.obj
 0001:000418d0       ?create@?$DxBuffer@UDxConstraint@cloth@nv@@@cloth@nv@@AEAAXIPEAUD3D11_SUBRESOURCE_DATA@@@Z 00000001800428d0 f i DxFabric.obj
 0001:00041b50       ?create@?$DxBuffer@UDxTether@cloth@nv@@@cloth@nv@@AEAAXIPEAUD3D11_SUBRESOURCE_DATA@@@Z 0000000180042b50 f i DxFabric.obj
 0001:00041dd0       ?deallocate@?$Array@PEAV?$DxBatchedVector@M@cloth@nv@@VNonTrackingAllocator@ps@23@@ps@cloth@nv@@IEAAXPEAX@Z 0000000180042dd0 f i DxFabric.obj
 0001:00041e20       ?deallocate@?$Array@PEAV?$DxBatchedVector@UDxConstraint@cloth@nv@@@cloth@nv@@VNonTrackingAllocator@ps@23@@ps@cloth@nv@@IEAAXPEAX@Z 0000000180042e20 f i DxFabric.obj
 0001:00041e70       ?deallocate@?$Array@PEAV?$DxBatchedVector@UDxTether@cloth@nv@@@cloth@nv@@VNonTrackingAllocator@ps@23@@ps@cloth@nv@@IEAAXPEAX@Z 0000000180042e70 f i DxFabric.obj
 0001:00041ec0       ?deallocate@?$Array@PEAVDxFabric@cloth@nv@@VNonTrackingAllocator@ps@23@@ps@cloth@nv@@IEAAXPEAX@Z 0000000180042ec0 f i DxFabric.obj
 0001:00041f10       ?deallocate@?$Array@UDxConstraint@cloth@nv@@VNonTrackingAllocator@ps@23@@ps@cloth@nv@@IEAAXPEAX@Z 0000000180042f10 f i DxFabric.obj
 0001:00041f60       ?deallocate@?$Array@UDxTether@cloth@nv@@VNonTrackingAllocator@ps@23@@ps@cloth@nv@@IEAAXPEAX@Z 0000000180042f60 f i DxFabric.obj
 0001:00041fb0       ?destroy@?$Array@PEAV?$DxBatchedVector@M@cloth@nv@@VNonTrackingAllocator@ps@23@@ps@cloth@nv@@KAXPEAPEAV?$DxBatchedVector@M@34@0@Z 0000000180042fb0 f i DxFabric.obj
 0001:00041ff0       ?destroy@?$Array@PEAV?$DxBatchedVector@UDxConstraint@cloth@nv@@@cloth@nv@@VNonTrackingAllocator@ps@23@@ps@cloth@nv@@KAXPEAPEAV?$DxBatchedVector@UDxConstraint@cloth@nv@@@34@0@Z 0000000180042ff0 f i DxFabric.obj
 0001:00042030       ?destroy@?$Array@PEAV?$DxBatchedVector@UDxTether@cloth@nv@@@cloth@nv@@VNonTrackingAllocator@ps@23@@ps@cloth@nv@@KAXPEAPEAV?$DxBatchedVector@UDxTether@cloth@nv@@@34@0@Z 0000000180043030 f i DxFabric.obj
 0001:00042070       ?destroy@?$Array@PEAVDxFabric@cloth@nv@@VNonTrackingAllocator@ps@23@@ps@cloth@nv@@KAXPEAPEAVDxFabric@34@0@Z 0000000180043070 f i DxFabric.obj
 0001:000420b0       ?destroy@?$Array@UDxConstraint@cloth@nv@@VNonTrackingAllocator@ps@23@@ps@cloth@nv@@KAXPEAUDxConstraint@34@0@Z 00000001800430b0 f i DxFabric.obj
 0001:000420f0       ?destroy@?$Array@UDxTether@cloth@nv@@VNonTrackingAllocator@ps@23@@ps@cloth@nv@@KAXPEAUDxTether@34@0@Z 00000001800430f0 f i DxFabric.obj
 0001:00042130       ?empty@?$Range@$$CBI@cloth@nv@@QEBA_NXZ 0000000180043130 f i DxFabric.obj
 0001:00042190       ?empty@?$Range@$$CBM@cloth@nv@@QEBA_NXZ 0000000180043190 f i DxFabric.obj
 0001:000421f0       ?end@?$Array@UDxConstraint@cloth@nv@@VNonTrackingAllocator@ps@23@@ps@cloth@nv@@QEAAPEAUDxConstraint@34@XZ 00000001800431f0 f i DxFabric.obj
 0001:00042220       ?end@?$Array@UDxConstraint@cloth@nv@@VNonTrackingAllocator@ps@23@@ps@cloth@nv@@QEBAPEBUDxConstraint@34@XZ 0000000180043220 f i DxFabric.obj
 0001:00042250       ?end@?$Array@UDxTether@cloth@nv@@VNonTrackingAllocator@ps@23@@ps@cloth@nv@@QEAAPEAUDxTether@34@XZ 0000000180043250 f i DxFabric.obj
 0001:00042280       ?end@?$Range@$$CBM@cloth@nv@@QEBAPEBMXZ 0000000180043280 f i DxFabric.obj
 0001:000422a0       ?find@?$Array@PEAV?$DxBatchedVector@M@cloth@nv@@VNonTrackingAllocator@ps@23@@ps@cloth@nv@@QEAAPEAPEAV?$DxBatchedVector@M@34@AEBQEAV534@@Z 00000001800432a0 f i DxFabric.obj
 0001:00042330       ?find@?$Array@PEAV?$DxBatchedVector@UDxConstraint@cloth@nv@@@cloth@nv@@VNonTrackingAllocator@ps@23@@ps@cloth@nv@@QEAAPEAPEAV?$DxBatchedVector@UDxConstraint@cloth@nv@@@34@AEBQEAV534@@Z 0000000180043330 f i DxFabric.obj
 0001:000423c0       ?find@?$Array@PEAV?$DxBatchedVector@UDxTether@cloth@nv@@@cloth@nv@@VNonTrackingAllocator@ps@23@@ps@cloth@nv@@QEAAPEAPEAV?$DxBatchedVector@UDxTether@cloth@nv@@@34@AEBQEAV534@@Z 00000001800433c0 f i DxFabric.obj
 0001:00042450       ?find@?$Array@PEAVDxFabric@cloth@nv@@VNonTrackingAllocator@ps@23@@ps@cloth@nv@@QEAAPEAPEAVDxFabric@34@AEBQEAV534@@Z 0000000180043450 f i DxFabric.obj
 0001:000424e0       ?front@?$Range@$$CBI@cloth@nv@@QEBAAEBIXZ 00000001800434e0 f i DxFabric.obj
 0001:00042590       ?front@?$Range@$$CBM@cloth@nv@@QEBAAEBMXZ 0000000180043590 f i DxFabric.obj
 0001:00042640       ?grow@?$Array@UDxConstraint@cloth@nv@@VNonTrackingAllocator@ps@23@@ps@cloth@nv@@IEAAXI@Z 0000000180043640 f i DxFabric.obj
 0001:000426f0       ?grow@?$Array@UDxTether@cloth@nv@@VNonTrackingAllocator@ps@23@@ps@cloth@nv@@IEAAXI@Z 00000001800436f0 f i DxFabric.obj
 0001:000427a0       ?growAndPushBack@?$Array@IVNonTrackingAllocator@ps@cloth@nv@@@ps@cloth@nv@@IEAAAEAIAEBI@Z 00000001800437a0 f i DxFabric.obj
 0001:000429c0       ?growAndPushBack@?$Array@PEAV?$DxBatchedVector@M@cloth@nv@@VNonTrackingAllocator@ps@23@@ps@cloth@nv@@IEAAAEAPEAV?$DxBatchedVector@M@34@AEBQEAV534@@Z 00000001800439c0 f i DxFabric.obj
 0001:00042be0       ?growAndPushBack@?$Array@PEAV?$DxBatchedVector@UDxConstraint@cloth@nv@@@cloth@nv@@VNonTrackingAllocator@ps@23@@ps@cloth@nv@@IEAAAEAPEAV?$DxBatchedVector@UDxConstraint@cloth@nv@@@34@AEBQEAV534@@Z 0000000180043be0 f i DxFabric.obj
 0001:00042e00       ?growAndPushBack@?$Array@PEAV?$DxBatchedVector@UDxTether@cloth@nv@@@cloth@nv@@VNonTrackingAllocator@ps@23@@ps@cloth@nv@@IEAAAEAPEAV?$DxBatchedVector@UDxTether@cloth@nv@@@34@AEBQEAV534@@Z 0000000180043e00 f i DxFabric.obj
 0001:00043020       ?growAndPushBack@?$Array@PEAVDxFabric@cloth@nv@@VNonTrackingAllocator@ps@23@@ps@cloth@nv@@IEAAAEAPEAVDxFabric@34@AEBQEAV534@@Z 0000000180044020 f i DxFabric.obj
 0001:00043240       ?growAndPushBack@?$Array@UDxTether@cloth@nv@@VNonTrackingAllocator@ps@23@@ps@cloth@nv@@IEAAAEAUDxTether@34@AEBU534@@Z 0000000180044240 f i DxFabric.obj
 0001:00043460       ?isInUserMemory@?$Array@PEAV?$DxBatchedVector@M@cloth@nv@@VNonTrackingAllocator@ps@23@@ps@cloth@nv@@QEBAIXZ 0000000180044460 f i DxFabric.obj
 0001:00043480       ?isInUserMemory@?$Array@PEAV?$DxBatchedVector@UDxConstraint@cloth@nv@@@cloth@nv@@VNonTrackingAllocator@ps@23@@ps@cloth@nv@@QEBAIXZ 0000000180044480 f i DxFabric.obj
 0001:000434a0       ?isInUserMemory@?$Array@PEAV?$DxBatchedVector@UDxTether@cloth@nv@@@cloth@nv@@VNonTrackingAllocator@ps@23@@ps@cloth@nv@@QEBAIXZ 00000001800444a0 f i DxFabric.obj
 0001:000434c0       ?isInUserMemory@?$Array@PEAVDxFabric@cloth@nv@@VNonTrackingAllocator@ps@23@@ps@cloth@nv@@QEBAIXZ 00000001800444c0 f i DxFabric.obj
 0001:000434e0       ?isInUserMemory@?$Array@UDxConstraint@cloth@nv@@VNonTrackingAllocator@ps@23@@ps@cloth@nv@@QEBAIXZ 00000001800444e0 f i DxFabric.obj
 0001:00043500       ?isInUserMemory@?$Array@UDxTether@cloth@nv@@VNonTrackingAllocator@ps@23@@ps@cloth@nv@@QEBAIXZ 0000000180044500 f i DxFabric.obj
 0001:00043520       ?map@?$DxBatchedStorage@M@cloth@nv@@AEAAPEAMW4D3D11_MAP@@@Z 0000000180044520 f i DxFabric.obj
 0001:000435b0       ?map@?$DxBatchedStorage@UDxConstraint@cloth@nv@@@cloth@nv@@AEAAPEAUDxConstraint@23@W4D3D11_MAP@@@Z 00000001800445b0 f i DxFabric.obj
 0001:00043640       ?map@?$DxBatchedStorage@UDxTether@cloth@nv@@@cloth@nv@@AEAAPEAUDxTether@23@W4D3D11_MAP@@@Z 0000000180044640 f i DxFabric.obj
 0001:000436d0       ?map@?$DxBuffer@M@cloth@nv@@QEAAPEAMW4D3D11_MAP@@@Z 00000001800446d0 f i DxFabric.obj
 0001:00043790       ?map@?$DxBuffer@UDxConstraint@cloth@nv@@@cloth@nv@@QEAAPEAUDxConstraint@23@W4D3D11_MAP@@@Z 0000000180044790 f i DxFabric.obj
 0001:00043850       ?map@?$DxBuffer@UDxTether@cloth@nv@@@cloth@nv@@QEAAPEAUDxTether@23@W4D3D11_MAP@@@Z 0000000180044850 f i DxFabric.obj
 0001:00043910       ?popFront@?$Range@$$CBI@cloth@nv@@QEAAXXZ 0000000180044910 f i DxFabric.obj
 0001:000439d0       ?popFront@?$Range@$$CBM@cloth@nv@@QEAAXXZ 00000001800449d0 f i DxFabric.obj
 0001:00043a90       ?pushBack@?$Array@IVNonTrackingAllocator@ps@cloth@nv@@@ps@cloth@nv@@QEAAAEAIAEBI@Z 0000000180044a90 f i DxFabric.obj
 0001:00043ba0       ?pushBack@?$Array@PEAV?$DxBatchedVector@M@cloth@nv@@VNonTrackingAllocator@ps@23@@ps@cloth@nv@@QEAAAEAPEAV?$DxBatchedVector@M@34@AEBQEAV534@@Z 0000000180044ba0 f i DxFabric.obj
 0001:00043cb0       ?pushBack@?$Array@PEAV?$DxBatchedVector@UDxConstraint@cloth@nv@@@cloth@nv@@VNonTrackingAllocator@ps@23@@ps@cloth@nv@@QEAAAEAPEAV?$DxBatchedVector@UDxConstraint@cloth@nv@@@34@AEBQEAV534@@Z 0000000180044cb0 f i DxFabric.obj
 0001:00043dc0       ?pushBack@?$Array@PEAV?$DxBatchedVector@UDxTether@cloth@nv@@@cloth@nv@@VNonTrackingAllocator@ps@23@@ps@cloth@nv@@QEAAAEAPEAV?$DxBatchedVector@UDxTether@cloth@nv@@@34@AEBQEAV534@@Z 0000000180044dc0 f i DxFabric.obj
 0001:00043ed0       ?pushBack@?$Array@PEAVDxFabric@cloth@nv@@VNonTrackingAllocator@ps@23@@ps@cloth@nv@@QEAAAEAPEAVDxFabric@34@AEBQEAV534@@Z 0000000180044ed0 f i DxFabric.obj
 0001:00043fe0       ?pushBack@?$Array@UDxTether@cloth@nv@@VNonTrackingAllocator@ps@23@@ps@cloth@nv@@QEAAAEAUDxTether@34@AEBU534@@Z 0000000180044fe0 f i DxFabric.obj
 0001:000440f0       ?recreate@?$Array@UDxConstraint@cloth@nv@@VNonTrackingAllocator@ps@23@@ps@cloth@nv@@IEAAXI@Z 00000001800450f0 f i DxFabric.obj
 0001:00044260       ?recreate@?$Array@UDxTether@cloth@nv@@VNonTrackingAllocator@ps@23@@ps@cloth@nv@@IEAAXI@Z 0000000180045260 f i DxFabric.obj
 0001:000443d0       ?remove@?$Array@PEAV?$DxBatchedVector@M@cloth@nv@@VNonTrackingAllocator@ps@23@@ps@cloth@nv@@QEAAXI@Z 00000001800453d0 f i DxFabric.obj
 0001:00044530       ?remove@?$Array@PEAV?$DxBatchedVector@UDxConstraint@cloth@nv@@@cloth@nv@@VNonTrackingAllocator@ps@23@@ps@cloth@nv@@QEAAXI@Z 0000000180045530 f i DxFabric.obj
 0001:00044690       ?remove@?$Array@PEAV?$DxBatchedVector@UDxTether@cloth@nv@@@cloth@nv@@VNonTrackingAllocator@ps@23@@ps@cloth@nv@@QEAAXI@Z 0000000180045690 f i DxFabric.obj
 0001:000447f0       ?remove@?$DxBatchedStorage@M@cloth@nv@@AEAAXPEAV?$DxBatchedVector@M@23@@Z 00000001800457f0 f i DxFabric.obj
 0001:000448f0       ?remove@?$DxBatchedStorage@UDxConstraint@cloth@nv@@@cloth@nv@@AEAAXPEAV?$DxBatchedVector@UDxConstraint@cloth@nv@@@23@@Z 00000001800458f0 f i DxFabric.obj
 0001:000449f0       ?remove@?$DxBatchedStorage@UDxTether@cloth@nv@@@cloth@nv@@AEAAXPEAV?$DxBatchedVector@UDxTether@cloth@nv@@@23@@Z 00000001800459f0 f i DxFabric.obj
 0001:00044af0       ?replace@?$DxBatchedStorage@M@cloth@nv@@AEAAXIIPEBM0@Z 0000000180045af0 f i DxFabric.obj
 0001:00045180       ?replace@?$DxBatchedStorage@UDxConstraint@cloth@nv@@@cloth@nv@@AEAAXIIPEBUDxConstraint@23@0@Z 0000000180046180 f i DxFabric.obj
 0001:00045810       ?replace@?$DxBatchedStorage@UDxTether@cloth@nv@@@cloth@nv@@AEAAXIIPEBUDxTether@23@0@Z 0000000180046810 f i DxFabric.obj
 0001:00045ea0       ?replaceWithLast@?$Array@PEAVDxFabric@cloth@nv@@VNonTrackingAllocator@ps@23@@ps@cloth@nv@@QEAAXI@Z 0000000180046ea0 f i DxFabric.obj
 0001:00045f90       ?replaceWithLast@?$Array@PEAVDxFabric@cloth@nv@@VNonTrackingAllocator@ps@23@@ps@cloth@nv@@QEAAXPEAPEAVDxFabric@34@@Z 0000000180046f90 f i DxFabric.obj
 0001:00045ff0       ?reserve@?$Array@UDxConstraint@cloth@nv@@VNonTrackingAllocator@ps@23@@ps@cloth@nv@@QEAAXI@Z 0000000180046ff0 f i DxFabric.obj
 0001:00046050       ?reserve@?$Array@UDxTether@cloth@nv@@VNonTrackingAllocator@ps@23@@ps@cloth@nv@@QEAAXI@Z 0000000180047050 f i DxFabric.obj
 0001:000460b0       ?reserve@?$DxBuffer@M@cloth@nv@@QEAAXI@Z 00000001800470b0 f i DxFabric.obj
 0001:00046250       ?reserve@?$DxBuffer@UDxConstraint@cloth@nv@@@cloth@nv@@QEAAXI@Z 0000000180047250 f i DxFabric.obj
 0001:000463f0       ?reserve@?$DxBuffer@UDxTether@cloth@nv@@@cloth@nv@@QEAAXI@Z 00000001800473f0 f i DxFabric.obj
 0001:00046590       ?resize@?$Array@UDxConstraint@cloth@nv@@VNonTrackingAllocator@ps@23@@ps@cloth@nv@@QEAAXIAEBUDxConstraint@34@@Z 0000000180047590 f i DxFabric.obj
 0001:00046660       ?resizeUninitialized@?$Array@UDxConstraint@cloth@nv@@VNonTrackingAllocator@ps@23@@ps@cloth@nv@@QEAAXI@Z 0000000180047660 f i DxFabric.obj
 0001:000466c0       ?size@?$Array@PEAV?$DxBatchedVector@M@cloth@nv@@VNonTrackingAllocator@ps@23@@ps@cloth@nv@@QEBAIXZ 00000001800476c0 f i DxFabric.obj
 0001:000466e0       ?size@?$Array@PEAV?$DxBatchedVector@UDxConstraint@cloth@nv@@@cloth@nv@@VNonTrackingAllocator@ps@23@@ps@cloth@nv@@QEBAIXZ 00000001800476e0 f i DxFabric.obj
 0001:00046700       ?size@?$Array@PEAV?$DxBatchedVector@UDxTether@cloth@nv@@@cloth@nv@@VNonTrackingAllocator@ps@23@@ps@cloth@nv@@QEBAIXZ 0000000180047700 f i DxFabric.obj
 0001:00046720       ?size@?$Array@UDxConstraint@cloth@nv@@VNonTrackingAllocator@ps@23@@ps@cloth@nv@@QEBAIXZ 0000000180047720 f i DxFabric.obj
 0001:00046740       ?size@?$DxBatchedVector@M@cloth@nv@@QEBAIXZ 0000000180047740 f i DxFabric.obj
 0001:00046760       ?size@?$DxBatchedVector@UDxConstraint@cloth@nv@@@cloth@nv@@QEBAIXZ 0000000180047760 f i DxFabric.obj
 0001:00046780       ?size@?$Range@$$CBM@cloth@nv@@QEBAIXZ 0000000180047780 f i DxFabric.obj
 0001:000467b0       ?unmap@?$DxBatchedStorage@M@cloth@nv@@AEAAXXZ 00000001800477b0 f i DxFabric.obj
 0001:00046830       ?unmap@?$DxBatchedStorage@UDxConstraint@cloth@nv@@@cloth@nv@@AEAAXXZ 0000000180047830 f i DxFabric.obj
 0001:000468b0       ?unmap@?$DxBatchedStorage@UDxTether@cloth@nv@@@cloth@nv@@AEAAXXZ 00000001800478b0 f i DxFabric.obj
 0001:00046930       ?unmap@?$DxBuffer@M@cloth@nv@@QEAAXXZ 0000000180047930 f i DxFabric.obj
 0001:000469a0       ?unmap@?$DxBuffer@UDxConstraint@cloth@nv@@@cloth@nv@@QEAAXXZ 00000001800479a0 f i DxFabric.obj
 0001:00046a10       ?unmap@?$DxBuffer@UDxTether@cloth@nv@@@cloth@nv@@QEAAXXZ 0000000180047a10 f i DxFabric.obj
 0001:00046a80       ?update@?$DxBatchedStorage@M@cloth@nv@@AEAAXPEAV?$DxBatchedVector@M@23@H@Z 0000000180047a80 f i DxFabric.obj
 0001:00046bc0       ?update@?$DxBatchedStorage@UDxConstraint@cloth@nv@@@cloth@nv@@AEAAXPEAV?$DxBatchedVector@UDxConstraint@cloth@nv@@@23@H@Z 0000000180047bc0 f i DxFabric.obj
 0001:00046d00       ?update@?$DxBatchedStorage@UDxTether@cloth@nv@@@cloth@nv@@AEAAXPEAV?$DxBatchedVector@UDxTether@cloth@nv@@@23@H@Z 0000000180047d00 f i DxFabric.obj
 0001:00046e40       ?checkSuccessImpl@cloth@nv@@YAXJPEBDH@Z 0000000180047e40 f   DxFactory.obj
 0001:00046eb0       ??0DxFactory@cloth@nv@@QEAA@PEAVDxContextManagerCallback@12@@Z 0000000180047eb0 f   DxFactory.obj
 0001:00047980       ??1DxFactory@cloth@nv@@UEAA@XZ 0000000180048980 f   DxFactory.obj
 0001:00047d10       ?createFabric@DxFactory@cloth@nv@@UEAAPEAVFabric@23@IU?$Range@$$CBI@23@0U?$Range@$$CBM@23@10010@Z 0000000180048d10 f   DxFactory.obj
 0001:00047ef0       ?createCloth@DxFactory@cloth@nv@@UEAAPEAVCloth@23@U?$Range@$$CBVPxVec4@physx@@@23@AEAVFabric@23@@Z 0000000180048ef0 f   DxFactory.obj
 0001:00047fa0       ?createSolver@DxFactory@cloth@nv@@UEAAPEAVSolver@23@XZ 0000000180048fa0 f   DxFactory.obj
 0001:00048090       ?extractFabricData@DxFactory@cloth@nv@@UEBAXAEBVFabric@23@U?$Range@I@23@1U?$Range@M@23@21121@Z 0000000180049090 f   DxFactory.obj
 0001:00048c90       ?extractCollisionData@DxFactory@cloth@nv@@UEBAXAEBVCloth@23@U?$Range@VPxVec4@physx@@@23@U?$Range@I@23@12U?$Range@VPxVec3@physx@@@23@@Z 0000000180049c90 f   DxFactory.obj
 0001:00049400       ?extractMotionConstraints@DxFactory@cloth@nv@@UEBAXAEBVCloth@23@U?$Range@VPxVec4@physx@@@23@@Z 000000018004a400 f   DxFactory.obj
 0001:00049720       ?extractSeparationConstraints@DxFactory@cloth@nv@@UEBAXAEBVCloth@23@U?$Range@VPxVec4@physx@@@23@@Z 000000018004a720 f   DxFactory.obj
 0001:00049a40       ?extractParticleAccelerations@DxFactory@cloth@nv@@UEBAXAEBVCloth@23@U?$Range@VPxVec4@physx@@@23@@Z 000000018004aa40 f   DxFactory.obj
 0001:00049af0       ?extractVirtualParticles@DxFactory@cloth@nv@@UEBAXAEBVCloth@23@U?$Range@$$BY03I@23@U?$Range@VPxVec3@physx@@@23@@Z 000000018004aaf0 f   DxFactory.obj
 0001:0004a130       ?extractSelfCollisionIndices@DxFactory@cloth@nv@@UEBAXAEBVCloth@23@U?$Range@I@23@@Z 000000018004b130 f   DxFactory.obj
 0001:0004a240       ?extractRestPositions@DxFactory@cloth@nv@@UEBAXAEBVCloth@23@U?$Range@VPxVec4@physx@@@23@@Z 000000018004b240 f   DxFactory.obj
 0001:0004a370       ?copyToHost@DxFactory@cloth@nv@@QEBAXPEAXPEAUID3D11Buffer@@II@Z 000000018004b370 f   DxFactory.obj
 0001:0004a510       ?CompileComputeShaders@DxFactory@cloth@nv@@QEAAXXZ 000000018004b510 f   DxFactory.obj
 0001:0004a5c0       ?reserveStagingBuffer@DxFactory@cloth@nv@@QEAAXI@Z 000000018004b5c0 f   DxFactory.obj
 0001:0004a710       ?mapStagingBuffer@DxFactory@cloth@nv@@QEBAPEAXW4D3D11_MAP@@@Z 000000018004b710 f   DxFactory.obj
 0001:0004a7b0       ?unmapStagingBuffer@DxFactory@cloth@nv@@QEBAXXZ 000000018004b7b0 f   DxFactory.obj
 0001:0004b6b0       ??$?0G@?$Vec4T@I@cloth@nv@@QEAA@AEBU?$Vec4T@G@12@@Z 000000018004c6b0 f i DxFactory.obj
 0001:0004b720       ??$PX_UNUSED@PEAU?$Range@VPxVec4@physx@@@cloth@nv@@@@YAXAEBQEAU?$Range@VPxVec4@physx@@@cloth@nv@@@Z 000000018004c720 f i DxFactory.obj
 0001:0004b730       ??$PX_UNUSED@PEBVCloth@cloth@nv@@@@YAXAEBQEBVCloth@cloth@nv@@@Z 000000018004c730 f i DxFactory.obj
 0001:0004b740       ??0?$Array@PEAV?$DxBatchedVector@I@cloth@nv@@VNonTrackingAllocator@ps@23@@ps@cloth@nv@@QEAA@AEBVNonTrackingAllocator@123@@Z 000000018004c740 f i DxFactory.obj
 0001:0004b790       ??0?$Array@PEAV?$DxBatchedVector@M@cloth@nv@@VNonTrackingAllocator@ps@23@@ps@cloth@nv@@QEAA@AEBVNonTrackingAllocator@123@@Z 000000018004c790 f i DxFactory.obj
 0001:0004b7e0       ??0?$Array@PEAV?$DxBatchedVector@U?$Vec4T@G@cloth@nv@@@cloth@nv@@VNonTrackingAllocator@ps@23@@ps@cloth@nv@@QEAA@AEBVNonTrackingAllocator@123@@Z 000000018004c7e0 f i DxFactory.obj
 0001:0004b830       ??0?$Array@PEAV?$DxBatchedVector@UDxConstraint@cloth@nv@@@cloth@nv@@VNonTrackingAllocator@ps@23@@ps@cloth@nv@@QEAA@AEBVNonTrackingAllocator@123@@Z 000000018004c830 f i DxFactory.obj
 0001:0004b880       ??0?$Array@PEAV?$DxBatchedVector@UDxPhaseConfig@cloth@nv@@@cloth@nv@@VNonTrackingAllocator@ps@23@@ps@cloth@nv@@QEAA@AEBVNonTrackingAllocator@123@@Z 000000018004c880 f i DxFactory.obj
 0001:0004b8d0       ??0?$Array@PEAV?$DxBatchedVector@UDxTether@cloth@nv@@@cloth@nv@@VNonTrackingAllocator@ps@23@@ps@cloth@nv@@QEAA@AEBVNonTrackingAllocator@123@@Z 000000018004c8d0 f i DxFactory.obj
 0001:0004b920       ??0?$Array@PEAV?$DxBatchedVector@UIndexPair@cloth@nv@@@cloth@nv@@VNonTrackingAllocator@ps@23@@ps@cloth@nv@@QEAA@AEBVNonTrackingAllocator@123@@Z 000000018004c920 f i DxFactory.obj
 0001:0004b970       ??0?$Array@PEAV?$DxBatchedVector@VPxVec3@physx@@@cloth@nv@@VNonTrackingAllocator@ps@23@@ps@cloth@nv@@QEAA@AEBVNonTrackingAllocator@123@@Z 000000018004c970 f i DxFactory.obj
 0001:0004b9c0       ??0?$Array@PEAV?$DxBatchedVector@VPxVec4@physx@@@cloth@nv@@VNonTrackingAllocator@ps@23@@ps@cloth@nv@@QEAA@AEBVNonTrackingAllocator@123@@Z 000000018004c9c0 f i DxFactory.obj
 0001:0004ba10       ??0?$Array@PEAVDxFabric@cloth@nv@@VNonTrackingAllocator@ps@23@@ps@cloth@nv@@QEAA@AEBVNonTrackingAllocator@123@@Z 000000018004ca10 f i DxFactory.obj
 0001:0004ba60       ??0?$Array@U?$Vec4T@G@cloth@nv@@VNonTrackingAllocator@ps@23@@ps@cloth@nv@@QEAA@IAEBU?$Vec4T@G@23@AEBVNonTrackingAllocator@123@@Z 000000018004ca60 f i DxFactory.obj
 0001:0004baf0       ??0?$Array@UDxTether@cloth@nv@@VNonTrackingAllocator@ps@23@@ps@cloth@nv@@QEAA@IAEBUDxTether@23@AEBVNonTrackingAllocator@123@@Z 000000018004caf0 f i DxFactory.obj
 0001:0004bb80       ??0?$DxBatchedStorage@I@cloth@nv@@QEAA@PEAVDxContextManagerCallback@12@AEBUDxBufferFlags@12@@Z 000000018004cb80 f i DxFactory.obj
 0001:0004bc30       ??0?$DxBatchedStorage@M@cloth@nv@@QEAA@PEAVDxContextManagerCallback@12@AEBUDxBufferFlags@12@@Z 000000018004cc30 f i DxFactory.obj
 0001:0004bce0       ??0?$DxBatchedStorage@U?$Vec4T@G@cloth@nv@@@cloth@nv@@QEAA@PEAVDxContextManagerCallback@12@AEBUDxBufferFlags@12@@Z 000000018004cce0 f i DxFactory.obj
 0001:0004bd90       ??0?$DxBatchedStorage@UDxConstraint@cloth@nv@@@cloth@nv@@QEAA@PEAVDxContextManagerCallback@12@AEBUDxBufferFlags@12@@Z 000000018004cd90 f i DxFactory.obj
 0001:0004be40       ??0?$DxBatchedStorage@UDxPhaseConfig@cloth@nv@@@cloth@nv@@QEAA@PEAVDxContextManagerCallback@12@AEBUDxBufferFlags@12@@Z 000000018004ce40 f i DxFactory.obj
 0001:0004bef0       ??0?$DxBatchedStorage@UDxTether@cloth@nv@@@cloth@nv@@QEAA@PEAVDxContextManagerCallback@12@AEBUDxBufferFlags@12@@Z 000000018004cef0 f i DxFactory.obj
 0001:0004bfa0       ??0?$DxBatchedStorage@UIndexPair@cloth@nv@@@cloth@nv@@QEAA@PEAVDxContextManagerCallback@12@AEBUDxBufferFlags@12@@Z 000000018004cfa0 f i DxFactory.obj
 0001:0004c050       ??0?$DxBatchedStorage@VPxVec3@physx@@@cloth@nv@@QEAA@PEAVDxContextManagerCallback@12@AEBUDxBufferFlags@12@@Z 000000018004d050 f i DxFactory.obj
 0001:0004c100       ??0?$DxBatchedStorage@VPxVec4@physx@@@cloth@nv@@QEAA@PEAVDxContextManagerCallback@12@AEBUDxBufferFlags@12@@Z 000000018004d100 f i DxFactory.obj
 0001:0004c1b0       ??0?$DxVectorMap@V?$DxBatchedVector@U?$Vec4T@G@cloth@nv@@@cloth@nv@@@cloth@nv@@QEAA@AEAV?$DxBatchedVector@U?$Vec4T@G@cloth@nv@@@12@W4D3D11_MAP@@@Z 000000018004d1b0 f i DxFactory.obj
 0001:0004c240       ??0?$Vec4T@G@cloth@nv@@QEAA@XZ 000000018004d240 f i DxFactory.obj
 0001:0004c250       ??0Factory@cloth@nv@@IEAA@XZ 000000018004d250 f i DxFactory.obj
 0001:0004c280       ??1?$Array@PEAV?$DxBatchedVector@I@cloth@nv@@VNonTrackingAllocator@ps@23@@ps@cloth@nv@@QEAA@XZ 000000018004d280 f i DxFactory.obj
 0001:0004c320       ??1?$Array@PEAV?$DxBatchedVector@M@cloth@nv@@VNonTrackingAllocator@ps@23@@ps@cloth@nv@@QEAA@XZ 000000018004d320 f i DxFactory.obj
 0001:0004c3c0       ??1?$Array@PEAV?$DxBatchedVector@U?$Vec4T@G@cloth@nv@@@cloth@nv@@VNonTrackingAllocator@ps@23@@ps@cloth@nv@@QEAA@XZ 000000018004d3c0 f i DxFactory.obj
 0001:0004c460       ??1?$Array@PEAV?$DxBatchedVector@UDxConstraint@cloth@nv@@@cloth@nv@@VNonTrackingAllocator@ps@23@@ps@cloth@nv@@QEAA@XZ 000000018004d460 f i DxFactory.obj
 0001:0004c500       ??1?$Array@PEAV?$DxBatchedVector@UDxPhaseConfig@cloth@nv@@@cloth@nv@@VNonTrackingAllocator@ps@23@@ps@cloth@nv@@QEAA@XZ 000000018004d500 f i DxFactory.obj
 0001:0004c5a0       ??1?$Array@PEAV?$DxBatchedVector@UDxTether@cloth@nv@@@cloth@nv@@VNonTrackingAllocator@ps@23@@ps@cloth@nv@@QEAA@XZ 000000018004d5a0 f i DxFactory.obj
 0001:0004c640       ??1?$Array@PEAV?$DxBatchedVector@UIndexPair@cloth@nv@@@cloth@nv@@VNonTrackingAllocator@ps@23@@ps@cloth@nv@@QEAA@XZ 000000018004d640 f i DxFactory.obj
 0001:0004c6e0       ??1?$Array@PEAV?$DxBatchedVector@VPxVec3@physx@@@cloth@nv@@VNonTrackingAllocator@ps@23@@ps@cloth@nv@@QEAA@XZ 000000018004d6e0 f i DxFactory.obj
 0001:0004c780       ??1?$Array@PEAV?$DxBatchedVector@VPxVec4@physx@@@cloth@nv@@VNonTrackingAllocator@ps@23@@ps@cloth@nv@@QEAA@XZ 000000018004d780 f i DxFactory.obj
 0001:0004c820       ??1?$Array@PEAVDxFabric@cloth@nv@@VNonTrackingAllocator@ps@23@@ps@cloth@nv@@QEAA@XZ 000000018004d820 f i DxFactory.obj
 0001:0004c8c0       ??1?$DxBatchedStorage@I@cloth@nv@@QEAA@XZ 000000018004d8c0 f i DxFactory.obj
 0001:0004ca00       ??1?$DxBatchedStorage@M@cloth@nv@@QEAA@XZ 000000018004da00 f i DxFactory.obj
 0001:0004cb40       ??1?$DxBatchedStorage@U?$Vec4T@G@cloth@nv@@@cloth@nv@@QEAA@XZ 000000018004db40 f i DxFactory.obj
 0001:0004cc80       ??1?$DxBatchedStorage@UDxConstraint@cloth@nv@@@cloth@nv@@QEAA@XZ 000000018004dc80 f i DxFactory.obj
 0001:0004cdc0       ??1?$DxBatchedStorage@UDxPhaseConfig@cloth@nv@@@cloth@nv@@QEAA@XZ 000000018004ddc0 f i DxFactory.obj
 0001:0004cf00       ??1?$DxBatchedStorage@UDxTether@cloth@nv@@@cloth@nv@@QEAA@XZ 000000018004df00 f i DxFactory.obj
 0001:0004d040       ??1?$DxBatchedStorage@UIndexPair@cloth@nv@@@cloth@nv@@QEAA@XZ 000000018004e040 f i DxFactory.obj
 0001:0004d180       ??1?$DxBatchedStorage@VPxVec3@physx@@@cloth@nv@@QEAA@XZ 000000018004e180 f i DxFactory.obj
 0001:0004d2c0       ??1?$DxBatchedStorage@VPxVec4@physx@@@cloth@nv@@QEAA@XZ 000000018004e2c0 f i DxFactory.obj
 0001:0004d400       ??1?$DxVectorMap@V?$DxBatchedVector@U?$Vec4T@G@cloth@nv@@@cloth@nv@@@cloth@nv@@QEAA@XZ 000000018004e400 f i DxFactory.obj
 0001:0004d460       ??1Factory@cloth@nv@@MEAA@XZ 000000018004e460 f i DxFactory.obj
 0001:0004d480       ??A?$Array@MVNonTrackingAllocator@ps@cloth@nv@@@ps@cloth@nv@@QEAAAEAMI@Z 000000018004e480 f i DxFactory.obj
 0001:0004d530       ??A?$Array@UDxConstraint@cloth@nv@@VNonTrackingAllocator@ps@23@@ps@cloth@nv@@QEAAAEAUDxConstraint@23@I@Z 000000018004e530 f i DxFactory.obj
 0001:0004d5e0       ??A?$Array@UDxTether@cloth@nv@@VNonTrackingAllocator@ps@23@@ps@cloth@nv@@QEAAAEAUDxTether@23@I@Z 000000018004e5e0 f i DxFactory.obj
 0001:0004d690       ??A?$Range@M@cloth@nv@@QEBAAEAMI@Z 000000018004e690 f i DxFactory.obj
 0001:0004d750       ??_EDxFactory@cloth@nv@@UEAAPEAXI@Z 000000018004e750 f i DxFactory.obj
 0001:0004d750       ??_GDxFactory@cloth@nv@@UEAAPEAXI@Z 000000018004e750 f i DxFactory.obj
 0001:0004d7e0       ??_EFactory@cloth@nv@@MEAAPEAXI@Z 000000018004e7e0 f i DxFactory.obj
 0001:0004d7e0       ??_GFactory@cloth@nv@@MEAAPEAXI@Z 000000018004e7e0 f i DxFactory.obj
 0001:0004d870       ?DxDefaultBufferPolicy@cloth@nv@@YA?AUDxBufferFlags@12@XZ 000000018004e870 f i DxFactory.obj
 0001:0004d910       ?DxDefaultRawBufferPolicy@cloth@nv@@YA?AUDxBufferFlags@12@XZ 000000018004e910 f i DxFactory.obj
 0001:0004d9b0       ?DxStagingBufferPolicy@cloth@nv@@YA?AUDxBufferFlags@12@XZ 000000018004e9b0 f i DxFactory.obj
 0001:0004da50       ?begin@?$Array@U?$Vec4T@G@cloth@nv@@VNonTrackingAllocator@ps@23@@ps@cloth@nv@@QEAAPEAU?$Vec4T@G@34@XZ 000000018004ea50 f i DxFactory.obj
 0001:0004da70       ?begin@?$DxVectorMap@V?$DxBatchedVector@U?$Vec4T@G@cloth@nv@@@cloth@nv@@@cloth@nv@@QEAAPEAU?$Vec4T@G@23@XZ 000000018004ea70 f i DxFactory.obj
 0001:0004da90       ?buffer@?$DxBatchedVector@M@cloth@nv@@QEBAPEAUID3D11Buffer@@XZ 000000018004ea90 f i DxFactory.obj
 0001:0004dab0       ?buffer@?$DxBatchedVector@UDxTether@cloth@nv@@@cloth@nv@@QEBAPEAUID3D11Buffer@@XZ 000000018004eab0 f i DxFactory.obj
 0001:0004dad0       ?create@?$Array@U?$Vec4T@G@cloth@nv@@VNonTrackingAllocator@ps@23@@ps@cloth@nv@@KAXPEAU?$Vec4T@G@34@0AEBU534@@Z 000000018004ead0 f i DxFactory.obj
 0001:0004db80       ?create@?$Array@UDxTether@cloth@nv@@VNonTrackingAllocator@ps@23@@ps@cloth@nv@@KAXPEAUDxTether@34@0AEBU534@@Z 000000018004eb80 f i DxFactory.obj
 0001:0004dc30       ?empty@?$Array@PEAV?$DxBatchedVector@I@cloth@nv@@VNonTrackingAllocator@ps@23@@ps@cloth@nv@@QEBA_NXZ 000000018004ec30 f i DxFactory.obj
 0001:0004dc90       ?empty@?$Array@PEAV?$DxBatchedVector@M@cloth@nv@@VNonTrackingAllocator@ps@23@@ps@cloth@nv@@QEBA_NXZ 000000018004ec90 f i DxFactory.obj
 0001:0004dcf0       ?empty@?$Array@PEAV?$DxBatchedVector@U?$Vec4T@G@cloth@nv@@@cloth@nv@@VNonTrackingAllocator@ps@23@@ps@cloth@nv@@QEBA_NXZ 000000018004ecf0 f i DxFactory.obj
 0001:0004dd50       ?empty@?$Array@PEAV?$DxBatchedVector@UDxConstraint@cloth@nv@@@cloth@nv@@VNonTrackingAllocator@ps@23@@ps@cloth@nv@@QEBA_NXZ 000000018004ed50 f i DxFactory.obj
 0001:0004ddb0       ?empty@?$Array@PEAV?$DxBatchedVector@UDxPhaseConfig@cloth@nv@@@cloth@nv@@VNonTrackingAllocator@ps@23@@ps@cloth@nv@@QEBA_NXZ 000000018004edb0 f i DxFactory.obj
 0001:0004de10       ?empty@?$Array@PEAV?$DxBatchedVector@UDxTether@cloth@nv@@@cloth@nv@@VNonTrackingAllocator@ps@23@@ps@cloth@nv@@QEBA_NXZ 000000018004ee10 f i DxFactory.obj
 0001:0004de70       ?empty@?$Array@PEAV?$DxBatchedVector@UIndexPair@cloth@nv@@@cloth@nv@@VNonTrackingAllocator@ps@23@@ps@cloth@nv@@QEBA_NXZ 000000018004ee70 f i DxFactory.obj
 0001:0004ded0       ?empty@?$Array@PEAV?$DxBatchedVector@VPxVec3@physx@@@cloth@nv@@VNonTrackingAllocator@ps@23@@ps@cloth@nv@@QEBA_NXZ 000000018004eed0 f i DxFactory.obj
 0001:0004df30       ?empty@?$Array@PEAV?$DxBatchedVector@VPxVec4@physx@@@cloth@nv@@VNonTrackingAllocator@ps@23@@ps@cloth@nv@@QEBA_NXZ 000000018004ef30 f i DxFactory.obj
 0001:0004df90       ?empty@?$DxBatchedVector@UIndexPair@cloth@nv@@@cloth@nv@@QEBA_NXZ 000000018004ef90 f i DxFactory.obj
 0001:0004dff0       ?empty@?$Range@I@cloth@nv@@QEBA_NXZ 000000018004eff0 f i DxFactory.obj
 0001:0004e050       ?empty@?$Range@M@cloth@nv@@QEBA_NXZ 000000018004f050 f i DxFactory.obj
 0001:0004e0b0       ?empty@?$Range@VPxVec3@physx@@@cloth@nv@@QEBA_NXZ 000000018004f0b0 f i DxFactory.obj
 0001:0004e110       ?empty@?$Range@VPxVec4@physx@@@cloth@nv@@QEBA_NXZ 000000018004f110 f i DxFactory.obj
 0001:0004e170       ?front@?$Range@I@cloth@nv@@QEBAAEAIXZ 000000018004f170 f i DxFactory.obj
 0001:0004e220       ?front@?$Range@M@cloth@nv@@QEBAAEAMXZ 000000018004f220 f i DxFactory.obj
 0001:0004e2d0       ?getPlatform@DxFactory@cloth@nv@@UEBA?AW4Platform@23@XZ 000000018004f2d0 f i DxFactory.obj
 0001:0004e2e0       ?manager@?$DxBatchedVector@U?$Vec4T@G@cloth@nv@@@cloth@nv@@QEBAPEAVDxContextManagerCallback@23@XZ 000000018004f2e0 f i DxFactory.obj
 0001:0004e300       ?map@?$DxBatchedVector@U?$Vec4T@G@cloth@nv@@@cloth@nv@@QEAAPEAU?$Vec4T@G@23@W4D3D11_MAP@@@Z 000000018004f300 f i DxFactory.obj
 0001:0004e390       ?memCopy@intrinsics@physx@@YAPEAXPEAXPEBXI@Z 000000018004f390 f i DxFactory.obj
 0001:0004e3f0       ?popFront@?$Range@I@cloth@nv@@QEAAXXZ 000000018004f3f0 f i DxFactory.obj
 0001:0004e4b0       ?popFront@?$Range@M@cloth@nv@@QEAAXXZ 000000018004f4b0 f i DxFactory.obj
 0001:0004e570       ?resize@?$Array@U?$Vec4T@G@cloth@nv@@VNonTrackingAllocator@ps@23@@ps@cloth@nv@@QEAAXIAEBU?$Vec4T@G@34@@Z 000000018004f570 f i DxFactory.obj
 0001:0004e640       ?resize@?$Array@UDxTether@cloth@nv@@VNonTrackingAllocator@ps@23@@ps@cloth@nv@@QEAAXIAEBUDxTether@34@@Z 000000018004f640 f i DxFactory.obj
 0001:0004e710       ?size@?$Array@PEAVDxFabric@cloth@nv@@VNonTrackingAllocator@ps@23@@ps@cloth@nv@@QEBAIXZ 000000018004f710 f i DxFactory.obj
 0001:0004e730       ?size@?$Array@U?$Vec4T@G@cloth@nv@@VNonTrackingAllocator@ps@23@@ps@cloth@nv@@QEBAIXZ 000000018004f730 f i DxFactory.obj
 0001:0004e750       ?size@?$Array@UDxTether@cloth@nv@@VNonTrackingAllocator@ps@23@@ps@cloth@nv@@QEBAIXZ 000000018004f750 f i DxFactory.obj
 0001:0004e770       ?size@?$Range@$$BY03I@cloth@nv@@QEBAIXZ 000000018004f770 f i DxFactory.obj
 0001:0004e7a0       ?size@?$Range@I@cloth@nv@@QEBAIXZ 000000018004f7a0 f i DxFactory.obj
 0001:0004e7d0       ?size@?$Range@M@cloth@nv@@QEBAIXZ 000000018004f7d0 f i DxFactory.obj
 0001:0004e800       ?size@?$Range@VPxVec3@physx@@@cloth@nv@@QEBAIXZ 000000018004f800 f i DxFactory.obj
 0001:0004e830       ?size@?$Range@VPxVec4@physx@@@cloth@nv@@QEBAIXZ 000000018004f830 f i DxFactory.obj
 0001:0004e860       ?unmap@?$DxBatchedVector@U?$Vec4T@G@cloth@nv@@@cloth@nv@@QEAAXXZ 000000018004f860 f i DxFactory.obj
 0001:0004e930       ??0DxSolver@cloth@nv@@QEAA@AEAVDxFactory@12@@Z 000000018004f930 f   DxSolver.obj
 0001:0004edc0       ??1DxSolver@cloth@nv@@UEAA@XZ 000000018004fdc0 f   DxSolver.obj
 0001:0004ef80       ?addCloth@DxSolver@cloth@nv@@UEAAXPEAVCloth@23@@Z 000000018004ff80 f   DxSolver.obj
 0001:0004efd0       ?addCloths@DxSolver@cloth@nv@@UEAAXU?$Range@PEAVCloth@cloth@nv@@@23@@Z 000000018004ffd0 f   DxSolver.obj
 0001:0004f050       ?removeCloth@DxSolver@cloth@nv@@UEAAXPEAVCloth@23@@Z 0000000180050050 f   DxSolver.obj
 0001:0004f160       ?getNumCloths@DxSolver@cloth@nv@@UEBAHXZ 0000000180050160 f   DxSolver.obj
 0001:0004f1a0       ?getClothList@DxSolver@cloth@nv@@UEBAPEBQEAVCloth@23@XZ 00000001800501a0 f   DxSolver.obj
 0001:0004f200       ?beginSimulation@DxSolver@cloth@nv@@UEAA_NM@Z 0000000180050200 f   DxSolver.obj
 0001:0004f270       ?simulateChunk@DxSolver@cloth@nv@@UEAAXH@Z 0000000180050270 f   DxSolver.obj
 0001:0004f370       ?endSimulation@DxSolver@cloth@nv@@UEAAXXZ 0000000180050370 f   DxSolver.obj
 0001:0004f410       ?getSimulationChunkCount@DxSolver@cloth@nv@@UEBAHXZ 0000000180050410 f   DxSolver.obj
 0001:0004f470       ?addClothAppend@DxSolver@cloth@nv@@AEAAXPEAVCloth@23@@Z 0000000180050470 f   DxSolver.obj
 0001:0004f560       ?addClothUpdateData@DxSolver@cloth@nv@@AEAAXXZ 0000000180050560 f   DxSolver.obj
 0001:0004f710       ?beginFrame@DxSolver@cloth@nv@@AEAAXXZ 0000000180050710 f   DxSolver.obj
 0001:0004fe60       ?executeKernel@DxSolver@cloth@nv@@AEAAXXZ 0000000180050e60 f   DxSolver.obj
 0001:00050660       ?endFrame@DxSolver@cloth@nv@@AEAAXXZ 0000000180051660 f   DxSolver.obj
 0001:000509f0       ?interCollision@DxSolver@cloth@nv@@AEAAXXZ 00000001800519f0 f   DxSolver.obj
 0001:00051940       ??$?0VDxCloth@cloth@nv@@@IterationStateFactory@cloth@nv@@QEAA@AEAVDxCloth@12@M@Z 0000000180052940 f i DxSolver.obj
 0001:00051e00       ??$?4VNonTrackingAllocator@ps@cloth@nv@@@?$DxDeviceVector@UDxClothData@cloth@nv@@@cloth@nv@@QEAAAEAV012@AEBV?$Array@UDxClothData@cloth@nv@@VNonTrackingAllocator@ps@23@@ps@12@@Z 0000000180052e00 f i DxSolver.obj
 0001:00051e80       ??$?4VNonTrackingAllocator@ps@cloth@nv@@@?$DxDeviceVector@UDxIterationData@cloth@nv@@@cloth@nv@@QEAAAEAV012@AEBV?$Array@UDxIterationData@cloth@nv@@VNonTrackingAllocator@ps@23@@ps@12@@Z 0000000180052e80 f i DxSolver.obj
 0001:00051f00       ??$PX_UNUSED@H@@YAXAEBH@Z  0000000180052f00 f i DxSolver.obj
 0001:00051f10       ??$PxClamp@M@physx@@YAMMMM@Z 0000000180052f10 f i DxSolver.obj
 0001:00051fa0       ??$assign@T__m128@@$02@cloth@nv@@YAXAEAY02T__m128@@AEBVPxMat44@physx@@@Z 0000000180052fa0 f i DxSolver.obj
 0001:00052050       ??$castToPxVec3@T__m128@@@IterationStateFactory@cloth@nv@@SA?AVPxVec3@physx@@AEBT__m128@@@Z 0000000180053050 f i DxSolver.obj
 0001:000520a0       ??$create@T__m128@@VDxCloth@cloth@nv@@@IterationStateFactory@cloth@nv@@QEBA?AU?$IterationState@T__m128@@@12@AEBVDxCloth@12@@Z 00000001800530a0 f i DxSolver.obj
 0001:000539a0       ??$lengthSqr@T__m128@@@IterationStateFactory@cloth@nv@@SA?AT__m128@@AEBT3@@Z 00000001800549a0 f i DxSolver.obj
 0001:000539f0       ??$median3@PEAVDxCloth@cloth@nv@@$$CBUClothSimCostGreater@?A0x27fbffba@@@internal@ps@cloth@nv@@YAXPEAPEAVDxCloth@23@HHAEBUClothSimCostGreater@?A0x27fbffba@@@Z 00000001800549f0 f i DxSolver.obj
 0001:00053bb0       ??$partition@PEAVDxCloth@cloth@nv@@$$CBUClothSimCostGreater@?A0x27fbffba@@@internal@ps@cloth@nv@@YAHPEAPEAVDxCloth@23@HHAEBUClothSimCostGreater@?A0x27fbffba@@@Z 0000000180054bb0 f i DxSolver.obj
 0001:00053e30       ??$smallSort@PEAVDxCloth@cloth@nv@@$$CBUClothSimCostGreater@?A0x27fbffba@@@internal@ps@cloth@nv@@YAXPEAPEAVDxCloth@23@HHAEBUClothSimCostGreater@?A0x27fbffba@@@Z 0000000180054e30 f i DxSolver.obj
 0001:00053f50       ??$sort@PEAVDxCloth@cloth@nv@@UClothSimCostGreater@?A0x27fbffba@@VNonTrackingAllocator@ps@23@@ps@cloth@nv@@YAXPEAPEAVDxCloth@12@IAEBUClothSimCostGreater@?A0x27fbffba@@AEBVNonTrackingAllocator@012@I@Z 0000000180054f50 f i DxSolver.obj
 0001:00054430       ??$splat@$00@cloth@nv@@YA?AT__m128@@AEBT2@@Z 0000000180055430 f i DxSolver.obj
 0001:00054480       ??$splat@$01@cloth@nv@@YA?AT__m128@@AEBT2@@Z 0000000180055480 f i DxSolver.obj
 0001:000544d0       ??$splat@$0A@@cloth@nv@@YA?AT__m128@@AEBT2@@Z 00000001800554d0 f i DxSolver.obj
 0001:00054520       ??$sqr@M@cloth@nv@@YAMAEBM@Z 0000000180055520 f i DxSolver.obj
 0001:00054570       ??$swap@PEAVDxCloth@cloth@nv@@@ps@cloth@nv@@YAXAEAPEAVDxCloth@12@0@Z 0000000180055570 f i DxSolver.obj
 0001:000545e0       ??$swap@VPxVec3@physx@@@shdfnd@physx@@YAXAEAV?$DxBatchedVector@VPxVec3@physx@@@cloth@nv@@0@Z 00000001800555e0 f i DxSolver.obj
 0001:00054630       ??$swap@VPxVec4@physx@@@shdfnd@physx@@YAXAEAV?$DxBatchedVector@VPxVec4@physx@@@cloth@nv@@0@Z 0000000180055630 f i DxSolver.obj
 0001:00054680       ??$transform@T__m128@@@cloth@nv@@YA?AT__m128@@AEAY02$$CBT2@AEBT2@@Z 0000000180055680 f i DxSolver.obj
 0001:000547f0       ??0?$Array@PEAVDxCloth@cloth@nv@@VNonTrackingAllocator@ps@23@@ps@cloth@nv@@QEAA@AEBVNonTrackingAllocator@123@@Z 00000001800557f0 f i DxSolver.obj
 0001:00054840       ??0?$Array@UDxClothData@cloth@nv@@VNonTrackingAllocator@ps@23@@ps@cloth@nv@@QEAA@AEBVNonTrackingAllocator@123@@Z 0000000180055840 f i DxSolver.obj
 0001:00054890       ??0?$Array@UDxIterationData@cloth@nv@@VNonTrackingAllocator@ps@23@@ps@cloth@nv@@QEAA@AEBVNonTrackingAllocator@123@@Z 0000000180055890 f i DxSolver.obj
 0001:000548e0       ??0?$Array@USwInterCollisionData@cloth@nv@@VNonTrackingAllocator@ps@23@@ps@cloth@nv@@QEAA@AEBVNonTrackingAllocator@123@@Z 00000001800558e0 f i DxSolver.obj
 0001:00054930       ??0?$DxBuffer@UDxClothData@cloth@nv@@@cloth@nv@@QEAA@PEAVDxContextManagerCallback@12@AEBUDxBufferFlags@12@@Z 0000000180055930 f i DxSolver.obj
 0001:000549d0       ??0?$DxBuffer@UDxClothData@cloth@nv@@@cloth@nv@@QEAA@PEBUDxClothData@12@0PEAVDxContextManagerCallback@12@AEBUDxBufferFlags@12@@Z 00000001800559d0 f i DxSolver.obj
 0001:00054b10       ??0?$DxBuffer@UDxFrameData@cloth@nv@@@cloth@nv@@QEAA@PEAVDxContextManagerCallback@12@AEBUDxBufferFlags@12@@Z 0000000180055b10 f i DxSolver.obj
 0001:00054bb0       ??0?$DxBuffer@UDxIterationData@cloth@nv@@@cloth@nv@@QEAA@PEAVDxContextManagerCallback@12@AEBUDxBufferFlags@12@@Z 0000000180055bb0 f i DxSolver.obj
 0001:00054c50       ??0?$DxBuffer@UDxIterationData@cloth@nv@@@cloth@nv@@QEAA@PEBUDxIterationData@12@0PEAVDxContextManagerCallback@12@AEBUDxBufferFlags@12@@Z 0000000180055c50 f i DxSolver.obj
 0001:00054d90       ??0?$DxDeviceVector@UDxClothData@cloth@nv@@@cloth@nv@@QEAA@PEAVDxContextManagerCallback@12@AEBUDxBufferFlags@12@@Z 0000000180055d90 f i DxSolver.obj
 0001:00054e00       ??0?$DxDeviceVector@UDxFrameData@cloth@nv@@@cloth@nv@@QEAA@PEAVDxContextManagerCallback@12@AEBUDxBufferFlags@12@@Z 0000000180055e00 f i DxSolver.obj
 0001:00054e70       ??0?$DxDeviceVector@UDxIterationData@cloth@nv@@@cloth@nv@@QEAA@PEAVDxContextManagerCallback@12@AEBUDxBufferFlags@12@@Z 0000000180055e70 f i DxSolver.obj
 0001:00054ee0       ??0?$Stack@VNonTrackingAllocator@ps@cloth@nv@@@internal@ps@cloth@nv@@QEAA@PEAHIAEBVNonTrackingAllocator@234@@Z 0000000180055ee0 f i DxSolver.obj
 0001:00054f40       ??0?$StackAllocator@$0BA@@cloth@nv@@QEAA@PEAX_K@Z 0000000180055f40 f i DxSolver.obj
 0001:00054fb0       ??0DxClothData@cloth@nv@@QEAA@XZ 0000000180055fb0 f i DxSolver.obj
 0001:00054fc0       ??0DxIterationData@cloth@nv@@QEAA@XZ 0000000180055fc0 f i DxSolver.obj
 0001:00054fd0       ??0PxMat33@physx@@QEAA@AEBVPxVec3@1@00@Z 0000000180055fd0 f i DxSolver.obj
 0001:00055070       ??0PxMat44@physx@@QEAA@AEBVPxQuat@1@@Z 0000000180056070 f i DxSolver.obj
 0001:00055470       ??0PxQuat@physx@@QEAA@AEBV01@@Z 0000000180056470 f i DxSolver.obj
 0001:000554f0       ??0PxTransform@physx@@QEAA@AEBV01@@Z 00000001800564f0 f i DxSolver.obj
 0001:00055560       ??0PxVec4@physx@@QEAA@AEBVPxVec3@1@M@Z 0000000180056560 f i DxSolver.obj
 0001:000555e0       ??0Simd4fLoadFactory@cloth@nv@@QEAA@PEBM@Z 00000001800565e0 f i DxSolver.obj
 0001:00055610       ??0Simd4iTupleFactory@cloth@nv@@QEAA@HHHH@Z 0000000180056610 f i DxSolver.obj
 0001:000556a0       ??0Solver@cloth@nv@@IEAA@XZ 00000001800566a0 f i DxSolver.obj
 0001:000556d0       ??0SwInterCollisionData@cloth@nv@@QEAA@AEBU012@@Z 00000001800566d0 f i DxSolver.obj
 0001:000557f0       ??0SwInterCollisionData@cloth@nv@@QEAA@PEAVPxVec4@physx@@0IPEAIAEBVPxTransform@4@AEBVPxVec3@4@3MPEAX@Z 00000001800567f0 f i DxSolver.obj
 0001:000558f0       ??0SwInterCollisionData@cloth@nv@@QEAA@XZ 00000001800568f0 f i DxSolver.obj
 0001:00055970       ??1?$Array@PEAVDxCloth@cloth@nv@@VNonTrackingAllocator@ps@23@@ps@cloth@nv@@QEAA@XZ 0000000180056970 f i DxSolver.obj
 0001:00055a10       ??1?$Array@UDxClothData@cloth@nv@@VNonTrackingAllocator@ps@23@@ps@cloth@nv@@QEAA@XZ 0000000180056a10 f i DxSolver.obj
 0001:00055ab0       ??1?$Array@UDxIterationData@cloth@nv@@VNonTrackingAllocator@ps@23@@ps@cloth@nv@@QEAA@XZ 0000000180056ab0 f i DxSolver.obj
 0001:00055b50       ??1?$Array@USwInterCollisionData@cloth@nv@@VNonTrackingAllocator@ps@23@@ps@cloth@nv@@QEAA@XZ 0000000180056b50 f i DxSolver.obj
 0001:00055bf0       ??1?$DxBuffer@UDxClothData@cloth@nv@@@cloth@nv@@QEAA@XZ 0000000180056bf0 f i DxSolver.obj
 0001:00055ce0       ??1?$DxBuffer@UDxFrameData@cloth@nv@@@cloth@nv@@QEAA@XZ 0000000180056ce0 f i DxSolver.obj
 0001:00055dd0       ??1?$DxBuffer@UDxIterationData@cloth@nv@@@cloth@nv@@QEAA@XZ 0000000180056dd0 f i DxSolver.obj
 0001:00055ec0       ??1?$DxDeviceVector@UDxClothData@cloth@nv@@@cloth@nv@@QEAA@XZ 0000000180056ec0 f i DxSolver.obj
 0001:00055f00       ??1?$DxDeviceVector@UDxFrameData@cloth@nv@@@cloth@nv@@QEAA@XZ 0000000180056f00 f i DxSolver.obj
 0001:00055f40       ??1?$DxDeviceVector@UDxIterationData@cloth@nv@@@cloth@nv@@QEAA@XZ 0000000180056f40 f i DxSolver.obj
 0001:00055f80       ??1?$ScopedPointer@HX@ps@cloth@nv@@QEAA@XZ 0000000180056f80 f i DxSolver.obj
 0001:00055ff0       ??1?$Stack@VNonTrackingAllocator@ps@cloth@nv@@@internal@ps@cloth@nv@@QEAA@XZ 0000000180056ff0 f i DxSolver.obj
 0001:00056050       ??1?$StackAllocator@$0BA@@cloth@nv@@QEAA@XZ 0000000180057050 f i DxSolver.obj
 0001:000560f0       ??1Solver@cloth@nv@@UEAA@XZ 00000001800570f0 f i DxSolver.obj
 0001:00056110       ??4?$DxBuffer@UDxClothData@cloth@nv@@@cloth@nv@@QEAAAEAV012@AEBV012@@Z 0000000180057110 f i DxSolver.obj
 0001:000562e0       ??4?$DxBuffer@UDxFrameData@cloth@nv@@@cloth@nv@@QEAAAEAV012@AEBV012@@Z 00000001800572e0 f i DxSolver.obj
 0001:000564b0       ??4?$DxBuffer@UDxIterationData@cloth@nv@@@cloth@nv@@QEAAAEAV012@AEBV012@@Z 00000001800574b0 f i DxSolver.obj
 0001:00056670       ??4?$DxDeviceVector@UDxFrameData@cloth@nv@@@cloth@nv@@QEAAAEAV012@AEBV012@@Z 0000000180057670 f i DxSolver.obj
 0001:000566e0       ??A?$Array@PEAVDxCloth@cloth@nv@@VNonTrackingAllocator@ps@23@@ps@cloth@nv@@QEAAAEAPEAVDxCloth@23@I@Z 00000001800576e0 f i DxSolver.obj
 0001:00056790       ??A?$Array@PEAVDxCloth@cloth@nv@@VNonTrackingAllocator@ps@23@@ps@cloth@nv@@QEBAAEBQEAVDxCloth@23@I@Z 0000000180057790 f i DxSolver.obj
 0001:00056840       ??A?$Array@USwInterCollisionData@cloth@nv@@VNonTrackingAllocator@ps@23@@ps@cloth@nv@@QEAAAEAUSwInterCollisionData@23@I@Z 0000000180057840 f i DxSolver.obj
 0001:000568f0       ??APxMat33@physx@@QEAAAEAVPxVec3@1@I@Z 00000001800578f0 f i DxSolver.obj
 0001:00056920       ??APxMat44@physx@@QEAAAEAVPxVec4@1@I@Z 0000000180057920 f i DxSolver.obj
 0001:00056950       ??APxMat44@physx@@QEBAAEBVPxVec4@1@I@Z 0000000180057950 f i DxSolver.obj
 0001:00056980       ??APxVec3@physx@@QEAAAEAMI@Z 0000000180057980 f i DxSolver.obj
 0001:000569f0       ??APxVec4@physx@@QEAAAEAMI@Z 00000001800579f0 f i DxSolver.obj
 0001:00056a60       ??B?$ScopedPointer@HX@ps@cloth@nv@@QEBAPEAHXZ 0000000180057a60 f i DxSolver.obj
 0001:00056a80       ??BSimd4fLoadFactory@cloth@nv@@QEBA?AT__m128@@XZ 0000000180057a80 f i DxSolver.obj
 0001:00056ae0       ??BSimd4fZeroFactory@cloth@nv@@QEBA?AT__m128@@XZ 0000000180057ae0 f i DxSolver.obj
 0001:00056b40       ??DPxQuat@physx@@QEBA?AV01@AEBV01@@Z 0000000180057b40 f i DxSolver.obj
 0001:00056d70       ??DPxVec3@physx@@QEBA?AV01@M@Z 0000000180057d70 f i DxSolver.obj
 0001:00056e20       ??Icloth@nv@@YA?AT__m128@@AEBT2@0@Z 0000000180057e20 f i DxSolver.obj
 0001:00056f20       ??RPxMat33@physx@@QEAAAEAMII@Z 0000000180057f20 f i DxSolver.obj
 0001:00056f80       ??RPxMat44@physx@@QEAAAEAMII@Z 0000000180057f80 f i DxSolver.obj
 0001:00056fe0       ??_EDxSolver@cloth@nv@@UEAAPEAXI@Z 0000000180057fe0 f i DxSolver.obj
 0001:00056fe0       ??_GDxSolver@cloth@nv@@UEAAPEAXI@Z 0000000180057fe0 f i DxSolver.obj
 0001:00057070       ??_ESolver@cloth@nv@@UEAAPEAXI@Z 0000000180058070 f i DxSolver.obj
 0001:00057070       ??_GSolver@cloth@nv@@UEAAPEAXI@Z 0000000180058070 f i DxSolver.obj
 0001:00057100       ?DxDynamicBufferPolicy@cloth@nv@@YA?AUDxBufferFlags@12@XZ 0000000180058100 f i DxSolver.obj
 0001:000571a0       ?PxAsin@physx@@YAMM@Z      00000001800581a0 f i DxSolver.obj
 0001:000571f0       ?PxCos@physx@@YAMM@Z       00000001800581f0 f i DxSolver.obj
 0001:00057230       ?PxSin@physx@@YAMM@Z       0000000180058230 f i DxSolver.obj
 0001:00057270       ?PxSqrt@physx@@YAMM@Z      0000000180058270 f i DxSolver.obj
 0001:000572b0       ?accessView@?$DxBuffer@I@cloth@nv@@QEAAPEAUID3D11UnorderedAccessView@@XZ 00000001800582b0 f i DxSolver.obj
 0001:00057370       ?accessView@?$DxBuffer@UDxFrameData@cloth@nv@@@cloth@nv@@QEAAPEAUID3D11UnorderedAccessView@@XZ 0000000180058370 f i DxSolver.obj
 0001:00057430       ?accessView@?$DxBuffer@VPxVec4@physx@@@cloth@nv@@QEAAPEAUID3D11UnorderedAccessView@@XZ 0000000180058430 f i DxSolver.obj
 0001:000574f0       ?accessViewRaw@?$DxBuffer@VPxVec4@physx@@@cloth@nv@@QEAAPEAUID3D11UnorderedAccessView@@XZ 00000001800584f0 f i DxSolver.obj
 0001:00057660       ?allocate@?$Array@PEAVDxCloth@cloth@nv@@VNonTrackingAllocator@ps@23@@ps@cloth@nv@@IEAAPEAPEAVDxCloth@34@I@Z 0000000180058660 f i DxSolver.obj
 0001:00057730       ?allocate@?$Array@UDxClothData@cloth@nv@@VNonTrackingAllocator@ps@23@@ps@cloth@nv@@IEAAPEAUDxClothData@34@I@Z 0000000180058730 f i DxSolver.obj
 0001:00057800       ?allocate@?$Array@UDxIterationData@cloth@nv@@VNonTrackingAllocator@ps@23@@ps@cloth@nv@@IEAAPEAUDxIterationData@34@I@Z 0000000180058800 f i DxSolver.obj
 0001:000578d0       ?allocate@?$Array@USwInterCollisionData@cloth@nv@@VNonTrackingAllocator@ps@23@@ps@cloth@nv@@IEAAPEAUSwInterCollisionData@34@I@Z 00000001800588d0 f i DxSolver.obj
 0001:000579a0       ?array@cloth@nv@@YAAEAY02$$CBMAEBVPxVec3@physx@@@Z 00000001800589a0 f i DxSolver.obj
 0001:000579b0       ?array@cloth@nv@@YAAEAY03$$CBMAEBVPxVec4@physx@@@Z 00000001800589b0 f i DxSolver.obj
 0001:000579c0       ?assign@?$DxDeviceVector@UDxClothData@cloth@nv@@@cloth@nv@@QEAAXPEBUDxClothData@23@0@Z 00000001800589c0 f i DxSolver.obj
 0001:00057c30       ?assign@?$DxDeviceVector@UDxIterationData@cloth@nv@@@cloth@nv@@QEAAXPEBUDxIterationData@23@0@Z 0000000180058c30 f i DxSolver.obj
 0001:00057ea0       ?average@MovingAverage@cloth@nv@@QEBAMXZ 0000000180058ea0 f i DxSolver.obj
 0001:00058330       ?begin@?$Array@PEAVDxCloth@cloth@nv@@VNonTrackingAllocator@ps@23@@ps@cloth@nv@@QEAAPEAPEAVDxCloth@34@XZ 0000000180059330 f i DxSolver.obj
 0001:00058350       ?begin@?$Array@UDxClothData@cloth@nv@@VNonTrackingAllocator@ps@23@@ps@cloth@nv@@QEAAPEAUDxClothData@34@XZ 0000000180059350 f i DxSolver.obj
 0001:00058370       ?begin@?$Array@UDxClothData@cloth@nv@@VNonTrackingAllocator@ps@23@@ps@cloth@nv@@QEBAPEBUDxClothData@34@XZ 0000000180059370 f i DxSolver.obj
 0001:00058390       ?begin@?$Array@UDxIterationData@cloth@nv@@VNonTrackingAllocator@ps@23@@ps@cloth@nv@@QEBAPEBUDxIterationData@34@XZ 0000000180059390 f i DxSolver.obj
 0001:000583b0       ?begin@?$Array@USwInterCollisionData@cloth@nv@@VNonTrackingAllocator@ps@23@@ps@cloth@nv@@QEAAPEAUSwInterCollisionData@34@XZ 00000001800593b0 f i DxSolver.obj
 0001:000583d0       ?begin@?$Range@PEAVCloth@cloth@nv@@@cloth@nv@@QEBAPEAPEAVCloth@23@XZ 00000001800593d0 f i DxSolver.obj
 0001:000583f0       ?capacity@?$Array@PEAVDxCloth@cloth@nv@@VNonTrackingAllocator@ps@23@@ps@cloth@nv@@QEBAIXZ 00000001800593f0 f i DxSolver.obj
 0001:00058410       ?capacity@?$Array@UDxClothData@cloth@nv@@VNonTrackingAllocator@ps@23@@ps@cloth@nv@@QEBAIXZ 0000000180059410 f i DxSolver.obj
 0001:00058430       ?capacity@?$Array@UDxIterationData@cloth@nv@@VNonTrackingAllocator@ps@23@@ps@cloth@nv@@QEBAIXZ 0000000180059430 f i DxSolver.obj
 0001:00058450       ?capacity@?$Array@USwInterCollisionData@cloth@nv@@VNonTrackingAllocator@ps@23@@ps@cloth@nv@@QEBAIXZ 0000000180059450 f i DxSolver.obj
 0001:00058470       ?capacityIncrement@?$Array@PEAVDxCloth@cloth@nv@@VNonTrackingAllocator@ps@23@@ps@cloth@nv@@IEBAIXZ 0000000180059470 f i DxSolver.obj
 0001:000584e0       ?capacityIncrement@?$Array@UDxIterationData@cloth@nv@@VNonTrackingAllocator@ps@23@@ps@cloth@nv@@IEBAIXZ 00000001800594e0 f i DxSolver.obj
 0001:00058550       ?capacityIncrement@?$Array@USwInterCollisionData@cloth@nv@@VNonTrackingAllocator@ps@23@@ps@cloth@nv@@IEBAIXZ 0000000180059550 f i DxSolver.obj
 0001:000585c0       ?context@?$DxBuffer@UDxClothData@cloth@nv@@@cloth@nv@@QEBAPEAUID3D11DeviceContext@@XZ 00000001800595c0 f i DxSolver.obj
 0001:00058610       ?context@?$DxBuffer@UDxFrameData@cloth@nv@@@cloth@nv@@QEBAPEAUID3D11DeviceContext@@XZ 0000000180059610 f i DxSolver.obj
 0001:00058660       ?context@?$DxBuffer@UDxIterationData@cloth@nv@@@cloth@nv@@QEBAPEAUID3D11DeviceContext@@XZ 0000000180059660 f i DxSolver.obj
 0001:000586b0       ?copy@?$Array@PEAVDxCloth@cloth@nv@@VNonTrackingAllocator@ps@23@@ps@cloth@nv@@KAXPEAPEAVDxCloth@34@0PEBQEAV534@@Z 00000001800596b0 f i DxSolver.obj
 0001:00058790       ?copy@?$Array@UDxClothData@cloth@nv@@VNonTrackingAllocator@ps@23@@ps@cloth@nv@@KAXPEAUDxClothData@34@0PEBU534@@Z 0000000180059790 f i DxSolver.obj
 0001:00058870       ?copy@?$Array@UDxIterationData@cloth@nv@@VNonTrackingAllocator@ps@23@@ps@cloth@nv@@KAXPEAUDxIterationData@34@0PEBU534@@Z 0000000180059870 f i DxSolver.obj
 0001:00058950       ?copy@?$Array@USwInterCollisionData@cloth@nv@@VNonTrackingAllocator@ps@23@@ps@cloth@nv@@KAXPEAUSwInterCollisionData@34@0PEBU534@@Z 0000000180059950 f i DxSolver.obj
 0001:00058a20       ?cos@intrinsics@physx@@YAMM@Z 0000000180059a20 f i DxSolver.obj
 0001:00058a60       ?create@?$Array@UDxClothData@cloth@nv@@VNonTrackingAllocator@ps@23@@ps@cloth@nv@@KAXPEAUDxClothData@34@0AEBU534@@Z 0000000180059a60 f i DxSolver.obj
 0001:00058b20       ?create@?$Array@UDxIterationData@cloth@nv@@VNonTrackingAllocator@ps@23@@ps@cloth@nv@@KAXPEAUDxIterationData@34@0AEBU534@@Z 0000000180059b20 f i DxSolver.obj
 0001:00058be0       ?create@?$Array@USwInterCollisionData@cloth@nv@@VNonTrackingAllocator@ps@23@@ps@cloth@nv@@KAXPEAUSwInterCollisionData@34@0AEBU534@@Z 0000000180059be0 f i DxSolver.obj
 0001:00058c90       ?create@?$DxBuffer@UDxClothData@cloth@nv@@@cloth@nv@@AEAAXIPEAUD3D11_SUBRESOURCE_DATA@@@Z 0000000180059c90 f i DxSolver.obj
 0001:00058f10       ?create@?$DxBuffer@UDxFrameData@cloth@nv@@@cloth@nv@@AEAAXIPEAUD3D11_SUBRESOURCE_DATA@@@Z 0000000180059f10 f i DxSolver.obj
 0001:00059190       ?create@?$DxBuffer@UDxIterationData@cloth@nv@@@cloth@nv@@AEAAXIPEAUD3D11_SUBRESOURCE_DATA@@@Z 000000018005a190 f i DxSolver.obj
 0001:00059410       ?deallocate@?$Array@PEAVDxCloth@cloth@nv@@VNonTrackingAllocator@ps@23@@ps@cloth@nv@@IEAAXPEAX@Z 000000018005a410 f i DxSolver.obj
 0001:00059460       ?deallocate@?$Array@UDxClothData@cloth@nv@@VNonTrackingAllocator@ps@23@@ps@cloth@nv@@IEAAXPEAX@Z 000000018005a460 f i DxSolver.obj
 0001:000594b0       ?deallocate@?$Array@UDxIterationData@cloth@nv@@VNonTrackingAllocator@ps@23@@ps@cloth@nv@@IEAAXPEAX@Z 000000018005a4b0 f i DxSolver.obj
 0001:00059500       ?deallocate@?$Array@USwInterCollisionData@cloth@nv@@VNonTrackingAllocator@ps@23@@ps@cloth@nv@@IEAAXPEAX@Z 000000018005a500 f i DxSolver.obj
 0001:00059550       ?destroy@?$Array@PEAVDxCloth@cloth@nv@@VNonTrackingAllocator@ps@23@@ps@cloth@nv@@KAXPEAPEAVDxCloth@34@0@Z 000000018005a550 f i DxSolver.obj
 0001:00059590       ?destroy@?$Array@UDxClothData@cloth@nv@@VNonTrackingAllocator@ps@23@@ps@cloth@nv@@KAXPEAUDxClothData@34@0@Z 000000018005a590 f i DxSolver.obj
 0001:000595d0       ?destroy@?$Array@UDxIterationData@cloth@nv@@VNonTrackingAllocator@ps@23@@ps@cloth@nv@@KAXPEAUDxIterationData@34@0@Z 000000018005a5d0 f i DxSolver.obj
 0001:00059610       ?destroy@?$Array@USwInterCollisionData@cloth@nv@@VNonTrackingAllocator@ps@23@@ps@cloth@nv@@KAXPEAUSwInterCollisionData@34@0@Z 000000018005a610 f i DxSolver.obj
 0001:00059650       ?dot3@cloth@nv@@YA?AT__m128@@AEBT3@0@Z 000000018005a650 f i DxSolver.obj
 0001:00059770       ?empty@?$Array@PEAVDxCloth@cloth@nv@@VNonTrackingAllocator@ps@23@@ps@cloth@nv@@QEBA_NXZ 000000018005a770 f i DxSolver.obj
 0001:000597d0       ?empty@?$Stack@VNonTrackingAllocator@ps@cloth@nv@@@internal@ps@cloth@nv@@QEAA_NXZ 000000018005a7d0 f i DxSolver.obj
 0001:00059830       ?empty@MovingAverage@cloth@nv@@QEBA_NXZ 000000018005a830 f i DxSolver.obj
 0001:00059890       ?end@?$Array@PEAVDxCloth@cloth@nv@@VNonTrackingAllocator@ps@23@@ps@cloth@nv@@QEAAPEAPEAVDxCloth@34@XZ 000000018005a890 f i DxSolver.obj
 0001:000598c0       ?end@?$Array@UDxClothData@cloth@nv@@VNonTrackingAllocator@ps@23@@ps@cloth@nv@@QEBAPEBUDxClothData@34@XZ 000000018005a8c0 f i DxSolver.obj
 0001:000598f0       ?end@?$Array@UDxIterationData@cloth@nv@@VNonTrackingAllocator@ps@23@@ps@cloth@nv@@QEBAPEBUDxIterationData@34@XZ 000000018005a8f0 f i DxSolver.obj
 0001:00059920       ?exp@cloth@nv@@YA?AVPxQuat@physx@@AEBVPxVec3@4@@Z 000000018005a920 f i DxSolver.obj
 0001:00059a40       ?find@?$Array@PEAVDxCloth@cloth@nv@@VNonTrackingAllocator@ps@23@@ps@cloth@nv@@QEAAPEAPEAVDxCloth@34@AEBQEAV534@@Z 000000018005aa40 f i DxSolver.obj
 0001:00059ad0       ?fsel@intrinsics@physx@@YAMMMM@Z 000000018005aad0 f i DxSolver.obj
 0001:00059b50       ?getConjugate@PxQuat@physx@@QEBA?AV12@XZ 000000018005ab50 f i DxSolver.obj
 0001:00059c10       ?getImaginaryPart@PxQuat@physx@@QEBA?AVPxVec3@2@XZ 000000018005ac10 f i DxSolver.obj
 0001:00059c80       ?getInterCollisionDistance@DxSolver@cloth@nv@@UEBAMXZ 000000018005ac80 f i DxSolver.obj
 0001:00059cc0       ?getInterCollisionNbIterations@DxSolver@cloth@nv@@UEBAIXZ 000000018005acc0 f i DxSolver.obj
 0001:00059ce0       ?getInterCollisionStiffness@DxSolver@cloth@nv@@UEBAMXZ 000000018005ace0 f i DxSolver.obj
 0001:00059d20       ?grow@?$Array@UDxClothData@cloth@nv@@VNonTrackingAllocator@ps@23@@ps@cloth@nv@@IEAAXI@Z 000000018005ad20 f i DxSolver.obj
 0001:00059dd0       ?grow@?$Array@UDxIterationData@cloth@nv@@VNonTrackingAllocator@ps@23@@ps@cloth@nv@@IEAAXI@Z 000000018005add0 f i DxSolver.obj
 0001:00059e80       ?grow@?$Array@USwInterCollisionData@cloth@nv@@VNonTrackingAllocator@ps@23@@ps@cloth@nv@@IEAAXI@Z 000000018005ae80 f i DxSolver.obj
 0001:00059f30       ?grow@?$Stack@VNonTrackingAllocator@ps@cloth@nv@@@internal@ps@cloth@nv@@QEAAXXZ 000000018005af30 f i DxSolver.obj
 0001:0005a020       ?growAndPushBack@?$Array@PEAVDxCloth@cloth@nv@@VNonTrackingAllocator@ps@23@@ps@cloth@nv@@IEAAAEAPEAVDxCloth@34@AEBQEAV534@@Z 000000018005b020 f i DxSolver.obj
 0001:0005a240       ?growAndPushBack@?$Array@UDxIterationData@cloth@nv@@VNonTrackingAllocator@ps@23@@ps@cloth@nv@@IEAAAEAUDxIterationData@34@AEBU534@@Z 000000018005b240 f i DxSolver.obj
 0001:0005a4c0       ?growAndPushBack@?$Array@USwInterCollisionData@cloth@nv@@VNonTrackingAllocator@ps@23@@ps@cloth@nv@@IEAAAEAUSwInterCollisionData@34@AEBU534@@Z 000000018005b4c0 f i DxSolver.obj
 0001:0005a6f0       ?hasError@DxSolver@cloth@nv@@UEBA_NXZ 000000018005b6f0 f i DxSolver.obj
 0001:0005a710       ?isInUserMemory@?$Array@PEAVDxCloth@cloth@nv@@VNonTrackingAllocator@ps@23@@ps@cloth@nv@@QEBAIXZ 000000018005b710 f i DxSolver.obj
 0001:0005a730       ?isInUserMemory@?$Array@UDxClothData@cloth@nv@@VNonTrackingAllocator@ps@23@@ps@cloth@nv@@QEBAIXZ 000000018005b730 f i DxSolver.obj
 0001:0005a750       ?isInUserMemory@?$Array@UDxIterationData@cloth@nv@@VNonTrackingAllocator@ps@23@@ps@cloth@nv@@QEBAIXZ 000000018005b750 f i DxSolver.obj
 0001:0005a770       ?isInUserMemory@?$Array@USwInterCollisionData@cloth@nv@@VNonTrackingAllocator@ps@23@@ps@cloth@nv@@QEBAIXZ 000000018005b770 f i DxSolver.obj
 0001:0005a790       ?load@cloth@nv@@YA?AUSimd4fLoadFactory@12@PEBM@Z 000000018005b790 f i DxSolver.obj
 0001:0005a7e0       ?log@cloth@nv@@YA?AVPxVec3@physx@@AEBVPxQuat@4@@Z 000000018005b7e0 f i DxSolver.obj
 0001:0005a930       ?magnitude@PxVec3@physx@@QEBAMXZ 000000018005b930 f i DxSolver.obj
 0001:0005a970       ?map@?$DxBuffer@UDxClothData@cloth@nv@@@cloth@nv@@QEAAPEAUDxClothData@23@W4D3D11_MAP@@@Z 000000018005b970 f i DxSolver.obj
 0001:0005aa30       ?map@?$DxBuffer@UDxFrameData@cloth@nv@@@cloth@nv@@QEAAPEAUDxFrameData@23@W4D3D11_MAP@@@Z 000000018005ba30 f i DxSolver.obj
 0001:0005aaf0       ?map@?$DxBuffer@UDxIterationData@cloth@nv@@@cloth@nv@@QEAAPEAUDxIterationData@23@W4D3D11_MAP@@@Z 000000018005baf0 f i DxSolver.obj
 0001:0005abb0       ?map@?$DxDeviceVector@UDxClothData@cloth@nv@@@cloth@nv@@QEAAPEAUDxClothData@23@W4D3D11_MAP@@@Z 000000018005bbb0 f i DxSolver.obj
 0001:0005ac00       ?map@?$DxDeviceVector@UDxFrameData@cloth@nv@@@cloth@nv@@QEAAPEAUDxFrameData@23@W4D3D11_MAP@@@Z 000000018005bc00 f i DxSolver.obj
 0001:0005ac50       ?map@?$DxDeviceVector@UDxIterationData@cloth@nv@@@cloth@nv@@QEAAPEAUDxIterationData@23@W4D3D11_MAP@@@Z 000000018005bc50 f i DxSolver.obj
 0001:0005aca0       ?pop@?$Stack@VNonTrackingAllocator@ps@cloth@nv@@@internal@ps@cloth@nv@@QEAAXAEAH0@Z 000000018005bca0 f i DxSolver.obj
 0001:0005add0       ?push@?$Stack@VNonTrackingAllocator@ps@cloth@nv@@@internal@ps@cloth@nv@@QEAAXHH@Z 000000018005bdd0 f i DxSolver.obj
 0001:0005aea0       ?push@MovingAverage@cloth@nv@@QEAAXIM@Z 000000018005bea0 f i DxSolver.obj
 0001:0005b110       ?pushBack@?$Array@PEAVDxCloth@cloth@nv@@VNonTrackingAllocator@ps@23@@ps@cloth@nv@@QEAAAEAPEAVDxCloth@34@AEBQEAV534@@Z 000000018005c110 f i DxSolver.obj
 0001:0005b220       ?pushBack@?$Array@UDxIterationData@cloth@nv@@VNonTrackingAllocator@ps@23@@ps@cloth@nv@@QEAAAEAUDxIterationData@34@AEBU534@@Z 000000018005c220 f i DxSolver.obj
 0001:0005b330       ?pushBack@?$Array@USwInterCollisionData@cloth@nv@@VNonTrackingAllocator@ps@23@@ps@cloth@nv@@QEAAAEAUSwInterCollisionData@34@AEBU534@@Z 000000018005c330 f i DxSolver.obj
 0001:0005b430       ?recreate@?$Array@UDxClothData@cloth@nv@@VNonTrackingAllocator@ps@23@@ps@cloth@nv@@IEAAXI@Z 000000018005c430 f i DxSolver.obj
 0001:0005b5b0       ?recreate@?$Array@UDxIterationData@cloth@nv@@VNonTrackingAllocator@ps@23@@ps@cloth@nv@@IEAAXI@Z 000000018005c5b0 f i DxSolver.obj
 0001:0005b730       ?recreate@?$Array@USwInterCollisionData@cloth@nv@@VNonTrackingAllocator@ps@23@@ps@cloth@nv@@IEAAXI@Z 000000018005c730 f i DxSolver.obj
 0001:0005b8b0       ?remove@?$Array@PEAVDxCloth@cloth@nv@@VNonTrackingAllocator@ps@23@@ps@cloth@nv@@QEAAXI@Z 000000018005c8b0 f i DxSolver.obj
 0001:0005ba10       ?remove@?$Array@UDxClothData@cloth@nv@@VNonTrackingAllocator@ps@23@@ps@cloth@nv@@QEAAXI@Z 000000018005ca10 f i DxSolver.obj
 0001:0005bb80       ?reserve@?$Array@UDxClothData@cloth@nv@@VNonTrackingAllocator@ps@23@@ps@cloth@nv@@QEAAXI@Z 000000018005cb80 f i DxSolver.obj
 0001:0005bbe0       ?reserve@?$Array@UDxIterationData@cloth@nv@@VNonTrackingAllocator@ps@23@@ps@cloth@nv@@QEAAXI@Z 000000018005cbe0 f i DxSolver.obj
 0001:0005bc40       ?reserve@?$Array@USwInterCollisionData@cloth@nv@@VNonTrackingAllocator@ps@23@@ps@cloth@nv@@QEAAXI@Z 000000018005cc40 f i DxSolver.obj
 0001:0005bca0       ?reserve@?$DxBuffer@UDxClothData@cloth@nv@@@cloth@nv@@QEAAXI@Z 000000018005cca0 f i DxSolver.obj
 0001:0005be40       ?reserve@?$DxBuffer@UDxFrameData@cloth@nv@@@cloth@nv@@QEAAXI@Z 000000018005ce40 f i DxSolver.obj
 0001:0005bfe0       ?reserve@?$DxDeviceVector@UDxClothData@cloth@nv@@@cloth@nv@@QEAAXI@Z 000000018005cfe0 f i DxSolver.obj
 0001:0005c030       ?reserve@?$DxDeviceVector@UDxFrameData@cloth@nv@@@cloth@nv@@QEAAXI@Z 000000018005d030 f i DxSolver.obj
 0001:0005c080       ?resize@?$Array@UDxClothData@cloth@nv@@VNonTrackingAllocator@ps@23@@ps@cloth@nv@@QEAAXIAEBUDxClothData@34@@Z 000000018005d080 f i DxSolver.obj
 0001:0005c160       ?resize@?$Array@UDxIterationData@cloth@nv@@VNonTrackingAllocator@ps@23@@ps@cloth@nv@@QEAAXIAEBUDxIterationData@34@@Z 000000018005d160 f i DxSolver.obj
 0001:0005c230       ?resize@?$Array@USwInterCollisionData@cloth@nv@@VNonTrackingAllocator@ps@23@@ps@cloth@nv@@QEAAXIAEBUSwInterCollisionData@34@@Z 000000018005d230 f i DxSolver.obj
 0001:0005c300       ?resize@?$DxDeviceVector@UDxClothData@cloth@nv@@@cloth@nv@@QEAAXI@Z 000000018005d300 f i DxSolver.obj
 0001:0005c390       ?resize@?$DxDeviceVector@UDxFrameData@cloth@nv@@@cloth@nv@@QEAAXI@Z 000000018005d390 f i DxSolver.obj
 0001:0005c420       ?resourceView@?$DxBuffer@I@cloth@nv@@QEAAPEAUID3D11ShaderResourceView@@XZ 000000018005d420 f i DxSolver.obj
 0001:0005c4e0       ?resourceView@?$DxBuffer@M@cloth@nv@@QEAAPEAUID3D11ShaderResourceView@@XZ 000000018005d4e0 f i DxSolver.obj
 0001:0005c5a0       ?resourceView@?$DxBuffer@U?$Vec4T@G@cloth@nv@@@cloth@nv@@QEAAPEAUID3D11ShaderResourceView@@XZ 000000018005d5a0 f i DxSolver.obj
 0001:0005c660       ?resourceView@?$DxBuffer@UDxClothData@cloth@nv@@@cloth@nv@@QEAAPEAUID3D11ShaderResourceView@@XZ 000000018005d660 f i DxSolver.obj
 0001:0005c720       ?resourceView@?$DxBuffer@UDxConstraint@cloth@nv@@@cloth@nv@@QEAAPEAUID3D11ShaderResourceView@@XZ 000000018005d720 f i DxSolver.obj
 0001:0005c7e0       ?resourceView@?$DxBuffer@UDxIterationData@cloth@nv@@@cloth@nv@@QEAAPEAUID3D11ShaderResourceView@@XZ 000000018005d7e0 f i DxSolver.obj
 0001:0005c8a0       ?resourceView@?$DxBuffer@UDxPhaseConfig@cloth@nv@@@cloth@nv@@QEAAPEAUID3D11ShaderResourceView@@XZ 000000018005d8a0 f i DxSolver.obj
 0001:0005c960       ?resourceView@?$DxBuffer@UDxTether@cloth@nv@@@cloth@nv@@QEAAPEAUID3D11ShaderResourceView@@XZ 000000018005d960 f i DxSolver.obj
 0001:0005ca20       ?resourceView@?$DxBuffer@UIndexPair@cloth@nv@@@cloth@nv@@QEAAPEAUID3D11ShaderResourceView@@XZ 000000018005da20 f i DxSolver.obj
 0001:0005cae0       ?resourceView@?$DxBuffer@VPxVec3@physx@@@cloth@nv@@QEAAPEAUID3D11ShaderResourceView@@XZ 000000018005dae0 f i DxSolver.obj
 0001:0005cba0       ?resourceView@?$DxBuffer@VPxVec4@physx@@@cloth@nv@@QEAAPEAUID3D11ShaderResourceView@@XZ 000000018005dba0 f i DxSolver.obj
 0001:0005cc60       ?rotate@PxMat44@physx@@QEBA?BVPxVec3@2@AEBV32@@Z 000000018005dc60 f i DxSolver.obj
 0001:0005ccf0       ?rotate@PxMat44@physx@@QEBA?BVPxVec4@2@AEBV32@@Z 000000018005dcf0 f i DxSolver.obj
 0001:0005ce00       ?rsqrt@cloth@nv@@YA?AT__m128@@AEBT3@@Z 000000018005de00 f i DxSolver.obj
 0001:0005ce50       ?select@cloth@nv@@YA?AT__m128@@AEBT3@00@Z 000000018005de50 f i DxSolver.obj
 0001:0005cee0       ?setInterCollisionDistance@DxSolver@cloth@nv@@UEAAXM@Z 000000018005dee0 f i DxSolver.obj
 0001:0005cf10       ?setInterCollisionFilter@DxSolver@cloth@nv@@UEAAXP6A_NPEAX0@Z@Z 000000018005df10 f i DxSolver.obj
 0001:0005cf40       ?setInterCollisionNbIterations@DxSolver@cloth@nv@@UEAAXI@Z 000000018005df40 f i DxSolver.obj
 0001:0005cf70       ?setInterCollisionStiffness@DxSolver@cloth@nv@@UEAAXM@Z 000000018005df70 f i DxSolver.obj
 0001:0005cfa0       ?simd4f@cloth@nv@@YA?AUSimd4fTupleFactory@12@AEBUSimd4iTupleFactory@12@@Z 000000018005dfa0 f i DxSolver.obj
 0001:0005cfd0       ?simd4i@cloth@nv@@YA?AUSimd4iTupleFactory@12@HHHH@Z 000000018005dfd0 f i DxSolver.obj
 0001:0005d040       ?sin@intrinsics@physx@@YAMM@Z 000000018005e040 f i DxSolver.obj
 0001:0005d080       ?size@?$Array@PEAVDxCloth@cloth@nv@@VNonTrackingAllocator@ps@23@@ps@cloth@nv@@QEBAIXZ 000000018005e080 f i DxSolver.obj
 0001:0005d0a0       ?size@?$Array@UDxClothData@cloth@nv@@VNonTrackingAllocator@ps@23@@ps@cloth@nv@@QEBAIXZ 000000018005e0a0 f i DxSolver.obj
 0001:0005d0c0       ?size@?$Array@UDxIterationData@cloth@nv@@VNonTrackingAllocator@ps@23@@ps@cloth@nv@@QEBAIXZ 000000018005e0c0 f i DxSolver.obj
 0001:0005d0e0       ?size@?$Array@USwInterCollisionData@cloth@nv@@VNonTrackingAllocator@ps@23@@ps@cloth@nv@@QEBAIXZ 000000018005e0e0 f i DxSolver.obj
 0001:0005d100       ?size@?$DxDeviceVector@UDxClothData@cloth@nv@@@cloth@nv@@QEBAIXZ 000000018005e100 f i DxSolver.obj
 0001:0005d120       ?size@?$Range@PEAVCloth@cloth@nv@@@cloth@nv@@QEBAIXZ 000000018005e120 f i DxSolver.obj
 0001:0005d150       ?sqrt@intrinsics@physx@@YAMM@Z 000000018005e150 f i DxSolver.obj
 0001:0005d190       ?star@ps@cloth@nv@@YA?AVPxMat33@physx@@AEBVPxVec3@5@@Z 000000018005e190 f i DxSolver.obj
 0001:0005d2a0       ?swap@?$DxBatchedVector@VPxVec3@physx@@@cloth@nv@@QEAAXAEAV123@@Z 000000018005e2a0 f i DxSolver.obj
 0001:0005d3b0       ?unmap@?$DxBuffer@UDxClothData@cloth@nv@@@cloth@nv@@QEAAXXZ 000000018005e3b0 f i DxSolver.obj
 0001:0005d420       ?unmap@?$DxBuffer@UDxFrameData@cloth@nv@@@cloth@nv@@QEAAXXZ 000000018005e420 f i DxSolver.obj
 0001:0005d490       ?unmap@?$DxBuffer@UDxIterationData@cloth@nv@@@cloth@nv@@QEAAXXZ 000000018005e490 f i DxSolver.obj
 0001:0005d500       ?unmap@?$DxDeviceVector@UDxClothData@cloth@nv@@@cloth@nv@@QEAAXXZ 000000018005e500 f i DxSolver.obj
 0001:0005d540       ?unmap@?$DxDeviceVector@UDxFrameData@cloth@nv@@@cloth@nv@@QEAAXXZ 000000018005e540 f i DxSolver.obj
 0001:0005d580       ?unmap@?$DxDeviceVector@UDxIterationData@cloth@nv@@@cloth@nv@@QEAAXXZ 000000018005e580 f i DxSolver.obj
 0001:0005d5c0       ?update@?$IterationState@T__m128@@@cloth@nv@@QEAAXXZ 000000018005e5c0 f i DxSolver.obj
 0001:0005d890       ?userBytes@?$StackAllocator@$0BA@@cloth@nv@@QEBA_KXZ 000000018005e890 f i DxSolver.obj
 0001:0005d920       ?initialize@avx@@YAXXZ     000000018005e920 f   SwSolveConstraints.obj
 0001:0005da00       ??$fmadd_ps@$01@avx@@YA?AT__m256@@T1@00@Z 000000018005ea00 f   SwSolveConstraints.obj
 0001:0005da80       ??$fnmadd_ps@$01@avx@@YA?AT__m256@@T1@00@Z 000000018005ea80 f   SwSolveConstraints.obj
 0001:0005db00       ??$exp2@$01@avx@@YA?AT__m256@@AEBT1@@Z 000000018005eb00 f   SwSolveConstraints.obj
 0001:0005e020       ??$exp2@$00@avx@@YA?AT__m256@@AEBT1@@Z 000000018005f020 f i SwSolveConstraints.obj
 0001:0005e710       ??$fmadd_ps@$00@avx@@YA?AT__m256@@T1@00@Z 000000018005f710 f i SwSolveConstraints.obj
 0001:0005e7b0       ??$fnmadd_ps@$00@avx@@YA?AT__m256@@T1@00@Z 000000018005f7b0 f i SwSolveConstraints.obj
 0001:0005e850       ??$solveConstraints@$00$00@avx@@YAXPEIAMPEIBM11PEIBGAEBT__m128@@3@Z 000000018005f850 f i SwSolveConstraints.obj
 0001:00060480       ??$solveConstraints@$00$01@avx@@YAXPEIAMPEIBM11PEIBGAEBT__m128@@3@Z 0000000180061480 f i SwSolveConstraints.obj
 0001:000620b0       ??$solveConstraints@$0A@$00@avx@@YAXPEIAMPEIBM11PEIBGAEBT__m128@@3@Z 00000001800630b0 f i SwSolveConstraints.obj
 0001:00063ce0       ??$solveConstraints@$0A@$01@avx@@YAXPEIAMPEIBM11PEIBGAEBT__m128@@3@Z 0000000180064ce0 f i SwSolveConstraints.obj
 0001:00065910       ?allocate@Allocator@ps@cloth@nv@@QEAAPEAX_KPEBDH@Z 0000000180066910 f   PsAllocator.obj
 0001:00065990       ?deallocate@Allocator@ps@cloth@nv@@QEAAXPEAX@Z 0000000180066990 f   PsAllocator.obj
 0001:00065a20       ?allocate@cloth@nv@@YAPEAX_K@Z 0000000180066a20 f   Allocator.obj
 0001:00065aa0       ?deallocate@cloth@nv@@YAXPEAX@Z 0000000180066aa0 f   Allocator.obj
 0001:00065b20       InitializeNvCloth          0000000180066b20 f   Callbacks.obj
 0001:00065c30       GetNvClothAllocator        0000000180066c30 f   Callbacks.obj
 0001:00065cb0       ?LogErrorFn@cloth@nv@@YAXPEBDH0ZZ 0000000180066cb0 f   Callbacks.obj
 0001:00065d40       ?LogInvalidParameterFn@cloth@nv@@YAXPEBDH0ZZ 0000000180066d40 f   Callbacks.obj
 0001:00065dd0       ?LogWarningFn@cloth@nv@@YAXPEBDH0ZZ 0000000180066dd0 f   Callbacks.obj
 0001:00065e60       ?LogInfoFn@cloth@nv@@YAXPEBDH0ZZ 0000000180066e60 f   Callbacks.obj
 0001:00065ef0       GetNvClothAssertHandler    0000000180066ef0 f   Callbacks.obj
 0001:00065f10       ?GetNvClothProfiler@cloth@nv@@YAPEAVPxProfilerCallback@physx@@XZ 0000000180066f10 f   Callbacks.obj
 0001:00065f30       ?LogFn@cloth@nv@@YAXW4Enum@PxErrorCode@physx@@PEBDH1PEAD@Z 0000000180066f30 f   Callbacks.obj
 0001:00066120       ??$__vcrt_va_start_verify_argument_type@PEBD@@YAXXZ 0000000180067120 f i Callbacks.obj
 0001:00066130       __local_stdio_printf_options 0000000180067130 f i Callbacks.obj
 0001:00066140       _vsnprintf_s               0000000180067140 f i Callbacks.obj
 0001:000661c0       _vsnprintf_s_l             00000001800671c0 f i Callbacks.obj
 0001:00066280       NvClothCreateFactoryCPU    0000000180067280 f   Factory.obj
 0001:000662f0       NvClothCreateFactoryCUDA   00000001800672f0 f   Factory.obj
 0001:00066330       NvClothCreateFactoryDX11   0000000180067330 f   Factory.obj
 0001:000663e0       NvClothDestroyFactory      00000001800673e0 f   Factory.obj
 0001:00066450       NvClothCompiledWithCudaSupport 0000000180067450 f   Factory.obj
 0001:00066460       NvClothCompiledWithDxSupport 0000000180067460 f   Factory.obj
 0001:00066470       ?getNextFabricId@cloth@nv@@YAIXZ 0000000180067470 f   Factory.obj
 0001:00066530       ??$PX_UNUSED@PEAUCUctx_st@@@@YAXAEBQEAUCUctx_st@@@Z 0000000180067530 f i Factory.obj
 0001:00066540       ?transform@cloth@nv@@YA?AUPhaseConfig@12@AEBU312@@Z 0000000180067540 f   PhaseConfig.obj
 0001:00066670       ??0PhaseConfig@cloth@nv@@QEAA@G@Z 0000000180067670 f i PhaseConfig.obj
 0001:00066710       ??0SwCloth@cloth@nv@@QEAA@AEAVSwFactory@12@AEAVSwFabric@12@U?$Range@$$CBVPxVec4@physx@@@12@@Z 0000000180067710 f   SwCloth.obj
 0001:00066cd0       ??0SwCloth@cloth@nv@@QEAA@AEAVSwFactory@12@AEBV012@@Z 0000000180067cd0 f   SwCloth.obj
 0001:00067290       ??1SwCloth@cloth@nv@@UEAA@XZ 0000000180068290 f   SwCloth.obj
 0001:00067440       ?clone@SwCloth@cloth@nv@@UEBAPEAVCloth@23@AEAVFactory@23@@Z 0000000180068440 f   SwCloth.obj
 0001:00067490       ?getNumParticles@SwCloth@cloth@nv@@UEBAIXZ 0000000180068490 f   SwCloth.obj
 0001:000674d0       ?lockParticles@SwCloth@cloth@nv@@UEBAXXZ 00000001800684d0 f   SwCloth.obj
 0001:000674e0       ?unlockParticles@SwCloth@cloth@nv@@UEBAXXZ 00000001800684e0 f   SwCloth.obj
 0001:000674f0       ?getCurrentParticles@SwCloth@cloth@nv@@UEAA?AU?$MappedRange@VPxVec4@physx@@@23@XZ 00000001800684f0 f   SwCloth.obj
 0001:00067550       ?getCurrentParticles@SwCloth@cloth@nv@@UEBA?AU?$MappedRange@$$CBVPxVec4@physx@@@23@XZ 0000000180068550 f   SwCloth.obj
 0001:000675b0       ?getPreviousParticles@SwCloth@cloth@nv@@UEAA?AU?$MappedRange@VPxVec4@physx@@@23@XZ 00000001800685b0 f   SwCloth.obj
 0001:00067610       ?getPreviousParticles@SwCloth@cloth@nv@@UEBA?AU?$MappedRange@$$CBVPxVec4@physx@@@23@XZ 0000000180068610 f   SwCloth.obj
 0001:00067670       ?getGpuParticles@SwCloth@cloth@nv@@UEAA?AUGpuParticles@23@XZ 0000000180068670 f   SwCloth.obj
 0001:000676f0       ?setPhaseConfig@SwCloth@cloth@nv@@UEAAXU?$Range@$$CBUPhaseConfig@cloth@nv@@@23@@Z 00000001800686f0 f   SwCloth.obj
 0001:000677c0       ?setSelfCollisionIndices@SwCloth@cloth@nv@@UEAAXU?$Range@$$CBI@23@@Z 00000001800687c0 f   SwCloth.obj
 0001:00067870       ?getNumVirtualParticles@SwCloth@cloth@nv@@UEBAIXZ 0000000180068870 f   SwCloth.obj
 0001:00067890       ?getParticleAccelerations@SwCloth@cloth@nv@@UEAA?AU?$Range@VPxVec4@physx@@@23@XZ 0000000180068890 f   SwCloth.obj
 0001:00067980       ?clearParticleAccelerations@SwCloth@cloth@nv@@UEAAXXZ 0000000180068980 f   SwCloth.obj
 0001:00067a00       ?setVirtualParticles@SwCloth@cloth@nv@@UEAAXU?$Range@$$BY03$$CBI@23@U?$Range@$$CBVPxVec3@physx@@@23@@Z 0000000180068a00 f   SwCloth.obj
 0001:00067c30       ?setParticleBounds@SwCloth@cloth@nv@@QEAAXPEBM@Z 0000000180068c30 f   SwCloth.obj
 0001:00067d30       ?push@SwCloth@cloth@nv@@QEAA?AU?$Range@VPxVec4@physx@@@23@AEAUSwConstraints@23@@Z 0000000180068d30 f   SwCloth.obj
 0001:00067eb0       ?clear@SwCloth@cloth@nv@@SAXAEAUSwConstraints@23@@Z 0000000180068eb0 f   SwCloth.obj
 0001:00067f60       ?clampTriangleCount@SwCloth@cloth@nv@@SA?AU?$Range@$$CBVPxVec3@physx@@@23@U423@I@Z 0000000180068f60 f   SwCloth.obj
 0001:000686b0       ??$?4VNonTrackingAllocator@ps@cloth@nv@@@?$Array@VPxVec4@physx@@VNonTrackingAllocator@ps@cloth@nv@@@ps@cloth@nv@@QEAAAEAV0123@AEBV0123@@Z 00000001800696b0 f i SwCloth.obj
 0001:00068770       ??$copy@VNonTrackingAllocator@ps@cloth@nv@@@?$Array@IVNonTrackingAllocator@ps@cloth@nv@@@ps@cloth@nv@@IEAAXAEBV0123@@Z 0000000180069770 f i SwCloth.obj
 0001:00068870       ??$copy@VNonTrackingAllocator@ps@cloth@nv@@@?$Array@U?$Vec4T@G@cloth@nv@@VNonTrackingAllocator@ps@23@@ps@cloth@nv@@IEAAXAEBV0123@@Z 0000000180069870 f i SwCloth.obj
 0001:00068970       ??$copy@VNonTrackingAllocator@ps@cloth@nv@@@?$Array@UIndexPair@cloth@nv@@VNonTrackingAllocator@ps@23@@ps@cloth@nv@@IEAAXAEBV0123@@Z 0000000180069970 f i SwCloth.obj
 0001:00068a70       ??$copy@VNonTrackingAllocator@ps@cloth@nv@@@?$Array@VPxVec3@physx@@VNonTrackingAllocator@ps@cloth@nv@@@ps@cloth@nv@@IEAAXAEBV0123@@Z 0000000180069a70 f i SwCloth.obj
 0001:00068b70       ??$copy@VSwCloth@cloth@nv@@V123@@cloth@nv@@YAXAEAVSwCloth@01@AEBV201@@Z 0000000180069b70 f i SwCloth.obj
 0001:00069030       ??$getMappedParticles@$$CBVPxVec4@physx@@@?$ClothImpl@VSwCloth@cloth@nv@@@cloth@nv@@QEBA?AU?$MappedRange@$$CBVPxVec4@physx@@@12@PEBVPxVec4@physx@@@Z 000000018006a030 f i SwCloth.obj
 0001:00069160       ??$getMappedParticles@VPxVec4@physx@@@?$ClothImpl@VSwCloth@cloth@nv@@@cloth@nv@@QEBA?AU?$MappedRange@VPxVec4@physx@@@12@PEAVPxVec4@physx@@@Z 000000018006a160 f i SwCloth.obj
 0001:00069290       ??$initialize@VSwCloth@cloth@nv@@@cloth@nv@@YAXAEAVSwCloth@01@PEBVPxVec4@physx@@1@Z 000000018006a290 f i SwCloth.obj
 0001:00069910       ??$swap@PEAU?$Vec4T@G@cloth@nv@@@ps@cloth@nv@@YAXAEAPEAU?$Vec4T@G@12@0@Z 000000018006a910 f i SwCloth.obj
 0001:00069980       ??$swap@VPxVec4@physx@@VNonTrackingAllocator@ps@cloth@nv@@@ps@cloth@nv@@YAXAEAV?$Array@VPxVec4@physx@@VNonTrackingAllocator@ps@cloth@nv@@@012@0@Z 000000018006a980 f i SwCloth.obj
 0001:000699d0       ??0?$Array@IVNonTrackingAllocator@ps@cloth@nv@@@ps@cloth@nv@@QEAA@AEBV0123@AEBVNonTrackingAllocator@123@@Z 000000018006a9d0 f i SwCloth.obj
 0001:00069a30       ??0?$Array@U?$Vec4T@G@cloth@nv@@VNonTrackingAllocator@ps@23@@ps@cloth@nv@@QEAA@AEBV0123@AEBVNonTrackingAllocator@123@@Z 000000018006aa30 f i SwCloth.obj
 0001:00069a90       ??0?$Array@UIndexPair@cloth@nv@@VNonTrackingAllocator@ps@23@@ps@cloth@nv@@QEAA@AEBV0123@AEBVNonTrackingAllocator@123@@Z 000000018006aa90 f i SwCloth.obj
 0001:00069af0       ??0?$Array@UIndexPair@cloth@nv@@VNonTrackingAllocator@ps@23@@ps@cloth@nv@@QEAA@AEBVNonTrackingAllocator@123@@Z 000000018006aaf0 f i SwCloth.obj
 0001:00069b40       ??0?$Array@VPxVec3@physx@@VNonTrackingAllocator@ps@cloth@nv@@@ps@cloth@nv@@QEAA@AEBV0123@AEBVNonTrackingAllocator@123@@Z 000000018006ab40 f i SwCloth.obj
 0001:00069ba0       ??0?$Array@VPxVec3@physx@@VNonTrackingAllocator@ps@cloth@nv@@@ps@cloth@nv@@QEAA@AEBVNonTrackingAllocator@123@@Z 000000018006aba0 f i SwCloth.obj
 0001:00069bf0       ??0?$ClothImpl@VSwCloth@cloth@nv@@@cloth@nv@@QEAA@XZ 000000018006abf0 f i SwCloth.obj
 0001:00069da0       ??0SwConstraints@cloth@nv@@QEAA@XZ 000000018006ada0 f i SwCloth.obj
 0001:00069e20       ??1?$Array@UIndexPair@cloth@nv@@VNonTrackingAllocator@ps@23@@ps@cloth@nv@@QEAA@XZ 000000018006ae20 f i SwCloth.obj
 0001:00069ec0       ??1?$ClothImpl@VSwCloth@cloth@nv@@@cloth@nv@@UEAA@XZ 000000018006aec0 f i SwCloth.obj
 0001:00069f20       ??1SwConstraints@cloth@nv@@QEAA@XZ 000000018006af20 f i SwCloth.obj
 0001:00069f80       ??4?$Array@VPxVec4@physx@@VNonTrackingAllocator@ps@cloth@nv@@@ps@cloth@nv@@QEAAAEAV0123@AEBV0123@@Z 000000018006af80 f i SwCloth.obj
 0001:00069fd0       ??A?$Array@UIndexPair@cloth@nv@@VNonTrackingAllocator@ps@23@@ps@cloth@nv@@QEAAAEAUIndexPair@23@I@Z 000000018006afd0 f i SwCloth.obj
 0001:0006a080       ??A?$Array@VPxVec3@physx@@VNonTrackingAllocator@ps@cloth@nv@@@ps@cloth@nv@@QEAAAEAVPxVec3@physx@@I@Z 000000018006b080 f i SwCloth.obj
 0001:0006a130       ??A?$Array@VPxVec4@physx@@VNonTrackingAllocator@ps@cloth@nv@@@ps@cloth@nv@@QEAAAEAVPxVec4@physx@@I@Z 000000018006b130 f i SwCloth.obj
 0001:0006a1e0       ??_G?$ClothImpl@VSwCloth@cloth@nv@@@cloth@nv@@UEAAPEAXI@Z 000000018006b1e0 f i SwCloth.obj
 0001:0006a1e0       ??_E?$ClothImpl@VSwCloth@cloth@nv@@@cloth@nv@@UEAAPEAXI@Z 000000018006b1e0 f i SwCloth.obj
 0001:0006a270       ??_GSwCloth@cloth@nv@@UEAAPEAXI@Z 000000018006b270 f i SwCloth.obj
 0001:0006a270       ??_ESwCloth@cloth@nv@@UEAAPEAXI@Z 000000018006b270 f i SwCloth.obj
 0001:0006a300       ?allocate@?$Array@UIndexPair@cloth@nv@@VNonTrackingAllocator@ps@23@@ps@cloth@nv@@IEAAPEAUIndexPair@34@I@Z 000000018006b300 f i SwCloth.obj
 0001:0006a3d0       ?assign@?$Array@VPxVec3@physx@@VNonTrackingAllocator@ps@cloth@nv@@@ps@cloth@nv@@QEAAXPEBVPxVec3@physx@@0@Z 000000018006b3d0 f i SwCloth.obj
 0001:0006a480       ?assign@?$Array@VPxVec4@physx@@VNonTrackingAllocator@ps@cloth@nv@@@ps@cloth@nv@@QEAAXPEBVPxVec4@physx@@0@Z 000000018006b480 f i SwCloth.obj
 0001:0006a520       ?begin@?$Array@UIndexPair@cloth@nv@@VNonTrackingAllocator@ps@23@@ps@cloth@nv@@QEAAPEAUIndexPair@34@XZ 000000018006b520 f i SwCloth.obj
 0001:0006a540       ?begin@?$Array@UIndexPair@cloth@nv@@VNonTrackingAllocator@ps@23@@ps@cloth@nv@@QEBAPEBUIndexPair@34@XZ 000000018006b540 f i SwCloth.obj
 0001:0006a560       ?begin@?$Array@VPxVec3@physx@@VNonTrackingAllocator@ps@cloth@nv@@@ps@cloth@nv@@QEAAPEAVPxVec3@physx@@XZ 000000018006b560 f i SwCloth.obj
 0001:0006a580       ?begin@?$Array@VPxVec3@physx@@VNonTrackingAllocator@ps@cloth@nv@@@ps@cloth@nv@@QEBAPEBVPxVec3@physx@@XZ 000000018006b580 f i SwCloth.obj
 0001:0006a5a0       ?capacity@?$Array@UIndexPair@cloth@nv@@VNonTrackingAllocator@ps@23@@ps@cloth@nv@@QEBAIXZ 000000018006b5a0 f i SwCloth.obj
 0001:0006a5c0       ?capacityIncrement@?$Array@VPxVec3@physx@@VNonTrackingAllocator@ps@cloth@nv@@@ps@cloth@nv@@IEBAIXZ 000000018006b5c0 f i SwCloth.obj
 0001:0006a630       ?clear@?$Array@VPxVec4@physx@@VNonTrackingAllocator@ps@cloth@nv@@@ps@cloth@nv@@QEAAXXZ 000000018006b630 f i SwCloth.obj
 0001:0006a6a0       ?clearInertia@?$ClothImpl@VSwCloth@cloth@nv@@@cloth@nv@@UEAAXXZ 000000018006b6a0 f i SwCloth.obj
 0001:0006a760       ?clearInterpolation@?$ClothImpl@VSwCloth@cloth@nv@@@cloth@nv@@UEAAXXZ 000000018006b760 f i SwCloth.obj
 0001:0006a8c0       ?clearMotionConstraints@?$ClothImpl@VSwCloth@cloth@nv@@@cloth@nv@@UEAAXXZ 000000018006b8c0 f i SwCloth.obj
 0001:0006a930       ?clearSeparationConstraints@?$ClothImpl@VSwCloth@cloth@nv@@@cloth@nv@@UEAAXXZ 000000018006b930 f i SwCloth.obj
 0001:0006a9a0       ?copy@?$Array@UIndexPair@cloth@nv@@VNonTrackingAllocator@ps@23@@ps@cloth@nv@@KAXPEAUIndexPair@34@0PEBU534@@Z 000000018006b9a0 f i SwCloth.obj
 0001:0006aa80       ?create@?$Array@UIndexPair@cloth@nv@@VNonTrackingAllocator@ps@23@@ps@cloth@nv@@KAXPEAUIndexPair@34@0AEBU534@@Z 000000018006ba80 f i SwCloth.obj
 0001:0006ab30       ?create@?$Array@UPhaseConfig@cloth@nv@@VNonTrackingAllocator@ps@23@@ps@cloth@nv@@KAXPEAUPhaseConfig@34@0AEBU534@@Z 000000018006bb30 f i SwCloth.obj
 0001:0006abf0       ?deallocate@?$Array@UIndexPair@cloth@nv@@VNonTrackingAllocator@ps@23@@ps@cloth@nv@@IEAAXPEAX@Z 000000018006bbf0 f i SwCloth.obj
 0001:0006ac40       ?destroy@?$Array@UIndexPair@cloth@nv@@VNonTrackingAllocator@ps@23@@ps@cloth@nv@@KAXPEAUIndexPair@34@0@Z 000000018006bc40 f i SwCloth.obj
 0001:0006ac80       ?empty@?$Array@U?$Vec4T@G@cloth@nv@@VNonTrackingAllocator@ps@23@@ps@cloth@nv@@QEBA_NXZ 000000018006bc80 f i SwCloth.obj
 0001:0006ace0       ?empty@?$Array@UIndexPair@cloth@nv@@VNonTrackingAllocator@ps@23@@ps@cloth@nv@@QEBA_NXZ 000000018006bce0 f i SwCloth.obj
 0001:0006ad40       ?enableContinuousCollision@?$ClothImpl@VSwCloth@cloth@nv@@@cloth@nv@@UEAAX_N@Z 000000018006bd40 f i SwCloth.obj
 0001:0006adf0       ?end@?$Array@UIndexPair@cloth@nv@@VNonTrackingAllocator@ps@23@@ps@cloth@nv@@QEAAPEAUIndexPair@34@XZ 000000018006bdf0 f i SwCloth.obj
 0001:0006ae20       ?end@?$Array@VPxVec3@physx@@VNonTrackingAllocator@ps@cloth@nv@@@ps@cloth@nv@@QEAAPEAVPxVec3@physx@@XZ 000000018006be20 f i SwCloth.obj
 0001:0006ae50       ?front@?$Array@VPxVec4@physx@@VNonTrackingAllocator@ps@cloth@nv@@@ps@cloth@nv@@QEBAAEBVPxVec4@physx@@XZ 000000018006be50 f i SwCloth.obj
 0001:0006af00       ?getAccelerationFilterWidth@?$ClothImpl@VSwCloth@cloth@nv@@@cloth@nv@@UEBAIXZ 000000018006bf00 f i SwCloth.obj
 0001:0006af50       ?getAngularDrag@?$ClothImpl@VSwCloth@cloth@nv@@@cloth@nv@@UEBA?AVPxVec3@physx@@XZ 000000018006bf50 f i SwCloth.obj
 0001:0006afe0       ?getAngularInertia@?$ClothImpl@VSwCloth@cloth@nv@@@cloth@nv@@UEBA?AVPxVec3@physx@@XZ 000000018006bfe0 f i SwCloth.obj
 0001:0006b040       ?getBoundingBoxCenter@?$ClothImpl@VSwCloth@cloth@nv@@@cloth@nv@@UEBAAEBVPxVec3@physx@@XZ 000000018006c040 f i SwCloth.obj
 0001:0006b080       ?getBoundingBoxScale@?$ClothImpl@VSwCloth@cloth@nv@@@cloth@nv@@UEBAAEBVPxVec3@physx@@XZ 000000018006c080 f i SwCloth.obj
 0001:0006b0c0       ?getCentrifugalInertia@?$ClothImpl@VSwCloth@cloth@nv@@@cloth@nv@@UEBA?AVPxVec3@physx@@XZ 000000018006c0c0 f i SwCloth.obj
 0001:0006b120       ?getChildCloth@?$ClothImpl@VSwCloth@cloth@nv@@@cloth@nv@@QEAAPEAVSwCloth@23@XZ 000000018006c120 f i SwCloth.obj
 0001:0006b130       ?getChildCloth@?$ClothImpl@VSwCloth@cloth@nv@@@cloth@nv@@QEBAPEBVSwCloth@23@XZ 000000018006c130 f i SwCloth.obj
 0001:0006b140       ?getCollisionMassScale@?$ClothImpl@VSwCloth@cloth@nv@@@cloth@nv@@UEBAMXZ 000000018006c140 f i SwCloth.obj
 0001:0006b190       ?getDamping@?$ClothImpl@VSwCloth@cloth@nv@@@cloth@nv@@UEBA?AVPxVec3@physx@@XZ 000000018006c190 f i SwCloth.obj
 0001:0006b220       ?getDragCoefficient@?$ClothImpl@VSwCloth@cloth@nv@@@cloth@nv@@UEBAMXZ 000000018006c220 f i SwCloth.obj
 0001:0006b280       ?getFabric@?$ClothImpl@VSwCloth@cloth@nv@@@cloth@nv@@UEBAAEAVFabric@23@XZ 000000018006c280 f i SwCloth.obj
 0001:0006b2d0       ?getFactory@?$ClothImpl@VSwCloth@cloth@nv@@@cloth@nv@@UEBAAEAVFactory@23@XZ 000000018006c2d0 f i SwCloth.obj
 0001:0006b320       ?getFluidDensity@?$ClothImpl@VSwCloth@cloth@nv@@@cloth@nv@@UEBAMXZ 000000018006c320 f i SwCloth.obj
 0001:0006b360       ?getFriction@?$ClothImpl@VSwCloth@cloth@nv@@@cloth@nv@@UEBAMXZ 000000018006c360 f i SwCloth.obj
 0001:0006b3b0       ?getGravity@?$ClothImpl@VSwCloth@cloth@nv@@@cloth@nv@@UEBA?AVPxVec3@physx@@XZ 000000018006c3b0 f i SwCloth.obj
 0001:0006b410       ?getLiftCoefficient@?$ClothImpl@VSwCloth@cloth@nv@@@cloth@nv@@UEBAMXZ 000000018006c410 f i SwCloth.obj
 0001:0006b470       ?getLinearDrag@?$ClothImpl@VSwCloth@cloth@nv@@@cloth@nv@@UEBA?AVPxVec3@physx@@XZ 000000018006c470 f i SwCloth.obj
 0001:0006b500       ?getLinearInertia@?$ClothImpl@VSwCloth@cloth@nv@@@cloth@nv@@UEBA?AVPxVec3@physx@@XZ 000000018006c500 f i SwCloth.obj
 0001:0006b560       ?getMotionConstraintBias@?$ClothImpl@VSwCloth@cloth@nv@@@cloth@nv@@UEBAMXZ 000000018006c560 f i SwCloth.obj
 0001:0006b5b0       ?getMotionConstraintScale@?$ClothImpl@VSwCloth@cloth@nv@@@cloth@nv@@UEBAMXZ 000000018006c5b0 f i SwCloth.obj
 0001:0006b600       ?getMotionConstraintStiffness@?$ClothImpl@VSwCloth@cloth@nv@@@cloth@nv@@UEBAMXZ 000000018006c600 f i SwCloth.obj
 0001:0006b660       ?getMotionConstraints@?$ClothImpl@VSwCloth@cloth@nv@@@cloth@nv@@UEAA?AU?$Range@VPxVec4@physx@@@23@XZ 000000018006c660 f i SwCloth.obj
 0001:0006b700       ?getNumCapsules@?$ClothImpl@VSwCloth@cloth@nv@@@cloth@nv@@UEBAIXZ 000000018006c700 f i SwCloth.obj
 0001:0006b750       ?getNumConvexes@?$ClothImpl@VSwCloth@cloth@nv@@@cloth@nv@@UEBAIXZ 000000018006c750 f i SwCloth.obj
 0001:0006b7a0       ?getNumMotionConstraints@?$ClothImpl@VSwCloth@cloth@nv@@@cloth@nv@@UEBAIXZ 000000018006c7a0 f i SwCloth.obj
 0001:0006b7f0       ?getNumParticleAccelerations@?$ClothImpl@VSwCloth@cloth@nv@@@cloth@nv@@UEBAIXZ 000000018006c7f0 f i SwCloth.obj
 0001:0006b840       ?getNumPlanes@?$ClothImpl@VSwCloth@cloth@nv@@@cloth@nv@@UEBAIXZ 000000018006c840 f i SwCloth.obj
 0001:0006b890       ?getNumRestPositions@?$ClothImpl@VSwCloth@cloth@nv@@@cloth@nv@@UEBAIXZ 000000018006c890 f i SwCloth.obj
 0001:0006b8e0       ?getNumSelfCollisionIndices@?$ClothImpl@VSwCloth@cloth@nv@@@cloth@nv@@UEBAIXZ 000000018006c8e0 f i SwCloth.obj
 0001:0006b930       ?getNumSeparationConstraints@?$ClothImpl@VSwCloth@cloth@nv@@@cloth@nv@@UEBAIXZ 000000018006c930 f i SwCloth.obj
 0001:0006b980       ?getNumSpheres@?$ClothImpl@VSwCloth@cloth@nv@@@cloth@nv@@UEBAIXZ 000000018006c980 f i SwCloth.obj
 0001:0006b9d0       ?getNumTriangles@?$ClothImpl@VSwCloth@cloth@nv@@@cloth@nv@@UEBAIXZ 000000018006c9d0 f i SwCloth.obj
 0001:0006ba30       ?getNumVirtualParticleWeights@?$ClothImpl@VSwCloth@cloth@nv@@@cloth@nv@@UEBAIXZ 000000018006ca30 f i SwCloth.obj
 0001:0006ba80       ?getPreviousIterationDt@?$ClothImpl@VSwCloth@cloth@nv@@@cloth@nv@@UEBAMXZ 000000018006ca80 f i SwCloth.obj
 0001:0006bac0       ?getRotation@?$ClothImpl@VSwCloth@cloth@nv@@@cloth@nv@@UEBAAEBVPxQuat@physx@@XZ 000000018006cac0 f i SwCloth.obj
 0001:0006bae0       ?getSelfCollisionDistance@?$ClothImpl@VSwCloth@cloth@nv@@@cloth@nv@@UEBAMXZ 000000018006cae0 f i SwCloth.obj
 0001:0006bb30       ?getSelfCollisionStiffness@?$ClothImpl@VSwCloth@cloth@nv@@@cloth@nv@@UEBAMXZ 000000018006cb30 f i SwCloth.obj
 0001:0006bb90       ?getSeparationConstraints@?$ClothImpl@VSwCloth@cloth@nv@@@cloth@nv@@UEAA?AU?$Range@VPxVec4@physx@@@23@XZ 000000018006cb90 f i SwCloth.obj
 0001:0006bc30       ?getSleepAfterCount@?$ClothImpl@VSwCloth@cloth@nv@@@cloth@nv@@UEBAIXZ 000000018006cc30 f i SwCloth.obj
 0001:0006bc50       ?getSleepPassCount@?$ClothImpl@VSwCloth@cloth@nv@@@cloth@nv@@UEBAIXZ 000000018006cc50 f i SwCloth.obj
 0001:0006bc70       ?getSleepTestInterval@?$ClothImpl@VSwCloth@cloth@nv@@@cloth@nv@@UEBAIXZ 000000018006cc70 f i SwCloth.obj
 0001:0006bc90       ?getSleepThreshold@?$ClothImpl@VSwCloth@cloth@nv@@@cloth@nv@@UEBAMXZ 000000018006cc90 f i SwCloth.obj
 0001:0006bcd0       ?getSolverFrequency@?$ClothImpl@VSwCloth@cloth@nv@@@cloth@nv@@UEBAMXZ 000000018006ccd0 f i SwCloth.obj
 0001:0006bd10       ?getStiffnessFrequency@?$ClothImpl@VSwCloth@cloth@nv@@@cloth@nv@@UEBAMXZ 000000018006cd10 f i SwCloth.obj
 0001:0006bd50       ?getTetherConstraintScale@?$ClothImpl@VSwCloth@cloth@nv@@@cloth@nv@@UEBAMXZ 000000018006cd50 f i SwCloth.obj
 0001:0006bda0       ?getTetherConstraintStiffness@?$ClothImpl@VSwCloth@cloth@nv@@@cloth@nv@@UEBAMXZ 000000018006cda0 f i SwCloth.obj
 0001:0006be00       ?getTranslation@?$ClothImpl@VSwCloth@cloth@nv@@@cloth@nv@@UEBAAEBVPxVec3@physx@@XZ 000000018006ce00 f i SwCloth.obj
 0001:0006be20       ?getUserData@?$ClothImpl@VSwCloth@cloth@nv@@@cloth@nv@@UEBAPEAXXZ 000000018006ce20 f i SwCloth.obj
 0001:0006be70       ?getWindVelocity@?$ClothImpl@VSwCloth@cloth@nv@@@cloth@nv@@UEBA?AVPxVec3@physx@@XZ 000000018006ce70 f i SwCloth.obj
 0001:0006bed0       ?grow@?$Array@UIndexPair@cloth@nv@@VNonTrackingAllocator@ps@23@@ps@cloth@nv@@IEAAXI@Z 000000018006ced0 f i SwCloth.obj
 0001:0006bf80       ?growAndPushBack@?$Array@VPxVec3@physx@@VNonTrackingAllocator@ps@cloth@nv@@@ps@cloth@nv@@IEAAAEAVPxVec3@physx@@AEBV56@@Z 000000018006cf80 f i SwCloth.obj
 0001:0006c1b0       ?ignoreVelocityDiscontinuity@?$ClothImpl@VSwCloth@cloth@nv@@@cloth@nv@@UEAAXXZ 000000018006d1b0 f i SwCloth.obj
 0001:0006c1d0       ?isAsleep@?$ClothImpl@VSwCloth@cloth@nv@@@cloth@nv@@UEBA_NXZ 000000018006d1d0 f i SwCloth.obj
 0001:0006c220       ?isContinuousCollisionEnabled@?$ClothImpl@VSwCloth@cloth@nv@@@cloth@nv@@UEBA_NXZ 000000018006d220 f i SwCloth.obj
 0001:0006c270       ?isInUserMemory@?$Array@UIndexPair@cloth@nv@@VNonTrackingAllocator@ps@23@@ps@cloth@nv@@QEBAIXZ 000000018006d270 f i SwCloth.obj
 0001:0006c290       ?isSleeping@?$ClothImpl@VSwCloth@cloth@nv@@@cloth@nv@@UEBA_NXZ 000000018006d290 f i SwCloth.obj
 0001:0006c300       ?notifyChanged@SwCloth@cloth@nv@@QEAAXXZ 000000018006d300 f i SwCloth.obj
 0001:0006c310       ?pop@SwConstraints@cloth@nv@@QEAAXXZ 000000018006d310 f i SwCloth.obj
 0001:0006c3a0       ?pushBack@?$Array@VPxVec3@physx@@VNonTrackingAllocator@ps@cloth@nv@@@ps@cloth@nv@@QEAAAEAVPxVec3@physx@@AEBV56@@Z 000000018006d3a0 f i SwCloth.obj
 0001:0006c4a0       ?putToSleep@?$ClothImpl@VSwCloth@cloth@nv@@@cloth@nv@@UEAAXXZ 000000018006d4a0 f i SwCloth.obj
 0001:0006c4d0       ?recreate@?$Array@UIndexPair@cloth@nv@@VNonTrackingAllocator@ps@23@@ps@cloth@nv@@IEAAXI@Z 000000018006d4d0 f i SwCloth.obj
 0001:0006c640       ?replaceWithLast@?$Array@IVNonTrackingAllocator@ps@cloth@nv@@@ps@cloth@nv@@QEAAXI@Z 000000018006d640 f i SwCloth.obj
 0001:0006c730       ?replaceWithLast@?$Array@IVNonTrackingAllocator@ps@cloth@nv@@@ps@cloth@nv@@QEAAXPEAI@Z 000000018006d730 f i SwCloth.obj
 0001:0006c790       ?replaceWithLast@?$Array@UIndexPair@cloth@nv@@VNonTrackingAllocator@ps@23@@ps@cloth@nv@@QEAAXI@Z 000000018006d790 f i SwCloth.obj
 0001:0006c880       ?replaceWithLast@?$Array@UIndexPair@cloth@nv@@VNonTrackingAllocator@ps@23@@ps@cloth@nv@@QEAAXPEAUIndexPair@34@@Z 000000018006d880 f i SwCloth.obj
 0001:0006c8e0       ?reserve@?$Array@UIndexPair@cloth@nv@@VNonTrackingAllocator@ps@23@@ps@cloth@nv@@QEAAXI@Z 000000018006d8e0 f i SwCloth.obj
 0001:0006c940       ?resize@?$Array@UIndexPair@cloth@nv@@VNonTrackingAllocator@ps@23@@ps@cloth@nv@@QEAAXIAEBUIndexPair@34@@Z 000000018006d940 f i SwCloth.obj
 0001:0006ca10       ?resize@?$Array@UPhaseConfig@cloth@nv@@VNonTrackingAllocator@ps@23@@ps@cloth@nv@@QEAAXIAEBUPhaseConfig@34@@Z 000000018006da10 f i SwCloth.obj
 0001:0006cae0       ?resizeUninitialized@?$Array@VPxVec3@physx@@VNonTrackingAllocator@ps@cloth@nv@@@ps@cloth@nv@@QEAAXI@Z 000000018006dae0 f i SwCloth.obj
 0001:0006cb40       ?setAcceleationFilterWidth@?$ClothImpl@VSwCloth@cloth@nv@@@cloth@nv@@UEAAXI@Z 000000018006db40 f i SwCloth.obj
 0001:0006cb90       ?setAngularDrag@?$ClothImpl@VSwCloth@cloth@nv@@@cloth@nv@@UEAAXAEBVPxVec3@physx@@@Z 000000018006db90 f i SwCloth.obj
 0001:0006cc70       ?setAngularInertia@?$ClothImpl@VSwCloth@cloth@nv@@@cloth@nv@@UEAAXAEBVPxVec3@physx@@@Z 000000018006dc70 f i SwCloth.obj
 0001:0006cd30       ?setCapsules@?$ClothImpl@VSwCloth@cloth@nv@@@cloth@nv@@UEAAXU?$Range@$$CBI@23@II@Z 000000018006dd30 f i SwCloth.obj
 0001:0006d2b0       ?setCentrifugalInertia@?$ClothImpl@VSwCloth@cloth@nv@@@cloth@nv@@UEAAXAEBVPxVec3@physx@@@Z 000000018006e2b0 f i SwCloth.obj
 0001:0006d370       ?setCollisionMassScale@?$ClothImpl@VSwCloth@cloth@nv@@@cloth@nv@@UEAAXM@Z 000000018006e370 f i SwCloth.obj
 0001:0006d420       ?setConvexes@?$ClothImpl@VSwCloth@cloth@nv@@@cloth@nv@@UEAAXU?$Range@$$CBI@23@II@Z 000000018006e420 f i SwCloth.obj
 0001:0006d930       ?setDamping@?$ClothImpl@VSwCloth@cloth@nv@@@cloth@nv@@UEAAXAEBVPxVec3@physx@@@Z 000000018006e930 f i SwCloth.obj
 0001:0006da10       ?setDragCoefficient@?$ClothImpl@VSwCloth@cloth@nv@@@cloth@nv@@UEAAXM@Z 000000018006ea10 f i SwCloth.obj
 0001:0006db30       ?setFluidDensity@?$ClothImpl@VSwCloth@cloth@nv@@@cloth@nv@@UEAAXM@Z 000000018006eb30 f i SwCloth.obj
 0001:0006dc40       ?setFriction@?$ClothImpl@VSwCloth@cloth@nv@@@cloth@nv@@UEAAXM@Z 000000018006ec40 f i SwCloth.obj
 0001:0006dcb0       ?setGravity@?$ClothImpl@VSwCloth@cloth@nv@@@cloth@nv@@UEAAXAEBVPxVec3@physx@@@Z 000000018006ecb0 f i SwCloth.obj
 0001:0006dd70       ?setLiftCoefficient@?$ClothImpl@VSwCloth@cloth@nv@@@cloth@nv@@UEAAXM@Z 000000018006ed70 f i SwCloth.obj
 0001:0006de90       ?setLinearDrag@?$ClothImpl@VSwCloth@cloth@nv@@@cloth@nv@@UEAAXAEBVPxVec3@physx@@@Z 000000018006ee90 f i SwCloth.obj
 0001:0006df70       ?setLinearInertia@?$ClothImpl@VSwCloth@cloth@nv@@@cloth@nv@@UEAAXAEBVPxVec3@physx@@@Z 000000018006ef70 f i SwCloth.obj
 0001:0006e030       ?setMotionConstraintScaleBias@?$ClothImpl@VSwCloth@cloth@nv@@@cloth@nv@@UEAAXMM@Z 000000018006f030 f i SwCloth.obj
 0001:0006e120       ?setMotionConstraintStiffness@?$ClothImpl@VSwCloth@cloth@nv@@@cloth@nv@@UEAAXM@Z 000000018006f120 f i SwCloth.obj
 0001:0006e1f0       ?setPlanes@?$ClothImpl@VSwCloth@cloth@nv@@@cloth@nv@@UEAAXU?$Range@$$CBVPxVec4@physx@@@23@0@Z 000000018006f1f0 f i SwCloth.obj
 0001:0006e740       ?setPlanes@?$ClothImpl@VSwCloth@cloth@nv@@@cloth@nv@@UEAAXU?$Range@$$CBVPxVec4@physx@@@23@II@Z 000000018006f740 f i SwCloth.obj
 0001:0006f360       ?setRestPositions@?$ClothImpl@VSwCloth@cloth@nv@@@cloth@nv@@UEAAXU?$Range@$$CBVPxVec4@physx@@@23@@Z 0000000180070360 f i SwCloth.obj
 0001:0006f510       ?setRotation@?$ClothImpl@VSwCloth@cloth@nv@@@cloth@nv@@UEAAXAEBVPxQuat@physx@@@Z 0000000180070510 f i SwCloth.obj
 0001:0006f5b0       ?setSelfCollisionDistance@?$ClothImpl@VSwCloth@cloth@nv@@@cloth@nv@@UEAAXM@Z 00000001800705b0 f i SwCloth.obj
 0001:0006f660       ?setSelfCollisionStiffness@?$ClothImpl@VSwCloth@cloth@nv@@@cloth@nv@@UEAAXM@Z 0000000180070660 f i SwCloth.obj
 0001:0006f790       ?setSleepAfterCount@?$ClothImpl@VSwCloth@cloth@nv@@@cloth@nv@@UEAAXI@Z 0000000180070790 f i SwCloth.obj
 0001:0006f820       ?setSleepTestInterval@?$ClothImpl@VSwCloth@cloth@nv@@@cloth@nv@@UEAAXI@Z 0000000180070820 f i SwCloth.obj
 0001:0006f8b0       ?setSleepThreshold@?$ClothImpl@VSwCloth@cloth@nv@@@cloth@nv@@UEAAXM@Z 00000001800708b0 f i SwCloth.obj
 0001:0006f950       ?setSolverFrequency@?$ClothImpl@VSwCloth@cloth@nv@@@cloth@nv@@UEAAXM@Z 0000000180070950 f i SwCloth.obj
 0001:0006fa00       ?setSpheres@?$ClothImpl@VSwCloth@cloth@nv@@@cloth@nv@@UEAAXU?$Range@$$CBVPxVec4@physx@@@23@0@Z 0000000180070a00 f i SwCloth.obj
 0001:0006ff50       ?setSpheres@?$ClothImpl@VSwCloth@cloth@nv@@@cloth@nv@@UEAAXU?$Range@$$CBVPxVec4@physx@@@23@II@Z 0000000180070f50 f i SwCloth.obj
 0001:00070a40       ?setStiffnessFrequency@?$ClothImpl@VSwCloth@cloth@nv@@@cloth@nv@@UEAAXM@Z 0000000180071a40 f i SwCloth.obj
 0001:00070ac0       ?setTetherConstraintScale@?$ClothImpl@VSwCloth@cloth@nv@@@cloth@nv@@UEAAXM@Z 0000000180071ac0 f i SwCloth.obj
 0001:00070b70       ?setTetherConstraintStiffness@?$ClothImpl@VSwCloth@cloth@nv@@@cloth@nv@@UEAAXM@Z 0000000180071b70 f i SwCloth.obj
 0001:00070c40       ?setTranslation@?$ClothImpl@VSwCloth@cloth@nv@@@cloth@nv@@UEAAXAEBVPxVec3@physx@@@Z 0000000180071c40 f i SwCloth.obj
 0001:00070d00       ?setTriangles@?$ClothImpl@VSwCloth@cloth@nv@@@cloth@nv@@UEAAXU?$Range@$$CBVPxVec3@physx@@@23@0I@Z 0000000180071d00 f i SwCloth.obj
 0001:000713f0       ?setTriangles@?$ClothImpl@VSwCloth@cloth@nv@@@cloth@nv@@UEAAXU?$Range@$$CBVPxVec3@physx@@@23@II@Z 00000001800723f0 f i SwCloth.obj
 0001:00071ce0       ?setUserData@?$ClothImpl@VSwCloth@cloth@nv@@@cloth@nv@@UEAAXPEAX@Z 0000000180072ce0 f i SwCloth.obj
 0001:00071d30       ?setWindVelocity@?$ClothImpl@VSwCloth@cloth@nv@@@cloth@nv@@UEAAXVPxVec3@physx@@@Z 0000000180072d30 f i SwCloth.obj
 0001:00071de0       ?size@?$Array@UIndexPair@cloth@nv@@VNonTrackingAllocator@ps@23@@ps@cloth@nv@@QEBAIXZ 0000000180072de0 f i SwCloth.obj
 0001:00071e00       ?swap@?$Array@U?$Vec4T@G@cloth@nv@@VNonTrackingAllocator@ps@23@@ps@cloth@nv@@QEAAXAEAV1234@@Z 0000000180072e00 f i SwCloth.obj
 0001:00071e90       ?teleport@?$ClothImpl@VSwCloth@cloth@nv@@@cloth@nv@@UEAAXAEBVPxVec3@physx@@@Z 0000000180072e90 f i SwCloth.obj
 0001:00071f00       ?teleportToLocation@?$ClothImpl@VSwCloth@cloth@nv@@@cloth@nv@@UEAAXAEBVPxVec3@physx@@AEBVPxQuat@5@@Z 0000000180072f00 f i SwCloth.obj
 0001:00071fb0       ?wakeUp@?$ClothImpl@VSwCloth@cloth@nv@@@cloth@nv@@UEAAXXZ 0000000180072fb0 f i SwCloth.obj
 0001:00071fd0       ??0SwClothData@cloth@nv@@QEAA@AEAVSwCloth@12@AEBVSwFabric@12@@Z 0000000180072fd0 f   SwClothData.obj
 0001:00072e50       ?reconcile@SwClothData@cloth@nv@@QEBAXAEAVSwCloth@23@@Z 0000000180073e50 f   SwClothData.obj
 0001:00072ed0       ?verify@SwClothData@cloth@nv@@QEBAXXZ 0000000180073ed0 f   SwClothData.obj
 0001:00073470       ??$array@G@cloth@nv@@YAAEAY03GAEAU?$Vec4T@G@01@@Z 0000000180074470 f i SwClothData.obj
 0001:00073480       ?array@cloth@nv@@YAAEAY03MAEAVPxVec4@physx@@@Z 0000000180074480 f i SwClothData.obj
 0001:00073490       ?begin@?$Array@GVNonTrackingAllocator@ps@cloth@nv@@@ps@cloth@nv@@QEBAPEBGXZ 0000000180074490 f i SwClothData.obj
 0001:000734b0       ?begin@?$Array@USwTether@cloth@nv@@VNonTrackingAllocator@ps@23@@ps@cloth@nv@@QEBAPEBUSwTether@34@XZ 00000001800744b0 f i SwClothData.obj
 0001:000734d0       ?empty@?$Array@MV?$AlignedAllocator@$0CA@VNonTrackingAllocator@ps@cloth@nv@@@ps@cloth@nv@@@ps@cloth@nv@@QEBA_NXZ 00000001800744d0 f i SwClothData.obj
 0001:00073530       ?front@?$Array@GVNonTrackingAllocator@ps@cloth@nv@@@ps@cloth@nv@@QEBAAEBGXZ 0000000180074530 f i SwClothData.obj
 0001:000735e0       ?front@?$Array@IVNonTrackingAllocator@ps@cloth@nv@@@ps@cloth@nv@@QEAAAEAIXZ 00000001800745e0 f i SwClothData.obj
 0001:00073690       ?front@?$Array@IVNonTrackingAllocator@ps@cloth@nv@@@ps@cloth@nv@@QEBAAEBIXZ 0000000180074690 f i SwClothData.obj
 0001:00073740       ?front@?$Array@MV?$AlignedAllocator@$0CA@VNonTrackingAllocator@ps@cloth@nv@@@ps@cloth@nv@@@ps@cloth@nv@@QEBAAEBMXZ 0000000180074740 f i SwClothData.obj
 0001:000737f0       ?front@?$Array@U?$Vec4T@G@cloth@nv@@VNonTrackingAllocator@ps@23@@ps@cloth@nv@@QEAAAEAU?$Vec4T@G@34@XZ 00000001800747f0 f i SwClothData.obj
 0001:000738a0       ?front@?$Array@UIndexPair@cloth@nv@@VNonTrackingAllocator@ps@23@@ps@cloth@nv@@QEAAAEAUIndexPair@34@XZ 00000001800748a0 f i SwClothData.obj
 0001:00073950       ?front@?$Array@UPhaseConfig@cloth@nv@@VNonTrackingAllocator@ps@23@@ps@cloth@nv@@QEAAAEAUPhaseConfig@34@XZ 0000000180074950 f i SwClothData.obj
 0001:00073a00       ?size@?$Array@GVNonTrackingAllocator@ps@cloth@nv@@@ps@cloth@nv@@QEBAIXZ 0000000180074a00 f i SwClothData.obj
 0001:00073a20       ?size@?$Array@MV?$AlignedAllocator@$0CA@VNonTrackingAllocator@ps@cloth@nv@@@ps@cloth@nv@@@ps@cloth@nv@@QEBAIXZ 0000000180074a20 f i SwClothData.obj
 0001:00073a40       ?size@?$Array@USwTether@cloth@nv@@VNonTrackingAllocator@ps@23@@ps@cloth@nv@@QEBAIXZ 0000000180074a40 f i SwClothData.obj
 0001:00073f60       ??$?IT__m128@@@cloth@nv@@YA?AT__m128@@AEBT2@AEBU?$ComplementExpr@T__m128@@@01@@Z 0000000180074f60 f i SwCollision.obj
 0001:00073fc0       ??$?IT__m128i@@@cloth@nv@@YA?AT__m128i@@AEBT2@AEBU?$ComplementExpr@T__m128i@@@01@@Z 0000000180074fc0 f i SwCollision.obj
 0001:00074020       ??$?RAEB_KAEB_K@?$less@X@std@@QEBA_NAEB_K0@Z 0000000180075020 f i SwCollision.obj
 0001:00074090       ??$PX_UNUSED@PEBD@@YAXAEBQEBD@Z 0000000180075090 f i SwCollision.obj
 0001:000740a0       ??$_Debug_lt@AEB_KAEB_K@std@@YA_NAEB_K0PEB_WI@Z 00000001800750a0 f i SwCollision.obj
 0001:00074130       ??$_Debug_lt_pred@U?$less@X@std@@AEB_KAEB_K@std@@YA_N$$QEAU?$less@X@0@AEB_K1PEB_WI@Z 0000000180075130 f i SwCollision.obj
 0001:00074b90       ??$emptyBounds@T__m128@@@cloth@nv@@YA?AU?$BoundingBox@T__m128@@@01@XZ 0000000180075b90 f i SwCollision.obj
 0001:00074c50       ??$expandBounds@T__m128@@@cloth@nv@@YA?AU?$BoundingBox@T__m128@@@01@AEBU201@0@Z 0000000180075c50 f i SwCollision.obj
 0001:00074d50       ??$expandBounds@T__m128@@@cloth@nv@@YA?AU?$BoundingBox@T__m128@@@01@AEBU201@PEBUSphereData@01@1@Z 0000000180075d50 f i SwCollision.obj
 0001:00074f40       ??$forward@AEB_K@std@@YAAEB_KAEB_K@Z 0000000180075f40 f i SwCollision.obj
 0001:000761c0       ??$intersectBounds@T__m128@@@cloth@nv@@YA?AU?$BoundingBox@T__m128@@@01@AEBU201@0@Z 00000001800771c0 f i SwCollision.obj
 0001:000762c0       ??$loadBounds@T__m128@@@cloth@nv@@YA?AU?$BoundingBox@T__m128@@@01@PEBM@Z 00000001800772c0 f i SwCollision.obj
 0001:000763c0       ??$max@_K@std@@YAAEB_KAEB_K0@Z 00000001800773c0 f i SwCollision.obj
 0001:00076450       ??$recip@$00@cloth@nv@@YA?AT__m128@@AEBT2@@Z 0000000180077450 f i SwCollision.obj
 0001:000765c0       ??$splat@$00@cloth@nv@@YA?AT__m128i@@AEBT2@@Z 00000001800775c0 f i SwCollision.obj
 0001:00076610       ??$splat@$01@cloth@nv@@YA?AT__m128i@@AEBT2@@Z 0000000180077610 f i SwCollision.obj
 0001:00076660       ??$splat@$02@cloth@nv@@YA?AT__m128@@AEBT2@@Z 0000000180077660 f i SwCollision.obj
 0001:000766b0       ??$splat@$02@cloth@nv@@YA?AT__m128i@@AEBT2@@Z 00000001800776b0 f i SwCollision.obj
 0001:00076700       ??$splat@$0A@@cloth@nv@@YA?AT__m128i@@AEBT2@@Z 0000000180077700 f i SwCollision.obj
 0001:000767c0       ??$swap@UCollisionData@?$SwCollision@T__m128@@@cloth@nv@@@ps@cloth@nv@@YAXAEAUCollisionData@?$SwCollision@T__m128@@@12@0@Z 00000001800777c0 f i SwCollision.obj
 0001:00076850       ??0?$ComplementExpr@T__m128@@@cloth@nv@@QEAA@AEBT__m128@@@Z 0000000180077850 f i SwCollision.obj
 0001:00076880       ??0?$ComplementExpr@T__m128i@@@cloth@nv@@QEAA@AEBT__m128i@@@Z 0000000180077880 f i SwCollision.obj
 0001:000768b0       ??0?$Gather@T__m128i@@@cloth@nv@@QEAA@AEBT__m128i@@@Z 00000001800778b0 f i SwCollision.obj
 0001:00076a40       ??0?$LerpIterator@T__m128@@PEBT1@@cloth@nv@@QEAA@PEBT__m128@@0M@Z 0000000180077a40 f i SwCollision.obj
 0001:00076ae0       ??0?$LerpIterator@T__m128@@V?$UnalignedIterator@T__m128@@$02@cloth@nv@@@cloth@nv@@QEAA@V?$UnalignedIterator@T__m128@@$02@12@0M@Z 0000000180077ae0 f i SwCollision.obj
 0001:00076b80       ??0?$SwCollision@T__m128@@@cloth@nv@@QEAA@AEAUSwClothData@12@AEAV?$StackAllocator@$0BA@@12@@Z 0000000180077b80 f i SwCollision.obj
 0001:00076d20       ??0?$UnalignedIterator@T__m128@@$02@cloth@nv@@QEAA@PEBM@Z 0000000180077d20 f i SwCollision.obj
 0001:00076d50       ??0CollisionData@?$SwCollision@T__m128@@@cloth@nv@@QEAA@XZ 0000000180077d50 f i SwCollision.obj
 0001:00076d80       ??0ImpulseAccumulator@?$SwCollision@T__m128@@@cloth@nv@@QEAA@XZ 0000000180077d80 f i SwCollision.obj
 0001:00076e60       ??0NvClothProfileScoped@cloth@nv@@QEAA@PEBD_N_K0HPEAVPxProfilerCallback@physx@@@Z 0000000180077e60 f i SwCollision.obj
 0001:00076f70       ??0Simd4fAlignedLoadFactory@cloth@nv@@QEAA@PEBM@Z 0000000180077f70 f i SwCollision.obj
 0001:00076fa0       ??0Simd4fOffsetLoadFactory@cloth@nv@@QEAA@PEBMI@Z 0000000180077fa0 f i SwCollision.obj
 0001:00076fe0       ??0Simd4iOffsetLoadFactory@cloth@nv@@QEAA@PEBHI@Z 0000000180077fe0 f i SwCollision.obj
 0001:00077020       ??1?$SwCollision@T__m128@@@cloth@nv@@QEAA@XZ 0000000180078020 f i SwCollision.obj
 0001:00077090       ??1NvClothProfileScoped@cloth@nv@@QEAA@XZ 0000000180078090 f i SwCollision.obj
 0001:00077120       ??4ShapeMask@?$SwCollision@T__m128@@@cloth@nv@@QEAAAEAU0123@AEBU0123@@Z 0000000180078120 f i SwCollision.obj
 0001:00077170       ??6cloth@nv@@YA?AT__m128i@@AEBT2@H@Z 0000000180078170 f i SwCollision.obj
 0001:000771d0       ??8cloth@nv@@YA?AT__m128@@AEBT2@0@Z 00000001800781d0 f i SwCollision.obj
 0001:00077230       ??8cloth@nv@@YA?AT__m128i@@AEBT2@0@Z 0000000180078230 f i SwCollision.obj
 0001:00077290       ??A?$LerpIterator@T__m128@@PEBT1@@cloth@nv@@QEBA?AT__m128@@_K@Z 0000000180078290 f i SwCollision.obj
 0001:00077360       ??A?$LerpIterator@T__m128@@V?$UnalignedIterator@T__m128@@$02@cloth@nv@@@cloth@nv@@QEBA?AT__m128@@_K@Z 0000000180078360 f i SwCollision.obj
 0001:000774a0       ??A?$UnalignedIterator@T__m128@@$02@cloth@nv@@QEBA?AT__m128@@_K@Z 00000001800784a0 f i SwCollision.obj
 0001:00077520       ??BSimd4fAlignedLoadFactory@cloth@nv@@QEBA?AT__m128@@XZ 0000000180078520 f i SwCollision.obj
 0001:00077580       ??BSimd4fOffsetLoadFactory@cloth@nv@@QEBA?AT__m128@@XZ 0000000180078580 f i SwCollision.obj
 0001:000775f0       ??BSimd4iOffsetLoadFactory@cloth@nv@@QEBA?AT__m128i@@XZ 00000001800785f0 f i SwCollision.obj
 0001:00077660       ??BSimd4iScalarFactory@cloth@nv@@QEBA?AT__m128i@@XZ 0000000180078660 f i SwCollision.obj
 0001:000776d0       ??BSimd4iZeroFactory@cloth@nv@@QEBA?AT__m128i@@XZ 00000001800786d0 f i SwCollision.obj
 0001:00077730       ??D?$LerpIterator@T__m128@@PEBT1@@cloth@nv@@QEBA?AT__m128@@XZ 0000000180078730 f i SwCollision.obj
 0001:00077780       ??D?$LerpIterator@T__m128@@V?$UnalignedIterator@T__m128@@$02@cloth@nv@@@cloth@nv@@QEBA?AT__m128@@XZ 0000000180078780 f i SwCollision.obj
 0001:000777d0       ??D?$UnalignedIterator@T__m128@@$02@cloth@nv@@QEBA?AT__m128@@XZ 00000001800787d0 f i SwCollision.obj
 0001:00077820       ??E?$LerpIterator@T__m128@@PEBT1@@cloth@nv@@QEAAAEAV012@XZ 0000000180078820 f i SwCollision.obj
 0001:00077870       ??E?$LerpIterator@T__m128@@V?$UnalignedIterator@T__m128@@$02@cloth@nv@@@cloth@nv@@QEAAAEAV012@XZ 0000000180078870 f i SwCollision.obj
 0001:000778d0       ??E?$UnalignedIterator@T__m128@@$02@cloth@nv@@QEAAAEAV012@XZ 00000001800788d0 f i SwCollision.obj
 0001:00077900       ??Gcloth@nv@@YA?AT__m128i@@AEBT2@0@Z 0000000180078900 f i SwCollision.obj
 0001:00077960       ??Icloth@nv@@YA?AT__m128i@@AEBT2@0@Z 0000000180078960 f i SwCollision.obj
 0001:000779c0       ??Mcloth@nv@@YA?AT__m128@@AEBT2@0@Z 00000001800789c0 f i SwCollision.obj
 0001:00077a20       ??Ocloth@nv@@YA?AT__m128@@AEBT2@0@Z 0000000180078a20 f i SwCollision.obj
 0001:00077a80       ??Ocloth@nv@@YA?AT__m128i@@AEBT2@0@Z 0000000180078a80 f i SwCollision.obj
 0001:00077ae0       ??Pcloth@nv@@YA?AT__m128@@AEBT2@0@Z 0000000180078ae0 f i SwCollision.obj
 0001:00077b40       ??R?$Gather@T__m128i@@@cloth@nv@@QEBA?AT__m128i@@PEBT3@@Z 0000000180078b40 f i SwCollision.obj
 0001:00077f20       ??R?$SwCollision@T__m128@@@cloth@nv@@QEAAXAEBU?$IterationState@T__m128@@@12@@Z 0000000180078f20 f i SwCollision.obj
 0001:00078290       ??Scloth@nv@@YA?AU?$ComplementExpr@T__m128@@@01@AEBT__m128@@@Z 0000000180079290 f i SwCollision.obj
 0001:000782e0       ??Scloth@nv@@YA?AU?$ComplementExpr@T__m128i@@@01@AEBT__m128i@@@Z 00000001800792e0 f i SwCollision.obj
 0001:00078330       ??Tcloth@nv@@YA?AT__m128i@@AEBT2@0@Z 0000000180079330 f i SwCollision.obj
 0001:00078390       ??Ucloth@nv@@YA?AT__m128@@AEBT2@0@Z 0000000180079390 f i SwCollision.obj
 0001:000783f0       ??Ucloth@nv@@YA?AT__m128i@@AEBT2@0@Z 00000001800793f0 f i SwCollision.obj
 0001:00078450       ??_4ShapeMask@?$SwCollision@T__m128@@@cloth@nv@@QEAAAEAU0123@AEBU0123@@Z 0000000180079450 f i SwCollision.obj
 0001:00078500       ?abs@cloth@nv@@YA?AT__m128@@AEBT3@@Z 0000000180079500 f i SwCollision.obj
 0001:00078570       ?add@ImpulseAccumulator@?$SwCollision@T__m128@@@cloth@nv@@QEAAXAEBT__m128@@0000@Z 0000000180079570 f i SwCollision.obj
 0001:00078b40       ?addVelocity@ImpulseAccumulator@?$SwCollision@T__m128@@@cloth@nv@@QEAAXAEBT__m128@@000@Z 0000000180079b40 f i SwCollision.obj
 0001:00078f60       ?allEqual@cloth@nv@@YAHAEBT__m128@@0@Z 0000000180079f60 f i SwCollision.obj
 0001:00078fc0       ?allEqual@cloth@nv@@YAHAEBT__m128i@@0@Z 0000000180079fc0 f i SwCollision.obj
 0001:00079020       ?allGreaterEqual@cloth@nv@@YAHAEBT__m128@@0@Z 000000018007a020 f i SwCollision.obj
 0001:00079080       ?allTrue@cloth@nv@@YAHAEBT__m128@@@Z 000000018007a080 f i SwCollision.obj
 0001:000790e0       ?allTrue@cloth@nv@@YAHAEBT__m128i@@@Z 000000018007a0e0 f i SwCollision.obj
 0001:00079150       ?allocate@?$StackAllocator@$0BA@@cloth@nv@@QEAAPEAX_K@Z 000000018007a150 f i SwCollision.obj
 0001:00079310       ?allocate@?$SwCollision@T__m128@@@cloth@nv@@AEAAXAEAUCollisionData@123@@Z 000000018007a310 f i SwCollision.obj
 0001:000793d0       ?anyEqual@cloth@nv@@YAHAEBT__m128i@@0AEAT3@@Z 000000018007a3d0 f i SwCollision.obj
 0001:00079450       ?anyGreater@cloth@nv@@YAHAEBT__m128@@0AEAT3@@Z 000000018007a450 f i SwCollision.obj
 0001:000794c0       ?anyTrue@cloth@nv@@YAHAEBT__m128@@@Z 000000018007a4c0 f i SwCollision.obj
 0001:000794e0       ?anyTrue@cloth@nv@@YAHAEBT__m128i@@@Z 000000018007a4e0 f i SwCollision.obj
 0001:00079530       ?array@cloth@nv@@YAAEAY03HAEAT__m128i@@@Z 000000018007a530 f i SwCollision.obj
 0001:00079540       ?buildAcceleration@?$SwCollision@T__m128@@@cloth@nv@@AEAA_NXZ 000000018007a540 f i SwCollision.obj
 0001:00079fa0       ?buildConeAcceleration@?$SwCollision@T__m128@@@cloth@nv@@AEAAXXZ 000000018007afa0 f i SwCollision.obj
 0001:0007a110       ?buildSphereAcceleration@?$SwCollision@T__m128@@@cloth@nv@@AEAAXPEBUSphereData@23@@Z 000000018007b110 f i SwCollision.obj
 0001:0007a660       ?collideCones@?$SwCollision@T__m128@@@cloth@nv@@AEBA?AT__m128i@@PEBT__m128@@AEAUImpulseAccumulator@123@@Z 000000018007b660 f i SwCollision.obj
 0001:0007bb20       ?collideCones@?$SwCollision@T__m128@@@cloth@nv@@AEBA?AT__m128i@@PEBT__m128@@PEAT5@AEAUImpulseAccumulator@123@@Z 000000018007cb20 f i SwCollision.obj
 0001:0007f250       ?collideContinuousParticles@?$SwCollision@T__m128@@@cloth@nv@@AEAAXXZ 0000000180080250 f i SwCollision.obj
 0001:000800b0       ?collideConvexes@?$SwCollision@T__m128@@@cloth@nv@@AEAAXAEBU?$IterationState@T__m128@@@23@@Z 00000001800810b0 f i SwCollision.obj
 0001:00080dc0       ?collideConvexes@?$SwCollision@T__m128@@@cloth@nv@@AEAAXPEBT__m128@@PEAT4@AEAUImpulseAccumulator@123@@Z 0000000180081dc0 f i SwCollision.obj
 0001:000816c0       ?collideParticles@?$SwCollision@T__m128@@@cloth@nv@@AEAAXXZ 00000001800826c0 f i SwCollision.obj
 0001:00082560       ?collideSpheres@?$SwCollision@T__m128@@@cloth@nv@@AEBAXAEBT__m128i@@PEBT__m128@@AEAUImpulseAccumulator@123@@Z 0000000180083560 f i SwCollision.obj
 0001:00082bf0       ?collideSpheres@?$SwCollision@T__m128@@@cloth@nv@@AEBAXAEBT__m128i@@PEBT__m128@@PEAT5@AEAUImpulseAccumulator@123@@Z 0000000180083bf0 f i SwCollision.obj
 0001:00084100       ?collideTriangles@?$SwCollision@T__m128@@@cloth@nv@@AEAAXAEBU?$IterationState@T__m128@@@23@@Z 0000000180085100 f i SwCollision.obj
 0001:000848c0       ?collideTriangles@?$SwCollision@T__m128@@@cloth@nv@@AEAAXPEBUTriangleData@23@PEAT__m128@@AEAUImpulseAccumulator@123@@Z 00000001800858c0 f i SwCollision.obj
 0001:00085c90       ?collideVirtualParticles@?$SwCollision@T__m128@@@cloth@nv@@AEAAXXZ 0000000180086c90 f i SwCollision.obj
 0001:0008a5e0       ?computeBounds@?$SwCollision@T__m128@@@cloth@nv@@AEAAXXZ 000000018008b5e0 f i SwCollision.obj
 0001:0008a9d0       ?cross3@cloth@nv@@YA?AT__m128@@AEBT3@0@Z 000000018008b9d0 f i SwCollision.obj
 0001:0008ab40       ?deallocate@?$StackAllocator@$0BA@@cloth@nv@@QEAAXPEAX@Z 000000018008bb40 f i SwCollision.obj
 0001:0008ac20       ?deallocate@?$SwCollision@T__m128@@@cloth@nv@@AEAAXAEBUCollisionData@123@@Z 000000018008bc20 f i SwCollision.obj
 0001:0008aca0       ?estimatePersistentMemory@?$SwCollision@T__m128@@@cloth@nv@@SA_KAEBVSwCloth@23@@Z 000000018008bca0 f i SwCollision.obj
 0001:0008ad50       ?estimateTemporaryMemory@?$SwCollision@T__m128@@@cloth@nv@@SA_KAEBVSwCloth@23@@Z 000000018008bd50 f i SwCollision.obj
 0001:0008ae20       ?findBitSet@cloth@nv@@YAII@Z 000000018008be20 f i SwCollision.obj
 0001:0008ae80       ?getCurrentAlpha@?$IterationState@T__m128@@@cloth@nv@@QEBAMXZ 000000018008be80 f i SwCollision.obj
 0001:0008aed0       ?getHeader@?$StackAllocator@$0BA@@cloth@nv@@AEBAPEAUHeader@123@PEAX@Z 000000018008bed0 f i SwCollision.obj
 0001:0008b060       ?getPreviousAlpha@?$IterationState@T__m128@@@cloth@nv@@QEBAMXZ 000000018008c060 f i SwCollision.obj
 0001:0008b0d0       ?getShapeMask@?$SwCollision@T__m128@@@cloth@nv@@AEBA?AUShapeMask@123@PEBT__m128@@0@Z 000000018008c0d0 f i SwCollision.obj
 0001:0008b9e0       ?getShapeMask@?$SwCollision@T__m128@@@cloth@nv@@AEBA?AUShapeMask@123@PEBT__m128@@@Z 000000018008c9e0 f i SwCollision.obj
 0001:0008bd80       ?getShapeMask@?$SwCollision@T__m128@@@cloth@nv@@CA?AUShapeMask@123@AEBT__m128@@PEBT__m128i@@1@Z 000000018008cd80 f i SwCollision.obj
 0001:0008bea0       ?horizontalOr@cloth@nv@@YA?AT__m128i@@AEBT3@@Z 000000018008cea0 f i SwCollision.obj
 0001:0008bf90       ?intFloor@cloth@nv@@YA?AT__m128i@@AEBT__m128@@@Z 000000018008cf90 f i SwCollision.obj
 0001:0008c040       ?loadAligned@cloth@nv@@YA?AUSimd4fAlignedLoadFactory@12@PEBM@Z 000000018008d040 f i SwCollision.obj
 0001:0008c090       ?loadAligned@cloth@nv@@YA?AUSimd4fOffsetLoadFactory@12@PEBMI@Z 000000018008d090 f i SwCollision.obj
 0001:0008c0f0       ?loadAligned@cloth@nv@@YA?AUSimd4iOffsetLoadFactory@12@PEBHI@Z 000000018008d0f0 f i SwCollision.obj
 0001:0008c150       ?mergeAcceleration@?$SwCollision@T__m128@@@cloth@nv@@CAXPEAI@Z 000000018008d150 f i SwCollision.obj
 0001:0008c1f0       ?select@cloth@nv@@YA?AT__m128i@@AEBT3@00@Z 000000018008d1f0 f i SwCollision.obj
 0001:0008c290       ?simd4f@cloth@nv@@YA?AT__m128@@AEBT__m128i@@@Z 000000018008d290 f i SwCollision.obj
 0001:0008c2e0       ?simd4i@cloth@nv@@YA?AT__m128i@@AEBT__m128@@@Z 000000018008d2e0 f i SwCollision.obj
 0001:0008c330       ?sqrt@cloth@nv@@YA?AT__m128@@AEBT3@@Z 000000018008d330 f i SwCollision.obj
 0001:0008c380       ?store@cloth@nv@@YAXPEAMAEBT__m128@@@Z 000000018008d380 f i SwCollision.obj
 0001:0008c3b0       ?storeAligned@cloth@nv@@YAXPEAMAEBT__m128@@@Z 000000018008d3b0 f i SwCollision.obj
 0001:0008c3e0       ?storeAligned@cloth@nv@@YAXPEAMIAEBT__m128@@@Z 000000018008d3e0 f i SwCollision.obj
 0001:0008c420       ?subtract@ImpulseAccumulator@?$SwCollision@T__m128@@@cloth@nv@@QEAAXAEBT__m128@@0000@Z 000000018008d420 f i SwCollision.obj
 0001:0008c9f0       ?transpose@cloth@nv@@YAXAEAT__m128@@000@Z 000000018008d9f0 f i SwCollision.obj
 0001:0008cbc0       ??0SwTether@cloth@nv@@QEAA@GM@Z 000000018008dbc0 f   SwFabric.obj
 0001:0008cc00       ??0SwFabric@cloth@nv@@QEAA@AEAVSwFactory@12@IU?$Range@$$CBI@12@1U?$Range@$$CBM@12@21121I@Z 000000018008dc00 f   SwFabric.obj
 0001:0008d870       ??1SwFabric@cloth@nv@@UEAA@XZ 000000018008e870 f   SwFabric.obj
 0001:0008d9e0       ?getFactory@SwFabric@cloth@nv@@UEBAAEAVFactory@23@XZ 000000018008e9e0 f   SwFabric.obj
 0001:0008da00       ?getNumPhases@SwFabric@cloth@nv@@UEBAIXZ 000000018008ea00 f   SwFabric.obj
 0001:0008da40       ?getNumRestvalues@SwFabric@cloth@nv@@UEBAIXZ 000000018008ea40 f   SwFabric.obj
 0001:0008da60       ?getNumStiffnessValues@SwFabric@cloth@nv@@UEBAIXZ 000000018008ea60 f   SwFabric.obj
 0001:0008dac0       ?getNumSets@SwFabric@cloth@nv@@UEBAIXZ 000000018008eac0 f   SwFabric.obj
 0001:0008db10       ?getNumIndices@SwFabric@cloth@nv@@UEBAIXZ 000000018008eb10 f   SwFabric.obj
 0001:0008db30       ?getNumParticles@SwFabric@cloth@nv@@UEBAIXZ 000000018008eb30 f   SwFabric.obj
 0001:0008db50       ?getNumTethers@SwFabric@cloth@nv@@UEBAIXZ 000000018008eb50 f   SwFabric.obj
 0001:0008db90       ?getNumTriangles@SwFabric@cloth@nv@@UEBAIXZ 000000018008eb90 f   SwFabric.obj
 0001:0008dbe0       ?scaleRestvalues@SwFabric@cloth@nv@@UEAAXM@Z 000000018008ebe0 f   SwFabric.obj
 0001:0008dc80       ?scaleTetherLengths@SwFabric@cloth@nv@@UEAAXM@Z 000000018008ec80 f   SwFabric.obj
 0001:0008e0f0       ??$PxMax@H@physx@@YAHHH@Z  000000018008f0f0 f i SwFabric.obj
 0001:0008e150       ??$swap@PEAG@ps@cloth@nv@@YAXAEAPEAG0@Z 000000018008f150 f i SwFabric.obj
 0001:0008e1c0       ??$swap@PEAM@ps@cloth@nv@@YAXAEAPEAM0@Z 000000018008f1c0 f i SwFabric.obj
 0001:0008e230       ??0?$AlignedAllocator@$0CA@VNonTrackingAllocator@ps@cloth@nv@@@ps@cloth@nv@@QEAA@AEBVNonTrackingAllocator@123@@Z 000000018008f230 f i SwFabric.obj
 0001:0008e250       ??0?$Array@GVNonTrackingAllocator@ps@cloth@nv@@@ps@cloth@nv@@QEAA@AEBVNonTrackingAllocator@123@@Z 000000018008f250 f i SwFabric.obj
 0001:0008e2a0       ??0?$Array@GVNonTrackingAllocator@ps@cloth@nv@@@ps@cloth@nv@@QEAA@PEBG0AEBVNonTrackingAllocator@123@@Z 000000018008f2a0 f i SwFabric.obj
 0001:0008e3a0       ??0?$Array@MV?$AlignedAllocator@$0CA@VNonTrackingAllocator@ps@cloth@nv@@@ps@cloth@nv@@@ps@cloth@nv@@QEAA@AEBV?$AlignedAllocator@$0CA@VNonTrackingAllocator@ps@cloth@nv@@@123@@Z 000000018008f3a0 f i SwFabric.obj
 0001:0008e3f0       ??0?$Array@MV?$AlignedAllocator@$0CA@VNonTrackingAllocator@ps@cloth@nv@@@ps@cloth@nv@@@ps@cloth@nv@@QEAA@PEBM0AEBV?$AlignedAllocator@$0CA@VNonTrackingAllocator@ps@cloth@nv@@@123@@Z 000000018008f3f0 f i SwFabric.obj
 0001:0008e4f0       ??0?$Array@USwTether@cloth@nv@@VNonTrackingAllocator@ps@23@@ps@cloth@nv@@QEAA@AEBVNonTrackingAllocator@123@@Z 000000018008f4f0 f i SwFabric.obj
 0001:0008e540       ??1?$Array@GVNonTrackingAllocator@ps@cloth@nv@@@ps@cloth@nv@@QEAA@XZ 000000018008f540 f i SwFabric.obj
 0001:0008e5e0       ??1?$Array@MV?$AlignedAllocator@$0CA@VNonTrackingAllocator@ps@cloth@nv@@@ps@cloth@nv@@@ps@cloth@nv@@QEAA@XZ 000000018008f5e0 f i SwFabric.obj
 0001:0008e680       ??1?$Array@USwTether@cloth@nv@@VNonTrackingAllocator@ps@23@@ps@cloth@nv@@QEAA@XZ 000000018008f680 f i SwFabric.obj
 0001:0008e720       ??_GSwFabric@cloth@nv@@UEAAPEAXI@Z 000000018008f720 f i SwFabric.obj
 0001:0008e720       ??_ESwFabric@cloth@nv@@UEAAPEAXI@Z 000000018008f720 f i SwFabric.obj
 0001:0008e7b0       ?allocate@?$AlignedAllocator@$0CA@VNonTrackingAllocator@ps@cloth@nv@@@ps@cloth@nv@@QEAAPEAX_KPEBDH@Z 000000018008f7b0 f i SwFabric.obj
 0001:0008e8a0       ?allocate@?$Array@GVNonTrackingAllocator@ps@cloth@nv@@@ps@cloth@nv@@IEAAPEAGI@Z 000000018008f8a0 f i SwFabric.obj
 0001:0008e960       ?allocate@?$Array@MV?$AlignedAllocator@$0CA@VNonTrackingAllocator@ps@cloth@nv@@@ps@cloth@nv@@@ps@cloth@nv@@IEAAPEAMI@Z 000000018008f960 f i SwFabric.obj
 0001:0008ea30       ?allocate@?$Array@PEAVSwFabric@cloth@nv@@VNonTrackingAllocator@ps@23@@ps@cloth@nv@@IEAAPEAPEAVSwFabric@34@I@Z 000000018008fa30 f i SwFabric.obj
 0001:0008eb00       ?allocate@?$Array@USwTether@cloth@nv@@VNonTrackingAllocator@ps@23@@ps@cloth@nv@@IEAAPEAUSwTether@34@I@Z 000000018008fb00 f i SwFabric.obj
 0001:0008ebd0       ?begin@?$Array@GVNonTrackingAllocator@ps@cloth@nv@@@ps@cloth@nv@@QEAAPEAGXZ 000000018008fbd0 f i SwFabric.obj
 0001:0008ebf0       ?begin@?$Array@MV?$AlignedAllocator@$0CA@VNonTrackingAllocator@ps@cloth@nv@@@ps@cloth@nv@@@ps@cloth@nv@@QEAAPEAMXZ 000000018008fbf0 f i SwFabric.obj
 0001:0008ec10       ?capacity@?$Array@GVNonTrackingAllocator@ps@cloth@nv@@@ps@cloth@nv@@QEBAIXZ 000000018008fc10 f i SwFabric.obj
 0001:0008ec30       ?capacity@?$Array@MV?$AlignedAllocator@$0CA@VNonTrackingAllocator@ps@cloth@nv@@@ps@cloth@nv@@@ps@cloth@nv@@QEBAIXZ 000000018008fc30 f i SwFabric.obj
 0001:0008ec50       ?capacity@?$Array@PEAVSwFabric@cloth@nv@@VNonTrackingAllocator@ps@23@@ps@cloth@nv@@QEBAIXZ 000000018008fc50 f i SwFabric.obj
 0001:0008ec70       ?capacity@?$Array@USwTether@cloth@nv@@VNonTrackingAllocator@ps@23@@ps@cloth@nv@@QEBAIXZ 000000018008fc70 f i SwFabric.obj
 0001:0008ec90       ?capacityIncrement@?$Array@GVNonTrackingAllocator@ps@cloth@nv@@@ps@cloth@nv@@IEBAIXZ 000000018008fc90 f i SwFabric.obj
 0001:0008ed00       ?capacityIncrement@?$Array@MV?$AlignedAllocator@$0CA@VNonTrackingAllocator@ps@cloth@nv@@@ps@cloth@nv@@@ps@cloth@nv@@IEBAIXZ 000000018008fd00 f i SwFabric.obj
 0001:0008ed70       ?capacityIncrement@?$Array@PEAVSwFabric@cloth@nv@@VNonTrackingAllocator@ps@23@@ps@cloth@nv@@IEBAIXZ 000000018008fd70 f i SwFabric.obj
 0001:0008ede0       ?capacityIncrement@?$Array@USwTether@cloth@nv@@VNonTrackingAllocator@ps@23@@ps@cloth@nv@@IEBAIXZ 000000018008fde0 f i SwFabric.obj
 0001:0008ee50       ?copy@?$Array@GVNonTrackingAllocator@ps@cloth@nv@@@ps@cloth@nv@@KAXPEAG0PEBG@Z 000000018008fe50 f i SwFabric.obj
 0001:0008ef30       ?copy@?$Array@MV?$AlignedAllocator@$0CA@VNonTrackingAllocator@ps@cloth@nv@@@ps@cloth@nv@@@ps@cloth@nv@@KAXPEAM0PEBM@Z 000000018008ff30 f i SwFabric.obj
 0001:0008f010       ?copy@?$Array@PEAVSwFabric@cloth@nv@@VNonTrackingAllocator@ps@23@@ps@cloth@nv@@KAXPEAPEAVSwFabric@34@0PEBQEAV534@@Z 0000000180090010 f i SwFabric.obj
 0001:0008f0f0       ?copy@?$Array@USwTether@cloth@nv@@VNonTrackingAllocator@ps@23@@ps@cloth@nv@@KAXPEAUSwTether@34@0PEBU534@@Z 00000001800900f0 f i SwFabric.obj
 0001:0008f1d0       ?deallocate@?$AlignedAllocator@$0CA@VNonTrackingAllocator@ps@cloth@nv@@@ps@cloth@nv@@QEAAXPEAX@Z 00000001800901d0 f i SwFabric.obj
 0001:0008f250       ?deallocate@?$Array@GVNonTrackingAllocator@ps@cloth@nv@@@ps@cloth@nv@@IEAAXPEAX@Z 0000000180090250 f i SwFabric.obj
 0001:0008f2a0       ?deallocate@?$Array@MV?$AlignedAllocator@$0CA@VNonTrackingAllocator@ps@cloth@nv@@@ps@cloth@nv@@@ps@cloth@nv@@IEAAXPEAX@Z 00000001800902a0 f i SwFabric.obj
 0001:0008f2f0       ?deallocate@?$Array@PEAVSwFabric@cloth@nv@@VNonTrackingAllocator@ps@23@@ps@cloth@nv@@IEAAXPEAX@Z 00000001800902f0 f i SwFabric.obj
 0001:0008f340       ?deallocate@?$Array@USwTether@cloth@nv@@VNonTrackingAllocator@ps@23@@ps@cloth@nv@@IEAAXPEAX@Z 0000000180090340 f i SwFabric.obj
 0001:0008f390       ?destroy@?$Array@GVNonTrackingAllocator@ps@cloth@nv@@@ps@cloth@nv@@KAXPEAG0@Z 0000000180090390 f i SwFabric.obj
 0001:0008f3d0       ?destroy@?$Array@MV?$AlignedAllocator@$0CA@VNonTrackingAllocator@ps@cloth@nv@@@ps@cloth@nv@@@ps@cloth@nv@@KAXPEAM0@Z 00000001800903d0 f i SwFabric.obj
 0001:0008f410       ?destroy@?$Array@PEAVSwFabric@cloth@nv@@VNonTrackingAllocator@ps@23@@ps@cloth@nv@@KAXPEAPEAVSwFabric@34@0@Z 0000000180090410 f i SwFabric.obj
 0001:0008f450       ?destroy@?$Array@USwTether@cloth@nv@@VNonTrackingAllocator@ps@23@@ps@cloth@nv@@KAXPEAUSwTether@34@0@Z 0000000180090450 f i SwFabric.obj
 0001:0008f490       ?end@?$Array@GVNonTrackingAllocator@ps@cloth@nv@@@ps@cloth@nv@@QEAAPEAGXZ 0000000180090490 f i SwFabric.obj
 0001:0008f4c0       ?end@?$Array@MV?$AlignedAllocator@$0CA@VNonTrackingAllocator@ps@cloth@nv@@@ps@cloth@nv@@@ps@cloth@nv@@QEAAPEAMXZ 00000001800904c0 f i SwFabric.obj
 0001:0008f4f0       ?find@?$Array@PEAVSwFabric@cloth@nv@@VNonTrackingAllocator@ps@23@@ps@cloth@nv@@QEAAPEAPEAVSwFabric@34@AEBQEAV534@@Z 00000001800904f0 f i SwFabric.obj
 0001:0008f580       ?grow@?$Array@GVNonTrackingAllocator@ps@cloth@nv@@@ps@cloth@nv@@IEAAXI@Z 0000000180090580 f i SwFabric.obj
 0001:0008f630       ?grow@?$Array@USwTether@cloth@nv@@VNonTrackingAllocator@ps@23@@ps@cloth@nv@@IEAAXI@Z 0000000180090630 f i SwFabric.obj
 0001:0008f6e0       ?growAndPushBack@?$Array@GVNonTrackingAllocator@ps@cloth@nv@@@ps@cloth@nv@@IEAAAEAGAEBG@Z 00000001800906e0 f i SwFabric.obj
 0001:0008f900       ?growAndPushBack@?$Array@MV?$AlignedAllocator@$0CA@VNonTrackingAllocator@ps@cloth@nv@@@ps@cloth@nv@@@ps@cloth@nv@@IEAAAEAMAEBM@Z 0000000180090900 f i SwFabric.obj
 0001:0008fb30       ?growAndPushBack@?$Array@PEAVSwFabric@cloth@nv@@VNonTrackingAllocator@ps@23@@ps@cloth@nv@@IEAAAEAPEAVSwFabric@34@AEBQEAV534@@Z 0000000180090b30 f i SwFabric.obj
 0001:0008fd50       ?growAndPushBack@?$Array@USwTether@cloth@nv@@VNonTrackingAllocator@ps@23@@ps@cloth@nv@@IEAAAEAUSwTether@34@AEBU534@@Z 0000000180090d50 f i SwFabric.obj
 0001:0008ff70       ?isInUserMemory@?$Array@GVNonTrackingAllocator@ps@cloth@nv@@@ps@cloth@nv@@QEBAIXZ 0000000180090f70 f i SwFabric.obj
 0001:0008ff90       ?isInUserMemory@?$Array@MV?$AlignedAllocator@$0CA@VNonTrackingAllocator@ps@cloth@nv@@@ps@cloth@nv@@@ps@cloth@nv@@QEBAIXZ 0000000180090f90 f i SwFabric.obj
 0001:0008ffb0       ?isInUserMemory@?$Array@PEAVSwFabric@cloth@nv@@VNonTrackingAllocator@ps@23@@ps@cloth@nv@@QEBAIXZ 0000000180090fb0 f i SwFabric.obj
 0001:0008ffd0       ?isInUserMemory@?$Array@USwTether@cloth@nv@@VNonTrackingAllocator@ps@23@@ps@cloth@nv@@QEBAIXZ 0000000180090fd0 f i SwFabric.obj
 0001:0008fff0       ?pushBack@?$Array@GVNonTrackingAllocator@ps@cloth@nv@@@ps@cloth@nv@@QEAAAEAGAEBG@Z 0000000180090ff0 f i SwFabric.obj
 0001:00090100       ?pushBack@?$Array@MV?$AlignedAllocator@$0CA@VNonTrackingAllocator@ps@cloth@nv@@@ps@cloth@nv@@@ps@cloth@nv@@QEAAAEAMAEBM@Z 0000000180091100 f i SwFabric.obj
 0001:00090210       ?pushBack@?$Array@PEAVSwFabric@cloth@nv@@VNonTrackingAllocator@ps@23@@ps@cloth@nv@@QEAAAEAPEAVSwFabric@34@AEBQEAV534@@Z 0000000180091210 f i SwFabric.obj
 0001:00090320       ?pushBack@?$Array@USwTether@cloth@nv@@VNonTrackingAllocator@ps@23@@ps@cloth@nv@@QEAAAEAUSwTether@34@AEBU534@@Z 0000000180091320 f i SwFabric.obj
 0001:00090430       ?recreate@?$Array@GVNonTrackingAllocator@ps@cloth@nv@@@ps@cloth@nv@@IEAAXI@Z 0000000180091430 f i SwFabric.obj
 0001:000905a0       ?recreate@?$Array@USwTether@cloth@nv@@VNonTrackingAllocator@ps@23@@ps@cloth@nv@@IEAAXI@Z 00000001800915a0 f i SwFabric.obj
 0001:00090710       ?replaceWithLast@?$Array@PEAVSwFabric@cloth@nv@@VNonTrackingAllocator@ps@23@@ps@cloth@nv@@QEAAXI@Z 0000000180091710 f i SwFabric.obj
 0001:00090800       ?replaceWithLast@?$Array@PEAVSwFabric@cloth@nv@@VNonTrackingAllocator@ps@23@@ps@cloth@nv@@QEAAXPEAPEAVSwFabric@34@@Z 0000000180091800 f i SwFabric.obj
 0001:00090860       ?reserve@?$Array@GVNonTrackingAllocator@ps@cloth@nv@@@ps@cloth@nv@@QEAAXI@Z 0000000180091860 f i SwFabric.obj
 0001:000908c0       ?reserve@?$Array@USwTether@cloth@nv@@VNonTrackingAllocator@ps@23@@ps@cloth@nv@@QEAAXI@Z 00000001800918c0 f i SwFabric.obj
 0001:00090920       ?swap@?$Array@GVNonTrackingAllocator@ps@cloth@nv@@@ps@cloth@nv@@QEAAXAEAV1234@@Z 0000000180091920 f i SwFabric.obj
 0001:000909b0       ?swap@?$Array@MV?$AlignedAllocator@$0CA@VNonTrackingAllocator@ps@cloth@nv@@@ps@cloth@nv@@@ps@cloth@nv@@QEAAXAEAV1234@@Z 00000001800919b0 f i SwFabric.obj
 0001:00090a40       ??0SwFactory@cloth@nv@@QEAA@XZ 0000000180091a40 f   SwFactory.obj
 0001:00090ab0       ??1SwFactory@cloth@nv@@UEAA@XZ 0000000180091ab0 f   SwFactory.obj
 0001:00090b60       ?createFabric@SwFactory@cloth@nv@@UEAAPEAVFabric@23@IU?$Range@$$CBI@23@0U?$Range@$$CBM@23@10010@Z 0000000180091b60 f   SwFactory.obj
 0001:00090d40       ?createCloth@SwFactory@cloth@nv@@UEAAPEAVCloth@23@U?$Range@$$CBVPxVec4@physx@@@23@AEAVFabric@23@@Z 0000000180091d40 f   SwFactory.obj
 0001:00090df0       ?createSolver@SwFactory@cloth@nv@@UEAAPEAVSolver@23@XZ 0000000180091df0 f   SwFactory.obj
 0001:00090e70       ?clone@SwFactory@cloth@nv@@UEAAPEAVCloth@23@AEBV423@@Z 0000000180091e70 f   SwFactory.obj
 0001:00090f40       ?extractFabricData@SwFactory@cloth@nv@@UEBAXAEBVFabric@23@U?$Range@I@23@1U?$Range@M@23@21121@Z 0000000180091f40 f   SwFactory.obj
 0001:000918e0       ?extractCollisionData@SwFactory@cloth@nv@@UEBAXAEBVCloth@23@U?$Range@VPxVec4@physx@@@23@U?$Range@I@23@12U?$Range@VPxVec3@physx@@@23@@Z 00000001800928e0 f   SwFactory.obj
 0001:00091f20       ?extractMotionConstraints@SwFactory@cloth@nv@@UEBAXAEBVCloth@23@U?$Range@VPxVec4@physx@@@23@@Z 0000000180092f20 f   SwFactory.obj
 0001:000920f0       ?extractSeparationConstraints@SwFactory@cloth@nv@@UEBAXAEBVCloth@23@U?$Range@VPxVec4@physx@@@23@@Z 00000001800930f0 f   SwFactory.obj
 0001:000922c0       ?extractParticleAccelerations@SwFactory@cloth@nv@@UEBAXAEBVCloth@23@U?$Range@VPxVec4@physx@@@23@@Z 00000001800932c0 f   SwFactory.obj
 0001:00092460       ?extractVirtualParticles@SwFactory@cloth@nv@@UEBAXAEBVCloth@23@U?$Range@$$BY03I@23@U?$Range@VPxVec3@physx@@@23@@Z 0000000180093460 f   SwFactory.obj
 0001:000928b0       ?extractSelfCollisionIndices@SwFactory@cloth@nv@@UEBAXAEBVCloth@23@U?$Range@I@23@@Z 00000001800938b0 f   SwFactory.obj
 0001:000929c0       ?extractRestPositions@SwFactory@cloth@nv@@UEBAXAEBVCloth@23@U?$Range@VPxVec4@physx@@@23@@Z 00000001800939c0 f   SwFactory.obj
 0001:000932f0       ??$?RAEBGAEBG@?$less@X@std@@QEBA_NAEBG0@Z 00000001800942f0 f i SwFactory.obj
 0001:00093360       ??$_Debug_lt@AEBGAEBG@std@@YA_NAEBG0PEB_WI@Z 0000000180094360 f i SwFactory.obj
 0001:000933f0       ??$_Debug_lt_pred@U?$less@X@std@@AEBGAEBG@std@@YA_N$$QEAU?$less@X@0@AEBG1PEB_WI@Z 00000001800943f0 f i SwFactory.obj
 0001:000934c0       ??$forward@AEBG@std@@YAAEBGAEBG@Z 00000001800944c0 f i SwFactory.obj
 0001:000934d0       ??$max@G@std@@YAAEBGAEBG0@Z 00000001800944d0 f i SwFactory.obj
 0001:00093560       ??0?$Array@PEAVSwFabric@cloth@nv@@VNonTrackingAllocator@ps@23@@ps@cloth@nv@@QEAA@AEBVNonTrackingAllocator@123@@Z 0000000180094560 f i SwFactory.obj
 0001:000935b0       ??1?$Array@PEAVSwFabric@cloth@nv@@VNonTrackingAllocator@ps@23@@ps@cloth@nv@@QEAA@XZ 00000001800945b0 f i SwFactory.obj
 0001:00093650       ??A?$Array@GVNonTrackingAllocator@ps@cloth@nv@@@ps@cloth@nv@@QEBAAEBGI@Z 0000000180094650 f i SwFactory.obj
 0001:00093700       ??A?$Array@IVNonTrackingAllocator@ps@cloth@nv@@@ps@cloth@nv@@QEBAAEBII@Z 0000000180094700 f i SwFactory.obj
 0001:000937b0       ??A?$Array@USwTether@cloth@nv@@VNonTrackingAllocator@ps@23@@ps@cloth@nv@@QEBAAEBUSwTether@23@I@Z 00000001800947b0 f i SwFactory.obj
 0001:00093860       ??_ESwFactory@cloth@nv@@UEAAPEAXI@Z 0000000180094860 f i SwFactory.obj
 0001:00093860       ??_GSwFactory@cloth@nv@@UEAAPEAXI@Z 0000000180094860 f i SwFactory.obj
 0001:000938f0       ?begin@?$Array@MV?$AlignedAllocator@$0CA@VNonTrackingAllocator@ps@cloth@nv@@@ps@cloth@nv@@@ps@cloth@nv@@QEBAPEBMXZ 00000001800948f0 f i SwFactory.obj
 0001:00093910       ?empty@?$Range@$$BY03I@cloth@nv@@QEBA_NXZ 0000000180094910 f i SwFactory.obj
 0001:00093970       ?front@?$Array@UIndexPair@cloth@nv@@VNonTrackingAllocator@ps@23@@ps@cloth@nv@@QEBAAEBUIndexPair@34@XZ 0000000180094970 f i SwFactory.obj
 0001:00093a20       ?front@?$Array@VPxVec3@physx@@VNonTrackingAllocator@ps@cloth@nv@@@ps@cloth@nv@@QEBAAEBVPxVec3@physx@@XZ 0000000180094a20 f i SwFactory.obj
 0001:00093ad0       ?getPlatform@SwFactory@cloth@nv@@UEBA?AW4Platform@23@XZ 0000000180094ad0 f i SwFactory.obj
 0001:00093ae0       ?size@?$Array@PEAVSwFabric@cloth@nv@@VNonTrackingAllocator@ps@23@@ps@cloth@nv@@QEBAIXZ 0000000180094ae0 f i SwFactory.obj
 0001:00094600       ??$?RAEBQEAIAEBQEAI@?$less@X@std@@QEBA_NAEBQEAI0@Z 0000000180095600 f i SwInterCollision.obj
 0001:00094670       ??$_Debug_lt@AEBQEAIAEBQEAI@std@@YA_NAEBQEAI0PEB_WI@Z 0000000180095670 f i SwInterCollision.obj
 0001:00094700       ??$_Debug_lt_pred@U?$less@X@std@@AEBQEAIAEBQEAI@std@@YA_N$$QEAU?$less@X@0@AEBQEAI1PEB_WI@Z 0000000180095700 f i SwInterCollision.obj
 0001:00095b70       ??$expandBounds@T__m128@@@cloth@nv@@YA?AU?$BoundingBox@T__m128@@@01@AEBU201@PEBT__m128@@1@Z 0000000180096b70 f i SwInterCollision.obj
 0001:00095cb0       ??$forward@AEBQEAI@std@@YAAEBQEAIAEBQEAI@Z 0000000180096cb0 f i SwInterCollision.obj
 0001:00095cc0       ??$isEmptyBounds@T__m128@@@cloth@nv@@YA_NAEBU?$BoundingBox@T__m128@@@01@@Z 0000000180096cc0 f i SwInterCollision.obj
 0001:00095e50       ??$max@PEAI@std@@YAAEBQEAIAEBQEAI0@Z 0000000180096e50 f i SwInterCollision.obj
 0001:00095ee0       ??$median3@I$$CBU?$ClothSorter@T__m128@@@?A0x0008e8d5@@@internal@ps@cloth@nv@@YAXPEAIHHAEBU?$ClothSorter@T__m128@@@?A0x0008e8d5@@@Z 0000000180096ee0 f i SwInterCollision.obj
 0001:000960a0       ??$partition@I$$CBU?$ClothSorter@T__m128@@@?A0x0008e8d5@@@internal@ps@cloth@nv@@YAHPEAIHHAEBU?$ClothSorter@T__m128@@@?A0x0008e8d5@@@Z 00000001800970a0 f i SwInterCollision.obj
 0001:00096510       ??$rsqrt@$00@cloth@nv@@YA?AT__m128@@AEBT2@@Z 0000000180097510 f i SwInterCollision.obj
 0001:00096730       ??$smallSort@I$$CBU?$ClothSorter@T__m128@@@?A0x0008e8d5@@@internal@ps@cloth@nv@@YAXPEAIHHAEBU?$ClothSorter@T__m128@@@?A0x0008e8d5@@@Z 0000000180097730 f i SwInterCollision.obj
 0001:00096850       ??$sort@IU?$ClothSorter@T__m128@@@?A0x0008e8d5@@VNonTrackingAllocator@ps@cloth@nv@@@ps@cloth@nv@@YAXPEAIIAEBU?$ClothSorter@T__m128@@@?A0x0008e8d5@@AEBVNonTrackingAllocator@012@I@Z 0000000180097850 f i SwInterCollision.obj
 0001:00096fc0       ??0?$SwInterCollision@T__m128@@@cloth@nv@@QEAA@PEBUSwInterCollisionData@12@IMMIP6A_NPEAX1@ZAEAV?$StackAllocator@$0BA@@12@@Z 0000000180097fc0 f i SwInterCollision.obj
 0001:000972a0       ??0PxBounds3@physx@@QEAA@AEBVPxVec3@1@0@Z 00000001800982a0 f i SwInterCollision.obj
 0001:00097320       ??0PxMat33@physx@@QEAA@AEBVPxQuat@1@@Z 0000000180098320 f i SwInterCollision.obj
 0001:00097690       ??0PxMat44@physx@@QEAA@AEBVPxMat33@1@AEBVPxVec3@1@@Z 0000000180098690 f i SwInterCollision.obj
 0001:00097760       ??0PxMat44@physx@@QEAA@AEBVPxTransform@1@@Z 0000000180098760 f i SwInterCollision.obj
 0001:00097870       ??0PxTransform@physx@@QEAA@AEBVPxVec3@1@AEBVPxQuat@1@@Z 0000000180098870 f i SwInterCollision.obj
 0001:00097920       ??1?$SwInterCollision@T__m128@@@cloth@nv@@QEAA@XZ 0000000180098920 f i SwInterCollision.obj
 0001:00097930       ??4PxMat44@physx@@QEAAAEAV01@AEBV01@@Z 0000000180098930 f i SwInterCollision.obj
 0001:000979f0       ??DPxTransform@physx@@QEBA?AV01@AEBV01@@Z 00000001800989f0 f i SwInterCollision.obj
 0001:00097a80       ??GPxVec3@physx@@QEBA?AV01@XZ 0000000180098a80 f i SwInterCollision.obj
 0001:00097b20       ??HPxVec3@physx@@QEBA?AV01@AEBV01@@Z 0000000180098b20 f i SwInterCollision.obj
 0001:00097d90       ??R?$SwInterCollision@T__m128@@@cloth@nv@@QEAAXXZ 0000000180098d90 f i SwInterCollision.obj
 0001:00098dc0       ?PxAbs@physx@@YAMM@Z       0000000180099dc0 f i SwInterCollision.obj
 0001:00098e00       ?PxIsFinite@physx@@YA_NM@Z 0000000180099e00 f i SwInterCollision.obj
 0001:00098e40       ?abs@intrinsics@physx@@YAMM@Z 0000000180099e40 f i SwInterCollision.obj
 0001:00098e80       ?allGreater@cloth@nv@@YAHAEBT__m128@@0@Z 0000000180099e80 f i SwInterCollision.obj
 0001:00098ee0       ?anyGreater@cloth@nv@@YAHAEBT__m128@@0@Z 0000000180099ee0 f i SwInterCollision.obj
 0001:00098f40       ?array@cloth@nv@@YAAEAY03$$CBHAEBT__m128i@@@Z 0000000180099f40 f i SwInterCollision.obj
 0001:00098f50       ?basisExtent@PxBounds3@physx@@SA?AV12@AEBVPxVec3@2@AEBVPxMat33@2@0@Z 0000000180099f50 f i SwInterCollision.obj
 0001:00099240       ?centerExtents@PxBounds3@physx@@SA?AV12@AEBVPxVec3@2@0@Z 000000018009a240 f i SwInterCollision.obj
 0001:000992e0       ?collideParticle@?$SwInterCollision@T__m128@@@cloth@nv@@AEAAXI@Z 000000018009a2e0 f i SwInterCollision.obj
 0001:000998a0       ?collideParticles@?$SwInterCollision@T__m128@@@cloth@nv@@AEAAXPEBII0II@Z 000000018009a8a0 f i SwInterCollision.obj
 0001:0009a2c0       ?estimateTemporaryMemory@?$SwInterCollision@T__m128@@@cloth@nv@@SA_KPEAUSwInterCollisionData@23@I@Z 000000018009b2c0 f i SwInterCollision.obj
 0001:0009a3d0       ?getBufferSize@?$SwInterCollision@T__m128@@@cloth@nv@@CA_KI@Z 000000018009b3d0 f i SwInterCollision.obj
 0001:0009a490       ?getCenter@PxBounds3@physx@@QEBA?AVPxVec3@2@XZ 000000018009b490 f i SwInterCollision.obj
 0001:0009a540       ?getDimensions@PxBounds3@physx@@QEBA?AVPxVec3@2@XZ 000000018009b540 f i SwInterCollision.obj
 0001:0009a5e0       ?getExtents@PxBounds3@physx@@QEBA?AVPxVec3@2@XZ 000000018009b5e0 f i SwInterCollision.obj
 0001:0009a680       ?getInverse@PxTransform@physx@@QEBA?AV12@XZ 000000018009b680 f i SwInterCollision.obj
 0001:0009a760       ?getParticle@?$SwInterCollision@T__m128@@@cloth@nv@@AEAAAEAT__m128@@I@Z 000000018009b760 f i SwInterCollision.obj
 0001:0009a8d0       ?isEmpty@PxBounds3@physx@@QEBA_NXZ 000000018009b8d0 f i SwInterCollision.obj
 0001:0009a970       ?isFinite@PxBounds3@physx@@QEBA_NXZ 000000018009b970 f i SwInterCollision.obj
 0001:0009a9f0       ?isFinite@PxQuat@physx@@QEBA_NXZ 000000018009b9f0 f i SwInterCollision.obj
 0001:0009aab0       ?isFinite@PxTransform@physx@@QEBA_NXZ 000000018009bab0 f i SwInterCollision.obj
 0001:0009ab30       ?isFinite@PxVec3@physx@@QEBA_NXZ 000000018009bb30 f i SwInterCollision.obj
 0001:0009abd0       ?isFinite@intrinsics@physx@@YA_NM@Z 000000018009bbd0 f i SwInterCollision.obj
 0001:0009ac30       ?isSane@PxQuat@physx@@QEBA_NXZ 000000018009bc30 f i SwInterCollision.obj
 0001:0009acd0       ?isSane@PxTransform@physx@@QEBA_NXZ 000000018009bcd0 f i SwInterCollision.obj
 0001:0009ad50       ?isValid@PxBounds3@physx@@QEBA_NXZ 000000018009bd50 f i SwInterCollision.obj
 0001:0009ae90       ?magnitude@PxQuat@physx@@QEBAMXZ 000000018009be90 f i SwInterCollision.obj
 0001:0009aed0       ?rotate@PxQuat@physx@@QEBA?BVPxVec3@2@AEBV32@@Z 000000018009bed0 f i SwInterCollision.obj
 0001:0009b140       ?rotateInv@PxQuat@physx@@QEBA?BVPxVec3@2@AEBV32@@Z 000000018009c140 f i SwInterCollision.obj
 0001:0009b3b0       ?transform@PxTransform@physx@@QEBA?AV12@AEBV12@@Z 000000018009c3b0 f i SwInterCollision.obj
 0001:0009b510       ?transform@PxTransform@physx@@QEBA?AVPxVec3@2@AEBV32@@Z 000000018009c510 f i SwInterCollision.obj
 0001:0009b5d0       ?transformFast@PxBounds3@physx@@SA?AV12@AEBVPxTransform@2@AEBV12@@Z 000000018009c5d0 f i SwInterCollision.obj
 0001:0009c3e0       ??$collideParticles@$00@?$SwSelfCollision@T__m128@@@cloth@nv@@AEAAXAEAT__m128@@0AEBT3@1@Z 000000018009d3e0 f i SwSelfCollision.obj
 0001:0009c890       ??$collideParticles@$00@?$SwSelfCollision@T__m128@@@cloth@nv@@AEAAXPEBIGPEBGI@Z 000000018009d890 f i SwSelfCollision.obj
 0001:0009d250       ??$collideParticles@$0A@@?$SwSelfCollision@T__m128@@@cloth@nv@@AEAAXAEAT__m128@@0AEBT3@1@Z 000000018009e250 f i SwSelfCollision.obj
 0001:0009d700       ??$collideParticles@$0A@@?$SwSelfCollision@T__m128@@@cloth@nv@@AEAAXPEBIGPEBGI@Z 000000018009e700 f i SwSelfCollision.obj
 0001:0009e1e0       ??0?$SwSelfCollision@T__m128@@@cloth@nv@@QEAA@AEAUSwClothData@12@AEAV?$StackAllocator@$0BA@@12@@Z 000000018009f1e0 f i SwSelfCollision.obj
 0001:0009e360       ??1?$SwSelfCollision@T__m128@@@cloth@nv@@QEAA@XZ 000000018009f360 f i SwSelfCollision.obj
 0001:0009e370       ??R?$SwSelfCollision@T__m128@@@cloth@nv@@QEAAXXZ 000000018009f370 f i SwSelfCollision.obj
 0001:0009ed70       ?estimateTemporaryMemory@?$SwSelfCollision@T__m128@@@cloth@nv@@SA_KAEBVSwCloth@23@@Z 000000018009fd70 f i SwSelfCollision.obj
 0001:0009ee40       ?getBufferSize@?$SwSelfCollision@T__m128@@@cloth@nv@@CA_KI@Z 000000018009fe40 f i SwSelfCollision.obj
 0001:0009ef90       ??0SimulatedCloth@SwSolver@cloth@nv@@QEAA@AEAVSwCloth@23@PEAV123@@Z 000000018009ff90 f   SwSolver.obj
 0001:0009eff0       ?Destroy@SimulatedCloth@SwSolver@cloth@nv@@QEAAXXZ 000000018009fff0 f   SwSolver.obj
 0001:0009f180       ?Simulate@SimulatedCloth@SwSolver@cloth@nv@@QEAAXXZ 00000001800a0180 f   SwSolver.obj
 0001:0009f3b0       ??0SwSolver@cloth@nv@@QEAA@XZ 00000001800a03b0 f   SwSolver.obj
 0001:0009f4b0       ??1SwSolver@cloth@nv@@UEAA@XZ 00000001800a04b0 f   SwSolver.obj
 0001:0009f5c0       ?addCloth@SwSolver@cloth@nv@@UEAAXPEAVCloth@23@@Z 00000001800a05c0 f   SwSolver.obj
 0001:0009f610       ?addCloths@SwSolver@cloth@nv@@UEAAXU?$Range@PEAVCloth@cloth@nv@@@23@@Z 00000001800a0610 f   SwSolver.obj
 0001:0009f6a0       ?removeCloth@SwSolver@cloth@nv@@UEAAXPEAVCloth@23@@Z 00000001800a06a0 f   SwSolver.obj
 0001:0009f7f0       ?getNumCloths@SwSolver@cloth@nv@@UEBAHXZ 00000001800a07f0 f   SwSolver.obj
 0001:0009f830       ?getClothList@SwSolver@cloth@nv@@UEBAPEBQEAVCloth@23@XZ 00000001800a0830 f   SwSolver.obj
 0001:0009f890       ?beginSimulation@SwSolver@cloth@nv@@UEAA_NM@Z 00000001800a0890 f   SwSolver.obj
 0001:0009f900       ?simulateChunk@SwSolver@cloth@nv@@UEAAXH@Z 00000001800a0900 f   SwSolver.obj
 0001:0009f9d0       ?endSimulation@SwSolver@cloth@nv@@UEAAXXZ 00000001800a09d0 f   SwSolver.obj
 0001:0009fa70       ?getSimulationChunkCount@SwSolver@cloth@nv@@UEBAHXZ 00000001800a0a70 f   SwSolver.obj
 0001:0009fab0       ?addClothAppend@SwSolver@cloth@nv@@AEAAXPEAVCloth@23@@Z 00000001800a0ab0 f   SwSolver.obj
 0001:0009fbd0       ?beginFrame@SwSolver@cloth@nv@@AEBAXXZ 00000001800a0bd0 f   SwSolver.obj
 0001:0009fc50       ?endFrame@SwSolver@cloth@nv@@AEBAXXZ 00000001800a0c50 f   SwSolver.obj
 0001:0009fcc0       ?interCollision@SwSolver@cloth@nv@@AEAAXXZ 00000001800a0cc0 f   SwSolver.obj
 0001:000a0600       ??$?0VSwCloth@cloth@nv@@@IterationStateFactory@cloth@nv@@QEAA@AEAVSwCloth@12@M@Z 00000001800a1600 f i SwSolver.obj
 0001:000a0b60       ??$median3@USimulatedCloth@SwSolver@cloth@nv@@Q6A_NAEBU1234@0@Z@internal@ps@cloth@nv@@YAXPEAUSimulatedCloth@SwSolver@23@HHAEBQ6A_NAEBU4523@1@Z@Z 00000001800a1b60 f i SwSolver.obj
 0001:000a0d90       ??$partition@USimulatedCloth@SwSolver@cloth@nv@@Q6A_NAEBU1234@0@Z@internal@ps@cloth@nv@@YAHPEAUSimulatedCloth@SwSolver@23@HHAEBQ6A_NAEBU4523@1@Z@Z 00000001800a1d90 f i SwSolver.obj
 0001:000a1040       ??$smallSort@USimulatedCloth@SwSolver@cloth@nv@@Q6A_NAEBU1234@0@Z@internal@ps@cloth@nv@@YAXPEAUSimulatedCloth@SwSolver@23@HHAEBQ6A_NAEBU4523@1@Z@Z 00000001800a2040 f i SwSolver.obj
 0001:000a1180       ??$sort@USimulatedCloth@SwSolver@cloth@nv@@P6A_NAEBU1234@0@ZVNonTrackingAllocator@ps@34@@ps@cloth@nv@@YAXPEAUSimulatedCloth@SwSolver@12@IAEBQ6A_NAEBU3412@1@ZAEBVNonTrackingAllocator@012@I@Z 00000001800a2180 f i SwSolver.obj
 0001:000a1700       ??$swap@PEAVPxVec3@physx@@@ps@cloth@nv@@YAXAEAPEAVPxVec3@physx@@0@Z 00000001800a2700 f i SwSolver.obj
 0001:000a1770       ??$swap@USimulatedCloth@SwSolver@cloth@nv@@@ps@cloth@nv@@YAXAEAUSimulatedCloth@SwSolver@12@0@Z 00000001800a2770 f i SwSolver.obj
 0001:000a1820       ??$swap@VPxVec3@physx@@VNonTrackingAllocator@ps@cloth@nv@@@ps@cloth@nv@@YAXAEAV?$Array@VPxVec3@physx@@VNonTrackingAllocator@ps@cloth@nv@@@012@0@Z 00000001800a2820 f i SwSolver.obj
 0001:000a1870       ??0?$Array@PEAVSwCloth@cloth@nv@@VNonTrackingAllocator@ps@23@@ps@cloth@nv@@QEAA@AEBVNonTrackingAllocator@123@@Z 00000001800a2870 f i SwSolver.obj
 0001:000a18c0       ??0?$Array@USimulatedCloth@SwSolver@cloth@nv@@VNonTrackingAllocator@ps@34@@ps@cloth@nv@@QEAA@AEBVNonTrackingAllocator@123@@Z 00000001800a28c0 f i SwSolver.obj
 0001:000a1910       ??0SIMDGuard@ps@cloth@nv@@QEAA@XZ 00000001800a2910 f i SwSolver.obj
 0001:000a1970       ??1?$Array@PEAVSwCloth@cloth@nv@@VNonTrackingAllocator@ps@23@@ps@cloth@nv@@QEAA@XZ 00000001800a2970 f i SwSolver.obj
 0001:000a1a10       ??1?$Array@USimulatedCloth@SwSolver@cloth@nv@@VNonTrackingAllocator@ps@34@@ps@cloth@nv@@QEAA@XZ 00000001800a2a10 f i SwSolver.obj
 0001:000a1ab0       ??1?$SwSolverKernel@T__m128@@@cloth@nv@@QEAA@XZ 00000001800a2ab0 f i SwSolver.obj
 0001:000a1b10       ??1SIMDGuard@ps@cloth@nv@@QEAA@XZ 00000001800a2b10 f i SwSolver.obj
 0001:000a1b60       ??4FPUGuard@ps@cloth@nv@@QEAAAEAV0123@AEBV0123@@Z 00000001800a2b60 f i SwSolver.obj
 0001:000a1b90       ??A?$Array@PEAVSwCloth@cloth@nv@@VNonTrackingAllocator@ps@23@@ps@cloth@nv@@QEBAAEBQEAVSwCloth@23@I@Z 00000001800a2b90 f i SwSolver.obj
 0001:000a1c40       ??A?$Array@USimulatedCloth@SwSolver@cloth@nv@@VNonTrackingAllocator@ps@34@@ps@cloth@nv@@QEAAAEAUSimulatedCloth@SwSolver@23@I@Z 00000001800a2c40 f i SwSolver.obj
 0001:000a1cf0       ??_ESwSolver@cloth@nv@@UEAAPEAXI@Z 00000001800a2cf0 f i SwSolver.obj
 0001:000a1cf0       ??_GSwSolver@cloth@nv@@UEAAPEAXI@Z 00000001800a2cf0 f i SwSolver.obj
 0001:000a1d80       ?allocate@?$Array@PEAVSwCloth@cloth@nv@@VNonTrackingAllocator@ps@23@@ps@cloth@nv@@IEAAPEAPEAVSwCloth@34@I@Z 00000001800a2d80 f i SwSolver.obj
 0001:000a1e50       ?allocate@?$Array@USimulatedCloth@SwSolver@cloth@nv@@VNonTrackingAllocator@ps@34@@ps@cloth@nv@@IEAAPEAUSimulatedCloth@SwSolver@34@I@Z 00000001800a2e50 f i SwSolver.obj
 0001:000a1f20       ?begin@?$Array@USimulatedCloth@SwSolver@cloth@nv@@VNonTrackingAllocator@ps@34@@ps@cloth@nv@@QEAAPEAUSimulatedCloth@SwSolver@34@XZ 00000001800a2f20 f i SwSolver.obj
 0001:000a1f40       ?capacity@?$Array@PEAVSwCloth@cloth@nv@@VNonTrackingAllocator@ps@23@@ps@cloth@nv@@QEBAIXZ 00000001800a2f40 f i SwSolver.obj
 0001:000a1f60       ?capacity@?$Array@USimulatedCloth@SwSolver@cloth@nv@@VNonTrackingAllocator@ps@34@@ps@cloth@nv@@QEBAIXZ 00000001800a2f60 f i SwSolver.obj
 0001:000a1f80       ?capacityIncrement@?$Array@PEAVSwCloth@cloth@nv@@VNonTrackingAllocator@ps@23@@ps@cloth@nv@@IEBAIXZ 00000001800a2f80 f i SwSolver.obj
 0001:000a1ff0       ?capacityIncrement@?$Array@USimulatedCloth@SwSolver@cloth@nv@@VNonTrackingAllocator@ps@34@@ps@cloth@nv@@IEBAIXZ 00000001800a2ff0 f i SwSolver.obj
 0001:000a2060       ?copy@?$Array@PEAVSwCloth@cloth@nv@@VNonTrackingAllocator@ps@23@@ps@cloth@nv@@KAXPEAPEAVSwCloth@34@0PEBQEAV534@@Z 00000001800a3060 f i SwSolver.obj
 0001:000a2140       ?copy@?$Array@USimulatedCloth@SwSolver@cloth@nv@@VNonTrackingAllocator@ps@34@@ps@cloth@nv@@KAXPEAUSimulatedCloth@SwSolver@34@0PEBU5634@@Z 00000001800a3140 f i SwSolver.obj
 0001:000a2220       ?deallocate@?$Array@PEAVSwCloth@cloth@nv@@VNonTrackingAllocator@ps@23@@ps@cloth@nv@@IEAAXPEAX@Z 00000001800a3220 f i SwSolver.obj
 0001:000a2270       ?deallocate@?$Array@USimulatedCloth@SwSolver@cloth@nv@@VNonTrackingAllocator@ps@34@@ps@cloth@nv@@IEAAXPEAX@Z 00000001800a3270 f i SwSolver.obj
 0001:000a22c0       ?destroy@?$Array@PEAVSwCloth@cloth@nv@@VNonTrackingAllocator@ps@23@@ps@cloth@nv@@KAXPEAPEAVSwCloth@34@0@Z 00000001800a32c0 f i SwSolver.obj
 0001:000a2300       ?destroy@?$Array@USimulatedCloth@SwSolver@cloth@nv@@VNonTrackingAllocator@ps@34@@ps@cloth@nv@@KAXPEAUSimulatedCloth@SwSolver@34@0@Z 00000001800a3300 f i SwSolver.obj
 0001:000a2340       ?empty@?$Array@USimulatedCloth@SwSolver@cloth@nv@@VNonTrackingAllocator@ps@34@@ps@cloth@nv@@QEBA_NXZ 00000001800a3340 f i SwSolver.obj
 0001:000a23a0       ?end@?$Array@PEAVSwCloth@cloth@nv@@VNonTrackingAllocator@ps@23@@ps@cloth@nv@@QEAAPEAPEAVSwCloth@34@XZ 00000001800a33a0 f i SwSolver.obj
 0001:000a23d0       ?end@?$Array@USimulatedCloth@SwSolver@cloth@nv@@VNonTrackingAllocator@ps@34@@ps@cloth@nv@@QEAAPEAUSimulatedCloth@SwSolver@34@XZ 00000001800a33d0 f i SwSolver.obj
 0001:000a2400       ?find@?$Array@PEAVSwCloth@cloth@nv@@VNonTrackingAllocator@ps@23@@ps@cloth@nv@@QEAAPEAPEAVSwCloth@34@AEBQEAV534@@Z 00000001800a3400 f i SwSolver.obj
 0001:000a2490       ?getInterCollisionDistance@SwSolver@cloth@nv@@UEBAMXZ 00000001800a3490 f i SwSolver.obj
 0001:000a24d0       ?getInterCollisionNbIterations@SwSolver@cloth@nv@@UEBAIXZ 00000001800a34d0 f i SwSolver.obj
 0001:000a24f0       ?getInterCollisionStiffness@SwSolver@cloth@nv@@UEBAMXZ 00000001800a34f0 f i SwSolver.obj
 0001:000a2530       ?growAndPushBack@?$Array@PEAVSwCloth@cloth@nv@@VNonTrackingAllocator@ps@23@@ps@cloth@nv@@IEAAAEAPEAVSwCloth@34@AEBQEAV534@@Z 00000001800a3530 f i SwSolver.obj
 0001:000a2750       ?growAndPushBack@?$Array@USimulatedCloth@SwSolver@cloth@nv@@VNonTrackingAllocator@ps@34@@ps@cloth@nv@@IEAAAEAUSimulatedCloth@SwSolver@34@AEBU5634@@Z 00000001800a3750 f i SwSolver.obj
 0001:000a29d0       ?hasError@SwSolver@cloth@nv@@UEBA_NXZ 00000001800a39d0 f i SwSolver.obj
 0001:000a29e0       ?isInUserMemory@?$Array@PEAVSwCloth@cloth@nv@@VNonTrackingAllocator@ps@23@@ps@cloth@nv@@QEBAIXZ 00000001800a39e0 f i SwSolver.obj
 0001:000a2a00       ?isInUserMemory@?$Array@USimulatedCloth@SwSolver@cloth@nv@@VNonTrackingAllocator@ps@34@@ps@cloth@nv@@QEBAIXZ 00000001800a3a00 f i SwSolver.obj
 0001:000a2a20       ?pushBack@?$Array@PEAVSwCloth@cloth@nv@@VNonTrackingAllocator@ps@23@@ps@cloth@nv@@QEAAAEAPEAVSwCloth@34@AEBQEAV534@@Z 00000001800a3a20 f i SwSolver.obj
 0001:000a2b30       ?pushBack@?$Array@USimulatedCloth@SwSolver@cloth@nv@@VNonTrackingAllocator@ps@34@@ps@cloth@nv@@QEAAAEAUSimulatedCloth@SwSolver@34@AEBU5634@@Z 00000001800a3b30 f i SwSolver.obj
 0001:000a2c40       ?replaceWithLast@?$Array@PEAVSwCloth@cloth@nv@@VNonTrackingAllocator@ps@23@@ps@cloth@nv@@QEAAXI@Z 00000001800a3c40 f i SwSolver.obj
 0001:000a2d30       ?replaceWithLast@?$Array@PEAVSwCloth@cloth@nv@@VNonTrackingAllocator@ps@23@@ps@cloth@nv@@QEAAXPEAPEAVSwCloth@34@@Z 00000001800a3d30 f i SwSolver.obj
 0001:000a2d90       ?replaceWithLast@?$Array@USimulatedCloth@SwSolver@cloth@nv@@VNonTrackingAllocator@ps@34@@ps@cloth@nv@@QEAAXI@Z 00000001800a3d90 f i SwSolver.obj
 0001:000a2e90       ?replaceWithLast@?$Array@USimulatedCloth@SwSolver@cloth@nv@@VNonTrackingAllocator@ps@34@@ps@cloth@nv@@QEAAXPEAUSimulatedCloth@SwSolver@34@@Z 00000001800a3e90 f i SwSolver.obj
 0001:000a2f00       ?setInterCollisionDistance@SwSolver@cloth@nv@@UEAAXM@Z 00000001800a3f00 f i SwSolver.obj
 0001:000a2f30       ?setInterCollisionFilter@SwSolver@cloth@nv@@UEAAXP6A_NPEAX0@Z@Z 00000001800a3f30 f i SwSolver.obj
 0001:000a2f60       ?setInterCollisionNbIterations@SwSolver@cloth@nv@@UEAAXI@Z 00000001800a3f60 f i SwSolver.obj
 0001:000a2f80       ?setInterCollisionStiffness@SwSolver@cloth@nv@@UEAAXM@Z 00000001800a3f80 f i SwSolver.obj
 0001:000a2fb0       ?size@?$Array@PEAVSwCloth@cloth@nv@@VNonTrackingAllocator@ps@23@@ps@cloth@nv@@QEBAIXZ 00000001800a3fb0 f i SwSolver.obj
 0001:000a2fd0       ?size@?$Array@USimulatedCloth@SwSolver@cloth@nv@@VNonTrackingAllocator@ps@34@@ps@cloth@nv@@QEBAIXZ 00000001800a3fd0 f i SwSolver.obj
 0001:000a2ff0       ?swap@?$Array@VPxVec3@physx@@VNonTrackingAllocator@ps@cloth@nv@@@ps@cloth@nv@@QEAAXAEAV1234@@Z 00000001800a3ff0 f i SwSolver.obj
 0001:000a3180       ??$PX_UNUSED@PEIBM@@YAXAEBQEIBM@Z 00000001800a4180 f i SwSolverKernel.obj
 0001:000a3190       ??$PX_UNUSED@T__m128@@@@YAXAEBT__m128@@@Z 00000001800a4190 f i SwSolverKernel.obj
 0001:000a7840       ??$create@T__m128@@VSwCloth@cloth@nv@@@IterationStateFactory@cloth@nv@@QEBA?AU?$IterationState@T__m128@@@12@AEBVSwCloth@12@@Z 00000001800a8840 f i SwSolverKernel.obj
 0001:000a9f40       ??$integrateParticles@V?$ConstantIterator@T__m128@@@cloth@nv@@@?$SwSolverKernel@T__m128@@@cloth@nv@@AEAAXAEAV?$ConstantIterator@T__m128@@@12@AEBT__m128@@@Z 00000001800aaf40 f i SwSolverKernel.obj
 0001:000aa0a0       ??$integrateParticles@V?$ScaleBiasIterator@T__m128@@PEBT1@@cloth@nv@@@?$SwSolverKernel@T__m128@@@cloth@nv@@AEAAXAEAV?$ScaleBiasIterator@T__m128@@PEBT1@@12@AEBT__m128@@@Z 00000001800ab0a0 f i SwSolverKernel.obj
 0001:000ac700       ??$transform@T__m128@@@cloth@nv@@YA?AT__m128@@AEAY02$$CBT2@AEBT2@1@Z 00000001800ad700 f i SwSolverKernel.obj
 0001:000ac8a0       ??0?$ConstantIterator@T__m128@@@cloth@nv@@QEAA@AEBT__m128@@@Z 00000001800ad8a0 f i SwSolverKernel.obj
 0001:000ac8d0       ??0?$ScaleBiasIterator@T__m128@@PEBT1@@cloth@nv@@QEAA@PEBT__m128@@AEBT3@1@Z 00000001800ad8d0 f i SwSolverKernel.obj
 0001:000ac930       ??0?$SwSolverKernel@T__m128@@@cloth@nv@@QEAA@AEBVSwCloth@12@AEAUSwClothData@12@AEAV?$StackAllocator@$0BA@@12@AEAUIterationStateFactory@12@@Z 00000001800ad930 f i SwSolverKernel.obj
 0001:000aca30       ??D?$ConstantIterator@T__m128@@@cloth@nv@@QEBA?AT__m128@@XZ 00000001800ada30 f i SwSolverKernel.obj
 0001:000aca60       ??D?$ScaleBiasIterator@T__m128@@PEBT1@@cloth@nv@@QEBA?AT__m128@@XZ 00000001800ada60 f i SwSolverKernel.obj
 0001:000acaf0       ??E?$ConstantIterator@T__m128@@@cloth@nv@@QEAAAEAV012@XZ 00000001800adaf0 f i SwSolverKernel.obj
 0001:000acb00       ??E?$ScaleBiasIterator@T__m128@@PEBT1@@cloth@nv@@QEAAAEAV012@XZ 00000001800adb00 f i SwSolverKernel.obj
 0001:000acb30       ??Kcloth@nv@@YA?AT__m128@@AEBT2@0@Z 00000001800adb30 f i SwSolverKernel.obj
 0001:000acb90       ??R?$SwSolverKernel@T__m128@@@cloth@nv@@QEAAXXZ 00000001800adb90 f i SwSolverKernel.obj
 0001:000acbd0       ?anyGreaterEqual@cloth@nv@@YAHAEBT__m128@@0@Z 00000001800adbd0 f i SwSolverKernel.obj
 0001:000acc30       ?applyWind@?$SwSolverKernel@T__m128@@@cloth@nv@@AEAAXXZ 00000001800adc30 f i SwSolverKernel.obj
 0001:000acfb0       ?collideParticles@?$SwSolverKernel@T__m128@@@cloth@nv@@AEAAXXZ 00000001800adfb0 f i SwSolverKernel.obj
 0001:000ad080       ?constrainMotion@?$SwSolverKernel@T__m128@@@cloth@nv@@AEAAXXZ 00000001800ae080 f i SwSolverKernel.obj
 0001:000ad3c0       ?constrainSeparation@?$SwSolverKernel@T__m128@@@cloth@nv@@AEAAXXZ 00000001800ae3c0 f i SwSolverKernel.obj
 0001:000ad600       ?constrainTether@?$SwSolverKernel@T__m128@@@cloth@nv@@AEAAXXZ 00000001800ae600 f i SwSolverKernel.obj
 0001:000adda0       ?estimateTemporaryMemory@?$SwSolverKernel@T__m128@@@cloth@nv@@SA_KAEBVSwCloth@23@@Z 00000001800aeda0 f i SwSolverKernel.obj
 0001:000adea0       ?integrateParticles@?$SwSolverKernel@T__m128@@@cloth@nv@@AEAAXXZ 00000001800aeea0 f i SwSolverKernel.obj
 0001:000ae0c0       ?iterateCloth@?$SwSolverKernel@T__m128@@@cloth@nv@@AEAAXXZ 00000001800af0c0 f i SwSolverKernel.obj
 0001:000ae160       ?selfCollideParticles@?$SwSolverKernel@T__m128@@@cloth@nv@@AEAAXXZ 00000001800af160 f i SwSolverKernel.obj
 0001:000ae220       ?simulateCloth@?$SwSolverKernel@T__m128@@@cloth@nv@@AEAAXXZ 00000001800af220 f i SwSolverKernel.obj
 0001:000ae290       ?solveFabric@?$SwSolverKernel@T__m128@@@cloth@nv@@AEAAXXZ 00000001800af290 f i SwSolverKernel.obj
 0001:000aeac0       ?updateSleepState@?$SwSolverKernel@T__m128@@@cloth@nv@@AEAAXXZ 00000001800afac0 f i SwSolverKernel.obj
 0001:000aedf0       ??0TripletScheduler@cloth@nv@@QEAA@U?$Range@$$BY03$$CBI@12@@Z 00000001800afdf0 f   TripletScheduler.obj
 0001:000aeeb0       ?simd@TripletScheduler@cloth@nv@@QEAAXII@Z 00000001800afeb0 f   TripletScheduler.obj
 0001:000af350       ?warp@TripletScheduler@cloth@nv@@QEAAXII@Z 00000001800b0350 f   TripletScheduler.obj
 0001:000afc50       ??0TripletSchedulerTestInterface@cloth@nv@@QEAA@U?$Range@$$BY03$$CBI@12@@Z 00000001800b0c50 f   TripletScheduler.obj
 0001:000afce0       ??1TripletSchedulerTestInterface@cloth@nv@@QEAA@XZ 00000001800b0ce0 f   TripletScheduler.obj
 0001:000afd50       ?simd@TripletSchedulerTestInterface@cloth@nv@@QEAAXII@Z 00000001800b0d50 f   TripletScheduler.obj
 0001:000afda0       ?warp@TripletSchedulerTestInterface@cloth@nv@@QEAAXII@Z 00000001800b0da0 f   TripletScheduler.obj
 0001:000afdf0       ?GetTriplets@TripletSchedulerTestInterface@cloth@nv@@QEAA?AU?$Range@$$CBI@23@XZ 00000001800b0df0 f   TripletScheduler.obj
 0001:000afe80       ?GetSetSizes@TripletSchedulerTestInterface@cloth@nv@@QEAA?AU?$Range@$$CBI@23@XZ 00000001800b0e80 f   TripletScheduler.obj
 0001:000aff20       NvClothCreateTripletScheduler 00000001800b0f20 f   TripletScheduler.obj
 0001:000affa0       NvClothDestroyTripletScheduler 00000001800b0fa0 f   TripletScheduler.obj
 0001:000b06c0       ??$?AH@?$Vec4T@I@cloth@nv@@QEAAAEAIH@Z 00000001800b16c0 f i TripletScheduler.obj
 0001:000b06e0       ??$?AI@?$Vec4T@I@cloth@nv@@QEAAAEAII@Z 00000001800b16e0 f i TripletScheduler.obj
 0001:000b0700       ??$PX_UNUSED@I@@YAXAEBI@Z  00000001800b1700 f i TripletScheduler.obj
 0001:000b0710       ??$iter_swap@PEAU?$Vec4T@I@cloth@nv@@PEAU123@@std@@YAXPEAU?$Vec4T@I@cloth@nv@@0@Z 00000001800b1710 f i TripletScheduler.obj
 0001:000b0760       ??$move@AEAU?$Vec4T@I@cloth@nv@@@std@@YA$$QEAU?$Vec4T@I@cloth@nv@@AEAU123@@Z 00000001800b1760 f i TripletScheduler.obj
 0001:000b0830       ??$swap@PEAU?$Vec4T@I@cloth@nv@@@ps@cloth@nv@@YAXAEAPEAU?$Vec4T@I@12@0@Z 00000001800b1830 f i TripletScheduler.obj
 0001:000b08a0       ??$swap@U?$Vec4T@I@cloth@nv@@X@std@@YAXAEAU?$Vec4T@I@cloth@nv@@0@Z 00000001800b18a0 f i TripletScheduler.obj
 0001:000b0950       ??0?$Array@U?$Vec4T@I@cloth@nv@@VNonTrackingAllocator@ps@23@@ps@cloth@nv@@QEAA@PEBU?$Vec4T@I@23@0AEBVNonTrackingAllocator@123@@Z 00000001800b1950 f i TripletScheduler.obj
 0001:000b0a50       ??0?$Array@UTripletSet@?A0x3c73138f@@VNonTrackingAllocator@ps@cloth@nv@@@ps@cloth@nv@@QEAA@IAEBUTripletSet@?A0x3c73138f@@AEBVNonTrackingAllocator@123@@Z 00000001800b1a50 f i TripletScheduler.obj
 0001:000b0ae0       ??0?$Vec4T@G@cloth@nv@@QEAA@GGGG@Z 00000001800b1ae0 f i TripletScheduler.obj
 0001:000b0fb0       ??1?$Array@UTripletSet@?A0x3c73138f@@VNonTrackingAllocator@ps@cloth@nv@@@ps@cloth@nv@@QEAA@XZ 00000001800b1fb0 f i TripletScheduler.obj
 0001:000b10b0       ??A?$Array@U?$Vec4T@I@cloth@nv@@VNonTrackingAllocator@ps@23@@ps@cloth@nv@@QEAAAEAU?$Vec4T@I@23@I@Z 00000001800b20b0 f i TripletScheduler.obj
 0001:000b1160       ??A?$Array@UTripletSet@?A0x3c73138f@@VNonTrackingAllocator@ps@cloth@nv@@@ps@cloth@nv@@QEAAAEAUTripletSet@?A0x3c73138f@@I@Z 00000001800b2160 f i TripletScheduler.obj
 0001:000b1210       ??_GTripletScheduler@cloth@nv@@QEAAPEAXI@Z 00000001800b2210 f i TripletScheduler.obj
 0001:000b1280       ??_GTripletSchedulerTestInterface@cloth@nv@@QEAAPEAXI@Z 00000001800b2280 f i TripletScheduler.obj
 0001:000b12f0       ?allocate@?$Array@UTripletSet@?A0x3c73138f@@VNonTrackingAllocator@ps@cloth@nv@@@ps@cloth@nv@@IEAAPEAUTripletSet@?A0x3c73138f@@I@Z 00000001800b22f0 f i TripletScheduler.obj
 0001:000b13c0       ?back@?$Array@IVNonTrackingAllocator@ps@cloth@nv@@@ps@cloth@nv@@QEAAAEAIXZ 00000001800b23c0 f i TripletScheduler.obj
 0001:000b1480       ?begin@?$Range@$$BY03$$CBI@cloth@nv@@QEBAPEAY03$$CBIXZ 00000001800b2480 f i TripletScheduler.obj
 0001:000b14a0       ?capacity@?$Array@UTripletSet@?A0x3c73138f@@VNonTrackingAllocator@ps@cloth@nv@@@ps@cloth@nv@@QEBAIXZ 00000001800b24a0 f i TripletScheduler.obj
 0001:000b14c0       ?capacityIncrement@?$Array@UTripletSet@?A0x3c73138f@@VNonTrackingAllocator@ps@cloth@nv@@@ps@cloth@nv@@IEBAIXZ 00000001800b24c0 f i TripletScheduler.obj
 0001:000b1530       ?copy@?$Array@UTripletSet@?A0x3c73138f@@VNonTrackingAllocator@ps@cloth@nv@@@ps@cloth@nv@@KAXPEAUTripletSet@?A0x3c73138f@@0PEBU56@@Z 00000001800b2530 f i TripletScheduler.obj
 0001:000b1610       ?create@?$Array@UTripletSet@?A0x3c73138f@@VNonTrackingAllocator@ps@cloth@nv@@@ps@cloth@nv@@KAXPEAUTripletSet@?A0x3c73138f@@0AEBU56@@Z 00000001800b2610 f i TripletScheduler.obj
 0001:000b16d0       ?deallocate@?$Array@UTripletSet@?A0x3c73138f@@VNonTrackingAllocator@ps@cloth@nv@@@ps@cloth@nv@@IEAAXPEAX@Z 00000001800b26d0 f i TripletScheduler.obj
 0001:000b1720       ?destroy@?$Array@UTripletSet@?A0x3c73138f@@VNonTrackingAllocator@ps@cloth@nv@@@ps@cloth@nv@@KAXPEAUTripletSet@?A0x3c73138f@@0@Z 00000001800b2720 f i TripletScheduler.obj
 0001:000b1760       ?end@?$Array@U?$Vec4T@I@cloth@nv@@VNonTrackingAllocator@ps@23@@ps@cloth@nv@@QEBAPEBU?$Vec4T@I@34@XZ 00000001800b2760 f i TripletScheduler.obj
 0001:000b1790       ?end@?$Range@$$BY03$$CBI@cloth@nv@@QEBAPEAY03$$CBIXZ 00000001800b2790 f i TripletScheduler.obj
 0001:000b18c0       ?grow@?$Array@UTripletSet@?A0x3c73138f@@VNonTrackingAllocator@ps@cloth@nv@@@ps@cloth@nv@@IEAAXI@Z 00000001800b28c0 f i TripletScheduler.obj
 0001:000b1970       ?growAndPushBack@?$Array@UTripletSet@?A0x3c73138f@@VNonTrackingAllocator@ps@cloth@nv@@@ps@cloth@nv@@IEAAAEAUTripletSet@?A0x3c73138f@@AEBU56@@Z 00000001800b2970 f i TripletScheduler.obj
 0001:000b1bf0       ?isInUserMemory@?$Array@UTripletSet@?A0x3c73138f@@VNonTrackingAllocator@ps@cloth@nv@@@ps@cloth@nv@@QEBAIXZ 00000001800b2bf0 f i TripletScheduler.obj
 0001:000b1c10       ?pushBack@?$Array@UTripletSet@?A0x3c73138f@@VNonTrackingAllocator@ps@cloth@nv@@@ps@cloth@nv@@QEAAAEAUTripletSet@?A0x3c73138f@@AEBU56@@Z 00000001800b2c10 f i TripletScheduler.obj
 0001:000b1d20       ?recreate@?$Array@UTripletSet@?A0x3c73138f@@VNonTrackingAllocator@ps@cloth@nv@@@ps@cloth@nv@@IEAAXI@Z 00000001800b2d20 f i TripletScheduler.obj
 0001:000b1ea0       ?reserve@?$Array@UTripletSet@?A0x3c73138f@@VNonTrackingAllocator@ps@cloth@nv@@@ps@cloth@nv@@QEAAXI@Z 00000001800b2ea0 f i TripletScheduler.obj
 0001:000b1f00       ?resize@?$Array@UTripletSet@?A0x3c73138f@@VNonTrackingAllocator@ps@cloth@nv@@@ps@cloth@nv@@QEAAXIAEBUTripletSet@?A0x3c73138f@@@Z 00000001800b2f00 f i TripletScheduler.obj
 0001:000b1fd0       ?swap@?$Array@U?$Vec4T@I@cloth@nv@@VNonTrackingAllocator@ps@23@@ps@cloth@nv@@QEAAXAEAV1234@@Z 00000001800b2fd0 f i TripletScheduler.obj
 0001:000b2060       NvClothCreateFabricCooker  00000001800b3060 f   ClothFabricCooker.obj
 0001:000b20d0       NvClothCookFabricFromMesh  00000001800b30d0 f   ClothFabricCooker.obj
 0001:000b23e0       ?cook@FabricCookerImpl@cloth@nv@@UEAA_NAEBVClothMeshDesc@23@VPxVec3@physx@@_N@Z 00000001800b33e0 f   ClothFabricCooker.obj
 0001:000b4420       ?getDescriptor@FabricCookerImpl@cloth@nv@@UEBA?AVClothFabricDesc@23@XZ 00000001800b5420 f   ClothFabricCooker.obj
 0001:000b4700       ?getCookedData@FabricCookerImpl@cloth@nv@@UEBA?AUCookedData@23@XZ 00000001800b5700 f   ClothFabricCooker.obj
 0001:000b4960       ?save@FabricCookerImpl@cloth@nv@@UEBAXAEAVPxOutputStream@physx@@_N@Z 00000001800b5960 f   ClothFabricCooker.obj
 0001:000b56e0       ??$?4VNonTrackingAllocator@ps@cloth@nv@@@?$Array@IVNonTrackingAllocator@ps@cloth@nv@@@ps@cloth@nv@@QEAAAEAV0123@AEBV0123@@Z 00000001800b66e0 f i ClothFabricCooker.obj
 0001:000b57a0       ??$?4VNonTrackingAllocator@ps@cloth@nv@@@?$Array@MVNonTrackingAllocator@ps@cloth@nv@@@ps@cloth@nv@@QEAAAEAV0123@AEBV0123@@Z 00000001800b67a0 f i ClothFabricCooker.obj
 0001:000b5a10       ??$PxMakeIterator@G@physx@@YA?AV?$PxStrideIterator@$$CBG@0@PEBGI@Z 00000001800b6a10 f i ClothFabricCooker.obj
 0001:000b5a70       ??$PxMakeIterator@I@physx@@YA?AV?$PxStrideIterator@$$CBI@0@PEBII@Z 00000001800b6a70 f i ClothFabricCooker.obj
 0001:000b5ad0       ??$PxMax@I@physx@@YAIII@Z  00000001800b6ad0 f i ClothFabricCooker.obj
 0001:000b5b30       ??$PxMin@I@physx@@YAIII@Z  00000001800b6b30 f i ClothFabricCooker.obj
 0001:000b72c0       ??$hash@II@ps@cloth@nv@@YAIAEBV?$Pair@II@012@@Z 00000001800b82c0 f i ClothFabricCooker.obj
 0001:000b7350       ??$median3@I$$CBUConstraintSorter@?A0xb3237753@cloth@nv@@@internal@ps@cloth@nv@@YAXPEAIHHAEBUConstraintSorter@?A0xb3237753@23@@Z 00000001800b8350 f i ClothFabricCooker.obj
 0001:000b7510       ??$partition@I$$CBUConstraintSorter@?A0xb3237753@cloth@nv@@@internal@ps@cloth@nv@@YAHPEAIHHAEBUConstraintSorter@?A0xb3237753@23@@Z 00000001800b8510 f i ClothFabricCooker.obj
 0001:000b7b30       ??$smallSort@I$$CBUConstraintSorter@?A0xb3237753@cloth@nv@@@internal@ps@cloth@nv@@YAXPEAIHHAEBUConstraintSorter@?A0xb3237753@23@@Z 00000001800b8b30 f i ClothFabricCooker.obj
 0001:000b7c50       ??$sort@IUConstraintSorter@?A0xb3237753@cloth@nv@@VNonTrackingAllocator@ps@34@@ps@cloth@nv@@YAXPEAIIAEBUConstraintSorter@?A0xb3237753@12@AEBVNonTrackingAllocator@012@I@Z 00000001800b8c50 f i ClothFabricCooker.obj
 0001:000b8120       ??$swap@UConstraintGraphColorCount@?A0xb3237753@cloth@nv@@@ps@cloth@nv@@YAXAEAUConstraintGraphColorCount@?A0xb3237753@12@0@Z 00000001800b9120 f i ClothFabricCooker.obj
 0001:000b81a0       ??0?$Array@MVNonTrackingAllocator@ps@cloth@nv@@@ps@cloth@nv@@QEAA@AEBVNonTrackingAllocator@123@@Z 00000001800b91a0 f i ClothFabricCooker.obj
 0001:000b81f0       ??0?$Array@UClothFabricPhase@cloth@nv@@VNonTrackingAllocator@ps@23@@ps@cloth@nv@@QEAA@AEBVNonTrackingAllocator@123@@Z 00000001800b91f0 f i ClothFabricCooker.obj
 0001:000b8240       ??0?$Array@UConstraintGraphColorCount@?A0xb3237753@cloth@nv@@VNonTrackingAllocator@ps@34@@ps@cloth@nv@@QEAA@AEBVNonTrackingAllocator@123@@Z 00000001800b9240 f i ClothFabricCooker.obj
 0001:000b8290       ??0?$Array@V?$Pair@V?$Pair@II@ps@cloth@nv@@W4Enum@ClothFabricPhaseType@34@@ps@cloth@nv@@VNonTrackingAllocator@234@@ps@cloth@nv@@QEAA@AEBVNonTrackingAllocator@123@@Z 00000001800b9290 f i ClothFabricCooker.obj
 0001:000b82e0       ??0?$Array@W4Enum@ClothFabricPhaseType@cloth@nv@@VNonTrackingAllocator@ps@34@@ps@cloth@nv@@QEAA@AEBVNonTrackingAllocator@123@@Z 00000001800b92e0 f i ClothFabricCooker.obj
 0001:000b8330       ??0?$HashBase@V?$Pair@$$CBV?$Pair@II@ps@cloth@nv@@UEdge@?A0xb3237753@34@@ps@cloth@nv@@V?$Pair@II@234@U?$Hash@V?$Pair@II@ps@cloth@nv@@@234@UGetKey@?$HashMapBase@V?$Pair@II@ps@cloth@nv@@UEdge@?A0xb3237753@34@U?$Hash@V?$Pair@II@ps@cloth@nv@@@234@VNonTrackingAllocator@234@@internal@234@VNonTrackingAllocator@234@$00@internal@ps@cloth@nv@@QEAA@IM@Z 00000001800b9330 f i ClothFabricCooker.obj
 0001:000b83a0       ??0?$HashMap@V?$Pair@II@ps@cloth@nv@@UEdge@?A0xb3237753@34@U?$Hash@V?$Pair@II@ps@cloth@nv@@@234@VNonTrackingAllocator@234@@ps@cloth@nv@@QEAA@IM@Z 00000001800b93a0 f i ClothFabricCooker.obj
 0001:000b8400       ??0?$HashMapBase@V?$Pair@II@ps@cloth@nv@@UEdge@?A0xb3237753@34@U?$Hash@V?$Pair@II@ps@cloth@nv@@@234@VNonTrackingAllocator@234@@internal@ps@cloth@nv@@QEAA@IM@Z 00000001800b9400 f i ClothFabricCooker.obj
 0001:000b8460       ??0?$Pair@$$CBV?$Pair@II@ps@cloth@nv@@UEdge@?A0xb3237753@34@@ps@cloth@nv@@QEAA@AEBV0123@@Z 00000001800b9460 f i ClothFabricCooker.obj
 0001:000b84e0       ??0?$Pair@$$CBV?$Pair@II@ps@cloth@nv@@UEdge@?A0xb3237753@34@@ps@cloth@nv@@QEAA@AEBV?$Pair@II@123@AEBUEdge@?A0xb3237753@23@@Z 00000001800b94e0 f i ClothFabricCooker.obj
 0001:000b8560       ??0?$Pair@II@ps@cloth@nv@@QEAA@AEBI0@Z 00000001800b9560 f i ClothFabricCooker.obj
 0001:000b85b0       ??0?$Pair@II@ps@cloth@nv@@QEAA@AEBV0123@@Z 00000001800b95b0 f i ClothFabricCooker.obj
 0001:000b85f0       ??0?$Pair@V?$Pair@II@ps@cloth@nv@@W4Enum@ClothFabricPhaseType@34@@ps@cloth@nv@@QEAA@AEBV0123@@Z 00000001800b95f0 f i ClothFabricCooker.obj
 0001:000b8660       ??0?$Pair@V?$Pair@II@ps@cloth@nv@@W4Enum@ClothFabricPhaseType@34@@ps@cloth@nv@@QEAA@AEBV?$Pair@II@123@AEBW4Enum@ClothFabricPhaseType@23@@Z 00000001800b9660 f i ClothFabricCooker.obj
 0001:000b86d0       ??0?$PxStrideIterator@$$CBG@physx@@QEAA@PEBGI@Z 00000001800b96d0 f i ClothFabricCooker.obj
 0001:000b8770       ??0?$PxStrideIterator@$$CBI@physx@@QEAA@PEBII@Z 00000001800b9770 f i ClothFabricCooker.obj
 0001:000b8810       ??0?$PxStrideIterator@$$CBM@physx@@QEAA@PEBMI@Z 00000001800b9810 f i ClothFabricCooker.obj
 0001:000b88b0       ??0?$PxStrideIterator@$$CBVPxVec3@physx@@@physx@@QEAA@PEBVPxVec3@1@I@Z 00000001800b98b0 f i ClothFabricCooker.obj
 0001:000b8950       ??0?$Range@$$CBH@cloth@nv@@QEAA@PEBH0@Z 00000001800b9950 f i ClothFabricCooker.obj
 0001:000b8990       ??0?$Range@$$CBH@cloth@nv@@QEAA@XZ 00000001800b9990 f i ClothFabricCooker.obj
 0001:000b89c0       ??0?$Range@$$CBI@cloth@nv@@QEAA@XZ 00000001800b99c0 f i ClothFabricCooker.obj
 0001:000b89f0       ??0?$Range@$$CBM@cloth@nv@@QEAA@PEBM0@Z 00000001800b99f0 f i ClothFabricCooker.obj
 0001:000b8a30       ??0?$Range@$$CBM@cloth@nv@@QEAA@XZ 00000001800b9a30 f i ClothFabricCooker.obj
 0001:000b8a60       ??0ClothFabricCooker@cloth@nv@@QEAA@AEBV012@@Z 00000001800b9a60 f i ClothFabricCooker.obj
 0001:000b8ae0       ??0ClothFabricCooker@cloth@nv@@QEAA@XZ 00000001800b9ae0 f i ClothFabricCooker.obj
 0001:000b8b10       ??0ClothFabricDesc@cloth@nv@@QEAA@XZ 00000001800b9b10 f i ClothFabricCooker.obj
 0001:000b8b50       ??0ClothFabricPhase@cloth@nv@@QEAA@W4Enum@ClothFabricPhaseType@12@I@Z 00000001800b9b50 f i ClothFabricCooker.obj
 0001:000b8c00       ??0CookedData@cloth@nv@@QEAA@XZ 00000001800b9c00 f i ClothFabricCooker.obj
 0001:000b8d40       ??0FabricCookerImpl@cloth@nv@@QEAA@XZ 00000001800b9d40 f i ClothFabricCooker.obj
 0001:000b8f10       ??0Iter@?$HashBase@V?$Pair@$$CBV?$Pair@II@ps@cloth@nv@@UEdge@?A0xb3237753@34@@ps@cloth@nv@@V?$Pair@II@234@U?$Hash@V?$Pair@II@ps@cloth@nv@@@234@UGetKey@?$HashMapBase@V?$Pair@II@ps@cloth@nv@@UEdge@?A0xb3237753@34@U?$Hash@V?$Pair@II@ps@cloth@nv@@@234@VNonTrackingAllocator@234@@internal@234@VNonTrackingAllocator@234@$00@internal@ps@cloth@nv@@QEAA@AEAV12345@@Z 00000001800b9f10 f i ClothFabricCooker.obj
 0001:000b8fe0       ??1?$Array@UClothFabricPhase@cloth@nv@@VNonTrackingAllocator@ps@23@@ps@cloth@nv@@QEAA@XZ 00000001800b9fe0 f i ClothFabricCooker.obj
 0001:000b9080       ??1?$Array@UConstraintGraphColorCount@?A0xb3237753@cloth@nv@@VNonTrackingAllocator@ps@34@@ps@cloth@nv@@QEAA@XZ 00000001800ba080 f i ClothFabricCooker.obj
 0001:000b9120       ??1?$Array@V?$Pair@V?$Pair@II@ps@cloth@nv@@W4Enum@ClothFabricPhaseType@34@@ps@cloth@nv@@VNonTrackingAllocator@234@@ps@cloth@nv@@QEAA@XZ 00000001800ba120 f i ClothFabricCooker.obj
 0001:000b91c0       ??1?$Array@W4Enum@ClothFabricPhaseType@cloth@nv@@VNonTrackingAllocator@ps@34@@ps@cloth@nv@@QEAA@XZ 00000001800ba1c0 f i ClothFabricCooker.obj
 0001:000b9260       ??1?$HashBase@V?$Pair@$$CBV?$Pair@II@ps@cloth@nv@@UEdge@?A0xb3237753@34@@ps@cloth@nv@@V?$Pair@II@234@U?$Hash@V?$Pair@II@ps@cloth@nv@@@234@UGetKey@?$HashMapBase@V?$Pair@II@ps@cloth@nv@@UEdge@?A0xb3237753@34@U?$Hash@V?$Pair@II@ps@cloth@nv@@@234@VNonTrackingAllocator@234@@internal@234@VNonTrackingAllocator@234@$00@internal@ps@cloth@nv@@QEAA@XZ 00000001800ba260 f i ClothFabricCooker.obj
 0001:000b92c0       ??1?$HashMap@V?$Pair@II@ps@cloth@nv@@UEdge@?A0xb3237753@34@U?$Hash@V?$Pair@II@ps@cloth@nv@@@234@VNonTrackingAllocator@234@@ps@cloth@nv@@QEAA@XZ 00000001800ba2c0 f i ClothFabricCooker.obj
 0001:000b9300       ??1?$HashMapBase@V?$Pair@II@ps@cloth@nv@@UEdge@?A0xb3237753@34@U?$Hash@V?$Pair@II@ps@cloth@nv@@@234@VNonTrackingAllocator@234@@internal@ps@cloth@nv@@QEAA@XZ 00000001800ba300 f i ClothFabricCooker.obj
 0001:000b9340       ??1ClothFabricCooker@cloth@nv@@UEAA@XZ 00000001800ba340 f i ClothFabricCooker.obj
 0001:000b9360       ??1FabricCookerImpl@cloth@nv@@UEAA@XZ 00000001800ba360 f i ClothFabricCooker.obj
 0001:000b9480       ??4?$Array@IVNonTrackingAllocator@ps@cloth@nv@@@ps@cloth@nv@@QEAAAEAV0123@AEBV0123@@Z 00000001800ba480 f i ClothFabricCooker.obj
 0001:000b94d0       ??4?$Array@MVNonTrackingAllocator@ps@cloth@nv@@@ps@cloth@nv@@QEAAAEAV0123@AEBV0123@@Z 00000001800ba4d0 f i ClothFabricCooker.obj
 0001:000b9520       ??4ClothFabricCooker@cloth@nv@@QEAAAEAV012@AEBV012@@Z 00000001800ba520 f i ClothFabricCooker.obj
 0001:000b9540       ??8?$Pair@II@ps@cloth@nv@@QEBA_NAEBV0123@@Z 00000001800ba540 f i ClothFabricCooker.obj
 0001:000b95c0       ??A?$Array@HVNonTrackingAllocator@ps@cloth@nv@@@ps@cloth@nv@@QEAAAEAHI@Z 00000001800ba5c0 f i ClothFabricCooker.obj
 0001:000b9670       ??A?$Array@UClothFabricPhase@cloth@nv@@VNonTrackingAllocator@ps@23@@ps@cloth@nv@@QEAAAEAUClothFabricPhase@23@I@Z 00000001800ba670 f i ClothFabricCooker.obj
 0001:000b9720       ??A?$Array@V?$Pair@V?$Pair@II@ps@cloth@nv@@W4Enum@ClothFabricPhaseType@34@@ps@cloth@nv@@VNonTrackingAllocator@234@@ps@cloth@nv@@QEAAAEAV?$Pair@V?$Pair@II@ps@cloth@nv@@W4Enum@ClothFabricPhaseType@34@@123@I@Z 00000001800ba720 f i ClothFabricCooker.obj
 0001:000b97d0       ??A?$Array@W4Enum@ClothFabricPhaseType@cloth@nv@@VNonTrackingAllocator@ps@34@@ps@cloth@nv@@QEAAAEAW4Enum@ClothFabricPhaseType@23@I@Z 00000001800ba7d0 f i ClothFabricCooker.obj
 0001:000b9880       ??A?$Array@W4Enum@ClothFabricPhaseType@cloth@nv@@VNonTrackingAllocator@ps@34@@ps@cloth@nv@@QEBAAEBW4Enum@ClothFabricPhaseType@23@I@Z 00000001800ba880 f i ClothFabricCooker.obj
 0001:000b9930       ??A?$HashMapBase@V?$Pair@II@ps@cloth@nv@@UEdge@?A0xb3237753@34@U?$Hash@V?$Pair@II@ps@cloth@nv@@@234@VNonTrackingAllocator@234@@internal@ps@cloth@nv@@QEAAAEAUEdge@?A0xb3237753@34@AEBV?$Pair@II@234@@Z 00000001800ba930 f i ClothFabricCooker.obj
 0001:000b9a20       ??A?$PxStrideIterator@$$CBM@physx@@QEBAAEBMI@Z 00000001800baa20 f i ClothFabricCooker.obj
 0001:000b9a80       ??A?$Range@$$CBH@cloth@nv@@QEBAAEBHI@Z 00000001800baa80 f i ClothFabricCooker.obj
 0001:000b9b40       ??CIter@?$HashBase@V?$Pair@$$CBV?$Pair@II@ps@cloth@nv@@UEdge@?A0xb3237753@34@@ps@cloth@nv@@V?$Pair@II@234@U?$Hash@V?$Pair@II@ps@cloth@nv@@@234@UGetKey@?$HashMapBase@V?$Pair@II@ps@cloth@nv@@UEdge@?A0xb3237753@34@U?$Hash@V?$Pair@II@ps@cloth@nv@@@234@VNonTrackingAllocator@234@@internal@234@VNonTrackingAllocator@234@$00@internal@ps@cloth@nv@@QEAAPEAV?$Pair@$$CBV?$Pair@II@ps@cloth@nv@@UEdge@?A0xb3237753@34@@345@XZ 00000001800bab40 f i ClothFabricCooker.obj
 0001:000b9ba0       ??D?$PxStrideIterator@$$CBM@physx@@QEBAAEBMXZ 00000001800baba0 f i ClothFabricCooker.obj
 0001:000b9bc0       ??D?$PxStrideIterator@$$CBVPxVec3@physx@@@physx@@QEBAAEBVPxVec3@1@XZ 00000001800babc0 f i ClothFabricCooker.obj
 0001:000b9be0       ??E?$PxStrideIterator@$$CBG@physx@@QEAAAEAV01@XZ 00000001800babe0 f i ClothFabricCooker.obj
 0001:000b9c40       ??E?$PxStrideIterator@$$CBI@physx@@QEAAAEAV01@XZ 00000001800bac40 f i ClothFabricCooker.obj
 0001:000b9ca0       ??E?$PxStrideIterator@$$CBM@physx@@QEAA?AV01@H@Z 00000001800baca0 f i ClothFabricCooker.obj
 0001:000b9d60       ??E?$PxStrideIterator@$$CBVPxVec3@physx@@@physx@@QEAA?AV01@H@Z 00000001800bad60 f i ClothFabricCooker.obj
 0001:000b9e20       ??EIter@?$HashBase@V?$Pair@$$CBV?$Pair@II@ps@cloth@nv@@UEdge@?A0xb3237753@34@@ps@cloth@nv@@V?$Pair@II@234@U?$Hash@V?$Pair@II@ps@cloth@nv@@@234@UGetKey@?$HashMapBase@V?$Pair@II@ps@cloth@nv@@UEdge@?A0xb3237753@34@U?$Hash@V?$Pair@II@ps@cloth@nv@@@234@VNonTrackingAllocator@234@@internal@234@VNonTrackingAllocator@234@$00@internal@ps@cloth@nv@@QEAA?AV012345@XZ 00000001800bae20 f i ClothFabricCooker.obj
 0001:000b9f00       ??R?$Hash@V?$Pair@II@ps@cloth@nv@@@ps@cloth@nv@@QEBAIAEBV?$Pair@II@123@@Z 00000001800baf00 f i ClothFabricCooker.obj
 0001:000ba050       ??RGetKey@?$HashMapBase@V?$Pair@II@ps@cloth@nv@@UEdge@?A0xb3237753@34@U?$Hash@V?$Pair@II@ps@cloth@nv@@@234@VNonTrackingAllocator@234@@internal@ps@cloth@nv@@QEAAAEBV?$Pair@II@345@AEBV?$Pair@$$CBV?$Pair@II@ps@cloth@nv@@UEdge@?A0xb3237753@34@@345@@Z 00000001800bb050 f i ClothFabricCooker.obj
 0001:000ba070       ??_EClothFabricCooker@cloth@nv@@UEAAPEAXI@Z 00000001800bb070 f i ClothFabricCooker.obj
 0001:000ba1a0       ??_GClothFabricCooker@cloth@nv@@UEAAPEAXI@Z 00000001800bb1a0 f i ClothFabricCooker.obj
 0001:000ba230       ??_GFabricCookerImpl@cloth@nv@@UEAAPEAXI@Z 00000001800bb230 f i ClothFabricCooker.obj
 0001:000ba230       ??_EFabricCookerImpl@cloth@nv@@UEAAPEAXI@Z 00000001800bb230 f i ClothFabricCooker.obj
 0001:000ba2c0       ??_I@YAXPEAX_K1P6AX0@Z@Z   00000001800bb2c0 f i ClothFabricCooker.obj
 0001:000ba390       ??_VUserAllocated@cloth@nv@@SAXPEAX@Z 00000001800bb390 f i ClothFabricCooker.obj
 0001:000ba3f0       ?PxRecipSqrt@physx@@YAMM@Z 00000001800bb3f0 f i ClothFabricCooker.obj
 0001:000ba430       ?__global_array_delete@@YAXPEAX@Z 00000001800bb430 f i ClothFabricCooker.obj
 0001:000ba470       ?__global_array_delete@@YAXPEAX_K@Z 00000001800bb470 f i ClothFabricCooker.obj
 0001:000ba4c0       ?__global_delete@@YAXPEAX@Z 00000001800bb4c0 f i ClothFabricCooker.obj
 0001:000ba500       ?__global_delete@@YAXPEAX_K@Z 00000001800bb500 f i ClothFabricCooker.obj
 0001:000ba550       ?advance@Iter@?$HashBase@V?$Pair@$$CBV?$Pair@II@ps@cloth@nv@@UEdge@?A0xb3237753@34@@ps@cloth@nv@@V?$Pair@II@234@U?$Hash@V?$Pair@II@ps@cloth@nv@@@234@UGetKey@?$HashMapBase@V?$Pair@II@ps@cloth@nv@@UEdge@?A0xb3237753@34@U?$Hash@V?$Pair@II@ps@cloth@nv@@@234@VNonTrackingAllocator@234@@internal@234@VNonTrackingAllocator@234@$00@internal@ps@cloth@nv@@AEAAXXZ 00000001800bb550 f i ClothFabricCooker.obj
 0001:000ba5c0       ?allocate@?$Array@HVNonTrackingAllocator@ps@cloth@nv@@@ps@cloth@nv@@IEAAPEAHI@Z 00000001800bb5c0 f i ClothFabricCooker.obj
 0001:000ba690       ?allocate@?$Array@UClothFabricPhase@cloth@nv@@VNonTrackingAllocator@ps@23@@ps@cloth@nv@@IEAAPEAUClothFabricPhase@34@I@Z 00000001800bb690 f i ClothFabricCooker.obj
 0001:000ba760       ?allocate@?$Array@UConstraintGraphColorCount@?A0xb3237753@cloth@nv@@VNonTrackingAllocator@ps@34@@ps@cloth@nv@@IEAAPEAUConstraintGraphColorCount@?A0xb3237753@34@I@Z 00000001800bb760 f i ClothFabricCooker.obj
 0001:000ba830       ?allocate@?$Array@V?$Pair@V?$Pair@II@ps@cloth@nv@@W4Enum@ClothFabricPhaseType@34@@ps@cloth@nv@@VNonTrackingAllocator@234@@ps@cloth@nv@@IEAAPEAV?$Pair@V?$Pair@II@ps@cloth@nv@@W4Enum@ClothFabricPhaseType@34@@234@I@Z 00000001800bb830 f i ClothFabricCooker.obj
 0001:000ba900       ?allocate@?$Array@W4Enum@ClothFabricPhaseType@cloth@nv@@VNonTrackingAllocator@ps@34@@ps@cloth@nv@@IEAAPEAW4Enum@ClothFabricPhaseType@34@I@Z 00000001800bb900 f i ClothFabricCooker.obj
 0001:000ba9d0       ?begin@?$Array@MVNonTrackingAllocator@ps@cloth@nv@@@ps@cloth@nv@@QEBAPEBMXZ 00000001800bb9d0 f i ClothFabricCooker.obj
 0001:000ba9f0       ?begin@?$Array@UClothFabricPhase@cloth@nv@@VNonTrackingAllocator@ps@23@@ps@cloth@nv@@QEAAPEAUClothFabricPhase@34@XZ 00000001800bb9f0 f i ClothFabricCooker.obj
 0001:000baa10       ?begin@?$Array@UConstraintGraphColorCount@?A0xb3237753@cloth@nv@@VNonTrackingAllocator@ps@34@@ps@cloth@nv@@QEAAPEAUConstraintGraphColorCount@?A0xb3237753@34@XZ 00000001800bba10 f i ClothFabricCooker.obj
 0001:000baa30       ?begin@?$Array@W4Enum@ClothFabricPhaseType@cloth@nv@@VNonTrackingAllocator@ps@34@@ps@cloth@nv@@QEBAPEBW4Enum@ClothFabricPhaseType@34@XZ 00000001800bba30 f i ClothFabricCooker.obj
 0001:000baa50       ?byteAdd@?$PxStrideIterator@$$CBG@physx@@CAPEBGPEBGI@Z 00000001800bba50 f i ClothFabricCooker.obj
 0001:000baa80       ?byteAdd@?$PxStrideIterator@$$CBI@physx@@CAPEBIPEBII@Z 00000001800bba80 f i ClothFabricCooker.obj
 0001:000baab0       ?byteAdd@?$PxStrideIterator@$$CBM@physx@@CAPEBMPEBMI@Z 00000001800bbab0 f i ClothFabricCooker.obj
 0001:000baae0       ?byteAdd@?$PxStrideIterator@$$CBVPxVec3@physx@@@physx@@CAPEBVPxVec3@2@PEBV32@I@Z 00000001800bbae0 f i ClothFabricCooker.obj
 0001:000bab10       ?capacity@?$Array@HVNonTrackingAllocator@ps@cloth@nv@@@ps@cloth@nv@@QEBAIXZ 00000001800bbb10 f i ClothFabricCooker.obj
 0001:000bab30       ?capacity@?$Array@UClothFabricPhase@cloth@nv@@VNonTrackingAllocator@ps@23@@ps@cloth@nv@@QEBAIXZ 00000001800bbb30 f i ClothFabricCooker.obj
 0001:000bab50       ?capacity@?$Array@UConstraintGraphColorCount@?A0xb3237753@cloth@nv@@VNonTrackingAllocator@ps@34@@ps@cloth@nv@@QEBAIXZ 00000001800bbb50 f i ClothFabricCooker.obj
 0001:000bab70       ?capacity@?$Array@V?$Pair@V?$Pair@II@ps@cloth@nv@@W4Enum@ClothFabricPhaseType@34@@ps@cloth@nv@@VNonTrackingAllocator@234@@ps@cloth@nv@@QEBAIXZ 00000001800bbb70 f i ClothFabricCooker.obj
 0001:000bab90       ?capacity@?$Array@W4Enum@ClothFabricPhaseType@cloth@nv@@VNonTrackingAllocator@ps@34@@ps@cloth@nv@@QEBAIXZ 00000001800bbb90 f i ClothFabricCooker.obj
 0001:000babb0       ?capacityIncrement@?$Array@UConstraintGraphColorCount@?A0xb3237753@cloth@nv@@VNonTrackingAllocator@ps@34@@ps@cloth@nv@@IEBAIXZ 00000001800bbbb0 f i ClothFabricCooker.obj
 0001:000bac20       ?capacityIncrement@?$Array@V?$Pair@V?$Pair@II@ps@cloth@nv@@W4Enum@ClothFabricPhaseType@34@@ps@cloth@nv@@VNonTrackingAllocator@234@@ps@cloth@nv@@IEBAIXZ 00000001800bbc20 f i ClothFabricCooker.obj
 0001:000bac90       ?capacityIncrement@?$Array@W4Enum@ClothFabricPhaseType@cloth@nv@@VNonTrackingAllocator@ps@34@@ps@cloth@nv@@IEBAIXZ 00000001800bbc90 f i ClothFabricCooker.obj
 0001:000bad00       ?check@Iter@?$HashBase@V?$Pair@$$CBV?$Pair@II@ps@cloth@nv@@UEdge@?A0xb3237753@34@@ps@cloth@nv@@V?$Pair@II@234@U?$Hash@V?$Pair@II@ps@cloth@nv@@@234@UGetKey@?$HashMapBase@V?$Pair@II@ps@cloth@nv@@UEdge@?A0xb3237753@34@U?$Hash@V?$Pair@II@ps@cloth@nv@@@234@VNonTrackingAllocator@234@@internal@234@VNonTrackingAllocator@234@$00@internal@ps@cloth@nv@@QEBAXXZ 00000001800bbd00 f i ClothFabricCooker.obj
 0001:000bafb0       ?clear@?$Array@IVNonTrackingAllocator@ps@cloth@nv@@@ps@cloth@nv@@QEAAXXZ 00000001800bbfb0 f i ClothFabricCooker.obj
 0001:000bb020       ?clear@?$Array@MVNonTrackingAllocator@ps@cloth@nv@@@ps@cloth@nv@@QEAAXXZ 00000001800bc020 f i ClothFabricCooker.obj
 0001:000bb090       ?clear@?$Array@UConstraintGraphColorCount@?A0xb3237753@cloth@nv@@VNonTrackingAllocator@ps@34@@ps@cloth@nv@@QEAAXXZ 00000001800bc090 f i ClothFabricCooker.obj
 0001:000bb100       ?copy@?$Array@HVNonTrackingAllocator@ps@cloth@nv@@@ps@cloth@nv@@KAXPEAH0PEBH@Z 00000001800bc100 f i ClothFabricCooker.obj
 0001:000bb1d0       ?copy@?$Array@UClothFabricPhase@cloth@nv@@VNonTrackingAllocator@ps@23@@ps@cloth@nv@@KAXPEAUClothFabricPhase@34@0PEBU534@@Z 00000001800bc1d0 f i ClothFabricCooker.obj
 0001:000bb2b0       ?copy@?$Array@UConstraintGraphColorCount@?A0xb3237753@cloth@nv@@VNonTrackingAllocator@ps@34@@ps@cloth@nv@@KAXPEAUConstraintGraphColorCount@?A0xb3237753@34@0PEBU5634@@Z 00000001800bc2b0 f i ClothFabricCooker.obj
 0001:000bb390       ?copy@?$Array@V?$Pair@V?$Pair@II@ps@cloth@nv@@W4Enum@ClothFabricPhaseType@34@@ps@cloth@nv@@VNonTrackingAllocator@234@@ps@cloth@nv@@KAXPEAV?$Pair@V?$Pair@II@ps@cloth@nv@@W4Enum@ClothFabricPhaseType@34@@234@0PEBV5234@@Z 00000001800bc390 f i ClothFabricCooker.obj
 0001:000bb460       ?copy@?$Array@W4Enum@ClothFabricPhaseType@cloth@nv@@VNonTrackingAllocator@ps@34@@ps@cloth@nv@@KAXPEAW4Enum@ClothFabricPhaseType@34@0PEBW45634@@Z 00000001800bc460 f i ClothFabricCooker.obj
 0001:000bb530       ?create@?$Array@HVNonTrackingAllocator@ps@cloth@nv@@@ps@cloth@nv@@KAXPEAH0AEBH@Z 00000001800bc530 f i ClothFabricCooker.obj
 0001:000bb5e0       ?create@?$Array@UClothFabricPhase@cloth@nv@@VNonTrackingAllocator@ps@23@@ps@cloth@nv@@KAXPEAUClothFabricPhase@34@0AEBU534@@Z 00000001800bc5e0 f i ClothFabricCooker.obj
 0001:000bb690       ?create@?$HashBase@V?$Pair@$$CBV?$Pair@II@ps@cloth@nv@@UEdge@?A0xb3237753@34@@ps@cloth@nv@@V?$Pair@II@234@U?$Hash@V?$Pair@II@ps@cloth@nv@@@234@UGetKey@?$HashMapBase@V?$Pair@II@ps@cloth@nv@@UEdge@?A0xb3237753@34@U?$Hash@V?$Pair@II@ps@cloth@nv@@@234@VNonTrackingAllocator@234@@internal@234@VNonTrackingAllocator@234@$00@internal@ps@cloth@nv@@QEAAPEAV?$Pair@$$CBV?$Pair@II@ps@cloth@nv@@UEdge@?A0xb3237753@34@@345@AEBV?$Pair@II@345@AEA_N@Z 00000001800bc690 f i ClothFabricCooker.obj
 0001:000bb8c0       ?cross@PxVec3@physx@@QEBA?AV12@AEBV12@@Z 00000001800bc8c0 f i ClothFabricCooker.obj
 0001:000bb9d0       ?deallocate@?$Array@HVNonTrackingAllocator@ps@cloth@nv@@@ps@cloth@nv@@IEAAXPEAX@Z 00000001800bc9d0 f i ClothFabricCooker.obj
 0001:000bba20       ?deallocate@?$Array@UClothFabricPhase@cloth@nv@@VNonTrackingAllocator@ps@23@@ps@cloth@nv@@IEAAXPEAX@Z 00000001800bca20 f i ClothFabricCooker.obj
 0001:000bba70       ?deallocate@?$Array@UConstraintGraphColorCount@?A0xb3237753@cloth@nv@@VNonTrackingAllocator@ps@34@@ps@cloth@nv@@IEAAXPEAX@Z 00000001800bca70 f i ClothFabricCooker.obj
 0001:000bbac0       ?deallocate@?$Array@V?$Pair@V?$Pair@II@ps@cloth@nv@@W4Enum@ClothFabricPhaseType@34@@ps@cloth@nv@@VNonTrackingAllocator@234@@ps@cloth@nv@@IEAAXPEAX@Z 00000001800bcac0 f i ClothFabricCooker.obj
 0001:000bbb10       ?deallocate@?$Array@W4Enum@ClothFabricPhaseType@cloth@nv@@VNonTrackingAllocator@ps@34@@ps@cloth@nv@@IEAAXPEAX@Z 00000001800bcb10 f i ClothFabricCooker.obj
 0001:000bbb60       ?destroy@?$Array@HVNonTrackingAllocator@ps@cloth@nv@@@ps@cloth@nv@@KAXPEAH0@Z 00000001800bcb60 f i ClothFabricCooker.obj
 0001:000bbba0       ?destroy@?$Array@UClothFabricPhase@cloth@nv@@VNonTrackingAllocator@ps@23@@ps@cloth@nv@@KAXPEAUClothFabricPhase@34@0@Z 00000001800bcba0 f i ClothFabricCooker.obj
 0001:000bbbe0       ?destroy@?$Array@UConstraintGraphColorCount@?A0xb3237753@cloth@nv@@VNonTrackingAllocator@ps@34@@ps@cloth@nv@@KAXPEAUConstraintGraphColorCount@?A0xb3237753@34@0@Z 00000001800bcbe0 f i ClothFabricCooker.obj
 0001:000bbc20       ?destroy@?$Array@V?$Pair@V?$Pair@II@ps@cloth@nv@@W4Enum@ClothFabricPhaseType@34@@ps@cloth@nv@@VNonTrackingAllocator@234@@ps@cloth@nv@@KAXPEAV?$Pair@V?$Pair@II@ps@cloth@nv@@W4Enum@ClothFabricPhaseType@34@@234@0@Z 00000001800bcc20 f i ClothFabricCooker.obj
 0001:000bbc60       ?destroy@?$Array@W4Enum@ClothFabricPhaseType@cloth@nv@@VNonTrackingAllocator@ps@34@@ps@cloth@nv@@KAXPEAW4Enum@ClothFabricPhaseType@34@0@Z 00000001800bcc60 f i ClothFabricCooker.obj
 0001:000bbca0       ?destroy@?$HashBase@V?$Pair@$$CBV?$Pair@II@ps@cloth@nv@@UEdge@?A0xb3237753@34@@ps@cloth@nv@@V?$Pair@II@234@U?$Hash@V?$Pair@II@ps@cloth@nv@@@234@UGetKey@?$HashMapBase@V?$Pair@II@ps@cloth@nv@@UEdge@?A0xb3237753@34@U?$Hash@V?$Pair@II@ps@cloth@nv@@@234@VNonTrackingAllocator@234@@internal@234@VNonTrackingAllocator@234@$00@internal@ps@cloth@nv@@AEAAXXZ 00000001800bcca0 f i ClothFabricCooker.obj
 0001:000bbd40       ?done@Iter@?$HashBase@V?$Pair@$$CBV?$Pair@II@ps@cloth@nv@@UEdge@?A0xb3237753@34@@ps@cloth@nv@@V?$Pair@II@234@U?$Hash@V?$Pair@II@ps@cloth@nv@@@234@UGetKey@?$HashMapBase@V?$Pair@II@ps@cloth@nv@@UEdge@?A0xb3237753@34@U?$Hash@V?$Pair@II@ps@cloth@nv@@@234@VNonTrackingAllocator@234@@internal@234@VNonTrackingAllocator@234@$00@internal@ps@cloth@nv@@QEBA_NXZ 00000001800bcd40 f i ClothFabricCooker.obj
 0001:000bbdb0       ?dot@PxVec3@physx@@QEBAMAEBV12@@Z 00000001800bcdb0 f i ClothFabricCooker.obj
 0001:000bbe40       ?empty@?$Array@UConstraintGraphColorCount@?A0xb3237753@cloth@nv@@VNonTrackingAllocator@ps@34@@ps@cloth@nv@@QEBA_NXZ 00000001800bce40 f i ClothFabricCooker.obj
 0001:000bbea0       ?end@?$Array@MVNonTrackingAllocator@ps@cloth@nv@@@ps@cloth@nv@@QEBAPEBMXZ 00000001800bcea0 f i ClothFabricCooker.obj
 0001:000bbed0       ?end@?$Array@UConstraintGraphColorCount@?A0xb3237753@cloth@nv@@VNonTrackingAllocator@ps@34@@ps@cloth@nv@@QEAAPEAUConstraintGraphColorCount@?A0xb3237753@34@XZ 00000001800bced0 f i ClothFabricCooker.obj
 0001:000bbf00       ?end@?$Array@W4Enum@ClothFabricPhaseType@cloth@nv@@VNonTrackingAllocator@ps@34@@ps@cloth@nv@@QEBAPEBW4Enum@ClothFabricPhaseType@34@XZ 00000001800bcf00 f i ClothFabricCooker.obj
 0001:000bbf30       ?equal@?$Hash@V?$Pair@II@ps@cloth@nv@@@ps@cloth@nv@@QEBA_NAEBV?$Pair@II@234@0@Z 00000001800bcf30 f i ClothFabricCooker.obj
 0001:000bbf80       ?freeListAdd@?$HashBase@V?$Pair@$$CBV?$Pair@II@ps@cloth@nv@@UEdge@?A0xb3237753@34@@ps@cloth@nv@@V?$Pair@II@234@U?$Hash@V?$Pair@II@ps@cloth@nv@@@234@UGetKey@?$HashMapBase@V?$Pair@II@ps@cloth@nv@@UEdge@?A0xb3237753@34@U?$Hash@V?$Pair@II@ps@cloth@nv@@@234@VNonTrackingAllocator@234@@internal@234@VNonTrackingAllocator@234@$00@internal@ps@cloth@nv@@AEAAXII@Z 00000001800bcf80 f i ClothFabricCooker.obj
 0001:000bc0d0       ?freeListEmpty@?$HashBase@V?$Pair@$$CBV?$Pair@II@ps@cloth@nv@@UEdge@?A0xb3237753@34@@ps@cloth@nv@@V?$Pair@II@234@U?$Hash@V?$Pair@II@ps@cloth@nv@@@234@UGetKey@?$HashMapBase@V?$Pair@II@ps@cloth@nv@@UEdge@?A0xb3237753@34@U?$Hash@V?$Pair@II@ps@cloth@nv@@@234@VNonTrackingAllocator@234@@internal@234@VNonTrackingAllocator@234@$00@internal@ps@cloth@nv@@AEBA_NXZ 00000001800bd0d0 f i ClothFabricCooker.obj
 0001:000bc170       ?freeListGetNext@?$HashBase@V?$Pair@$$CBV?$Pair@II@ps@cloth@nv@@UEdge@?A0xb3237753@34@@ps@cloth@nv@@V?$Pair@II@234@U?$Hash@V?$Pair@II@ps@cloth@nv@@@234@UGetKey@?$HashMapBase@V?$Pair@II@ps@cloth@nv@@UEdge@?A0xb3237753@34@U?$Hash@V?$Pair@II@ps@cloth@nv@@@234@VNonTrackingAllocator@234@@internal@234@VNonTrackingAllocator@234@$00@internal@ps@cloth@nv@@AEAAIXZ 00000001800bd170 f i ClothFabricCooker.obj
 0001:000bc2f0       ?getIterator@?$HashMap@V?$Pair@II@ps@cloth@nv@@UEdge@?A0xb3237753@34@U?$Hash@V?$Pair@II@ps@cloth@nv@@@234@VNonTrackingAllocator@234@@ps@cloth@nv@@QEAA?AVIter@?$HashBase@V?$Pair@$$CBV?$Pair@II@ps@cloth@nv@@UEdge@?A0xb3237753@34@@ps@cloth@nv@@V?$Pair@II@234@U?$Hash@V?$Pair@II@ps@cloth@nv@@@234@UGetKey@?$HashMapBase@V?$Pair@II@ps@cloth@nv@@UEdge@?A0xb3237753@34@U?$Hash@V?$Pair@II@ps@cloth@nv@@@234@VNonTrackingAllocator@234@@internal@234@VNonTrackingAllocator@234@$00@internal@234@XZ 00000001800bd2f0 f i ClothFabricCooker.obj
 0001:000bc340       ?getNormalized@PxVec3@physx@@QEBA?AV12@XZ 00000001800bd340 f i ClothFabricCooker.obj
 0001:000bc410       ?grow@?$Array@HVNonTrackingAllocator@ps@cloth@nv@@@ps@cloth@nv@@IEAAXI@Z 00000001800bd410 f i ClothFabricCooker.obj
 0001:000bc4c0       ?grow@?$Array@UClothFabricPhase@cloth@nv@@VNonTrackingAllocator@ps@23@@ps@cloth@nv@@IEAAXI@Z 00000001800bd4c0 f i ClothFabricCooker.obj
 0001:000bc570       ?grow@?$Array@UConstraintGraphColorCount@?A0xb3237753@cloth@nv@@VNonTrackingAllocator@ps@34@@ps@cloth@nv@@IEAAXI@Z 00000001800bd570 f i ClothFabricCooker.obj
 0001:000bc620       ?grow@?$Array@V?$Pair@V?$Pair@II@ps@cloth@nv@@W4Enum@ClothFabricPhaseType@34@@ps@cloth@nv@@VNonTrackingAllocator@234@@ps@cloth@nv@@IEAAXI@Z 00000001800bd620 f i ClothFabricCooker.obj
 0001:000bc6d0       ?grow@?$HashBase@V?$Pair@$$CBV?$Pair@II@ps@cloth@nv@@UEdge@?A0xb3237753@34@@ps@cloth@nv@@V?$Pair@II@234@U?$Hash@V?$Pair@II@ps@cloth@nv@@@234@UGetKey@?$HashMapBase@V?$Pair@II@ps@cloth@nv@@UEdge@?A0xb3237753@34@U?$Hash@V?$Pair@II@ps@cloth@nv@@@234@VNonTrackingAllocator@234@@internal@234@VNonTrackingAllocator@234@$00@internal@ps@cloth@nv@@AEAAXXZ 00000001800bd6d0 f i ClothFabricCooker.obj
 0001:000bc7d0       ?growAndPushBack@?$Array@UConstraintGraphColorCount@?A0xb3237753@cloth@nv@@VNonTrackingAllocator@ps@34@@ps@cloth@nv@@IEAAAEAUConstraintGraphColorCount@?A0xb3237753@34@AEBU5634@@Z 00000001800bd7d0 f i ClothFabricCooker.obj
 0001:000bc9f0       ?growAndPushBack@?$Array@V?$Pair@V?$Pair@II@ps@cloth@nv@@W4Enum@ClothFabricPhaseType@34@@ps@cloth@nv@@VNonTrackingAllocator@234@@ps@cloth@nv@@IEAAAEAV?$Pair@V?$Pair@II@ps@cloth@nv@@W4Enum@ClothFabricPhaseType@34@@234@AEBV5234@@Z 00000001800bd9f0 f i ClothFabricCooker.obj
 0001:000bcc20       ?growAndPushBack@?$Array@W4Enum@ClothFabricPhaseType@cloth@nv@@VNonTrackingAllocator@ps@34@@ps@cloth@nv@@IEAAAEAW4Enum@ClothFabricPhaseType@34@AEBW45634@@Z 00000001800bdc20 f i ClothFabricCooker.obj
 0001:000bce40       ?hash@?$HashBase@V?$Pair@$$CBV?$Pair@II@ps@cloth@nv@@UEdge@?A0xb3237753@34@@ps@cloth@nv@@V?$Pair@II@234@U?$Hash@V?$Pair@II@ps@cloth@nv@@@234@UGetKey@?$HashMapBase@V?$Pair@II@ps@cloth@nv@@UEdge@?A0xb3237753@34@U?$Hash@V?$Pair@II@ps@cloth@nv@@@234@VNonTrackingAllocator@234@@internal@234@VNonTrackingAllocator@234@$00@internal@ps@cloth@nv@@AEBAIAEBV?$Pair@II@345@@Z 00000001800bde40 f i ClothFabricCooker.obj
 0001:000bcea0       ?hash@?$HashBase@V?$Pair@$$CBV?$Pair@II@ps@cloth@nv@@UEdge@?A0xb3237753@34@@ps@cloth@nv@@V?$Pair@II@234@U?$Hash@V?$Pair@II@ps@cloth@nv@@@234@UGetKey@?$HashMapBase@V?$Pair@II@ps@cloth@nv@@UEdge@?A0xb3237753@34@U?$Hash@V?$Pair@II@ps@cloth@nv@@@234@VNonTrackingAllocator@234@@internal@234@VNonTrackingAllocator@234@$00@internal@ps@cloth@nv@@AEBAIAEBV?$Pair@II@345@I@Z 00000001800bdea0 f i ClothFabricCooker.obj
 0001:000bcf00       ?hash@ps@cloth@nv@@YAII@Z  00000001800bdf00 f i ClothFabricCooker.obj
 0001:000bcfb0       ?init@?$HashBase@V?$Pair@$$CBV?$Pair@II@ps@cloth@nv@@UEdge@?A0xb3237753@34@@ps@cloth@nv@@V?$Pair@II@234@U?$Hash@V?$Pair@II@ps@cloth@nv@@@234@UGetKey@?$HashMapBase@V?$Pair@II@ps@cloth@nv@@UEdge@?A0xb3237753@34@U?$Hash@V?$Pair@II@ps@cloth@nv@@@234@VNonTrackingAllocator@234@@internal@234@VNonTrackingAllocator@234@$00@internal@ps@cloth@nv@@AEAAXIM@Z 00000001800bdfb0 f i ClothFabricCooker.obj
 0001:000bd0b0       ?isInUserMemory@?$Array@HVNonTrackingAllocator@ps@cloth@nv@@@ps@cloth@nv@@QEBAIXZ 00000001800be0b0 f i ClothFabricCooker.obj
 0001:000bd0d0       ?isInUserMemory@?$Array@UClothFabricPhase@cloth@nv@@VNonTrackingAllocator@ps@23@@ps@cloth@nv@@QEBAIXZ 00000001800be0d0 f i ClothFabricCooker.obj
 0001:000bd0f0       ?isInUserMemory@?$Array@UConstraintGraphColorCount@?A0xb3237753@cloth@nv@@VNonTrackingAllocator@ps@34@@ps@cloth@nv@@QEBAIXZ 00000001800be0f0 f i ClothFabricCooker.obj
 0001:000bd110       ?isInUserMemory@?$Array@V?$Pair@V?$Pair@II@ps@cloth@nv@@W4Enum@ClothFabricPhaseType@34@@ps@cloth@nv@@VNonTrackingAllocator@234@@ps@cloth@nv@@QEBAIXZ 00000001800be110 f i ClothFabricCooker.obj
 0001:000bd130       ?isInUserMemory@?$Array@W4Enum@ClothFabricPhaseType@cloth@nv@@VNonTrackingAllocator@ps@34@@ps@cloth@nv@@QEBAIXZ 00000001800be130 f i ClothFabricCooker.obj
 0001:000bd150       ?isPowerOfTwo@ps@cloth@nv@@YA_NI@Z 00000001800be150 f i ClothFabricCooker.obj
 0001:000bd1c0       ?isValid@ClothMeshDesc@cloth@nv@@QEBA_NXZ 00000001800be1c0 f i ClothFabricCooker.obj
 0001:000bd3e0       ?memSet@intrinsics@physx@@YAPEAXPEAXHI@Z 00000001800be3e0 f i ClothFabricCooker.obj
 0001:000bd440       ?nextPowerOfTwo@ps@cloth@nv@@YAII@Z 00000001800be440 f i ClothFabricCooker.obj
 0001:000bd4d0       ?popBack@?$Array@UConstraintGraphColorCount@?A0xb3237753@cloth@nv@@VNonTrackingAllocator@ps@34@@ps@cloth@nv@@QEAA?AUConstraintGraphColorCount@?A0xb3237753@34@XZ 00000001800be4d0 f i ClothFabricCooker.obj
 0001:000bd5e0       ?ptr@?$PxStrideIterator@$$CBG@physx@@QEBAPEBGXZ 00000001800be5e0 f i ClothFabricCooker.obj
 0001:000bd600       ?ptr@?$PxStrideIterator@$$CBI@physx@@QEBAPEBIXZ 00000001800be600 f i ClothFabricCooker.obj
 0001:000bd620       ?ptr@?$PxStrideIterator@$$CBM@physx@@QEBAPEBMXZ 00000001800be620 f i ClothFabricCooker.obj
 0001:000bd640       ?pushBack@?$Array@UConstraintGraphColorCount@?A0xb3237753@cloth@nv@@VNonTrackingAllocator@ps@34@@ps@cloth@nv@@QEAAAEAUConstraintGraphColorCount@?A0xb3237753@34@AEBU5634@@Z 00000001800be640 f i ClothFabricCooker.obj
 0001:000bd750       ?pushBack@?$Array@V?$Pair@V?$Pair@II@ps@cloth@nv@@W4Enum@ClothFabricPhaseType@34@@ps@cloth@nv@@VNonTrackingAllocator@234@@ps@cloth@nv@@QEAAAEAV?$Pair@V?$Pair@II@ps@cloth@nv@@W4Enum@ClothFabricPhaseType@34@@234@AEBV5234@@Z 00000001800be750 f i ClothFabricCooker.obj
 0001:000bd850       ?pushBack@?$Array@W4Enum@ClothFabricPhaseType@cloth@nv@@VNonTrackingAllocator@ps@34@@ps@cloth@nv@@QEAAAEAW4Enum@ClothFabricPhaseType@34@AEBW45634@@Z 00000001800be850 f i ClothFabricCooker.obj
 0001:000bd960       ?recipSqrt@intrinsics@physx@@YAMM@Z 00000001800be960 f i ClothFabricCooker.obj
 0001:000bd9b0       ?recreate@?$Array@HVNonTrackingAllocator@ps@cloth@nv@@@ps@cloth@nv@@IEAAXI@Z 00000001800be9b0 f i ClothFabricCooker.obj
 0001:000bdb20       ?recreate@?$Array@UClothFabricPhase@cloth@nv@@VNonTrackingAllocator@ps@23@@ps@cloth@nv@@IEAAXI@Z 00000001800beb20 f i ClothFabricCooker.obj
 0001:000bdc90       ?recreate@?$Array@UConstraintGraphColorCount@?A0xb3237753@cloth@nv@@VNonTrackingAllocator@ps@34@@ps@cloth@nv@@IEAAXI@Z 00000001800bec90 f i ClothFabricCooker.obj
 0001:000bde00       ?recreate@?$Array@V?$Pair@V?$Pair@II@ps@cloth@nv@@W4Enum@ClothFabricPhaseType@34@@ps@cloth@nv@@VNonTrackingAllocator@234@@ps@cloth@nv@@IEAAXI@Z 00000001800bee00 f i ClothFabricCooker.obj
 0001:000bdf80       ?reserve@?$Array@HVNonTrackingAllocator@ps@cloth@nv@@@ps@cloth@nv@@QEAAXI@Z 00000001800bef80 f i ClothFabricCooker.obj
 0001:000bdfe0       ?reserve@?$Array@UClothFabricPhase@cloth@nv@@VNonTrackingAllocator@ps@23@@ps@cloth@nv@@QEAAXI@Z 00000001800befe0 f i ClothFabricCooker.obj
 0001:000be040       ?reserve@?$Array@UConstraintGraphColorCount@?A0xb3237753@cloth@nv@@VNonTrackingAllocator@ps@34@@ps@cloth@nv@@QEAAXI@Z 00000001800bf040 f i ClothFabricCooker.obj
 0001:000be0a0       ?reserve@?$Array@V?$Pair@V?$Pair@II@ps@cloth@nv@@W4Enum@ClothFabricPhaseType@34@@ps@cloth@nv@@VNonTrackingAllocator@234@@ps@cloth@nv@@QEAAXI@Z 00000001800bf0a0 f i ClothFabricCooker.obj
 0001:000be100       ?reserve@?$HashBase@V?$Pair@$$CBV?$Pair@II@ps@cloth@nv@@UEdge@?A0xb3237753@34@@ps@cloth@nv@@V?$Pair@II@234@U?$Hash@V?$Pair@II@ps@cloth@nv@@@234@UGetKey@?$HashMapBase@V?$Pair@II@ps@cloth@nv@@UEdge@?A0xb3237753@34@U?$Hash@V?$Pair@II@ps@cloth@nv@@@234@VNonTrackingAllocator@234@@internal@234@VNonTrackingAllocator@234@$00@internal@ps@cloth@nv@@QEAAXI@Z 00000001800bf100 f i ClothFabricCooker.obj
 0001:000be160       ?reserveInternal@?$HashBase@V?$Pair@$$CBV?$Pair@II@ps@cloth@nv@@UEdge@?A0xb3237753@34@@ps@cloth@nv@@V?$Pair@II@234@U?$Hash@V?$Pair@II@ps@cloth@nv@@@234@UGetKey@?$HashMapBase@V?$Pair@II@ps@cloth@nv@@UEdge@?A0xb3237753@34@U?$Hash@V?$Pair@II@ps@cloth@nv@@@234@VNonTrackingAllocator@234@@internal@234@VNonTrackingAllocator@234@$00@internal@ps@cloth@nv@@AEAAXI@Z 00000001800bf160 f i ClothFabricCooker.obj
 0001:000be870       ?resize@?$Array@HVNonTrackingAllocator@ps@cloth@nv@@@ps@cloth@nv@@QEAAXIAEBH@Z 00000001800bf870 f i ClothFabricCooker.obj
 0001:000be940       ?resize@?$Array@UClothFabricPhase@cloth@nv@@VNonTrackingAllocator@ps@23@@ps@cloth@nv@@QEAAXIAEBUClothFabricPhase@34@@Z 00000001800bf940 f i ClothFabricCooker.obj
 0001:000bea10       ?setToDefault@ClothFabricDesc@cloth@nv@@QEAAXXZ 00000001800bfa10 f i ClothFabricCooker.obj
 0001:000bea30       ?size@?$Array@V?$Pair@V?$Pair@II@ps@cloth@nv@@W4Enum@ClothFabricPhaseType@34@@ps@cloth@nv@@VNonTrackingAllocator@234@@ps@cloth@nv@@QEBAIXZ 00000001800bfa30 f i ClothFabricCooker.obj
 0001:000bea50       ?size@?$HashBase@V?$Pair@$$CBV?$Pair@II@ps@cloth@nv@@UEdge@?A0xb3237753@34@@ps@cloth@nv@@V?$Pair@II@234@U?$Hash@V?$Pair@II@ps@cloth@nv@@@234@UGetKey@?$HashMapBase@V?$Pair@II@ps@cloth@nv@@UEdge@?A0xb3237753@34@U?$Hash@V?$Pair@II@ps@cloth@nv@@@234@VNonTrackingAllocator@234@@internal@234@VNonTrackingAllocator@234@$00@internal@ps@cloth@nv@@QEBAIXZ 00000001800bfa50 f i ClothFabricCooker.obj
 0001:000bea70       ?size@?$HashMapBase@V?$Pair@II@ps@cloth@nv@@UEdge@?A0xb3237753@34@U?$Hash@V?$Pair@II@ps@cloth@nv@@@234@VNonTrackingAllocator@234@@internal@ps@cloth@nv@@QEBAIXZ 00000001800bfa70 f i ClothFabricCooker.obj
 0001:000beab0       ?size@?$Range@$$CBH@cloth@nv@@QEBAIXZ 00000001800bfab0 f i ClothFabricCooker.obj
 0001:000beae0       ?skip@Iter@?$HashBase@V?$Pair@$$CBV?$Pair@II@ps@cloth@nv@@UEdge@?A0xb3237753@34@@ps@cloth@nv@@V?$Pair@II@234@U?$Hash@V?$Pair@II@ps@cloth@nv@@@234@UGetKey@?$HashMapBase@V?$Pair@II@ps@cloth@nv@@UEdge@?A0xb3237753@34@U?$Hash@V?$Pair@II@ps@cloth@nv@@@234@VNonTrackingAllocator@234@@internal@234@VNonTrackingAllocator@234@$00@internal@ps@cloth@nv@@AEAAXXZ 00000001800bfae0 f i ClothFabricCooker.obj
 0001:000beb80       ?stride@?$PxStrideIterator@$$CBG@physx@@QEBAIXZ 00000001800bfb80 f i ClothFabricCooker.obj
 0001:000beba0       ?stride@?$PxStrideIterator@$$CBI@physx@@QEBAIXZ 00000001800bfba0 f i ClothFabricCooker.obj
 0001:000bebc0       ?stride@?$PxStrideIterator@$$CBM@physx@@QEBAIXZ 00000001800bfbc0 f i ClothFabricCooker.obj
 0001:000bebe0       ?stride@?$PxStrideIterator@$$CBVPxVec3@physx@@@physx@@QEBAIXZ 00000001800bfbe0 f i ClothFabricCooker.obj
 0001:000bec90       NvClothCreateGeodesicTetherCooker 00000001800bfc90 f   ClothGeodesicTetherCooker.obj
 0001:000bf010       ?cook@ClothGeodesicTetherCooker@cloth@nv@@UEAA_NAEBVClothMeshDesc@23@@Z 00000001800c0010 f   ClothGeodesicTetherCooker.obj
 0001:000bf090       ?getCookerStatus@ClothGeodesicTetherCooker@cloth@nv@@UEBAIXZ 00000001800c0090 f   ClothGeodesicTetherCooker.obj
 0001:000bf0b0       ?getNbTethersPerParticle@ClothGeodesicTetherCooker@cloth@nv@@UEBAIXZ 00000001800c00b0 f   ClothGeodesicTetherCooker.obj
 0001:000bf100       ?getTetherData@ClothGeodesicTetherCooker@cloth@nv@@UEBAXPEAIPEAM@Z 00000001800c0100 f   ClothGeodesicTetherCooker.obj
 0001:000bf1c0       ?createTetherData@ClothGeodesicTetherCooker@cloth@nv@@IEAAXAEBVClothMeshDesc@23@@Z 00000001800c01c0 f   ClothGeodesicTetherCooker.obj
 0001:000c05a0       ?computeVertexIntersection@ClothGeodesicTetherCooker@cloth@nv@@IEAAHIIAEAUPathIntersection@?A0x449b062d@23@@Z 00000001800c15a0 f   ClothGeodesicTetherCooker.obj
 0001:000c0eb0       ?computeEdgeIntersection@ClothGeodesicTetherCooker@cloth@nv@@IEAAHIIMAEAUPathIntersection@?A0x449b062d@23@@Z 00000001800c1eb0 f   ClothGeodesicTetherCooker.obj
 0001:000c1a50       ?computeGeodesicDistance@ClothGeodesicTetherCooker@cloth@nv@@IEAAMIIAEAH@Z 00000001800c2a50 f   ClothGeodesicTetherCooker.obj
 0001:000c1bf0       ?findTriNeighbors@ClothGeodesicTetherCooker@cloth@nv@@IEAAIXZ 00000001800c2bf0 f   ClothGeodesicTetherCooker.obj
 0001:000c2000       ?findVertTriNeighbors@ClothGeodesicTetherCooker@cloth@nv@@IEAAXXZ 00000001800c3000 f   ClothGeodesicTetherCooker.obj
 0001:000c4860       ??$median3@UMeshEdge@?A0x449b062d@cloth@nv@@$$CBU?$Less@UMeshEdge@?A0x449b062d@cloth@nv@@@ps@34@@internal@ps@cloth@nv@@YAXPEAUMeshEdge@?A0x449b062d@23@HHAEBU?$Less@UMeshEdge@?A0x449b062d@cloth@nv@@@123@@Z 00000001800c5860 f i ClothGeodesicTetherCooker.obj
 0001:000c4aa0       ??$median3@UVertTriangle@?A0x449b062d@cloth@nv@@$$CBU?$Less@UVertTriangle@?A0x449b062d@cloth@nv@@@ps@34@@internal@ps@cloth@nv@@YAXPEAUVertTriangle@?A0x449b062d@23@HHAEBU?$Less@UVertTriangle@?A0x449b062d@cloth@nv@@@123@@Z 00000001800c5aa0 f i ClothGeodesicTetherCooker.obj
 0001:000c4c70       ??$partition@UMeshEdge@?A0x449b062d@cloth@nv@@$$CBU?$Less@UMeshEdge@?A0x449b062d@cloth@nv@@@ps@34@@internal@ps@cloth@nv@@YAHPEAUMeshEdge@?A0x449b062d@23@HHAEBU?$Less@UMeshEdge@?A0x449b062d@cloth@nv@@@123@@Z 00000001800c5c70 f i ClothGeodesicTetherCooker.obj
 0001:000c4f30       ??$partition@UVertTriangle@?A0x449b062d@cloth@nv@@$$CBU?$Less@UVertTriangle@?A0x449b062d@cloth@nv@@@ps@34@@internal@ps@cloth@nv@@YAHPEAUVertTriangle@?A0x449b062d@23@HHAEBU?$Less@UVertTriangle@?A0x449b062d@cloth@nv@@@123@@Z 00000001800c5f30 f i ClothGeodesicTetherCooker.obj
 0001:000c55d0       ??$smallSort@UMeshEdge@?A0x449b062d@cloth@nv@@$$CBU?$Less@UMeshEdge@?A0x449b062d@cloth@nv@@@ps@34@@internal@ps@cloth@nv@@YAXPEAUMeshEdge@?A0x449b062d@23@HHAEBU?$Less@UMeshEdge@?A0x449b062d@cloth@nv@@@123@@Z 00000001800c65d0 f i ClothGeodesicTetherCooker.obj
 0001:000c5720       ??$smallSort@UVertTriangle@?A0x449b062d@cloth@nv@@$$CBU?$Less@UVertTriangle@?A0x449b062d@cloth@nv@@@ps@34@@internal@ps@cloth@nv@@YAXPEAUVertTriangle@?A0x449b062d@23@HHAEBU?$Less@UVertTriangle@?A0x449b062d@cloth@nv@@@123@@Z 00000001800c6720 f i ClothGeodesicTetherCooker.obj
 0001:000c5850       ??$sort@UMeshEdge@?A0x449b062d@cloth@nv@@U?$Less@UMeshEdge@?A0x449b062d@cloth@nv@@@ps@34@VNonTrackingAllocator@634@@ps@cloth@nv@@YAXPEAUMeshEdge@?A0x449b062d@12@IAEBU?$Less@UMeshEdge@?A0x449b062d@cloth@nv@@@012@AEBVNonTrackingAllocator@012@I@Z 00000001800c6850 f i ClothGeodesicTetherCooker.obj
 0001:000c5d40       ??$sort@UVertTriangle@?A0x449b062d@cloth@nv@@U?$Less@UVertTriangle@?A0x449b062d@cloth@nv@@@ps@34@VNonTrackingAllocator@634@@ps@cloth@nv@@YAXPEAUVertTriangle@?A0x449b062d@12@IAEBU?$Less@UVertTriangle@?A0x449b062d@cloth@nv@@@012@AEBVNonTrackingAllocator@012@I@Z 00000001800c6d40 f i ClothGeodesicTetherCooker.obj
 0001:000c6220       ??$swap@H@ps@cloth@nv@@YAXAEAH0@Z 00000001800c7220 f i ClothGeodesicTetherCooker.obj
 0001:000c6280       ??$swap@UMeshEdge@?A0x449b062d@cloth@nv@@@ps@cloth@nv@@YAXAEAUMeshEdge@?A0x449b062d@12@0@Z 00000001800c7280 f i ClothGeodesicTetherCooker.obj
 0001:000c6310       ??$swap@UVertTriangle@?A0x449b062d@cloth@nv@@@ps@cloth@nv@@YAXAEAUVertTriangle@?A0x449b062d@12@0@Z 00000001800c7310 f i ClothGeodesicTetherCooker.obj
 0001:000c6390       ??$swap@UVertexDistanceCount@?A0x449b062d@cloth@nv@@@ps@cloth@nv@@YAXAEAUVertexDistanceCount@?A0x449b062d@12@0@Z 00000001800c7390 f i ClothGeodesicTetherCooker.obj
 0001:000c6420       ??0?$Array@EVNonTrackingAllocator@ps@cloth@nv@@@ps@cloth@nv@@QEAA@AEBVNonTrackingAllocator@123@@Z 00000001800c7420 f i ClothGeodesicTetherCooker.obj
 0001:000c6470       ??0?$Array@UMeshEdge@?A0x449b062d@cloth@nv@@VNonTrackingAllocator@ps@34@@ps@cloth@nv@@QEAA@AEBVNonTrackingAllocator@123@@Z 00000001800c7470 f i ClothGeodesicTetherCooker.obj
 0001:000c64c0       ??0?$Array@UVertTriangle@?A0x449b062d@cloth@nv@@VNonTrackingAllocator@ps@34@@ps@cloth@nv@@QEAA@AEBVNonTrackingAllocator@123@@Z 00000001800c74c0 f i ClothGeodesicTetherCooker.obj
 0001:000c6510       ??0?$Array@UVertexDistanceCount@?A0x449b062d@cloth@nv@@VNonTrackingAllocator@ps@34@@ps@cloth@nv@@QEAA@AEBVNonTrackingAllocator@123@@Z 00000001800c7510 f i ClothGeodesicTetherCooker.obj
 0001:000c6560       ??0ClothGeodesicTetherCooker@cloth@nv@@QEAA@XZ 00000001800c7560 f i ClothGeodesicTetherCooker.obj
 0001:000c66e0       ??0ClothTetherCooker@cloth@nv@@QEAA@XZ 00000001800c76e0 f i ClothGeodesicTetherCooker.obj
 0001:000c68e0       ??1?$Array@EVNonTrackingAllocator@ps@cloth@nv@@@ps@cloth@nv@@QEAA@XZ 00000001800c78e0 f i ClothGeodesicTetherCooker.obj
 0001:000c6970       ??1?$Array@UMeshEdge@?A0x449b062d@cloth@nv@@VNonTrackingAllocator@ps@34@@ps@cloth@nv@@QEAA@XZ 00000001800c7970 f i ClothGeodesicTetherCooker.obj
 0001:000c6a10       ??1?$Array@UVertTriangle@?A0x449b062d@cloth@nv@@VNonTrackingAllocator@ps@34@@ps@cloth@nv@@QEAA@XZ 00000001800c7a10 f i ClothGeodesicTetherCooker.obj
 0001:000c6ab0       ??1?$Array@UVertexDistanceCount@?A0x449b062d@cloth@nv@@VNonTrackingAllocator@ps@34@@ps@cloth@nv@@QEAA@XZ 00000001800c7ab0 f i ClothGeodesicTetherCooker.obj
 0001:000c6b50       ??1ClothGeodesicTetherCooker@cloth@nv@@UEAA@XZ 00000001800c7b50 f i ClothGeodesicTetherCooker.obj
 0001:000c6c40       ??1ClothTetherCooker@cloth@nv@@UEAA@XZ 00000001800c7c40 f i ClothGeodesicTetherCooker.obj
 0001:000c6ce0       ??A?$Array@EVNonTrackingAllocator@ps@cloth@nv@@@ps@cloth@nv@@QEAAAEAEI@Z 00000001800c7ce0 f i ClothGeodesicTetherCooker.obj
 0001:000c6da0       ??A?$Array@UMeshEdge@?A0x449b062d@cloth@nv@@VNonTrackingAllocator@ps@34@@ps@cloth@nv@@QEAAAEAUMeshEdge@?A0x449b062d@23@I@Z 00000001800c7da0 f i ClothGeodesicTetherCooker.obj
 0001:000c6e50       ??A?$Array@UVertTriangle@?A0x449b062d@cloth@nv@@VNonTrackingAllocator@ps@34@@ps@cloth@nv@@QEAAAEAUVertTriangle@?A0x449b062d@23@I@Z 00000001800c7e50 f i ClothGeodesicTetherCooker.obj
 0001:000c70f0       ??R?$Less@UMeshEdge@?A0x449b062d@cloth@nv@@@ps@cloth@nv@@QEBA_NAEBUMeshEdge@?A0x449b062d@23@0@Z 00000001800c80f0 f i ClothGeodesicTetherCooker.obj
 0001:000c7140       ??R?$Less@UVertTriangle@?A0x449b062d@cloth@nv@@@ps@cloth@nv@@QEBA_NAEBUVertTriangle@?A0x449b062d@23@0@Z 00000001800c8140 f i ClothGeodesicTetherCooker.obj
 0001:000c7190       ??_EClothGeodesicTetherCooker@cloth@nv@@UEAAPEAXI@Z 00000001800c8190 f i ClothGeodesicTetherCooker.obj
 0001:000c7190       ??_GClothGeodesicTetherCooker@cloth@nv@@UEAAPEAXI@Z 00000001800c8190 f i ClothGeodesicTetherCooker.obj
 0001:000c7220       ??_EClothTetherCooker@cloth@nv@@UEAAPEAXI@Z 00000001800c8220 f i ClothGeodesicTetherCooker.obj
 0001:000c7220       ??_GClothTetherCooker@cloth@nv@@UEAAPEAXI@Z 00000001800c8220 f i ClothGeodesicTetherCooker.obj
 0001:000c72b0       ?PxMemCopy@physx@@YAPEAXPEAXPEBXI@Z 00000001800c82b0 f i ClothGeodesicTetherCooker.obj
 0001:000c7310       ?allocate@?$Array@EVNonTrackingAllocator@ps@cloth@nv@@@ps@cloth@nv@@IEAAPEAEI@Z 00000001800c8310 f i ClothGeodesicTetherCooker.obj
 0001:000c73d0       ?allocate@?$Array@UMeshEdge@?A0x449b062d@cloth@nv@@VNonTrackingAllocator@ps@34@@ps@cloth@nv@@IEAAPEAUMeshEdge@?A0x449b062d@34@I@Z 00000001800c83d0 f i ClothGeodesicTetherCooker.obj
 0001:000c74a0       ?allocate@?$Array@UVertTriangle@?A0x449b062d@cloth@nv@@VNonTrackingAllocator@ps@34@@ps@cloth@nv@@IEAAPEAUVertTriangle@?A0x449b062d@34@I@Z 00000001800c84a0 f i ClothGeodesicTetherCooker.obj
 0001:000c7570       ?allocate@?$Array@UVertexDistanceCount@?A0x449b062d@cloth@nv@@VNonTrackingAllocator@ps@34@@ps@cloth@nv@@IEAAPEAUVertexDistanceCount@?A0x449b062d@34@I@Z 00000001800c8570 f i ClothGeodesicTetherCooker.obj
 0001:000c7640       ?begin@?$Array@UMeshEdge@?A0x449b062d@cloth@nv@@VNonTrackingAllocator@ps@34@@ps@cloth@nv@@QEAAPEAUMeshEdge@?A0x449b062d@34@XZ 00000001800c8640 f i ClothGeodesicTetherCooker.obj
 0001:000c7660       ?begin@?$Array@UVertTriangle@?A0x449b062d@cloth@nv@@VNonTrackingAllocator@ps@34@@ps@cloth@nv@@QEAAPEAUVertTriangle@?A0x449b062d@34@XZ 00000001800c8660 f i ClothGeodesicTetherCooker.obj
 0001:000c7680       ?begin@?$Array@UVertexDistanceCount@?A0x449b062d@cloth@nv@@VNonTrackingAllocator@ps@34@@ps@cloth@nv@@QEAAPEAUVertexDistanceCount@?A0x449b062d@34@XZ 00000001800c8680 f i ClothGeodesicTetherCooker.obj
 0001:000c76a0       ?capacity@?$Array@EVNonTrackingAllocator@ps@cloth@nv@@@ps@cloth@nv@@QEBAIXZ 00000001800c86a0 f i ClothGeodesicTetherCooker.obj
 0001:000c76c0       ?capacity@?$Array@UMeshEdge@?A0x449b062d@cloth@nv@@VNonTrackingAllocator@ps@34@@ps@cloth@nv@@QEBAIXZ 00000001800c86c0 f i ClothGeodesicTetherCooker.obj
 0001:000c76e0       ?capacity@?$Array@UVertTriangle@?A0x449b062d@cloth@nv@@VNonTrackingAllocator@ps@34@@ps@cloth@nv@@QEBAIXZ 00000001800c86e0 f i ClothGeodesicTetherCooker.obj
 0001:000c7700       ?capacity@?$Array@UVertexDistanceCount@?A0x449b062d@cloth@nv@@VNonTrackingAllocator@ps@34@@ps@cloth@nv@@QEBAIXZ 00000001800c8700 f i ClothGeodesicTetherCooker.obj
 0001:000c7720       ?capacityIncrement@?$Array@UMeshEdge@?A0x449b062d@cloth@nv@@VNonTrackingAllocator@ps@34@@ps@cloth@nv@@IEBAIXZ 00000001800c8720 f i ClothGeodesicTetherCooker.obj
 0001:000c7790       ?capacityIncrement@?$Array@UVertTriangle@?A0x449b062d@cloth@nv@@VNonTrackingAllocator@ps@34@@ps@cloth@nv@@IEBAIXZ 00000001800c8790 f i ClothGeodesicTetherCooker.obj
 0001:000c7800       ?capacityIncrement@?$Array@UVertexDistanceCount@?A0x449b062d@cloth@nv@@VNonTrackingAllocator@ps@34@@ps@cloth@nv@@IEBAIXZ 00000001800c8800 f i ClothGeodesicTetherCooker.obj
 0001:000c7900       ?clear@?$Array@UVertexDistanceCount@?A0x449b062d@cloth@nv@@VNonTrackingAllocator@ps@34@@ps@cloth@nv@@QEAAXXZ 00000001800c8900 f i ClothGeodesicTetherCooker.obj
 0001:000c7970       ?copy@?$Array@EVNonTrackingAllocator@ps@cloth@nv@@@ps@cloth@nv@@KAXPEAE0PEBE@Z 00000001800c8970 f i ClothGeodesicTetherCooker.obj
 0001:000c7a40       ?copy@?$Array@UMeshEdge@?A0x449b062d@cloth@nv@@VNonTrackingAllocator@ps@34@@ps@cloth@nv@@KAXPEAUMeshEdge@?A0x449b062d@34@0PEBU5634@@Z 00000001800c8a40 f i ClothGeodesicTetherCooker.obj
 0001:000c7b20       ?copy@?$Array@UVertTriangle@?A0x449b062d@cloth@nv@@VNonTrackingAllocator@ps@34@@ps@cloth@nv@@KAXPEAUVertTriangle@?A0x449b062d@34@0PEBU5634@@Z 00000001800c8b20 f i ClothGeodesicTetherCooker.obj
 0001:000c7c00       ?copy@?$Array@UVertexDistanceCount@?A0x449b062d@cloth@nv@@VNonTrackingAllocator@ps@34@@ps@cloth@nv@@KAXPEAUVertexDistanceCount@?A0x449b062d@34@0PEBU5634@@Z 00000001800c8c00 f i ClothGeodesicTetherCooker.obj
 0001:000c7ce0       ?create@?$Array@EVNonTrackingAllocator@ps@cloth@nv@@@ps@cloth@nv@@KAXPEAE0AEBE@Z 00000001800c8ce0 f i ClothGeodesicTetherCooker.obj
 0001:000c7d90       ?deallocate@?$Array@EVNonTrackingAllocator@ps@cloth@nv@@@ps@cloth@nv@@IEAAXPEAX@Z 00000001800c8d90 f i ClothGeodesicTetherCooker.obj
 0001:000c7de0       ?deallocate@?$Array@UMeshEdge@?A0x449b062d@cloth@nv@@VNonTrackingAllocator@ps@34@@ps@cloth@nv@@IEAAXPEAX@Z 00000001800c8de0 f i ClothGeodesicTetherCooker.obj
 0001:000c7e30       ?deallocate@?$Array@UVertTriangle@?A0x449b062d@cloth@nv@@VNonTrackingAllocator@ps@34@@ps@cloth@nv@@IEAAXPEAX@Z 00000001800c8e30 f i ClothGeodesicTetherCooker.obj
 0001:000c7e80       ?deallocate@?$Array@UVertexDistanceCount@?A0x449b062d@cloth@nv@@VNonTrackingAllocator@ps@34@@ps@cloth@nv@@IEAAXPEAX@Z 00000001800c8e80 f i ClothGeodesicTetherCooker.obj
 0001:000c7ed0       ?destroy@?$Array@EVNonTrackingAllocator@ps@cloth@nv@@@ps@cloth@nv@@KAXPEAE0@Z 00000001800c8ed0 f i ClothGeodesicTetherCooker.obj
 0001:000c7f10       ?destroy@?$Array@UMeshEdge@?A0x449b062d@cloth@nv@@VNonTrackingAllocator@ps@34@@ps@cloth@nv@@KAXPEAUMeshEdge@?A0x449b062d@34@0@Z 00000001800c8f10 f i ClothGeodesicTetherCooker.obj
 0001:000c7f50       ?destroy@?$Array@UVertTriangle@?A0x449b062d@cloth@nv@@VNonTrackingAllocator@ps@34@@ps@cloth@nv@@KAXPEAUVertTriangle@?A0x449b062d@34@0@Z 00000001800c8f50 f i ClothGeodesicTetherCooker.obj
 0001:000c7f90       ?destroy@?$Array@UVertexDistanceCount@?A0x449b062d@cloth@nv@@VNonTrackingAllocator@ps@34@@ps@cloth@nv@@KAXPEAUVertexDistanceCount@?A0x449b062d@34@0@Z 00000001800c8f90 f i ClothGeodesicTetherCooker.obj
 0001:000c7fd0       ?empty@?$Array@UVertexDistanceCount@?A0x449b062d@cloth@nv@@VNonTrackingAllocator@ps@34@@ps@cloth@nv@@QEBA_NXZ 00000001800c8fd0 f i ClothGeodesicTetherCooker.obj
 0001:000c8030       ?end@?$Array@UVertexDistanceCount@?A0x449b062d@cloth@nv@@VNonTrackingAllocator@ps@34@@ps@cloth@nv@@QEAAPEAUVertexDistanceCount@?A0x449b062d@34@XZ 00000001800c9030 f i ClothGeodesicTetherCooker.obj
 0001:000c8060       ?grow@?$Array@EVNonTrackingAllocator@ps@cloth@nv@@@ps@cloth@nv@@IEAAXI@Z 00000001800c9060 f i ClothGeodesicTetherCooker.obj
 0001:000c8110       ?grow@?$Array@UVertTriangle@?A0x449b062d@cloth@nv@@VNonTrackingAllocator@ps@34@@ps@cloth@nv@@IEAAXI@Z 00000001800c9110 f i ClothGeodesicTetherCooker.obj
 0001:000c81c0       ?growAndPushBack@?$Array@UMeshEdge@?A0x449b062d@cloth@nv@@VNonTrackingAllocator@ps@34@@ps@cloth@nv@@IEAAAEAUMeshEdge@?A0x449b062d@34@AEBU5634@@Z 00000001800c91c0 f i ClothGeodesicTetherCooker.obj
 0001:000c8440       ?growAndPushBack@?$Array@UVertTriangle@?A0x449b062d@cloth@nv@@VNonTrackingAllocator@ps@34@@ps@cloth@nv@@IEAAAEAUVertTriangle@?A0x449b062d@34@AEBU5634@@Z 00000001800c9440 f i ClothGeodesicTetherCooker.obj
 0001:000c8660       ?growAndPushBack@?$Array@UVertexDistanceCount@?A0x449b062d@cloth@nv@@VNonTrackingAllocator@ps@34@@ps@cloth@nv@@IEAAAEAUVertexDistanceCount@?A0x449b062d@34@AEBU5634@@Z 00000001800c9660 f i ClothGeodesicTetherCooker.obj
 0001:000c88e0       ?isInUserMemory@?$Array@EVNonTrackingAllocator@ps@cloth@nv@@@ps@cloth@nv@@QEBAIXZ 00000001800c98e0 f i ClothGeodesicTetherCooker.obj
 0001:000c8900       ?isInUserMemory@?$Array@UMeshEdge@?A0x449b062d@cloth@nv@@VNonTrackingAllocator@ps@34@@ps@cloth@nv@@QEBAIXZ 00000001800c9900 f i ClothGeodesicTetherCooker.obj
 0001:000c8920       ?isInUserMemory@?$Array@UVertTriangle@?A0x449b062d@cloth@nv@@VNonTrackingAllocator@ps@34@@ps@cloth@nv@@QEBAIXZ 00000001800c9920 f i ClothGeodesicTetherCooker.obj
 0001:000c8940       ?isInUserMemory@?$Array@UVertexDistanceCount@?A0x449b062d@cloth@nv@@VNonTrackingAllocator@ps@34@@ps@cloth@nv@@QEBAIXZ 00000001800c9940 f i ClothGeodesicTetherCooker.obj
 0001:000c8960       ?popBack@?$Array@UVertexDistanceCount@?A0x449b062d@cloth@nv@@VNonTrackingAllocator@ps@34@@ps@cloth@nv@@QEAA?AUVertexDistanceCount@?A0x449b062d@34@XZ 00000001800c9960 f i ClothGeodesicTetherCooker.obj
 0001:000c8ab0       ?pushBack@?$Array@UMeshEdge@?A0x449b062d@cloth@nv@@VNonTrackingAllocator@ps@34@@ps@cloth@nv@@QEAAAEAUMeshEdge@?A0x449b062d@34@AEBU5634@@Z 00000001800c9ab0 f i ClothGeodesicTetherCooker.obj
 0001:000c8bc0       ?pushBack@?$Array@UVertTriangle@?A0x449b062d@cloth@nv@@VNonTrackingAllocator@ps@34@@ps@cloth@nv@@QEAAAEAUVertTriangle@?A0x449b062d@34@AEBU5634@@Z 00000001800c9bc0 f i ClothGeodesicTetherCooker.obj
 0001:000c8cd0       ?pushBack@?$Array@UVertexDistanceCount@?A0x449b062d@cloth@nv@@VNonTrackingAllocator@ps@34@@ps@cloth@nv@@QEAAAEAUVertexDistanceCount@?A0x449b062d@34@AEBU5634@@Z 00000001800c9cd0 f i ClothGeodesicTetherCooker.obj
 0001:000c8de0       ?recreate@?$Array@EVNonTrackingAllocator@ps@cloth@nv@@@ps@cloth@nv@@IEAAXI@Z 00000001800c9de0 f i ClothGeodesicTetherCooker.obj
 0001:000c8f50       ?recreate@?$Array@UVertTriangle@?A0x449b062d@cloth@nv@@VNonTrackingAllocator@ps@34@@ps@cloth@nv@@IEAAXI@Z 00000001800c9f50 f i ClothGeodesicTetherCooker.obj
 0001:000c90c0       ?reserve@?$Array@EVNonTrackingAllocator@ps@cloth@nv@@@ps@cloth@nv@@QEAAXI@Z 00000001800ca0c0 f i ClothGeodesicTetherCooker.obj
 0001:000c9120       ?reserve@?$Array@UVertTriangle@?A0x449b062d@cloth@nv@@VNonTrackingAllocator@ps@34@@ps@cloth@nv@@QEAAXI@Z 00000001800ca120 f i ClothGeodesicTetherCooker.obj
 0001:000c9180       ?resize@?$Array@EVNonTrackingAllocator@ps@cloth@nv@@@ps@cloth@nv@@QEAAXIAEBE@Z 00000001800ca180 f i ClothGeodesicTetherCooker.obj
 0001:000c9240       ?size@?$Array@UMeshEdge@?A0x449b062d@cloth@nv@@VNonTrackingAllocator@ps@34@@ps@cloth@nv@@QEBAIXZ 00000001800ca240 f i ClothGeodesicTetherCooker.obj
 0001:000c9260       ?size@?$Array@UVertTriangle@?A0x449b062d@cloth@nv@@VNonTrackingAllocator@ps@34@@ps@cloth@nv@@QEBAIXZ 00000001800ca260 f i ClothGeodesicTetherCooker.obj
 0001:000c9280       ?size@?$Array@UVertexDistanceCount@?A0x449b062d@cloth@nv@@VNonTrackingAllocator@ps@34@@ps@cloth@nv@@QEBAIXZ 00000001800ca280 f i ClothGeodesicTetherCooker.obj
 0001:000c92a0       NvClothCreateMeshQuadifier 00000001800ca2a0 f   ClothMeshQuadifier.obj
 0001:000c9310       ?quadify@ClothMeshQuadifierImpl@cloth@nv@@UEAA_NAEBVClothMeshDesc@23@@Z 00000001800ca310 f   ClothMeshQuadifier.obj
 0001:000c9590       ?getDescriptor@ClothMeshQuadifierImpl@cloth@nv@@UEBA?AVClothMeshDesc@23@XZ 00000001800ca590 f   ClothMeshQuadifier.obj
 0001:000cb8c0       ??$median3@I$$CBUSortHiddenEdges@?A0x26048da4@cloth@nv@@@internal@ps@cloth@nv@@YAXPEAIHHAEBUSortHiddenEdges@?A0x26048da4@23@@Z 00000001800cc8c0 f i ClothMeshQuadifier.obj
 0001:000cba80       ??$median3@UUniqueEdge@?A0x26048da4@cloth@nv@@$$CBU1234@@internal@ps@cloth@nv@@YAXPEAUUniqueEdge@?A0x26048da4@23@HHAEBU4523@@Z 00000001800cca80 f i ClothMeshQuadifier.obj
 0001:000cbcc0       ??$partition@I$$CBUSortHiddenEdges@?A0x26048da4@cloth@nv@@@internal@ps@cloth@nv@@YAHPEAIHHAEBUSortHiddenEdges@?A0x26048da4@23@@Z 00000001800cccc0 f i ClothMeshQuadifier.obj
 0001:000cbf30       ??$partition@UUniqueEdge@?A0x26048da4@cloth@nv@@$$CBU1234@@internal@ps@cloth@nv@@YAHPEAUUniqueEdge@?A0x26048da4@23@HHAEBU4523@@Z 00000001800ccf30 f i ClothMeshQuadifier.obj
 0001:000cc2a0       ??$smallSort@I$$CBUSortHiddenEdges@?A0x26048da4@cloth@nv@@@internal@ps@cloth@nv@@YAXPEAIHHAEBUSortHiddenEdges@?A0x26048da4@23@@Z 00000001800cd2a0 f i ClothMeshQuadifier.obj
 0001:000cc3c0       ??$smallSort@UUniqueEdge@?A0x26048da4@cloth@nv@@$$CBU1234@@internal@ps@cloth@nv@@YAXPEAUUniqueEdge@?A0x26048da4@23@HHAEBU4523@@Z 00000001800cd3c0 f i ClothMeshQuadifier.obj
 0001:000cc510       ??$sort@IUSortHiddenEdges@?A0x26048da4@cloth@nv@@VNonTrackingAllocator@ps@34@@ps@cloth@nv@@YAXPEAIIAEBUSortHiddenEdges@?A0x26048da4@12@AEBVNonTrackingAllocator@012@I@Z 00000001800cd510 f i ClothMeshQuadifier.obj
 0001:000cc9e0       ??$sort@UUniqueEdge@?A0x26048da4@cloth@nv@@U1234@VNonTrackingAllocator@ps@34@@ps@cloth@nv@@YAXPEAUUniqueEdge@?A0x26048da4@12@IAEBU3412@AEBVNonTrackingAllocator@012@I@Z 00000001800cd9e0 f i ClothMeshQuadifier.obj
 0001:000cced0       ??$swap@UUniqueEdge@?A0x26048da4@cloth@nv@@@ps@cloth@nv@@YAXAEAUUniqueEdge@?A0x26048da4@12@0@Z 00000001800cded0 f i ClothMeshQuadifier.obj
 0001:000ccf60       ??0?$Array@UUniqueEdge@?A0x26048da4@cloth@nv@@VNonTrackingAllocator@ps@34@@ps@cloth@nv@@QEAA@AEBVNonTrackingAllocator@123@@Z 00000001800cdf60 f i ClothMeshQuadifier.obj
 0001:000ccfb0       ??0BoundedData@cloth@nv@@QEAA@XZ 00000001800cdfb0 f i ClothMeshQuadifier.obj
 0001:000cd000       ??0ClothMeshDesc@cloth@nv@@QEAA@XZ 00000001800ce000 f i ClothMeshQuadifier.obj
 0001:000cd0b0       ??0ClothMeshQuadifier@cloth@nv@@QEAA@XZ 00000001800ce0b0 f i ClothMeshQuadifier.obj
 0001:000cd0e0       ??0ClothMeshQuadifierImpl@cloth@nv@@QEAA@XZ 00000001800ce0e0 f i ClothMeshQuadifier.obj
 0001:000cd1d0       ??0StridedData@cloth@nv@@QEAA@XZ 00000001800ce1d0 f i ClothMeshQuadifier.obj
 0001:000cd340       ??1?$Array@UUniqueEdge@?A0x26048da4@cloth@nv@@VNonTrackingAllocator@ps@34@@ps@cloth@nv@@QEAA@XZ 00000001800ce340 f i ClothMeshQuadifier.obj
 0001:000cd3e0       ??1ClothMeshQuadifier@cloth@nv@@UEAA@XZ 00000001800ce3e0 f i ClothMeshQuadifier.obj
 0001:000cd400       ??1ClothMeshQuadifierImpl@cloth@nv@@UEAA@XZ 00000001800ce400 f i ClothMeshQuadifier.obj
 0001:000cd4f0       ??A?$Array@UUniqueEdge@?A0x26048da4@cloth@nv@@VNonTrackingAllocator@ps@34@@ps@cloth@nv@@QEAAAEAUUniqueEdge@?A0x26048da4@23@I@Z 00000001800ce4f0 f i ClothMeshQuadifier.obj
 0001:000cd5a0       ??A?$Array@UUniqueEdge@?A0x26048da4@cloth@nv@@VNonTrackingAllocator@ps@34@@ps@cloth@nv@@QEBAAEBUUniqueEdge@?A0x26048da4@23@I@Z 00000001800ce5a0 f i ClothMeshQuadifier.obj
 0001:000cd7f0       ??_EClothMeshQuadifier@cloth@nv@@UEAAPEAXI@Z 00000001800ce7f0 f i ClothMeshQuadifier.obj
 0001:000cd7f0       ??_GClothMeshQuadifier@cloth@nv@@UEAAPEAXI@Z 00000001800ce7f0 f i ClothMeshQuadifier.obj
 0001:000cd880       ??_GClothMeshQuadifierImpl@cloth@nv@@UEAAPEAXI@Z 00000001800ce880 f i ClothMeshQuadifier.obj
 0001:000cd880       ??_EClothMeshQuadifierImpl@cloth@nv@@UEAAPEAXI@Z 00000001800ce880 f i ClothMeshQuadifier.obj
 0001:000cd910       ??_H@YAXPEAX_K1P6APEAX0@Z@Z 00000001800ce910 f i ClothMeshQuadifier.obj
 0001:000cd9c0       ?allocate@?$Array@UUniqueEdge@?A0x26048da4@cloth@nv@@VNonTrackingAllocator@ps@34@@ps@cloth@nv@@IEAAPEAUUniqueEdge@?A0x26048da4@34@I@Z 00000001800ce9c0 f i ClothMeshQuadifier.obj
 0001:000cda90       ?begin@?$Array@UUniqueEdge@?A0x26048da4@cloth@nv@@VNonTrackingAllocator@ps@34@@ps@cloth@nv@@QEAAPEAUUniqueEdge@?A0x26048da4@34@XZ 00000001800cea90 f i ClothMeshQuadifier.obj
 0001:000cdab0       ?capacity@?$Array@UUniqueEdge@?A0x26048da4@cloth@nv@@VNonTrackingAllocator@ps@34@@ps@cloth@nv@@QEBAIXZ 00000001800ceab0 f i ClothMeshQuadifier.obj
 0001:000cdad0       ?capacityIncrement@?$Array@UUniqueEdge@?A0x26048da4@cloth@nv@@VNonTrackingAllocator@ps@34@@ps@cloth@nv@@IEBAIXZ 00000001800cead0 f i ClothMeshQuadifier.obj
 0001:000cdb40       ?copy@?$Array@UUniqueEdge@?A0x26048da4@cloth@nv@@VNonTrackingAllocator@ps@34@@ps@cloth@nv@@KAXPEAUUniqueEdge@?A0x26048da4@34@0PEBU5634@@Z 00000001800ceb40 f i ClothMeshQuadifier.obj
 0001:000cdc20       ?create@?$Array@UUniqueEdge@?A0x26048da4@cloth@nv@@VNonTrackingAllocator@ps@34@@ps@cloth@nv@@KAXPEAUUniqueEdge@?A0x26048da4@34@0AEBU5634@@Z 00000001800cec20 f i ClothMeshQuadifier.obj
 0001:000cdce0       ?deallocate@?$Array@UUniqueEdge@?A0x26048da4@cloth@nv@@VNonTrackingAllocator@ps@34@@ps@cloth@nv@@IEAAXPEAX@Z 00000001800cece0 f i ClothMeshQuadifier.obj
 0001:000cdd30       ?degToRad@ps@cloth@nv@@YAMM@Z 00000001800ced30 f i ClothMeshQuadifier.obj
 0001:000cdd70       ?destroy@?$Array@UUniqueEdge@?A0x26048da4@cloth@nv@@VNonTrackingAllocator@ps@34@@ps@cloth@nv@@KAXPEAUUniqueEdge@?A0x26048da4@34@0@Z 00000001800ced70 f i ClothMeshQuadifier.obj
 0001:000cddb0       ?grow@?$Array@UUniqueEdge@?A0x26048da4@cloth@nv@@VNonTrackingAllocator@ps@34@@ps@cloth@nv@@IEAAXI@Z 00000001800cedb0 f i ClothMeshQuadifier.obj
 0001:000cde60       ?growAndPushBack@?$Array@UUniqueEdge@?A0x26048da4@cloth@nv@@VNonTrackingAllocator@ps@34@@ps@cloth@nv@@IEAAAEAUUniqueEdge@?A0x26048da4@34@AEBU5634@@Z 00000001800cee60 f i ClothMeshQuadifier.obj
 0001:000ce0e0       ?isInUserMemory@?$Array@UUniqueEdge@?A0x26048da4@cloth@nv@@VNonTrackingAllocator@ps@34@@ps@cloth@nv@@QEBAIXZ 00000001800cf0e0 f i ClothMeshQuadifier.obj
 0001:000ce100       ?pushBack@?$Array@UUniqueEdge@?A0x26048da4@cloth@nv@@VNonTrackingAllocator@ps@34@@ps@cloth@nv@@QEAAAEAUUniqueEdge@?A0x26048da4@34@AEBU5634@@Z 00000001800cf100 f i ClothMeshQuadifier.obj
 0001:000ce210       ?recreate@?$Array@UUniqueEdge@?A0x26048da4@cloth@nv@@VNonTrackingAllocator@ps@34@@ps@cloth@nv@@IEAAXI@Z 00000001800cf210 f i ClothMeshQuadifier.obj
 0001:000ce390       ?reserve@?$Array@UUniqueEdge@?A0x26048da4@cloth@nv@@VNonTrackingAllocator@ps@34@@ps@cloth@nv@@QEAAXI@Z 00000001800cf390 f i ClothMeshQuadifier.obj
 0001:000ce3f0       ?resize@?$Array@UUniqueEdge@?A0x26048da4@cloth@nv@@VNonTrackingAllocator@ps@34@@ps@cloth@nv@@QEAAXIAEBUUniqueEdge@?A0x26048da4@34@@Z 00000001800cf3f0 f i ClothMeshQuadifier.obj
 0001:000ce4c0       ?size@?$Array@UUniqueEdge@?A0x26048da4@cloth@nv@@VNonTrackingAllocator@ps@34@@ps@cloth@nv@@QEBAIXZ 00000001800cf4c0 f i ClothMeshQuadifier.obj
 0001:000ce4e0       NvClothCreateSimpleTetherCooker 00000001800cf4e0 f   ClothSimpleTetherCooker.obj
 0001:000ce550       ?cook@ClothSimpleTetherCooker@cloth@nv@@UEAA_NAEBVClothMeshDesc@23@@Z 00000001800cf550 f   ClothSimpleTetherCooker.obj
 0001:000ce5d0       ?getCookerStatus@ClothSimpleTetherCooker@cloth@nv@@UEBAIXZ 00000001800cf5d0 f   ClothSimpleTetherCooker.obj
 0001:000ce5f0       ?getTetherData@ClothSimpleTetherCooker@cloth@nv@@UEBAXPEAIPEAM@Z 00000001800cf5f0 f   ClothSimpleTetherCooker.obj
 0001:000ce6b0       ?createTetherData@ClothSimpleTetherCooker@cloth@nv@@IEAAXAEBVClothMeshDesc@23@@Z 00000001800cf6b0 f   ClothSimpleTetherCooker.obj
 0001:000ced50       ??0ClothSimpleTetherCooker@cloth@nv@@QEAA@XZ 00000001800cfd50 f i ClothSimpleTetherCooker.obj
 0001:000cedf0       ??1ClothSimpleTetherCooker@cloth@nv@@UEAA@XZ 00000001800cfdf0 f i ClothSimpleTetherCooker.obj
 0001:000cee60       ??_EClothSimpleTetherCooker@cloth@nv@@UEAAPEAXI@Z 00000001800cfe60 f i ClothSimpleTetherCooker.obj
 0001:000cee60       ??_GClothSimpleTetherCooker@cloth@nv@@UEAAPEAXI@Z 00000001800cfe60 f i ClothSimpleTetherCooker.obj
 0001:000ceef0       ?capacityIncrement@?$Array@MVNonTrackingAllocator@ps@cloth@nv@@@ps@cloth@nv@@IEBAIXZ 00000001800cfef0 f i ClothSimpleTetherCooker.obj
 0001:000cef60       ?getNbTethersPerParticle@ClothSimpleTetherCooker@cloth@nv@@UEBAIXZ 00000001800cff60 f i ClothSimpleTetherCooker.obj
 0001:000cef70       ?growAndPushBack@?$Array@MVNonTrackingAllocator@ps@cloth@nv@@@ps@cloth@nv@@IEAAAEAMAEBM@Z 00000001800cff70 f i ClothSimpleTetherCooker.obj
 0001:000cf1a0       ?pushBack@?$Array@MVNonTrackingAllocator@ps@cloth@nv@@@ps@cloth@nv@@QEAAAEAMAEBM@Z 00000001800d01a0 f i ClothSimpleTetherCooker.obj
 0001:000cf2b0       ?_Debug_message@std@@YAXPEBG0I@Z 00000001800d02b0 f   libcpmtd:stdthrow.obj
 0001:000cf2f0       ?_Debug_message@std@@YAXPEB_W0I@Z 00000001800d02f0 f   libcpmtd:stdthrow.obj
 0001:000cf350       _CRT_RTC_INIT              00000001800d0350 f   LIBCMTD:_init_.obj
 0001:000cf360       _CRT_RTC_INITW             00000001800d0360 f   LIBCMTD:_init_.obj
 0001:000cf370       _RTC_InitBase              00000001800d0370 f   LIBCMTD:_init_.obj
 0001:000cf3c0       _RTC_Shutdown              00000001800d03c0 f   LIBCMTD:_init_.obj
 0001:000cf3f0       _RTC_AllocaHelper          00000001800d03f0 f   LIBCMTD:_stack_.obj
 0001:000cf440       _RTC_CheckStackVars        00000001800d0440 f   LIBCMTD:_stack_.obj
 0001:000cf4f0       _RTC_CheckStackVars2       00000001800d04f0 f   LIBCMTD:_stack_.obj
 0001:000cf650       __chkstk                   00000001800d0650 f   LIBCMTD:_chkstk_.obj
 0001:000cf650       _alloca_probe              00000001800d0650 f   LIBCMTD:_chkstk_.obj
 0001:000cf6c0       ??2@YAPEAX_K@Z             00000001800d06c0 f   LIBCMTD:new_scalar.obj
 0001:000cf730       ??3@YAXPEAX_K@Z            00000001800d0730 f   LIBCMTD:delete_scalar_size.obj
 0001:000cf760       ??_U@YAPEAX_K@Z            00000001800d0760 f   LIBCMTD:new_array.obj
 0001:000cf780       ??3@YAXPEAX@Z              00000001800d0780 f   LIBCMTD:delete_scalar.obj
 0001:000cf7b0       ??_V@YAXPEAX@Z             00000001800d07b0 f   LIBCMTD:delete_array.obj
 0001:000cf7d0       ??_V@YAXPEAX_K@Z           00000001800d07d0 f   LIBCMTD:delete_array_size.obj
 0001:000cfcf0       _CRT_INIT                  00000001800d0cf0 f   LIBCMTD:dll_dllmain.obj
 0001:000cfd30       _DllMainCRTStartup         00000001800d0d30 f   LIBCMTD:dll_dllmain.obj
 0001:000cfd80       ?_RTC_GetErrorFunc@@YAP6AHHPEBDH00ZZPEBX@Z 00000001800d0d80 f   LIBCMTD:_userapi_.obj
 0001:000cfd90       ?_RTC_GetErrorFuncW@@YAP6AHHPEB_WH00ZZPEBX@Z 00000001800d0d90 f   LIBCMTD:_userapi_.obj
 0001:000cfda0       _RTC_GetErrDesc            00000001800d0da0 f   LIBCMTD:_userapi_.obj
 0001:000cfdc0       _RTC_NumErrors             00000001800d0dc0 f   LIBCMTD:_userapi_.obj
 0001:000cfdd0       _RTC_SetErrorFunc          00000001800d0dd0 f   LIBCMTD:_userapi_.obj
 0001:000cfdf0       _RTC_SetErrorFuncW         00000001800d0df0 f   LIBCMTD:_userapi_.obj
 0001:000cfe10       _RTC_SetErrorType          00000001800d0e10 f   LIBCMTD:_userapi_.obj
 0001:000cfe40       ??$__vcrt_va_start_verify_argument_type@QEBD@@YAXXZ 00000001800d0e40 f i LIBCMTD:_error_.obj
 0001:000cff20       ?_RTC_AllocaFailure@@YAXPEAXPEAU_RTC_ALLOCA_NODE@@H@Z 00000001800d0f20 f   LIBCMTD:_error_.obj
 0001:000d0110       ?_RTC_Failure@@YAXPEAXH@Z  00000001800d1110 f   LIBCMTD:_error_.obj
 0001:000d0180       ?_RTC_StackFailure@@YAXPEAXPEBD@Z 00000001800d1180 f   LIBCMTD:_error_.obj
 0001:000d0710       _RTC_UninitUse             00000001800d1710 f   LIBCMTD:_error_.obj
 0001:000d0880       _vsprintf_s_l              00000001800d1880 f i LIBCMTD:_error_.obj
 0001:000d0900       sprintf_s                  00000001800d1900 f i LIBCMTD:_error_.obj
 0001:000d0950       ??0bad_alloc@std@@AEAA@QEBD@Z 00000001800d1950 f i LIBCMTD:throw_bad_alloc.obj
 0001:000d09a0       ??0bad_alloc@std@@QEAA@AEBV01@@Z 00000001800d19a0 f i LIBCMTD:throw_bad_alloc.obj
 0001:000d09f0       ??0bad_alloc@std@@QEAA@XZ  00000001800d19f0 f i LIBCMTD:throw_bad_alloc.obj
 0001:000d0a40       ??0bad_array_new_length@std@@QEAA@AEBV01@@Z 00000001800d1a40 f i LIBCMTD:throw_bad_alloc.obj
 0001:000d0a90       ??0bad_array_new_length@std@@QEAA@XZ 00000001800d1a90 f i LIBCMTD:throw_bad_alloc.obj
 0001:000d0ad0       ??0exception@std@@QEAA@AEBV01@@Z 00000001800d1ad0 f i LIBCMTD:throw_bad_alloc.obj
 0001:000d0b40       ??0exception@std@@QEAA@QEBDH@Z 00000001800d1b40 f i LIBCMTD:throw_bad_alloc.obj
 0001:000d0ba0       ??1bad_alloc@std@@UEAA@XZ  00000001800d1ba0 f i LIBCMTD:throw_bad_alloc.obj
 0001:000d0bc0       ??1bad_array_new_length@std@@UEAA@XZ 00000001800d1bc0 f i LIBCMTD:throw_bad_alloc.obj
 0001:000d0be0       ??1exception@std@@UEAA@XZ  00000001800d1be0 f i LIBCMTD:throw_bad_alloc.obj
 0001:000d0c20       ??_Gbad_alloc@std@@UEAAPEAXI@Z 00000001800d1c20 f i LIBCMTD:throw_bad_alloc.obj
 0001:000d0c20       ??_Ebad_alloc@std@@UEAAPEAXI@Z 00000001800d1c20 f i LIBCMTD:throw_bad_alloc.obj
 0001:000d0c70       ??_Gbad_array_new_length@std@@UEAAPEAXI@Z 00000001800d1c70 f i LIBCMTD:throw_bad_alloc.obj
 0001:000d0c70       ??_Ebad_array_new_length@std@@UEAAPEAXI@Z 00000001800d1c70 f i LIBCMTD:throw_bad_alloc.obj
 0001:000d0cc0       ??_Eexception@std@@UEAAPEAXI@Z 00000001800d1cc0 f i LIBCMTD:throw_bad_alloc.obj
 0001:000d0cc0       ??_Gexception@std@@UEAAPEAXI@Z 00000001800d1cc0 f i LIBCMTD:throw_bad_alloc.obj
 0001:000d0d10       ?__scrt_throw_std_bad_alloc@@YAXXZ 00000001800d1d10 f   LIBCMTD:throw_bad_alloc.obj
 0001:000d0d40       ?__scrt_throw_std_bad_array_new_length@@YAXXZ 00000001800d1d40 f   LIBCMTD:throw_bad_alloc.obj
 0001:000d0d70       ?what@exception@std@@UEBAPEBDXZ 00000001800d1d70 f i LIBCMTD:throw_bad_alloc.obj
 0001:000d0dc0       ??$__crt_fast_decode_pointer@PEAP6AXXZ@@YAPEAP6AXXZQEAP6AXXZ@Z 00000001800d1dc0 f i LIBCMTD:utility.obj
 0001:000d0e10       ??$__crt_fast_encode_pointer@PEAP6AXXZ@@YAPEAP6AXXZQEAP6AXXZ@Z 00000001800d1e10 f i LIBCMTD:utility.obj
 0001:000d0e60       ?__crt_rotate_pointer_value@@YA_K_KH@Z 00000001800d1e60 f i LIBCMTD:utility.obj
 0001:000d0e80       ?configure_argv@__scrt_narrow_argv_policy@@SAHXZ 00000001800d1e80 f i LIBCMTD:utility.obj
 0001:000d1050       NtCurrentTeb               00000001800d2050 f i LIBCMTD:utility.obj
 0001:000d1060       __scrt_acquire_startup_lock 00000001800d2060 f   LIBCMTD:utility.obj
 0001:000d10e0       __scrt_dllmain_after_initialize_c 00000001800d20e0 f   LIBCMTD:utility.obj
 0001:000d1120       __scrt_dllmain_before_initialize_c 00000001800d2120 f   LIBCMTD:utility.obj
 0001:000d1150       __scrt_dllmain_crt_thread_attach 00000001800d2150 f   LIBCMTD:utility.obj
 0001:000d1190       __scrt_dllmain_crt_thread_detach 00000001800d2190 f   LIBCMTD:utility.obj
 0001:000d11b0       __scrt_dllmain_exception_filter 00000001800d21b0 f   LIBCMTD:utility.obj
 0001:000d1230       __scrt_dllmain_uninitialize_c 00000001800d2230 f   LIBCMTD:utility.obj
 0001:000d1270       __scrt_dllmain_uninitialize_critical 00000001800d2270 f   LIBCMTD:utility.obj
 0001:000d1290       __scrt_initialize_crt      00000001800d2290 f   LIBCMTD:utility.obj
 0001:000d12f0       __scrt_initialize_onexit_tables 00000001800d22f0 f   LIBCMTD:utility.obj
 0001:000d1430       __scrt_is_nonwritable_in_current_image 00000001800d2430 f   LIBCMTD:utility.obj
 0001:000d14e0       __scrt_release_startup_lock 00000001800d24e0 f   LIBCMTD:utility.obj
 0001:000d1520       __scrt_uninitialize_crt    00000001800d2520 f   LIBCMTD:utility.obj
 0001:000d1570       _onexit                    00000001800d2570 f   LIBCMTD:utility.obj
 0001:000d1620       at_quick_exit              00000001800d2620 f   LIBCMTD:utility.obj
 0001:000d1690       atexit                     00000001800d2690 f   LIBCMTD:utility.obj
 0001:000d16d0       __security_init_cookie     00000001800d26d0 f   LIBCMTD:gs_support.obj
 0001:000d1830       DllMain                    00000001800d2830 f   LIBCMTD:dll_dllmain_stub.obj
 0001:000d1850       ?__scrt_initialize_type_info@@YAXXZ 00000001800d2850 f   LIBCMTD:tncleanup.obj
 0001:000d1870       ?__scrt_uninitialize_type_info@@YAXXZ 00000001800d2870 f   LIBCMTD:tncleanup.obj
 0001:000d1890       __local_stdio_scanf_options 00000001800d2890 f i LIBCMTD:default_local_stdio_options.obj
 0001:000d18a0       __scrt_initialize_default_local_stdio_options 00000001800d28a0 f   LIBCMTD:default_local_stdio_options.obj
 0001:000d1900       __scrt_get_dyn_tls_init_callback 00000001800d2900 f   LIBCMTD:dyn_tls_init.obj
 0001:000d1910       __crt_debugger_hook        00000001800d2910 f   LIBCMTD:utility_desktop.obj
 0001:000d1930       __scrt_fastfail            00000001800d2930 f   LIBCMTD:utility_desktop.obj
 0001:000d1b30       __scrt_get_show_window_mode 00000001800d2b30 f   LIBCMTD:utility_desktop.obj
 0001:000d1ba0       __scrt_initialize_winrt    00000001800d2ba0 f   LIBCMTD:utility_desktop.obj
 0001:000d1bb0       __scrt_is_managed_app      00000001800d2bb0 f   LIBCMTD:utility_desktop.obj
 0001:000d1c80       __scrt_set_unhandled_exception_filter 00000001800d2c80 f   LIBCMTD:utility_desktop.obj
 0001:000d1ca0       __scrt_unhandled_exception_filter 00000001800d2ca0 f   LIBCMTD:utility_desktop.obj
 0001:000d1d30       _RTC_Initialize            00000001800d2d30 f   LIBCMTD:_initsect_.obj
 0001:000d1d90       _RTC_Terminate             00000001800d2d90 f   LIBCMTD:_initsect_.obj
 0001:000d1df0       _guard_check_icall         00000001800d2df0 f i LIBCMTD:checkcfg.obj
 0001:000d2430       ?_RTC_GetSrcLine@@YAHPEAEPEA_WKPEAH1K@Z 00000001800d3430 f   LIBCMTD:_pdblkup_.obj
 0001:000d29c0       __GSHandlerCheck           00000001800d39c0 f   LIBCMTD:_gshandler_.obj
 0001:000d2a10       __GSHandlerCheckCommon     00000001800d3a10 f   LIBCMTD:_gshandler_.obj
 0001:000d2b60       __security_check_cookie    00000001800d3b60 f   LIBCMTD:_amdsecgs_.obj
 0001:000d2b90       ??1type_info@@UEAA@XZ      00000001800d3b90 f   LIBCMTD:std_type_info_static.obj
 0001:000d2bb0       ??_Gtype_info@@UEAAPEAXI@Z 00000001800d3bb0 f i LIBCMTD:std_type_info_static.obj
 0001:000d2bb0       ??_Etype_info@@UEAAPEAXI@Z 00000001800d3bb0 f i LIBCMTD:std_type_info_static.obj
 0001:000d2c00       __isa_available_init       00000001800d3c00 f   LIBCMTD:_cpu_disp_.obj
 0001:000d3060       _get_startup_argv_mode     00000001800d4060 f   LIBCMTD:argv_mode.obj
 0001:000d3070       __scrt_is_ucrt_dll_in_use  00000001800d4070 f   LIBCMTD:ucrt_detection.obj
 0001:000d30a0       _guard_check_icall_nop     00000001800d40a0 f i LIBCMTD:guard_support.obj
 0001:000d30b0       _guard_icall_checks_enforced 00000001800d40b0 f i LIBCMTD:guard_support.obj
 0001:000d30f0       __raise_securityfailure    00000001800d40f0 f   LIBCMTD:gs_report.obj
 0001:000d3140       __report_gsfailure         00000001800d4140 f   LIBCMTD:gs_report.obj
 0001:000d3250       __report_rangecheckfailure 00000001800d4250 f   LIBCMTD:gs_report.obj
 0001:000d3270       __report_securityfailure   00000001800d4270 f   LIBCMTD:gs_report.obj
 0001:000d3340       __report_securityfailureEx 00000001800d4340 f   LIBCMTD:gs_report.obj
 0001:000d3640       ??$__crt_fast_decode_pointer@P6AXXZ@@YAP6AXXZQ6AXXZ@Z 00000001800d4640 f i libvcruntimed:purevirt.obj
 0001:000d3690       ??$__crt_fast_encode_pointer@P6AXXZ@@YAP6AXXZQ6AXXZ@Z 00000001800d4690 f i libvcruntimed:purevirt.obj
 0001:000d36e0       ??$__crt_interlocked_compare_exchange_pointer@$$A6AXXZ$$T$$T@@YAP6AXXZPEDS6AXXZ$$T1@Z 00000001800d46e0 f i libvcruntimed:purevirt.obj
 0001:000d3730       ??$__crt_interlocked_exchange_pointer@$$A6AXXZP6AXXZ@@YAP6AXXZPEDS6AXXZQ6AXXZ@Z 00000001800d4730 f i libvcruntimed:purevirt.obj
 0001:000d3750       ??$__crt_interlocked_read_pointer@$$A6AXXZ@@YAP6AXXZPEDS6AXXZ@Z 00000001800d4750 f i libvcruntimed:purevirt.obj
 0001:000d3780       _get_purecall_handler      00000001800d4780 f   libvcruntimed:purevirt.obj
 0001:000d37b0       _purecall                  00000001800d47b0 f   libvcruntimed:purevirt.obj
 0001:000d3800       _set_purecall_handler      00000001800d4800 f   libvcruntimed:purevirt.obj
 0001:000d3850       memcpy                     00000001800d4850 f   libvcruntimed:memcpy.obj
 0001:000d3850       memmove                    00000001800d4850 f   libvcruntimed:memcpy.obj
 0001:000d3db0       memset                     00000001800d4db0 f   libvcruntimed:memset.obj
 0001:000d3fc0       __C_specific_handler       00000001800d4fc0 f   libvcruntimed:_chandler_.obj
 0001:000d4510       ??$?RD@__crt_public_free_policy@@QEBAXQEBD@Z 00000001800d5510 f i libvcruntimed:std_exception.obj
 0001:000d4540       ??0?$__crt_unique_heap_ptr@DU__crt_public_free_policy@@@@QEAA@QEAD@Z 00000001800d5540 f i libvcruntimed:std_exception.obj
 0001:000d4570       ??1?$__crt_unique_heap_ptr@DU__crt_public_free_policy@@@@QEAA@XZ 00000001800d5570 f i libvcruntimed:std_exception.obj
 0001:000d4590       ??B?$__crt_unique_heap_ptr@DU__crt_public_free_policy@@@@QEBA_NXZ 00000001800d5590 f i libvcruntimed:std_exception.obj
 0001:000d45b0       ?detach@?$__crt_unique_heap_ptr@DU__crt_public_free_policy@@@@QEAAPEADXZ 00000001800d55b0 f i libvcruntimed:std_exception.obj
 0001:000d45f0       ?get@?$__crt_unique_heap_ptr@DU__crt_public_free_policy@@@@QEBAPEADXZ 00000001800d55f0 f i libvcruntimed:std_exception.obj
 0001:000d4610       ?is_valid@?$__crt_unique_heap_ptr@DU__crt_public_free_policy@@@@QEBA_NXZ 00000001800d5610 f i libvcruntimed:std_exception.obj
 0001:000d4650       ?release@?$__crt_unique_heap_ptr@DU__crt_public_free_policy@@@@QEAAXXZ 00000001800d5650 f i libvcruntimed:std_exception.obj
 0001:000d4690       __std_exception_copy       00000001800d5690 f   libvcruntimed:std_exception.obj
 0001:000d4810       __std_exception_destroy    00000001800d5810 f   libvcruntimed:std_exception.obj
 0001:000d4860       _CxxThrowException         00000001800d5860 f   libvcruntimed:throw.obj
 0001:000d49f0       __vcrt_initialize          00000001800d59f0 f   libvcruntimed:initialization.obj
 0001:000d4a40       __vcrt_thread_attach       00000001800d5a40 f   libvcruntimed:initialization.obj
 0001:000d4a60       __vcrt_thread_detach       00000001800d5a60 f   libvcruntimed:initialization.obj
 0001:000d4a80       __vcrt_uninitialize        00000001800d5a80 f   libvcruntimed:initialization.obj
 0001:000d4ab0       __vcrt_uninitialize_critical 00000001800d5ab0 f   libvcruntimed:initialization.obj
 0001:000d4b20       ??$?RD@__crt_internal_free_policy@@QEBAXQEBD@Z 00000001800d5b20 f i libvcruntimed:std_type_info.obj
 0001:000d4b50       ??$?RX@__crt_internal_free_policy@@QEBAXQEBX@Z 00000001800d5b50 f i libvcruntimed:std_type_info.obj
 0001:000d4b80       ??$__crt_interlocked_compare_exchange_pointer@$$CBD$$T$$T@@YAPEBDPEDSEBD$$T1@Z 00000001800d5b80 f i libvcruntimed:std_type_info.obj
 0001:000d4bd0       ??$__crt_interlocked_compare_exchange_pointer@$$CBDPEAD$$T@@YAPEBDPEDSEBDQEAD$$T@Z 00000001800d5bd0 f i libvcruntimed:std_type_info.obj
 0001:000d4c20       ??$__crt_interlocked_read_pointer@$$CBD@@YAPEBDPEDSEBD@Z 00000001800d5c20 f i libvcruntimed:std_type_info.obj
 0001:000d4c50       ??0?$__crt_unique_heap_ptr@DU__crt_internal_free_policy@@@@QEAA@QEAD@Z 00000001800d5c50 f i libvcruntimed:std_type_info.obj
 0001:000d4c80       ??0?$__crt_unique_heap_ptr@XU__crt_internal_free_policy@@@@QEAA@QEAX@Z 00000001800d5c80 f i libvcruntimed:std_type_info.obj
 0001:000d4cb0       ??1?$__crt_unique_heap_ptr@DU__crt_internal_free_policy@@@@QEAA@XZ 00000001800d5cb0 f i libvcruntimed:std_type_info.obj
 0001:000d4cd0       ??1?$__crt_unique_heap_ptr@XU__crt_internal_free_policy@@@@QEAA@XZ 00000001800d5cd0 f i libvcruntimed:std_type_info.obj
 0001:000d4d10       ??B?$__crt_unique_heap_ptr@DU__crt_internal_free_policy@@@@QEBA_NXZ 00000001800d5d10 f i libvcruntimed:std_type_info.obj
 0001:000d4d30       ??B?$__crt_unique_heap_ptr@XU__crt_internal_free_policy@@@@QEBA_NXZ 00000001800d5d30 f i libvcruntimed:std_type_info.obj
 0001:000d4dc0       ?detach@?$__crt_unique_heap_ptr@XU__crt_internal_free_policy@@@@QEAAPEAXXZ 00000001800d5dc0 f i libvcruntimed:std_type_info.obj
 0001:000d4e00       ?get@?$__crt_unique_heap_ptr@DU__crt_internal_free_policy@@@@QEBAPEADXZ 00000001800d5e00 f i libvcruntimed:std_type_info.obj
 0001:000d4e20       ?get@?$__crt_unique_heap_ptr@XU__crt_internal_free_policy@@@@QEBAPEAXXZ 00000001800d5e20 f i libvcruntimed:std_type_info.obj
 0001:000d4e40       ?is_valid@?$__crt_unique_heap_ptr@DU__crt_internal_free_policy@@@@QEBA_NXZ 00000001800d5e40 f i libvcruntimed:std_type_info.obj
 0001:000d4e80       ?is_valid@?$__crt_unique_heap_ptr@XU__crt_internal_free_policy@@@@QEBA_NXZ 00000001800d5e80 f i libvcruntimed:std_type_info.obj
 0001:000d4ec0       ?release@?$__crt_unique_heap_ptr@DU__crt_internal_free_policy@@@@QEAAXXZ 00000001800d5ec0 f i libvcruntimed:std_type_info.obj
 0001:000d4f00       ?release@?$__crt_unique_heap_ptr@XU__crt_internal_free_policy@@@@QEAAXXZ 00000001800d5f00 f i libvcruntimed:std_type_info.obj
 0001:000d4f40       __std_type_info_compare    00000001800d5f40 f   libvcruntimed:std_type_info.obj
 0001:000d4f90       __std_type_info_destroy_list 00000001800d5f90 f   libvcruntimed:std_type_info.obj
 0001:000d5000       __std_type_info_hash       00000001800d6000 f   libvcruntimed:std_type_info.obj
 0001:000d50e0       __std_type_info_name       00000001800d60e0 f   libvcruntimed:std_type_info.obj
 0001:000d5460       __vcrt_GetModuleFileNameW  00000001800d6460 f   libvcruntimed:winapi_thunks.obj
 0001:000d54a0       __vcrt_GetModuleHandleW    00000001800d64a0 f   libvcruntimed:winapi_thunks.obj
 0001:000d54c0       __vcrt_LoadLibraryExW      00000001800d64c0 f   libvcruntimed:winapi_thunks.obj
 0001:000d5500       ??$?B$$A6AXXZ@__crt_fast_encoded_nullptr_t@@QEBAP6AXXZXZ 00000001800d6500 f i libvcruntimed:purevirt_data.obj
 0001:000d5520       ?__crt_fast_encode_pointer@@YA?AU__crt_fast_encoded_nullptr_t@@$$T@Z 00000001800d6520 f i libvcruntimed:purevirt_data.obj
 0001:000d5540       __vcrt_initialize_pure_virtual_call_handler 00000001800d6540 f   libvcruntimed:purevirt_data.obj
 0001:000d5580       _local_unwind              00000001800d6580 f   libvcruntimed:_jmpuwind_.obj
 0001:000d55b0       _NLG_Notify                00000001800d65b0 f   libvcruntimed:_jmpuwind_.obj
 0001:000d55d0       __NLG_Dispatch2            00000001800d65d0 f   libvcruntimed:_jmpuwind_.obj
 0001:000d55e0       __NLG_Return2              00000001800d65e0 f   libvcruntimed:_jmpuwind_.obj
 0001:000d5600       __except_validate_context_record 00000001800d6600 f   libvcruntimed:jbcxrval.obj
 0001:000d5670       __except_validate_jump_buffer 00000001800d6670 f   libvcruntimed:jbcxrval.obj
 0001:000d5700       ??$?RU__vcrt_ptd@@@__crt_internal_free_policy@@QEBAXQEBU__vcrt_ptd@@@Z 00000001800d6700 f i libvcruntimed:per_thread_data.obj
 0001:000d5730       ??0?$__crt_unique_heap_ptr@U__vcrt_ptd@@U__crt_internal_free_policy@@@@QEAA@QEAU__vcrt_ptd@@@Z 00000001800d6730 f i libvcruntimed:per_thread_data.obj
 0001:000d5790       ??1?$__crt_unique_heap_ptr@U__vcrt_ptd@@U__crt_internal_free_policy@@@@QEAA@XZ 00000001800d6790 f i libvcruntimed:per_thread_data.obj
 0001:000d57e0       ??B?$__crt_unique_heap_ptr@U__vcrt_ptd@@U__crt_internal_free_policy@@@@QEBA_NXZ 00000001800d67e0 f i libvcruntimed:per_thread_data.obj
 0001:000d5800       ?detach@?$__crt_unique_heap_ptr@U__vcrt_ptd@@U__crt_internal_free_policy@@@@QEAAPEAU__vcrt_ptd@@XZ 00000001800d6800 f i libvcruntimed:per_thread_data.obj
 0001:000d5840       ?get@?$__crt_unique_heap_ptr@U__vcrt_ptd@@U__crt_internal_free_policy@@@@QEBAPEAU__vcrt_ptd@@XZ 00000001800d6840 f i libvcruntimed:per_thread_data.obj
 0001:000d5860       ?is_valid@?$__crt_unique_heap_ptr@U__vcrt_ptd@@U__crt_internal_free_policy@@@@QEBA_NXZ 00000001800d6860 f i libvcruntimed:per_thread_data.obj
 0001:000d58a0       ?release@?$__crt_unique_heap_ptr@U__vcrt_ptd@@U__crt_internal_free_policy@@@@QEAAXXZ 00000001800d68a0 f i libvcruntimed:per_thread_data.obj
 0001:000d5920       __vcrt_freefls             00000001800d6920 f   libvcruntimed:per_thread_data.obj
 0001:000d5970       __vcrt_freeptd             00000001800d6970 f   libvcruntimed:per_thread_data.obj
 0001:000d59f0       __vcrt_getptd              00000001800d69f0 f   libvcruntimed:per_thread_data.obj
 0001:000d5a20       __vcrt_getptd_noexit       00000001800d6a20 f   libvcruntimed:per_thread_data.obj
 0001:000d5c30       __vcrt_initialize_ptd      00000001800d6c30 f   libvcruntimed:per_thread_data.obj
 0001:000d5c90       __vcrt_uninitialize_ptd    00000001800d6c90 f   libvcruntimed:per_thread_data.obj
 0001:000d5cd0       __vcrt_initialize_locks    00000001800d6cd0 f   libvcruntimed:locks.obj
 0001:000d5d60       __vcrt_lock                00000001800d6d60 f   libvcruntimed:locks.obj
 0001:000d5da0       __vcrt_uninitialize_locks  00000001800d6da0 f   libvcruntimed:locks.obj
 0001:000d5e10       __vcrt_unlock              00000001800d6e10 f   libvcruntimed:locks.obj
 0001:000d5e50       ??$?BX@__crt_fast_encoded_nullptr_t@@QEBAPEAXXZ 00000001800d6e50 f i libvcruntimed:winapi_downlevel.obj
 0001:000d5e70       ??$__crt_fast_decode_pointer@PEAX@@YAPEAXQEAX@Z 00000001800d6e70 f i libvcruntimed:winapi_downlevel.obj
 0001:000d5ec0       ??$__crt_fast_encode_pointer@PEAX@@YAPEAXQEAX@Z 00000001800d6ec0 f i libvcruntimed:winapi_downlevel.obj
 0001:000d5f10       ??$__crt_interlocked_compare_exchange_pointer@UHINSTANCE__@@$$T$$T@@YAPEAUHINSTANCE__@@PEDSEAU0@$$T1@Z 00000001800d6f10 f i libvcruntimed:winapi_downlevel.obj
 0001:000d5f60       ??$__crt_interlocked_compare_exchange_pointer@X$$T$$T@@YAPEAXPEDSEAX$$T1@Z 00000001800d6f60 f i libvcruntimed:winapi_downlevel.obj
 0001:000d5fb0       ??$__crt_interlocked_exchange_pointer@UHINSTANCE__@@PEAU1@@@YAPEAUHINSTANCE__@@PEDSEAU0@QEAU0@@Z 00000001800d6fb0 f i libvcruntimed:winapi_downlevel.obj
 0001:000d5fd0       ??$__crt_interlocked_exchange_pointer@UHINSTANCE__@@PEAX@@YAPEAUHINSTANCE__@@PEDSEAU0@QEAX@Z 00000001800d6fd0 f i libvcruntimed:winapi_downlevel.obj
 0001:000d5ff0       ??$__crt_interlocked_exchange_pointer@XPEAX@@YAPEAXPEDSEAXQEAX@Z 00000001800d6ff0 f i libvcruntimed:winapi_downlevel.obj
 0001:000d6010       ??$__crt_interlocked_read_pointer@UHINSTANCE__@@@@YAPEAUHINSTANCE__@@PEDSEAU0@@Z 00000001800d7010 f i libvcruntimed:winapi_downlevel.obj
 0001:000d6040       ??$__crt_interlocked_read_pointer@X@@YAPEAXPEDSEAX@Z 00000001800d7040 f i libvcruntimed:winapi_downlevel.obj
 0001:000d67d0       __vcrt_EventRegister       00000001800d77d0 f   libvcruntimed:winapi_downlevel.obj
 0001:000d6850       __vcrt_EventSetInformation 00000001800d7850 f   libvcruntimed:winapi_downlevel.obj
 0001:000d68d0       __vcrt_EventUnregister     00000001800d78d0 f   libvcruntimed:winapi_downlevel.obj
 0001:000d6930       __vcrt_EventWriteTransfer  00000001800d7930 f   libvcruntimed:winapi_downlevel.obj
 0001:000d69d0       __vcrt_FlsAlloc            00000001800d79d0 f   libvcruntimed:winapi_downlevel.obj
 0001:000d6a30       __vcrt_FlsFree             00000001800d7a30 f   libvcruntimed:winapi_downlevel.obj
 0001:000d6a90       __vcrt_FlsGetValue         00000001800d7a90 f   libvcruntimed:winapi_downlevel.obj
 0001:000d6af0       __vcrt_FlsSetValue         00000001800d7af0 f   libvcruntimed:winapi_downlevel.obj
 0001:000d6b60       __vcrt_InitializeCriticalSectionEx 00000001800d7b60 f   libvcruntimed:winapi_downlevel.obj
 0001:000d6be0       __vcrt_initialize_winapi_thunks 00000001800d7be0 f   libvcruntimed:winapi_downlevel.obj
 0001:000d6c80       __vcrt_uninitialize_winapi_thunks 00000001800d7c80 f   libvcruntimed:winapi_downlevel.obj
 0001:000d6d40       ??0Block@_HeapManager@@QEAA@XZ 00000001800d7d40 f i libvcruntimed:undname.obj
 0001:000d6d60       ??0DName@@QEAA@AEAPEBDD@Z  00000001800d7d60 f   libvcruntimed:undname.obj
 0001:000d7180       ??0DName@@QEAA@AEBV0@@Z    00000001800d8180 f i libvcruntimed:undname.obj
 0001:000d71b0       ??0DName@@QEAA@D@Z         00000001800d81b0 f   libvcruntimed:undname.obj
 0001:000d72f0       ??0DName@@QEAA@PEAV0@@Z    00000001800d82f0 f   libvcruntimed:undname.obj
 0001:000d74d0       ??0DName@@QEAA@PEBD@Z      00000001800d84d0 f   libvcruntimed:undname.obj
 0001:000d7620       ??0DName@@QEAA@W4DNameStatus@@@Z 00000001800d8620 f   libvcruntimed:undname.obj
 0001:000d77c0       ??0DName@@QEAA@XZ          00000001800d87c0 f i libvcruntimed:undname.obj
 0001:000d78c0       ??0DName@@QEAA@_J@Z        00000001800d88c0 f   libvcruntimed:undname.obj
 0001:000d7af0       ??0DName@@QEAA@_K@Z        00000001800d8af0 f   libvcruntimed:undname.obj
 0001:000d7cd0       ??0DNameNode@@IEAA@XZ      00000001800d8cd0 f   libvcruntimed:undname.obj
 0001:000d7cf0       ??0DNameStatusNode@@AEAA@W4DNameStatus@@@Z 00000001800d8cf0 f   libvcruntimed:undname.obj
 0001:000d7d70       ??0Replicator@@QEAA@XZ     00000001800d8d70 f i libvcruntimed:undname.obj
 0001:000d7d90       ??0UnDecorator@@QEAA@PEADPEBDHP6APEADJ@ZK@Z 00000001800d8d90 f i libvcruntimed:undname.obj
 0001:000d7e90       ??0charNode@@QEAA@D@Z      00000001800d8e90 f   libvcruntimed:undname.obj
 0001:000d7ee0       ??0pDNameNode@@QEAA@PEAVDName@@@Z 00000001800d8ee0 f   libvcruntimed:undname.obj
 0001:000d7f80       ??0pairNode@@QEAA@PEAVDNameNode@@0@Z 00000001800d8f80 f   libvcruntimed:undname.obj
 0001:000d8000       ??0pcharNode@@QEAA@PEBDH@Z 00000001800d9000 f   libvcruntimed:undname.obj
 0001:000d8100       ??2@YAPEAX_KAEAV_HeapManager@@H@Z 00000001800d9100 f i libvcruntimed:undname.obj
 0001:000d8140       ??4DName@@QEAAAEAV0@AEBV0@@Z 00000001800d9140 f   libvcruntimed:undname.obj
 0001:000d8170       ??4DName@@QEAAAEAV0@D@Z    00000001800d9170 f i libvcruntimed:undname.obj
 0001:000d82b0       ??4DName@@QEAAAEAV0@PEAV0@@Z 00000001800d92b0 f   libvcruntimed:undname.obj
 0001:000d8480       ??4DName@@QEAAAEAV0@PEBD@Z 00000001800d9480 f   libvcruntimed:undname.obj
 0001:000d85c0       ??4DName@@QEAAAEAV0@W4DNameStatus@@@Z 00000001800d95c0 f   libvcruntimed:undname.obj
 0001:000d8730       ??AReplicator@@QEBA?AVDName@@H@Z 00000001800d9730 f   libvcruntimed:undname.obj
 0001:000d87e0       ??BUnDecorator@@QEAAPEADXZ 00000001800d97e0 f i libvcruntimed:undname.obj
 0001:000d8be0       ??H@YA?AVDName@@DAEBV0@@Z  00000001800d9be0 f i libvcruntimed:undname.obj
 0001:000d8c30       ??H@YA?AVDName@@PEBDAEBV0@@Z 00000001800d9c30 f i libvcruntimed:undname.obj
 0001:000d8c80       ??H@YA?AVDName@@W4DNameStatus@@AEBV0@@Z 00000001800d9c80 f i libvcruntimed:undname.obj
 0001:000d8cd0       ??HDName@@QEBA?AV0@AEBV0@@Z 00000001800d9cd0 f   libvcruntimed:undname.obj
 0001:000d8d30       ??HDName@@QEBA?AV0@D@Z     00000001800d9d30 f   libvcruntimed:undname.obj
 0001:000d8d90       ??HDName@@QEBA?AV0@PEAV0@@Z 00000001800d9d90 f   libvcruntimed:undname.obj
 0001:000d8df0       ??HDName@@QEBA?AV0@PEBD@Z  00000001800d9df0 f   libvcruntimed:undname.obj
 0001:000d8e50       ??HDName@@QEBA?AV0@W4DNameStatus@@@Z 00000001800d9e50 f   libvcruntimed:undname.obj
 0001:000d8eb0       ??YDName@@QEAAAEAV0@AEBV0@@Z 00000001800d9eb0 f   libvcruntimed:undname.obj
 0001:000d8f50       ??YDName@@QEAAAEAV0@D@Z    00000001800d9f50 f   libvcruntimed:undname.obj
 0001:000d9020       ??YDName@@QEAAAEAV0@PEAV0@@Z 00000001800da020 f   libvcruntimed:undname.obj
 0001:000d9140       ??YDName@@QEAAAEAV0@PEBD@Z 00000001800da140 f   libvcruntimed:undname.obj
 0001:000d9230       ??YDName@@QEAAAEAV0@W4DNameStatus@@@Z 00000001800da230 f   libvcruntimed:undname.obj
 0001:000d92c0       ??YReplicator@@QEAAAEAV0@AEBVDName@@@Z 00000001800da2c0 f   libvcruntimed:undname.obj
 0001:000d93b0       ??_5DName@@QEAAAEAV0@AEBV0@@Z 00000001800da3b0 f   libvcruntimed:undname.obj
 0001:000d9430       ?Constructor@_HeapManager@@QEAAXP6APEAX_K@ZP6AXPEAX@Z@Z 00000001800da430 f i libvcruntimed:undname.obj
 0001:000d94a0       ?Destructor@_HeapManager@@QEAAXXZ 00000001800da4a0 f i libvcruntimed:undname.obj
 0001:000d9540       ?UScore@UnDecorator@@SAPEBDW4Tokens@@@Z 00000001800da540 f   libvcruntimed:undname.obj
 0001:000d9590       ?append@DName@@AEAAXPEAVDNameNode@@@Z 00000001800da590 f   libvcruntimed:undname.obj
 0001:000d9670       ?composeDeclaration@UnDecorator@@CA?AVDName@@AEBV2@@Z 00000001800da670 f i libvcruntimed:undname.obj
 0001:000dbf60       ?dbGetString@DName@@QEBAPEADXZ 00000001800dcf60 f   libvcruntimed:undname.obj
 0001:000dbfa0       ?doAccessSpecifiers@UnDecorator@@SAHXZ 00000001800dcfa0 f i libvcruntimed:undname.obj
 0001:000dbfe0       ?doAllocationLanguage@UnDecorator@@SAHXZ 00000001800dcfe0 f i libvcruntimed:undname.obj
 0001:000dc020       ?doAllocationModel@UnDecorator@@SAHXZ 00000001800dd020 f i libvcruntimed:undname.obj
 0001:000dc060       ?doEcsu@UnDecorator@@SAHXZ 00000001800dd060 f i libvcruntimed:undname.obj
 0001:000dc0a0       ?doEllipsis@UnDecorator@@SAHXZ 00000001800dd0a0 f i libvcruntimed:undname.obj
 0001:000dc0e0       ?doFunctionReturns@UnDecorator@@SAHXZ 00000001800dd0e0 f i libvcruntimed:undname.obj
 0001:000dc120       ?doMSKeywords@UnDecorator@@SAHXZ 00000001800dd120 f i libvcruntimed:undname.obj
 0001:000dc160       ?doMemberTypes@UnDecorator@@SAHXZ 00000001800dd160 f i libvcruntimed:undname.obj
 0001:000dc1a0       ?doNameOnly@UnDecorator@@SAHXZ 00000001800dd1a0 f i libvcruntimed:undname.obj
 0001:000dc1b0       ?doNoIdentCharCheck@UnDecorator@@SAHXZ 00000001800dd1b0 f i libvcruntimed:undname.obj
 0001:000dc1c0       ?doPchar@DName@@AEAAXPEBDH@Z 00000001800dd1c0 f   libvcruntimed:undname.obj
 0001:000dc3b0       ?doPtr64@UnDecorator@@SAHXZ 00000001800dd3b0 f i libvcruntimed:undname.obj
 0001:000dc3f0       ?doRestrictionSpec@UnDecorator@@SAHXZ 00000001800dd3f0 f i libvcruntimed:undname.obj
 0001:000dc430       ?doThisTypes@UnDecorator@@SAHXZ 00000001800dd430 f i libvcruntimed:undname.obj
 0001:000dc470       ?doThrowTypes@UnDecorator@@SAHXZ 00000001800dd470 f i libvcruntimed:undname.obj
 0001:000dc4b0       ?doTypeOnly@UnDecorator@@SAHXZ 00000001800dd4b0 f i libvcruntimed:undname.obj
 0001:000dc4c0       ?doUnderScore@UnDecorator@@SAHXZ 00000001800dd4c0 f i libvcruntimed:undname.obj
 0001:000dc500       ?getArgumentList@UnDecorator@@CA?AVDName@@XZ 00000001800dd500 f   libvcruntimed:undname.obj
 0001:000dc700       ?getArgumentTypes@UnDecorator@@CA?AVDName@@XZ 00000001800dd700 f   libvcruntimed:undname.obj
 0001:000dc930       ?getArrayType@UnDecorator@@CA?AVDName@@AEBV2@@Z 00000001800dd930 f i libvcruntimed:undname.obj
 0001:000dcce0       ?getBasedType@UnDecorator@@CA?AVDName@@XZ 00000001800ddce0 f   libvcruntimed:undname.obj
 0001:000dce10       ?getBasicDataType@UnDecorator@@CA?AVDName@@AEBV2@@Z 00000001800dde10 f   libvcruntimed:undname.obj
 0001:000dd730       ?getCallIndex@UnDecorator@@CA?AVDName@@XZ 00000001800de730 f i libvcruntimed:undname.obj
 0001:000dd760       ?getCallingConvention@UnDecorator@@CA?AVDName@@XZ 00000001800de760 f   libvcruntimed:undname.obj
 0001:000dd9d0       ?getDataIndirectType@UnDecorator@@CA?AVDName@@AEBV2@PEBD0H@Z 00000001800de9d0 f   libvcruntimed:undname.obj
 0001:000de6b0       ?getDataIndirectType@UnDecorator@@CA?AVDName@@XZ 00000001800df6b0 f i libvcruntimed:undname.obj
 0001:000de720       ?getDataType@UnDecorator@@CA?AVDName@@PEAV2@@Z 00000001800df720 f   libvcruntimed:undname.obj
 0001:000de910       ?getDecoratedName@UnDecorator@@CA?AVDName@@XZ 00000001800df910 f   libvcruntimed:undname.obj
 0001:000dee10       ?getDimension@UnDecorator@@CA?AVDName@@_N@Z 00000001800dfe10 f   libvcruntimed:undname.obj
 0001:000df250       ?getDispatchTarget@UnDecorator@@CA?AVDName@@XZ 00000001800e0250 f   libvcruntimed:undname.obj
 0001:000df350       ?getDisplacement@UnDecorator@@CA?AVDName@@XZ 00000001800e0350 f i libvcruntimed:undname.obj
 0001:000df380       ?getECSUDataType@UnDecorator@@CA?AVDName@@XZ 00000001800e0380 f   libvcruntimed:undname.obj
 0001:000df650       ?getECSUName@UnDecorator@@CA?AVDName@@XZ 00000001800e0650 f i libvcruntimed:undname.obj
 0001:000df680       ?getEnumType@UnDecorator@@CA?AVDName@@XZ 00000001800e0680 f i libvcruntimed:undname.obj
 0001:000df860       ?getExtendedDataIndirectType@UnDecorator@@CA?AVDName@@AEAPEBDAEA_NH@Z 00000001800e0860 f   libvcruntimed:undname.obj
 0001:000dfc50       ?getExternalDataType@UnDecorator@@CA?AVDName@@AEBV2@@Z 00000001800e0c50 f i libvcruntimed:undname.obj
 0001:000dfd50       ?getFunctionIndirectType@UnDecorator@@CA?AVDName@@AEBV2@@Z 00000001800e0d50 f   libvcruntimed:undname.obj
 0001:000e0450       ?getGuardNumber@UnDecorator@@CA?AVDName@@XZ 00000001800e1450 f i libvcruntimed:undname.obj
 0001:000e0480       ?getLastChar@DName@@QEBADXZ 00000001800e1480 f i libvcruntimed:undname.obj
 0001:000e04f0       ?getLastChar@DNameStatusNode@@UEBADXZ 00000001800e14f0 f i libvcruntimed:undname.obj
 0001:000e0540       ?getLastChar@charNode@@UEBADXZ 00000001800e1540 f i libvcruntimed:undname.obj
 0001:000e0560       ?getLastChar@pDNameNode@@UEBADXZ 00000001800e1560 f i libvcruntimed:undname.obj
 0001:000e05b0       ?getLastChar@pairNode@@UEBADXZ 00000001800e15b0 f i libvcruntimed:undname.obj
 0001:000e0670       ?getLastChar@pcharNode@@UEBADXZ 00000001800e1670 f i libvcruntimed:undname.obj
 0001:000e06c0       ?getLexicalFrame@UnDecorator@@CA?AVDName@@XZ 00000001800e16c0 f i libvcruntimed:undname.obj
 0001:000e0710       ?getMemory@_HeapManager@@QEAAPEAX_KH@Z 00000001800e1710 f   libvcruntimed:undname.obj
 0001:000e08f0       ?getNumberOfDimensions@UnDecorator@@CAHXZ 00000001800e18f0 f   libvcruntimed:undname.obj
 0001:000e0a60       ?getOperatorName@UnDecorator@@CA?AVDName@@_NPEA_N@Z 00000001800e1a60 f i libvcruntimed:undname.obj
 0001:000e1b40       ?getPointerType@UnDecorator@@CA?AVDName@@AEBV2@0@Z 00000001800e2b40 f i libvcruntimed:undname.obj
 0001:000e1ba0       ?getPointerTypeArray@UnDecorator@@CA?AVDName@@AEBV2@0@Z 00000001800e2ba0 f i libvcruntimed:undname.obj
 0001:000e1c00       ?getPrimaryDataType@UnDecorator@@CA?AVDName@@AEBV2@@Z 00000001800e2c00 f   libvcruntimed:undname.obj
 0001:000e2220       ?getPtrRefDataType@UnDecorator@@CA?AVDName@@AEBV2@H@Z 00000001800e3220 f   libvcruntimed:undname.obj
 0001:000e2470       ?getPtrRefType@UnDecorator@@CA?AVDName@@AEBV2@0PEBD@Z 00000001800e3470 f   libvcruntimed:undname.obj
 0001:000e2710       ?getReferenceType@UnDecorator@@CA?AVDName@@AEBV2@0PEBD@Z 00000001800e3710 f i libvcruntimed:undname.obj
 0001:000e2760       ?getRestrictionSpec@UnDecorator@@CA?AVDName@@XZ 00000001800e3760 f   libvcruntimed:undname.obj
 0001:000e2960       ?getReturnType@UnDecorator@@CA?AVDName@@PEAV2@@Z 00000001800e3960 f   libvcruntimed:undname.obj
 0001:000e29e0       ?getScope@UnDecorator@@CA?AVDName@@XZ 00000001800e39e0 f   libvcruntimed:undname.obj
 0001:000e3150       ?getScopedName@UnDecorator@@CA?AVDName@@XZ 00000001800e4150 f   libvcruntimed:undname.obj
 0001:000e3310       ?getSignedDimension@UnDecorator@@CA?AVDName@@XZ 00000001800e4310 f   libvcruntimed:undname.obj
 0001:000e33c0       ?getStorageConvention@UnDecorator@@CA?AVDName@@XZ 00000001800e43c0 f i libvcruntimed:undname.obj
 0001:000e33f0       ?getString@DName@@QEBAPEADPEAD0@Z 00000001800e43f0 f i libvcruntimed:undname.obj
 0001:000e3480       ?getString@DName@@QEBAPEADPEADH@Z 00000001800e4480 f i libvcruntimed:undname.obj
 0001:000e3560       ?getString@DNameStatusNode@@UEBAPEADPEAD0@Z 00000001800e4560 f i libvcruntimed:undname.obj
 0001:000e35c0       ?getString@charNode@@UEBAPEADPEAD0@Z 00000001800e45c0 f i libvcruntimed:undname.obj
 0001:000e3610       ?getString@pDNameNode@@UEBAPEADPEAD0@Z 00000001800e4610 f i libvcruntimed:undname.obj
 0001:000e3680       ?getString@pairNode@@UEBAPEADPEAD0@Z 00000001800e4680 f i libvcruntimed:undname.obj
 0001:000e3770       ?getString@pcharNode@@UEBAPEADPEAD0@Z 00000001800e4770 f i libvcruntimed:undname.obj
 0001:000e37c0       ?getStringEncoding@UnDecorator@@CA?AVDName@@PEADH@Z 00000001800e47c0 f   libvcruntimed:undname.obj
 0001:000e3950       ?getStringHelper@@YAPEADPEAD00H@Z 00000001800e4950 f i libvcruntimed:undname.obj
 0001:000e39d0       ?getSymbolName@UnDecorator@@CA?AVDName@@XZ 00000001800e49d0 f i libvcruntimed:undname.obj
 0001:000e3a90       ?getTemplateArgumentList@UnDecorator@@CA?AVDName@@XZ 00000001800e4a90 f   libvcruntimed:undname.obj
 0001:000e4020       ?getTemplateConstant@UnDecorator@@CA?AVDName@@XZ 00000001800e5020 f   libvcruntimed:undname.obj
 0001:000e4870       ?getTemplateName@UnDecorator@@CA?AVDName@@_N@Z 00000001800e5870 f   libvcruntimed:undname.obj
 0001:000e4b40       ?getThisType@UnDecorator@@CA?AVDName@@XZ 00000001800e5b40 f i libvcruntimed:undname.obj
 0001:000e4bb0       ?getThrowTypes@UnDecorator@@CA?AVDName@@XZ 00000001800e5bb0 f   libvcruntimed:undname.obj
 0001:000e4cd0       ?getTypeEncoding@UnDecorator@@CAHXZ 00000001800e5cd0 f i libvcruntimed:undname.obj
 0001:000e5b50       ?getVCallThunkType@UnDecorator@@CA?AVDName@@XZ 00000001800e6b50 f i libvcruntimed:undname.obj
 0001:000e5bf0       ?getVbTableType@UnDecorator@@CA?AVDName@@AEBV2@@Z 00000001800e6bf0 f i libvcruntimed:undname.obj
 0001:000e5c20       ?getVdispMapType@UnDecorator@@CA?AVDName@@AEBV2@@Z 00000001800e6c20 f i libvcruntimed:undname.obj
 0001:000e5cd0       ?getVfTableType@UnDecorator@@CA?AVDName@@AEBV2@@Z 00000001800e6cd0 f i libvcruntimed:undname.obj
 0001:000e5f80       ?getZName@UnDecorator@@CA?AVDName@@_N0@Z 00000001800e6f80 f   libvcruntimed:undname.obj
 0001:000e6410       ?haveTemplateParameters@UnDecorator@@SAHXZ 00000001800e7410 f i libvcruntimed:undname.obj
 0001:000e6420       ?isArray@DName@@QEBAHXZ    00000001800e7420 f i libvcruntimed:undname.obj
 0001:000e6440       ?isComArray@DName@@QEBAHXZ 00000001800e7440 f i libvcruntimed:undname.obj
 0001:000e6460       ?isEmpty@DName@@QEBAHXZ    00000001800e7460 f i libvcruntimed:undname.obj
 0001:000e64a0       ?isFull@Replicator@@QEBAHXZ 00000001800e74a0 f i libvcruntimed:undname.obj
 0001:000e64e0       ?isNoTE@DName@@QEBAHXZ     00000001800e74e0 f i libvcruntimed:undname.obj
 0001:000e6500       ?isPinPtr@DName@@QEBAHXZ   00000001800e7500 f i libvcruntimed:undname.obj
 0001:000e6520       ?isPtrRef@DName@@QEBAHXZ   00000001800e7520 f i libvcruntimed:undname.obj
 0001:000e6540       ?isUDC@DName@@QEBAHXZ      00000001800e7540 f i libvcruntimed:undname.obj
 0001:000e65a0       ?isUDTThunk@DName@@QEBAHXZ 00000001800e75a0 f i libvcruntimed:undname.obj
 0001:000e6600       ?isVCallThunk@DName@@QEBAHXZ 00000001800e7600 f i libvcruntimed:undname.obj
 0001:000e6620       ?isValid@DName@@QEBAHXZ    00000001800e7620 f i libvcruntimed:undname.obj
 0001:000e6670       ?length@DName@@QEBAHXZ     00000001800e7670 f i libvcruntimed:undname.obj
 0001:000e66e0       ?length@DNameStatusNode@@UEBAHXZ 00000001800e76e0 f i libvcruntimed:undname.obj
 0001:000e6700       ?length@charNode@@UEBAHXZ  00000001800e7700 f i libvcruntimed:undname.obj
 0001:000e6710       ?length@pDNameNode@@UEBAHXZ 00000001800e7710 f i libvcruntimed:undname.obj
 0001:000e6760       ?length@pairNode@@UEBAHXZ  00000001800e7760 f i libvcruntimed:undname.obj
 0001:000e6840       ?length@pcharNode@@UEBAHXZ 00000001800e7840 f i libvcruntimed:undname.obj
 0001:000e6860       ?make@DNameStatusNode@@SAPEAV1@W4DNameStatus@@@Z 00000001800e7860 f i libvcruntimed:undname.obj
 0001:000e6930       ?setIsArray@DName@@QEAAXXZ 00000001800e7930 f i libvcruntimed:undname.obj
 0001:000e6950       ?setIsComArray@DName@@QEAAXXZ 00000001800e7950 f i libvcruntimed:undname.obj
 0001:000e6970       ?setIsNoTE@DName@@QEAAXXZ  00000001800e7970 f i libvcruntimed:undname.obj
 0001:000e6990       ?setIsPinPtr@DName@@QEAAXXZ 00000001800e7990 f i libvcruntimed:undname.obj
 0001:000e69b0       ?setIsUDC@DName@@QEAAXXZ   00000001800e79b0 f i libvcruntimed:undname.obj
 0001:000e69f0       ?setIsVCallThunk@DName@@QEAAXXZ 00000001800e79f0 f i libvcruntimed:undname.obj
 0001:000e6a10       ?setPtrRef@DName@@QEAAAEAV1@XZ 00000001800e7a10 f i libvcruntimed:undname.obj
 0001:000e6a40       ?status@DName@@QEBA?AW4DNameStatus@@XZ 00000001800e7a40 f i libvcruntimed:undname.obj
 0001:000e6bb0       __unDName                  00000001800e7bb0 f   libvcruntimed:undname.obj
 0001:000e6cb0       __unDNameEx                00000001800e7cb0 f   libvcruntimed:undname.obj
 0001:000e6dd0       fabs                       00000001800e7dd0 f   libucrtd:fabs.obj
 0001:000e6df0       expf                       00000001800e7df0 f   libucrtd:expf.obj
 0001:000e7140       logf                       00000001800e8140 f   libucrtd:logf.obj
 0001:000e7640       ??$__crt_interlocked_read@J@@YAJPEDJ@Z 00000001800e8640 f i libucrtd:assert.obj
 0001:000e9f50       ??$ftprintf@PEAU_iobuf@@PEBDAEBQEBDAEBQEBDAEBI@?$__crt_char_traits@D@@SAH$$QEAPEAU_iobuf@@$$QEAPEBDAEBQEBD2AEBI@Z 00000001800eaf50 f i libucrtd:assert.obj
 0001:000e9fb0       ??$ftprintf@PEAU_iobuf@@PEB_WAEBQEB_WAEBQEB_WAEBI@?$__crt_char_traits@_W@@SAH$$QEAPEAU_iobuf@@$$QEAPEB_WAEBQEB_W2AEBI@Z 00000001800eafb0 f i libucrtd:assert.obj
 0001:000ea010       ??$get_module_file_name@AEAPEAUHINSTANCE__@@AEAY0BAF@DK@?$__crt_char_traits@D@@SAKAEAPEAUHINSTANCE__@@AEAY0BAF@D$$QEAK@Z 00000001800eb010 f i libucrtd:assert.obj
 0001:000ea050       ??$get_module_file_name@AEAPEAUHINSTANCE__@@AEAY0BAF@_WK@?$__crt_char_traits@_W@@SAKAEAPEAUHINSTANCE__@@AEAY0BAF@_W$$QEAK@Z 00000001800eb050 f i libucrtd:assert.obj
 0001:000ea090       ??$itot_s@AEBIPEAD_KH@?$__crt_char_traits@D@@SAHAEBI$$QEAPEAD$$QEA_K$$QEAH@Z 00000001800eb090 f i libucrtd:assert.obj
 0001:000ea0f0       ??$itot_s@AEBIPEA_W_KH@?$__crt_char_traits@_W@@SAHAEBI$$QEAPEA_W$$QEA_K$$QEAH@Z 00000001800eb0f0 f i libucrtd:assert.obj
 0001:000ea150       ??$show_message_box@AEAY0CEA@DPEBDJ@?$__crt_char_traits@D@@SAHAEAY0CEA@D$$QEAPEBD$$QEAJ@Z 00000001800eb150 f i libucrtd:assert.obj
 0001:000ea190       ??$show_message_box@AEAY0CEA@_WPEB_WJ@?$__crt_char_traits@_W@@SAHAEAY0CEA@_W$$QEAPEB_W$$QEAJ@Z 00000001800eb190 f i libucrtd:assert.obj
 0001:000ea1d0       ??$tcscat_s@AEBQEADAEB_KAEAPEAD@?$__crt_char_traits@D@@SAHAEBQEADAEB_KAEAPEAD@Z 00000001800eb1d0 f i libucrtd:assert.obj
 0001:000ea220       ??$tcscat_s@AEBQEADAEB_KAEBQEBD@?$__crt_char_traits@D@@SAHAEBQEADAEB_KAEBQEBD@Z 00000001800eb220 f i libucrtd:assert.obj
 0001:000ea270       ??$tcscat_s@AEBQEADAEB_KPEBD@?$__crt_char_traits@D@@SAHAEBQEADAEB_K$$QEAPEBD@Z 00000001800eb270 f i libucrtd:assert.obj
 0001:000ea2c0       ??$tcscat_s@AEBQEA_WAEB_KAEAPEA_W@?$__crt_char_traits@_W@@SAHAEBQEA_WAEB_KAEAPEA_W@Z 00000001800eb2c0 f i libucrtd:assert.obj
 0001:000ea310       ??$tcscat_s@AEBQEA_WAEB_KAEBQEB_W@?$__crt_char_traits@_W@@SAHAEBQEA_WAEB_KAEBQEB_W@Z 00000001800eb310 f i libucrtd:assert.obj
 0001:000ea360       ??$tcscat_s@AEBQEA_WAEB_KPEB_W@?$__crt_char_traits@_W@@SAHAEBQEA_WAEB_K$$QEAPEB_W@Z 00000001800eb360 f i libucrtd:assert.obj
 0001:000ea3b0       ??$tcscpy_s@AEAY0BAF@D_KPEBD@?$__crt_char_traits@D@@SAHAEAY0BAF@D$$QEA_K$$QEAPEBD@Z 00000001800eb3b0 f i libucrtd:assert.obj
 0001:000ea3f0       ??$tcscpy_s@AEAY0BAF@_W_KPEB_W@?$__crt_char_traits@_W@@SAHAEAY0BAF@_W$$QEA_K$$QEAPEB_W@Z 00000001800eb3f0 f i libucrtd:assert.obj
 0001:000ea430       ??$tcscpy_s@AEBQEADAEB_KPEBD@?$__crt_char_traits@D@@SAHAEBQEADAEB_K$$QEAPEBD@Z 00000001800eb430 f i libucrtd:assert.obj
 0001:000ea480       ??$tcscpy_s@AEBQEA_WAEB_KPEB_W@?$__crt_char_traits@_W@@SAHAEBQEA_WAEB_K$$QEAPEB_W@Z 00000001800eb480 f i libucrtd:assert.obj
 0001:000ea4d0       ??$tcslen@AEAY0BAF@D@?$__crt_char_traits@D@@SA_KAEAY0BAF@D@Z 00000001800eb4d0 f i libucrtd:assert.obj
 0001:000ea4f0       ??$tcslen@AEAY0BAF@_W@?$__crt_char_traits@_W@@SA_KAEAY0BAF@_W@Z 00000001800eb4f0 f i libucrtd:assert.obj
 0001:000ea510       ??$tcslen@AEBQEAD@?$__crt_char_traits@D@@SA_KAEBQEAD@Z 00000001800eb510 f i libucrtd:assert.obj
 0001:000ea540       ??$tcslen@AEBQEA_W@?$__crt_char_traits@_W@@SA_KAEBQEA_W@Z 00000001800eb540 f i libucrtd:assert.obj
 0001:000ea570       ??$tcslen@AEBQEBD@?$__crt_char_traits@D@@SA_KAEBQEBD@Z 00000001800eb570 f i libucrtd:assert.obj
 0001:000ea5a0       ??$tcslen@AEBQEB_W@?$__crt_char_traits@_W@@SA_KAEBQEB_W@Z 00000001800eb5a0 f i libucrtd:assert.obj
 0001:000ea5d0       ??$tcsncat_s@AEBQEADAEB_KAEAPEBD_K@?$__crt_char_traits@D@@SAHAEBQEADAEB_KAEAPEBD$$QEA_K@Z 00000001800eb5d0 f i libucrtd:assert.obj
 0001:000ea630       ??$tcsncat_s@AEBQEADAEB_KAEBQEBDAEB_K@?$__crt_char_traits@D@@SAHAEBQEADAEB_KAEBQEBD1@Z 00000001800eb630 f i libucrtd:assert.obj
 0001:000ea690       ??$tcsncat_s@AEBQEADAEB_KPEBD_K@?$__crt_char_traits@D@@SAHAEBQEADAEB_K$$QEAPEBD$$QEA_K@Z 00000001800eb690 f i libucrtd:assert.obj
 0001:000ea6f0       ??$tcsncat_s@AEBQEA_WAEB_KAEAPEB_W_K@?$__crt_char_traits@_W@@SAHAEBQEA_WAEB_KAEAPEB_W$$QEA_K@Z 00000001800eb6f0 f i libucrtd:assert.obj
 0001:000ea750       ??$tcsncat_s@AEBQEA_WAEB_KAEBQEB_WAEB_K@?$__crt_char_traits@_W@@SAHAEBQEA_WAEB_KAEBQEB_W1@Z 00000001800eb750 f i libucrtd:assert.obj
 0001:000ea7b0       ??$tcsncat_s@AEBQEA_WAEB_KPEB_W_K@?$__crt_char_traits@_W@@SAHAEBQEA_WAEB_K$$QEAPEB_W$$QEA_K@Z 00000001800eb7b0 f i libucrtd:assert.obj
 0001:000ea810       ??0__crt_stdio_stream@@QEAA@QEAU_iobuf@@@Z 00000001800eb810 f i libucrtd:assert.obj
 0001:000ea840       ?__crt_interlocked_read_32@@YAHPEDH@Z 00000001800eb840 f i libucrtd:assert.obj
 0001:000eaab0       ?get_flags@__crt_stdio_stream@@QEBAJXZ 00000001800ebab0 f i libucrtd:assert.obj
 0001:000eaba0       ?has_any_buffer@__crt_stdio_stream@@QEBA_NXZ 00000001800ebba0 f i libucrtd:assert.obj
 0001:000eabd0       ?has_any_of@__crt_stdio_stream@@QEBA_NJ@Z 00000001800ebbd0 f i libucrtd:assert.obj
 0001:000eac20       _assert                    00000001800ebc20 f   libucrtd:assert.obj
 0001:000eac70       _invoke_watson_if_error    00000001800ebc70 f i libucrtd:assert.obj
 0001:000eacd0       _vfprintf_l                00000001800ebcd0 f i libucrtd:assert.obj
 0001:000ead30       _vfwprintf_l               00000001800ebd30 f i libucrtd:assert.obj
 0001:000ead90       _vswprintf_c_l             00000001800ebd90 f i libucrtd:assert.obj
 0001:000eae20       _wassert                   00000001800ebe20 f   libucrtd:assert.obj
 0001:000eae70       fprintf                    00000001800ebe70 f i libucrtd:assert.obj
 0001:000eaee0       fwprintf                   00000001800ebee0 f i libucrtd:assert.obj
 0001:000eb0e0       swprintf                   00000001800ec0e0 f i libucrtd:assert.obj
 0001:000eb150       asinf                      00000001800ec150 f   libucrtd:asinf.obj
 0001:000eb770       cosf                       00000001800ec770 f   libucrtd:cosf.obj
 0001:000ebdb0       sinf                       00000001800ecdb0 f   libucrtd:sinf.obj
 0001:000ec670       sqrtf                      00000001800ed670 f   libucrtd:sqrtf.obj
 0001:000ec7f0       ??$?0AEBV?$stream_output_adapter@D@__crt_stdio_output@@AEB_KAEBQEBDAEBQEAU__crt_locale_pointers@@AEBQEAD@?$format_validation_base@DV?$stream_output_adapter@D@__crt_stdio_output@@@__crt_stdio_output@@IEAA@AEBV?$stream_output_adapter@D@1@AEB_KAEBQEBDAEBQEAU__crt_locale_pointers@@AEBQEAD@Z 00000001800ed7f0 f i libucrtd:output.obj
 0001:000ec860       ??$?0AEBV?$stream_output_adapter@D@__crt_stdio_output@@AEB_KAEBQEBDAEBQEAU__crt_locale_pointers@@AEBQEAD@?$positional_parameter_base@DV?$stream_output_adapter@D@__crt_stdio_output@@@__crt_stdio_output@@IEAA@AEBV?$stream_output_adapter@D@1@AEB_KAEBQEBDAEBQEAU__crt_locale_pointers@@AEBQEAD@Z 00000001800ed860 f i libucrtd:output.obj
 0001:000ec930       ??$?0AEBV?$stream_output_adapter@D@__crt_stdio_output@@AEB_KAEBQEBDAEBQEAU__crt_locale_pointers@@AEBQEAD@?$standard_base@DV?$stream_output_adapter@D@__crt_stdio_output@@@__crt_stdio_output@@IEAA@AEBV?$stream_output_adapter@D@1@AEB_KAEBQEBDAEBQEAU__crt_locale_pointers@@AEBQEAD@Z 00000001800ed930 f i libucrtd:output.obj
 0001:000ec9c0       ??$?0AEBV?$stream_output_adapter@_W@__crt_stdio_output@@AEB_KAEBQEB_WAEBQEAU__crt_locale_pointers@@AEBQEAD@?$format_validation_base@_WV?$stream_output_adapter@_W@__crt_stdio_output@@@__crt_stdio_output@@IEAA@AEBV?$stream_output_adapter@_W@1@AEB_KAEBQEB_WAEBQEAU__crt_locale_pointers@@AEBQEAD@Z 00000001800ed9c0 f i libucrtd:output.obj
 0001:000eca30       ??$?0AEBV?$stream_output_adapter@_W@__crt_stdio_output@@AEB_KAEBQEB_WAEBQEAU__crt_locale_pointers@@AEBQEAD@?$positional_parameter_base@_WV?$stream_output_adapter@_W@__crt_stdio_output@@@__crt_stdio_output@@IEAA@AEBV?$stream_output_adapter@_W@1@AEB_KAEBQEB_WAEBQEAU__crt_locale_pointers@@AEBQEAD@Z 00000001800eda30 f i libucrtd:output.obj
 0001:000ecb00       ??$?0AEBV?$stream_output_adapter@_W@__crt_stdio_output@@AEB_KAEBQEB_WAEBQEAU__crt_locale_pointers@@AEBQEAD@?$standard_base@_WV?$stream_output_adapter@_W@__crt_stdio_output@@@__crt_stdio_output@@IEAA@AEBV?$stream_output_adapter@_W@1@AEB_KAEBQEB_WAEBQEAU__crt_locale_pointers@@AEBQEAD@Z 00000001800edb00 f i libucrtd:output.obj
 0001:000ecb90       ??$?0AEBV?$string_output_adapter@D@__crt_stdio_output@@AEB_KAEBQEBDAEBQEAU__crt_locale_pointers@@AEBQEAD@?$format_validation_base@DV?$string_output_adapter@D@__crt_stdio_output@@@__crt_stdio_output@@IEAA@AEBV?$string_output_adapter@D@1@AEB_KAEBQEBDAEBQEAU__crt_locale_pointers@@AEBQEAD@Z 00000001800edb90 f i libucrtd:output.obj
 0001:000ecc00       ??$?0AEBV?$string_output_adapter@D@__crt_stdio_output@@AEB_KAEBQEBDAEBQEAU__crt_locale_pointers@@AEBQEAD@?$positional_parameter_base@DV?$string_output_adapter@D@__crt_stdio_output@@@__crt_stdio_output@@IEAA@AEBV?$string_output_adapter@D@1@AEB_KAEBQEBDAEBQEAU__crt_locale_pointers@@AEBQEAD@Z 00000001800edc00 f i libucrtd:output.obj
 0001:000eccd0       ??$?0AEBV?$string_output_adapter@D@__crt_stdio_output@@AEB_KAEBQEBDAEBQEAU__crt_locale_pointers@@AEBQEAD@?$standard_base@DV?$string_output_adapter@D@__crt_stdio_output@@@__crt_stdio_output@@IEAA@AEBV?$string_output_adapter@D@1@AEB_KAEBQEBDAEBQEAU__crt_locale_pointers@@AEBQEAD@Z 00000001800edcd0 f i libucrtd:output.obj
 0001:000ecd60       ??$?0AEBV?$string_output_adapter@_W@__crt_stdio_output@@AEB_KAEBQEB_WAEBQEAU__crt_locale_pointers@@AEBQEAD@?$format_validation_base@_WV?$string_output_adapter@_W@__crt_stdio_output@@@__crt_stdio_output@@IEAA@AEBV?$string_output_adapter@_W@1@AEB_KAEBQEB_WAEBQEAU__crt_locale_pointers@@AEBQEAD@Z 00000001800edd60 f i libucrtd:output.obj
 0001:000ecdd0       ??$?0AEBV?$string_output_adapter@_W@__crt_stdio_output@@AEB_KAEBQEB_WAEBQEAU__crt_locale_pointers@@AEBQEAD@?$positional_parameter_base@_WV?$string_output_adapter@_W@__crt_stdio_output@@@__crt_stdio_output@@IEAA@AEBV?$string_output_adapter@_W@1@AEB_KAEBQEB_WAEBQEAU__crt_locale_pointers@@AEBQEAD@Z 00000001800eddd0 f i libucrtd:output.obj
 0001:000ecea0       ??$?0AEBV?$string_output_adapter@_W@__crt_stdio_output@@AEB_KAEBQEB_WAEBQEAU__crt_locale_pointers@@AEBQEAD@?$standard_base@_WV?$string_output_adapter@_W@__crt_stdio_output@@@__crt_stdio_output@@IEAA@AEBV?$string_output_adapter@_W@1@AEB_KAEBQEB_WAEBQEAU__crt_locale_pointers@@AEBQEAD@Z 00000001800edea0 f i libucrtd:output.obj
 0001:000f1d60       ??$count@D@formatting_buffer@__crt_stdio_output@@QEBA_KXZ 00000001800f2d60 f i libucrtd:output.obj
 0001:000f1dc0       ??$count@_W@formatting_buffer@__crt_stdio_output@@QEBA_KXZ 00000001800f2dc0 f i libucrtd:output.obj
 0001:000f1e30       ??$data@D@formatting_buffer@__crt_stdio_output@@QEAAPEADXZ 00000001800f2e30 f i libucrtd:output.obj
 0001:000f1e90       ??$data@_W@formatting_buffer@__crt_stdio_output@@QEAAPEA_WXZ 00000001800f2e90 f i libucrtd:output.obj
 0001:000f1ef0       ??$ensure_buffer_is_big_enough@D@formatting_buffer@__crt_stdio_output@@QEAA_N_K@Z 00000001800f2ef0 f i libucrtd:output.obj
 0001:000f2060       ??$ensure_buffer_is_big_enough@_W@formatting_buffer@__crt_stdio_output@@QEAA_N_K@Z 00000001800f3060 f i libucrtd:output.obj
 0001:000f21e0       ??$extract_argument_from_va_list@C_J@?$positional_parameter_base@DV?$stream_output_adapter@D@__crt_stdio_output@@@__crt_stdio_output@@IEAA_NAEA_J@Z 00000001800f31e0 f i libucrtd:output.obj
 0001:000f23c0       ??$extract_argument_from_va_list@C_J@?$positional_parameter_base@DV?$string_output_adapter@D@__crt_stdio_output@@@__crt_stdio_output@@IEAA_NAEA_J@Z 00000001800f33c0 f i libucrtd:output.obj
 0001:000f25a0       ??$extract_argument_from_va_list@C_J@?$positional_parameter_base@_WV?$stream_output_adapter@_W@__crt_stdio_output@@@__crt_stdio_output@@IEAA_NAEA_J@Z 00000001800f35a0 f i libucrtd:output.obj
 0001:000f2780       ??$extract_argument_from_va_list@C_J@?$positional_parameter_base@_WV?$string_output_adapter@_W@__crt_stdio_output@@@__crt_stdio_output@@IEAA_NAEA_J@Z 00000001800f3780 f i libucrtd:output.obj
 0001:000f2960       ??$extract_argument_from_va_list@C_J@?$standard_base@DV?$stream_output_adapter@D@__crt_stdio_output@@@__crt_stdio_output@@IEAA_NAEA_J@Z 00000001800f3960 f i libucrtd:output.obj
 0001:000f29a0       ??$extract_argument_from_va_list@C_J@?$standard_base@DV?$string_output_adapter@D@__crt_stdio_output@@@__crt_stdio_output@@IEAA_NAEA_J@Z 00000001800f39a0 f i libucrtd:output.obj
 0001:000f29e0       ??$extract_argument_from_va_list@C_J@?$standard_base@_WV?$stream_output_adapter@_W@__crt_stdio_output@@@__crt_stdio_output@@IEAA_NAEA_J@Z 00000001800f39e0 f i libucrtd:output.obj
 0001:000f2a20       ??$extract_argument_from_va_list@C_J@?$standard_base@_WV?$string_output_adapter@_W@__crt_stdio_output@@@__crt_stdio_output@@IEAA_NAEA_J@Z 00000001800f3a20 f i libucrtd:output.obj
 0001:000f2a60       ??$extract_argument_from_va_list@E_J@?$positional_parameter_base@DV?$stream_output_adapter@D@__crt_stdio_output@@@__crt_stdio_output@@IEAA_NAEA_J@Z 00000001800f3a60 f i libucrtd:output.obj
 0001:000f2c40       ??$extract_argument_from_va_list@E_J@?$positional_parameter_base@DV?$string_output_adapter@D@__crt_stdio_output@@@__crt_stdio_output@@IEAA_NAEA_J@Z 00000001800f3c40 f i libucrtd:output.obj
 0001:000f2e20       ??$extract_argument_from_va_list@E_J@?$positional_parameter_base@_WV?$stream_output_adapter@_W@__crt_stdio_output@@@__crt_stdio_output@@IEAA_NAEA_J@Z 00000001800f3e20 f i libucrtd:output.obj
 0001:000f3000       ??$extract_argument_from_va_list@E_J@?$positional_parameter_base@_WV?$string_output_adapter@_W@__crt_stdio_output@@@__crt_stdio_output@@IEAA_NAEA_J@Z 00000001800f4000 f i libucrtd:output.obj
 0001:000f31e0       ??$extract_argument_from_va_list@E_J@?$standard_base@DV?$stream_output_adapter@D@__crt_stdio_output@@@__crt_stdio_output@@IEAA_NAEA_J@Z 00000001800f41e0 f i libucrtd:output.obj
 0001:000f3220       ??$extract_argument_from_va_list@E_J@?$standard_base@DV?$string_output_adapter@D@__crt_stdio_output@@@__crt_stdio_output@@IEAA_NAEA_J@Z 00000001800f4220 f i libucrtd:output.obj
 0001:000f3260       ??$extract_argument_from_va_list@E_J@?$standard_base@_WV?$stream_output_adapter@_W@__crt_stdio_output@@@__crt_stdio_output@@IEAA_NAEA_J@Z 00000001800f4260 f i libucrtd:output.obj
 0001:000f32a0       ??$extract_argument_from_va_list@E_J@?$standard_base@_WV?$string_output_adapter@_W@__crt_stdio_output@@@__crt_stdio_output@@IEAA_NAEA_J@Z 00000001800f42a0 f i libucrtd:output.obj
 0001:000f32e0       ??$extract_argument_from_va_list@F_J@?$positional_parameter_base@DV?$stream_output_adapter@D@__crt_stdio_output@@@__crt_stdio_output@@IEAA_NAEA_J@Z 00000001800f42e0 f i libucrtd:output.obj
 0001:000f34c0       ??$extract_argument_from_va_list@F_J@?$positional_parameter_base@DV?$string_output_adapter@D@__crt_stdio_output@@@__crt_stdio_output@@IEAA_NAEA_J@Z 00000001800f44c0 f i libucrtd:output.obj
 0001:000f36a0       ??$extract_argument_from_va_list@F_J@?$positional_parameter_base@_WV?$stream_output_adapter@_W@__crt_stdio_output@@@__crt_stdio_output@@IEAA_NAEA_J@Z 00000001800f46a0 f i libucrtd:output.obj
 0001:000f3880       ??$extract_argument_from_va_list@F_J@?$positional_parameter_base@_WV?$string_output_adapter@_W@__crt_stdio_output@@@__crt_stdio_output@@IEAA_NAEA_J@Z 00000001800f4880 f i libucrtd:output.obj
 0001:000f3a60       ??$extract_argument_from_va_list@F_J@?$standard_base@DV?$stream_output_adapter@D@__crt_stdio_output@@@__crt_stdio_output@@IEAA_NAEA_J@Z 00000001800f4a60 f i libucrtd:output.obj
 0001:000f3aa0       ??$extract_argument_from_va_list@F_J@?$standard_base@DV?$string_output_adapter@D@__crt_stdio_output@@@__crt_stdio_output@@IEAA_NAEA_J@Z 00000001800f4aa0 f i libucrtd:output.obj
 0001:000f3ae0       ??$extract_argument_from_va_list@F_J@?$standard_base@_WV?$stream_output_adapter@_W@__crt_stdio_output@@@__crt_stdio_output@@IEAA_NAEA_J@Z 00000001800f4ae0 f i libucrtd:output.obj
 0001:000f3b20       ??$extract_argument_from_va_list@F_J@?$standard_base@_WV?$string_output_adapter@_W@__crt_stdio_output@@@__crt_stdio_output@@IEAA_NAEA_J@Z 00000001800f4b20 f i libucrtd:output.obj
 0001:000f3b60       ??$extract_argument_from_va_list@GD@?$positional_parameter_base@DV?$stream_output_adapter@D@__crt_stdio_output@@@__crt_stdio_output@@IEAA_NAEAD@Z 00000001800f4b60 f i libucrtd:output.obj
 0001:000f3d40       ??$extract_argument_from_va_list@GD@?$positional_parameter_base@DV?$string_output_adapter@D@__crt_stdio_output@@@__crt_stdio_output@@IEAA_NAEAD@Z 00000001800f4d40 f i libucrtd:output.obj
 0001:000f3f20       ??$extract_argument_from_va_list@GD@?$standard_base@DV?$stream_output_adapter@D@__crt_stdio_output@@@__crt_stdio_output@@IEAA_NAEAD@Z 00000001800f4f20 f i libucrtd:output.obj
 0001:000f3f60       ??$extract_argument_from_va_list@GD@?$standard_base@DV?$string_output_adapter@D@__crt_stdio_output@@@__crt_stdio_output@@IEAA_NAEAD@Z 00000001800f4f60 f i libucrtd:output.obj
 0001:000f3fa0       ??$extract_argument_from_va_list@G_J@?$positional_parameter_base@DV?$stream_output_adapter@D@__crt_stdio_output@@@__crt_stdio_output@@IEAA_NAEA_J@Z 00000001800f4fa0 f i libucrtd:output.obj
 0001:000f4180       ??$extract_argument_from_va_list@G_J@?$positional_parameter_base@DV?$string_output_adapter@D@__crt_stdio_output@@@__crt_stdio_output@@IEAA_NAEA_J@Z 00000001800f5180 f i libucrtd:output.obj
 0001:000f4360       ??$extract_argument_from_va_list@G_J@?$positional_parameter_base@_WV?$stream_output_adapter@_W@__crt_stdio_output@@@__crt_stdio_output@@IEAA_NAEA_J@Z 00000001800f5360 f i libucrtd:output.obj
 0001:000f4540       ??$extract_argument_from_va_list@G_J@?$positional_parameter_base@_WV?$string_output_adapter@_W@__crt_stdio_output@@@__crt_stdio_output@@IEAA_NAEA_J@Z 00000001800f5540 f i libucrtd:output.obj
 0001:000f4720       ??$extract_argument_from_va_list@G_J@?$standard_base@DV?$stream_output_adapter@D@__crt_stdio_output@@@__crt_stdio_output@@IEAA_NAEA_J@Z 00000001800f5720 f i libucrtd:output.obj
 0001:000f4760       ??$extract_argument_from_va_list@G_J@?$standard_base@DV?$string_output_adapter@D@__crt_stdio_output@@@__crt_stdio_output@@IEAA_NAEA_J@Z 00000001800f5760 f i libucrtd:output.obj
 0001:000f47a0       ??$extract_argument_from_va_list@G_J@?$standard_base@_WV?$stream_output_adapter@_W@__crt_stdio_output@@@__crt_stdio_output@@IEAA_NAEA_J@Z 00000001800f57a0 f i libucrtd:output.obj
 0001:000f47e0       ??$extract_argument_from_va_list@G_J@?$standard_base@_WV?$string_output_adapter@_W@__crt_stdio_output@@@__crt_stdio_output@@IEAA_NAEA_J@Z 00000001800f57e0 f i libucrtd:output.obj
 0001:000f4820       ??$extract_argument_from_va_list@H_J@?$positional_parameter_base@DV?$stream_output_adapter@D@__crt_stdio_output@@@__crt_stdio_output@@IEAA_NAEA_J@Z 00000001800f5820 f i libucrtd:output.obj
 0001:000f4a00       ??$extract_argument_from_va_list@H_J@?$positional_parameter_base@DV?$string_output_adapter@D@__crt_stdio_output@@@__crt_stdio_output@@IEAA_NAEA_J@Z 00000001800f5a00 f i libucrtd:output.obj
 0001:000f4be0       ??$extract_argument_from_va_list@H_J@?$positional_parameter_base@_WV?$stream_output_adapter@_W@__crt_stdio_output@@@__crt_stdio_output@@IEAA_NAEA_J@Z 00000001800f5be0 f i libucrtd:output.obj
 0001:000f4dc0       ??$extract_argument_from_va_list@H_J@?$positional_parameter_base@_WV?$string_output_adapter@_W@__crt_stdio_output@@@__crt_stdio_output@@IEAA_NAEA_J@Z 00000001800f5dc0 f i libucrtd:output.obj
 0001:000f4fa0       ??$extract_argument_from_va_list@H_J@?$standard_base@DV?$stream_output_adapter@D@__crt_stdio_output@@@__crt_stdio_output@@IEAA_NAEA_J@Z 00000001800f5fa0 f i libucrtd:output.obj
 0001:000f4fe0       ??$extract_argument_from_va_list@H_J@?$standard_base@DV?$string_output_adapter@D@__crt_stdio_output@@@__crt_stdio_output@@IEAA_NAEA_J@Z 00000001800f5fe0 f i libucrtd:output.obj
 0001:000f5020       ??$extract_argument_from_va_list@H_J@?$standard_base@_WV?$stream_output_adapter@_W@__crt_stdio_output@@@__crt_stdio_output@@IEAA_NAEA_J@Z 00000001800f6020 f i libucrtd:output.obj
 0001:000f5060       ??$extract_argument_from_va_list@H_J@?$standard_base@_WV?$string_output_adapter@_W@__crt_stdio_output@@@__crt_stdio_output@@IEAA_NAEA_J@Z 00000001800f6060 f i libucrtd:output.obj
 0001:000f50a0       ??$extract_argument_from_va_list@I_J@?$positional_parameter_base@DV?$stream_output_adapter@D@__crt_stdio_output@@@__crt_stdio_output@@IEAA_NAEA_J@Z 00000001800f60a0 f i libucrtd:output.obj
 0001:000f5280       ??$extract_argument_from_va_list@I_J@?$positional_parameter_base@DV?$string_output_adapter@D@__crt_stdio_output@@@__crt_stdio_output@@IEAA_NAEA_J@Z 00000001800f6280 f i libucrtd:output.obj
 0001:000f5460       ??$extract_argument_from_va_list@I_J@?$positional_parameter_base@_WV?$stream_output_adapter@_W@__crt_stdio_output@@@__crt_stdio_output@@IEAA_NAEA_J@Z 00000001800f6460 f i libucrtd:output.obj
 0001:000f5640       ??$extract_argument_from_va_list@I_J@?$positional_parameter_base@_WV?$string_output_adapter@_W@__crt_stdio_output@@@__crt_stdio_output@@IEAA_NAEA_J@Z 00000001800f6640 f i libucrtd:output.obj
 0001:000f5820       ??$extract_argument_from_va_list@I_J@?$standard_base@DV?$stream_output_adapter@D@__crt_stdio_output@@@__crt_stdio_output@@IEAA_NAEA_J@Z 00000001800f6820 f i libucrtd:output.obj
 0001:000f5860       ??$extract_argument_from_va_list@I_J@?$standard_base@DV?$string_output_adapter@D@__crt_stdio_output@@@__crt_stdio_output@@IEAA_NAEA_J@Z 00000001800f6860 f i libucrtd:output.obj
 0001:000f58a0       ??$extract_argument_from_va_list@I_J@?$standard_base@_WV?$stream_output_adapter@_W@__crt_stdio_output@@@__crt_stdio_output@@IEAA_NAEA_J@Z 00000001800f68a0 f i libucrtd:output.obj
 0001:000f58e0       ??$extract_argument_from_va_list@I_J@?$standard_base@_WV?$string_output_adapter@_W@__crt_stdio_output@@@__crt_stdio_output@@IEAA_NAEA_J@Z 00000001800f68e0 f i libucrtd:output.obj
 0001:000f5920       ??$extract_argument_from_va_list@PEADPEAD@?$positional_parameter_base@DV?$stream_output_adapter@D@__crt_stdio_output@@@__crt_stdio_output@@IEAA_NAEAPEAD@Z 00000001800f6920 f i libucrtd:output.obj
 0001:000f5b00       ??$extract_argument_from_va_list@PEADPEAD@?$positional_parameter_base@DV?$string_output_adapter@D@__crt_stdio_output@@@__crt_stdio_output@@IEAA_NAEAPEAD@Z 00000001800f6b00 f i libucrtd:output.obj
 0001:000f5ce0       ??$extract_argument_from_va_list@PEADPEAD@?$positional_parameter_base@_WV?$stream_output_adapter@_W@__crt_stdio_output@@@__crt_stdio_output@@IEAA_NAEAPEAD@Z 00000001800f6ce0 f i libucrtd:output.obj
 0001:000f5ec0       ??$extract_argument_from_va_list@PEADPEAD@?$positional_parameter_base@_WV?$string_output_adapter@_W@__crt_stdio_output@@@__crt_stdio_output@@IEAA_NAEAPEAD@Z 00000001800f6ec0 f i libucrtd:output.obj
 0001:000f60a0       ??$extract_argument_from_va_list@PEADPEAD@?$standard_base@DV?$stream_output_adapter@D@__crt_stdio_output@@@__crt_stdio_output@@IEAA_NAEAPEAD@Z 00000001800f70a0 f i libucrtd:output.obj
 0001:000f60e0       ??$extract_argument_from_va_list@PEADPEAD@?$standard_base@DV?$string_output_adapter@D@__crt_stdio_output@@@__crt_stdio_output@@IEAA_NAEAPEAD@Z 00000001800f70e0 f i libucrtd:output.obj
 0001:000f6120       ??$extract_argument_from_va_list@PEADPEAD@?$standard_base@_WV?$stream_output_adapter@_W@__crt_stdio_output@@@__crt_stdio_output@@IEAA_NAEAPEAD@Z 00000001800f7120 f i libucrtd:output.obj
 0001:000f6160       ??$extract_argument_from_va_list@PEADPEAD@?$standard_base@_WV?$string_output_adapter@_W@__crt_stdio_output@@@__crt_stdio_output@@IEAA_NAEAPEAD@Z 00000001800f7160 f i libucrtd:output.obj
 0001:000f61a0       ??$extract_argument_from_va_list@PEAUansi_string@?1??type_case_Z@?$output_processor@DV?$stream_output_adapter@D@__crt_stdio_output@@V?$format_validation_base@DV?$stream_output_adapter@D@__crt_stdio_output@@@2@@__crt_stdio_output@@AEAA_NXZ@PEAU1?1??234@AEAA_NXZ@@?$standard_base@DV?$stream_output_adapter@D@__crt_stdio_output@@@__crt_stdio_output@@IEAA_NAEAPEAUansi_string@?1??type_case_Z@?$output_processor@DV?$stream_output_adapter@D@__crt_stdio_output@@V?$format_validation_base@DV?$stream_output_adapter@D@__crt_stdio_output@@@2@@1@AEAA_NXZ@@Z 00000001800f71a0 f i libucrtd:output.obj
 0001:000f61e0       ??$extract_argument_from_va_list@PEAUansi_string@?1??type_case_Z@?$output_processor@DV?$stream_output_adapter@D@__crt_stdio_output@@V?$positional_parameter_base@DV?$stream_output_adapter@D@__crt_stdio_output@@@2@@__crt_stdio_output@@AEAA_NXZ@PEAU1?1??234@AEAA_NXZ@@?$positional_parameter_base@DV?$stream_output_adapter@D@__crt_stdio_output@@@__crt_stdio_output@@IEAA_NAEAPEAUansi_string@?1??type_case_Z@?$output_processor@DV?$stream_output_adapter@D@__crt_stdio_output@@V?$positional_parameter_base@DV?$stream_output_adapter@D@__crt_stdio_output@@@2@@1@AEAA_NXZ@@Z 00000001800f71e0 f i libucrtd:output.obj
 0001:000f63c0       ??$extract_argument_from_va_list@PEAUansi_string@?1??type_case_Z@?$output_processor@DV?$stream_output_adapter@D@__crt_stdio_output@@V?$positional_parameter_base@DV?$stream_output_adapter@D@__crt_stdio_output@@@2@@__crt_stdio_output@@AEAA_NXZ@PEAU1?1??234@AEAA_NXZ@@?$standard_base@DV?$stream_output_adapter@D@__crt_stdio_output@@@__crt_stdio_output@@IEAA_NAEAPEAUansi_string@?1??type_case_Z@?$output_processor@DV?$stream_output_adapter@D@__crt_stdio_output@@V?$positional_parameter_base@DV?$stream_output_adapter@D@__crt_stdio_output@@@2@@1@AEAA_NXZ@@Z 00000001800f73c0 f i libucrtd:output.obj
 0001:000f6400       ??$extract_argument_from_va_list@PEAUansi_string@?1??type_case_Z@?$output_processor@DV?$stream_output_adapter@D@__crt_stdio_output@@V?$standard_base@DV?$stream_output_adapter@D@__crt_stdio_output@@@2@@__crt_stdio_output@@AEAA_NXZ@PEAU1?1??234@AEAA_NXZ@@?$standard_base@DV?$stream_output_adapter@D@__crt_stdio_output@@@__crt_stdio_output@@IEAA_NAEAPEAUansi_string@?1??type_case_Z@?$output_processor@DV?$stream_output_adapter@D@__crt_stdio_output@@V?$standard_base@DV?$stream_output_adapter@D@__crt_stdio_output@@@2@@1@AEAA_NXZ@@Z 00000001800f7400 f i libucrtd:output.obj
 0001:000f6440       ??$extract_argument_from_va_list@PEAUansi_string@?1??type_case_Z@?$output_processor@DV?$string_output_adapter@D@__crt_stdio_output@@V?$format_validation_base@DV?$string_output_adapter@D@__crt_stdio_output@@@2@@__crt_stdio_output@@AEAA_NXZ@PEAU1?1??234@AEAA_NXZ@@?$standard_base@DV?$string_output_adapter@D@__crt_stdio_output@@@__crt_stdio_output@@IEAA_NAEAPEAUansi_string@?1??type_case_Z@?$output_processor@DV?$string_output_adapter@D@__crt_stdio_output@@V?$format_validation_base@DV?$string_output_adapter@D@__crt_stdio_output@@@2@@1@AEAA_NXZ@@Z 00000001800f7440 f i libucrtd:output.obj
 0001:000f6480       ??$extract_argument_from_va_list@PEAUansi_string@?1??type_case_Z@?$output_processor@DV?$string_output_adapter@D@__crt_stdio_output@@V?$positional_parameter_base@DV?$string_output_adapter@D@__crt_stdio_output@@@2@@__crt_stdio_output@@AEAA_NXZ@PEAU1?1??234@AEAA_NXZ@@?$positional_parameter_base@DV?$string_output_adapter@D@__crt_stdio_output@@@__crt_stdio_output@@IEAA_NAEAPEAUansi_string@?1??type_case_Z@?$output_processor@DV?$string_output_adapter@D@__crt_stdio_output@@V?$positional_parameter_base@DV?$string_output_adapter@D@__crt_stdio_output@@@2@@1@AEAA_NXZ@@Z 00000001800f7480 f i libucrtd:output.obj
 0001:000f6660       ??$extract_argument_from_va_list@PEAUansi_string@?1??type_case_Z@?$output_processor@DV?$string_output_adapter@D@__crt_stdio_output@@V?$positional_parameter_base@DV?$string_output_adapter@D@__crt_stdio_output@@@2@@__crt_stdio_output@@AEAA_NXZ@PEAU1?1??234@AEAA_NXZ@@?$standard_base@DV?$string_output_adapter@D@__crt_stdio_output@@@__crt_stdio_output@@IEAA_NAEAPEAUansi_string@?1??type_case_Z@?$output_processor@DV?$string_output_adapter@D@__crt_stdio_output@@V?$positional_parameter_base@DV?$string_output_adapter@D@__crt_stdio_output@@@2@@1@AEAA_NXZ@@Z 00000001800f7660 f i libucrtd:output.obj
 0001:000f66a0       ??$extract_argument_from_va_list@PEAUansi_string@?1??type_case_Z@?$output_processor@DV?$string_output_adapter@D@__crt_stdio_output@@V?$standard_base@DV?$string_output_adapter@D@__crt_stdio_output@@@2@@__crt_stdio_output@@AEAA_NXZ@PEAU1?1??234@AEAA_NXZ@@?$standard_base@DV?$string_output_adapter@D@__crt_stdio_output@@@__crt_stdio_output@@IEAA_NAEAPEAUansi_string@?1??type_case_Z@?$output_processor@DV?$string_output_adapter@D@__crt_stdio_output@@V?$standard_base@DV?$string_output_adapter@D@__crt_stdio_output@@@2@@1@AEAA_NXZ@@Z 00000001800f76a0 f i libucrtd:output.obj
 0001:000f66e0       ??$extract_argument_from_va_list@PEAUansi_string@?1??type_case_Z@?$output_processor@_WV?$stream_output_adapter@_W@__crt_stdio_output@@V?$format_validation_base@_WV?$stream_output_adapter@_W@__crt_stdio_output@@@2@@__crt_stdio_output@@AEAA_NXZ@PEAU1?1??234@AEAA_NXZ@@?$standard_base@_WV?$stream_output_adapter@_W@__crt_stdio_output@@@__crt_stdio_output@@IEAA_NAEAPEAUansi_string@?1??type_case_Z@?$output_processor@_WV?$stream_output_adapter@_W@__crt_stdio_output@@V?$format_validation_base@_WV?$stream_output_adapter@_W@__crt_stdio_output@@@2@@1@AEAA_NXZ@@Z 00000001800f76e0 f i libucrtd:output.obj
 0001:000f6720       ??$extract_argument_from_va_list@PEAUansi_string@?1??type_case_Z@?$output_processor@_WV?$stream_output_adapter@_W@__crt_stdio_output@@V?$positional_parameter_base@_WV?$stream_output_adapter@_W@__crt_stdio_output@@@2@@__crt_stdio_output@@AEAA_NXZ@PEAU1?1??234@AEAA_NXZ@@?$positional_parameter_base@_WV?$stream_output_adapter@_W@__crt_stdio_output@@@__crt_stdio_output@@IEAA_NAEAPEAUansi_string@?1??type_case_Z@?$output_processor@_WV?$stream_output_adapter@_W@__crt_stdio_output@@V?$positional_parameter_base@_WV?$stream_output_adapter@_W@__crt_stdio_output@@@2@@1@AEAA_NXZ@@Z 00000001800f7720 f i libucrtd:output.obj
 0001:000f6900       ??$extract_argument_from_va_list@PEAUansi_string@?1??type_case_Z@?$output_processor@_WV?$stream_output_adapter@_W@__crt_stdio_output@@V?$positional_parameter_base@_WV?$stream_output_adapter@_W@__crt_stdio_output@@@2@@__crt_stdio_output@@AEAA_NXZ@PEAU1?1??234@AEAA_NXZ@@?$standard_base@_WV?$stream_output_adapter@_W@__crt_stdio_output@@@__crt_stdio_output@@IEAA_NAEAPEAUansi_string@?1??type_case_Z@?$output_processor@_WV?$stream_output_adapter@_W@__crt_stdio_output@@V?$positional_parameter_base@_WV?$stream_output_adapter@_W@__crt_stdio_output@@@2@@1@AEAA_NXZ@@Z 00000001800f7900 f i libucrtd:output.obj
 0001:000f6940       ??$extract_argument_from_va_list@PEAUansi_string@?1??type_case_Z@?$output_processor@_WV?$stream_output_adapter@_W@__crt_stdio_output@@V?$standard_base@_WV?$stream_output_adapter@_W@__crt_stdio_output@@@2@@__crt_stdio_output@@AEAA_NXZ@PEAU1?1??234@AEAA_NXZ@@?$standard_base@_WV?$stream_output_adapter@_W@__crt_stdio_output@@@__crt_stdio_output@@IEAA_NAEAPEAUansi_string@?1??type_case_Z@?$output_processor@_WV?$stream_output_adapter@_W@__crt_stdio_output@@V?$standard_base@_WV?$stream_output_adapter@_W@__crt_stdio_output@@@2@@1@AEAA_NXZ@@Z 00000001800f7940 f i libucrtd:output.obj
 0001:000f6980       ??$extract_argument_from_va_list@PEAUansi_string@?1??type_case_Z@?$output_processor@_WV?$string_output_adapter@_W@__crt_stdio_output@@V?$format_validation_base@_WV?$string_output_adapter@_W@__crt_stdio_output@@@2@@__crt_stdio_output@@AEAA_NXZ@PEAU1?1??234@AEAA_NXZ@@?$standard_base@_WV?$string_output_adapter@_W@__crt_stdio_output@@@__crt_stdio_output@@IEAA_NAEAPEAUansi_string@?1??type_case_Z@?$output_processor@_WV?$string_output_adapter@_W@__crt_stdio_output@@V?$format_validation_base@_WV?$string_output_adapter@_W@__crt_stdio_output@@@2@@1@AEAA_NXZ@@Z 00000001800f7980 f i libucrtd:output.obj
 0001:000f69c0       ??$extract_argument_from_va_list@PEAUansi_string@?1??type_case_Z@?$output_processor@_WV?$string_output_adapter@_W@__crt_stdio_output@@V?$positional_parameter_base@_WV?$string_output_adapter@_W@__crt_stdio_output@@@2@@__crt_stdio_output@@AEAA_NXZ@PEAU1?1??234@AEAA_NXZ@@?$positional_parameter_base@_WV?$string_output_adapter@_W@__crt_stdio_output@@@__crt_stdio_output@@IEAA_NAEAPEAUansi_string@?1??type_case_Z@?$output_processor@_WV?$string_output_adapter@_W@__crt_stdio_output@@V?$positional_parameter_base@_WV?$string_output_adapter@_W@__crt_stdio_output@@@2@@1@AEAA_NXZ@@Z 00000001800f79c0 f i libucrtd:output.obj
 0001:000f6ba0       ??$extract_argument_from_va_list@PEAUansi_string@?1??type_case_Z@?$output_processor@_WV?$string_output_adapter@_W@__crt_stdio_output@@V?$positional_parameter_base@_WV?$string_output_adapter@_W@__crt_stdio_output@@@2@@__crt_stdio_output@@AEAA_NXZ@PEAU1?1??234@AEAA_NXZ@@?$standard_base@_WV?$string_output_adapter@_W@__crt_stdio_output@@@__crt_stdio_output@@IEAA_NAEAPEAUansi_string@?1??type_case_Z@?$output_processor@_WV?$string_output_adapter@_W@__crt_stdio_output@@V?$positional_parameter_base@_WV?$string_output_adapter@_W@__crt_stdio_output@@@2@@1@AEAA_NXZ@@Z 00000001800f7ba0 f i libucrtd:output.obj
 0001:000f6be0       ??$extract_argument_from_va_list@PEAUansi_string@?1??type_case_Z@?$output_processor@_WV?$string_output_adapter@_W@__crt_stdio_output@@V?$standard_base@_WV?$string_output_adapter@_W@__crt_stdio_output@@@2@@__crt_stdio_output@@AEAA_NXZ@PEAU1?1??234@AEAA_NXZ@@?$standard_base@_WV?$string_output_adapter@_W@__crt_stdio_output@@@__crt_stdio_output@@IEAA_NAEAPEAUansi_string@?1??type_case_Z@?$output_processor@_WV?$string_output_adapter@_W@__crt_stdio_output@@V?$standard_base@_WV?$string_output_adapter@_W@__crt_stdio_output@@@2@@1@AEAA_NXZ@@Z 00000001800f7be0 f i libucrtd:output.obj
 0001:000f6c20       ??$extract_argument_from_va_list@PEAXPEAX@?$positional_parameter_base@DV?$stream_output_adapter@D@__crt_stdio_output@@@__crt_stdio_output@@IEAA_NAEAPEAX@Z 00000001800f7c20 f i libucrtd:output.obj
 0001:000f6e00       ??$extract_argument_from_va_list@PEAXPEAX@?$positional_parameter_base@DV?$string_output_adapter@D@__crt_stdio_output@@@__crt_stdio_output@@IEAA_NAEAPEAX@Z 00000001800f7e00 f i libucrtd:output.obj
 0001:000f6fe0       ??$extract_argument_from_va_list@PEAXPEAX@?$positional_parameter_base@_WV?$stream_output_adapter@_W@__crt_stdio_output@@@__crt_stdio_output@@IEAA_NAEAPEAX@Z 00000001800f7fe0 f i libucrtd:output.obj
 0001:000f71c0       ??$extract_argument_from_va_list@PEAXPEAX@?$positional_parameter_base@_WV?$string_output_adapter@_W@__crt_stdio_output@@@__crt_stdio_output@@IEAA_NAEAPEAX@Z 00000001800f81c0 f i libucrtd:output.obj
 0001:000f73a0       ??$extract_argument_from_va_list@PEAXPEAX@?$standard_base@DV?$stream_output_adapter@D@__crt_stdio_output@@@__crt_stdio_output@@IEAA_NAEAPEAX@Z 00000001800f83a0 f i libucrtd:output.obj
 0001:000f73e0       ??$extract_argument_from_va_list@PEAXPEAX@?$standard_base@DV?$string_output_adapter@D@__crt_stdio_output@@@__crt_stdio_output@@IEAA_NAEAPEAX@Z 00000001800f83e0 f i libucrtd:output.obj
 0001:000f7420       ??$extract_argument_from_va_list@PEAXPEAX@?$standard_base@_WV?$stream_output_adapter@_W@__crt_stdio_output@@@__crt_stdio_output@@IEAA_NAEAPEAX@Z 00000001800f8420 f i libucrtd:output.obj
 0001:000f7460       ??$extract_argument_from_va_list@PEAXPEAX@?$standard_base@_WV?$string_output_adapter@_W@__crt_stdio_output@@@__crt_stdio_output@@IEAA_NAEAPEAX@Z 00000001800f8460 f i libucrtd:output.obj
 0001:000f74a0       ??$extract_argument_from_va_list@U_CRT_DOUBLE@@U1@@?$positional_parameter_base@DV?$stream_output_adapter@D@__crt_stdio_output@@@__crt_stdio_output@@IEAA_NAEAU_CRT_DOUBLE@@@Z 00000001800f84a0 f i libucrtd:output.obj
 0001:000f76b0       ??$extract_argument_from_va_list@U_CRT_DOUBLE@@U1@@?$positional_parameter_base@DV?$string_output_adapter@D@__crt_stdio_output@@@__crt_stdio_output@@IEAA_NAEAU_CRT_DOUBLE@@@Z 00000001800f86b0 f i libucrtd:output.obj
 0001:000f78c0       ??$extract_argument_from_va_list@U_CRT_DOUBLE@@U1@@?$positional_parameter_base@_WV?$stream_output_adapter@_W@__crt_stdio_output@@@__crt_stdio_output@@IEAA_NAEAU_CRT_DOUBLE@@@Z 00000001800f88c0 f i libucrtd:output.obj
 0001:000f7ad0       ??$extract_argument_from_va_list@U_CRT_DOUBLE@@U1@@?$positional_parameter_base@_WV?$string_output_adapter@_W@__crt_stdio_output@@@__crt_stdio_output@@IEAA_NAEAU_CRT_DOUBLE@@@Z 00000001800f8ad0 f i libucrtd:output.obj
 0001:000f7ce0       ??$extract_argument_from_va_list@U_CRT_DOUBLE@@U1@@?$standard_base@DV?$stream_output_adapter@D@__crt_stdio_output@@@__crt_stdio_output@@IEAA_NAEAU_CRT_DOUBLE@@@Z 00000001800f8ce0 f i libucrtd:output.obj
 0001:000f7d40       ??$extract_argument_from_va_list@U_CRT_DOUBLE@@U1@@?$standard_base@DV?$string_output_adapter@D@__crt_stdio_output@@@__crt_stdio_output@@IEAA_NAEAU_CRT_DOUBLE@@@Z 00000001800f8d40 f i libucrtd:output.obj
 0001:000f7da0       ??$extract_argument_from_va_list@U_CRT_DOUBLE@@U1@@?$standard_base@_WV?$stream_output_adapter@_W@__crt_stdio_output@@@__crt_stdio_output@@IEAA_NAEAU_CRT_DOUBLE@@@Z 00000001800f8da0 f i libucrtd:output.obj
 0001:000f7e00       ??$extract_argument_from_va_list@U_CRT_DOUBLE@@U1@@?$standard_base@_WV?$string_output_adapter@_W@__crt_stdio_output@@@__crt_stdio_output@@IEAA_NAEAU_CRT_DOUBLE@@@Z 00000001800f8e00 f i libucrtd:output.obj
 0001:000f7e60       ??$extract_argument_from_va_list@_J_J@?$positional_parameter_base@DV?$stream_output_adapter@D@__crt_stdio_output@@@__crt_stdio_output@@IEAA_NAEA_J@Z 00000001800f8e60 f i libucrtd:output.obj
 0001:000f8040       ??$extract_argument_from_va_list@_J_J@?$positional_parameter_base@DV?$string_output_adapter@D@__crt_stdio_output@@@__crt_stdio_output@@IEAA_NAEA_J@Z 00000001800f9040 f i libucrtd:output.obj
 0001:000f8220       ??$extract_argument_from_va_list@_J_J@?$positional_parameter_base@_WV?$stream_output_adapter@_W@__crt_stdio_output@@@__crt_stdio_output@@IEAA_NAEA_J@Z 00000001800f9220 f i libucrtd:output.obj
 0001:000f8400       ??$extract_argument_from_va_list@_J_J@?$positional_parameter_base@_WV?$string_output_adapter@_W@__crt_stdio_output@@@__crt_stdio_output@@IEAA_NAEA_J@Z 00000001800f9400 f i libucrtd:output.obj
 0001:000f85e0       ??$extract_argument_from_va_list@_J_J@?$standard_base@DV?$stream_output_adapter@D@__crt_stdio_output@@@__crt_stdio_output@@IEAA_NAEA_J@Z 00000001800f95e0 f i libucrtd:output.obj
 0001:000f8620       ??$extract_argument_from_va_list@_J_J@?$standard_base@DV?$string_output_adapter@D@__crt_stdio_output@@@__crt_stdio_output@@IEAA_NAEA_J@Z 00000001800f9620 f i libucrtd:output.obj
 0001:000f8660       ??$extract_argument_from_va_list@_J_J@?$standard_base@_WV?$stream_output_adapter@_W@__crt_stdio_output@@@__crt_stdio_output@@IEAA_NAEA_J@Z 00000001800f9660 f i libucrtd:output.obj
 0001:000f86a0       ??$extract_argument_from_va_list@_J_J@?$standard_base@_WV?$string_output_adapter@_W@__crt_stdio_output@@@__crt_stdio_output@@IEAA_NAEA_J@Z 00000001800f96a0 f i libucrtd:output.obj
 0001:000f86e0       ??$extract_argument_from_va_list@_K_J@?$positional_parameter_base@DV?$stream_output_adapter@D@__crt_stdio_output@@@__crt_stdio_output@@IEAA_NAEA_J@Z 00000001800f96e0 f i libucrtd:output.obj
 0001:000f88c0       ??$extract_argument_from_va_list@_K_J@?$positional_parameter_base@DV?$string_output_adapter@D@__crt_stdio_output@@@__crt_stdio_output@@IEAA_NAEA_J@Z 00000001800f98c0 f i libucrtd:output.obj
 0001:000f8aa0       ??$extract_argument_from_va_list@_K_J@?$positional_parameter_base@_WV?$stream_output_adapter@_W@__crt_stdio_output@@@__crt_stdio_output@@IEAA_NAEA_J@Z 00000001800f9aa0 f i libucrtd:output.obj
 0001:000f8c80       ??$extract_argument_from_va_list@_K_J@?$positional_parameter_base@_WV?$string_output_adapter@_W@__crt_stdio_output@@@__crt_stdio_output@@IEAA_NAEA_J@Z 00000001800f9c80 f i libucrtd:output.obj
 0001:000f8e60       ??$extract_argument_from_va_list@_K_J@?$standard_base@DV?$stream_output_adapter@D@__crt_stdio_output@@@__crt_stdio_output@@IEAA_NAEA_J@Z 00000001800f9e60 f i libucrtd:output.obj
 0001:000f8ea0       ??$extract_argument_from_va_list@_K_J@?$standard_base@DV?$string_output_adapter@D@__crt_stdio_output@@@__crt_stdio_output@@IEAA_NAEA_J@Z 00000001800f9ea0 f i libucrtd:output.obj
 0001:000f8ee0       ??$extract_argument_from_va_list@_K_J@?$standard_base@_WV?$stream_output_adapter@_W@__crt_stdio_output@@@__crt_stdio_output@@IEAA_NAEA_J@Z 00000001800f9ee0 f i libucrtd:output.obj
 0001:000f8f20       ??$extract_argument_from_va_list@_K_J@?$standard_base@_WV?$string_output_adapter@_W@__crt_stdio_output@@@__crt_stdio_output@@IEAA_NAEA_J@Z 00000001800f9f20 f i libucrtd:output.obj
 0001:000f8f60       ??$extract_argument_from_va_list@_W_W@?$positional_parameter_base@DV?$stream_output_adapter@D@__crt_stdio_output@@@__crt_stdio_output@@IEAA_NAEA_W@Z 00000001800f9f60 f i libucrtd:output.obj
 0001:000f9140       ??$extract_argument_from_va_list@_W_W@?$positional_parameter_base@DV?$string_output_adapter@D@__crt_stdio_output@@@__crt_stdio_output@@IEAA_NAEA_W@Z 00000001800fa140 f i libucrtd:output.obj
 0001:000f9320       ??$extract_argument_from_va_list@_W_W@?$positional_parameter_base@_WV?$stream_output_adapter@_W@__crt_stdio_output@@@__crt_stdio_output@@IEAA_NAEA_W@Z 00000001800fa320 f i libucrtd:output.obj
 0001:000f9500       ??$extract_argument_from_va_list@_W_W@?$positional_parameter_base@_WV?$string_output_adapter@_W@__crt_stdio_output@@@__crt_stdio_output@@IEAA_NAEA_W@Z 00000001800fa500 f i libucrtd:output.obj
 0001:000f96e0       ??$extract_argument_from_va_list@_W_W@?$standard_base@DV?$stream_output_adapter@D@__crt_stdio_output@@@__crt_stdio_output@@IEAA_NAEA_W@Z 00000001800fa6e0 f i libucrtd:output.obj
 0001:000f9720       ??$extract_argument_from_va_list@_W_W@?$standard_base@DV?$string_output_adapter@D@__crt_stdio_output@@@__crt_stdio_output@@IEAA_NAEA_W@Z 00000001800fa720 f i libucrtd:output.obj
 0001:000f9760       ??$extract_argument_from_va_list@_W_W@?$standard_base@_WV?$stream_output_adapter@_W@__crt_stdio_output@@@__crt_stdio_output@@IEAA_NAEA_W@Z 00000001800fa760 f i libucrtd:output.obj
 0001:000f97a0       ??$extract_argument_from_va_list@_W_W@?$standard_base@_WV?$string_output_adapter@_W@__crt_stdio_output@@@__crt_stdio_output@@IEAA_NAEA_W@Z 00000001800fa7a0 f i libucrtd:output.obj
 0001:000f97e0       ??$get_parameter_type@D@?$positional_parameter_base@DV?$stream_output_adapter@D@__crt_stdio_output@@@__crt_stdio_output@@CA?AW4parameter_type@01@PEAD@Z 00000001800fa7e0 f i libucrtd:output.obj
 0001:000f97f0       ??$get_parameter_type@D@?$positional_parameter_base@DV?$string_output_adapter@D@__crt_stdio_output@@@__crt_stdio_output@@CA?AW4parameter_type@01@PEAD@Z 00000001800fa7f0 f i libucrtd:output.obj
 0001:000f9800       ??$get_parameter_type@D@?$positional_parameter_base@_WV?$stream_output_adapter@_W@__crt_stdio_output@@@__crt_stdio_output@@CA?AW4parameter_type@01@PEAD@Z 00000001800fa800 f i libucrtd:output.obj
 0001:000f9810       ??$get_parameter_type@D@?$positional_parameter_base@_WV?$string_output_adapter@_W@__crt_stdio_output@@@__crt_stdio_output@@CA?AW4parameter_type@01@PEAD@Z 00000001800fa810 f i libucrtd:output.obj
 0001:000f9820       ??$get_parameter_type@Uansi_string@?1??type_case_Z@?$output_processor@DV?$stream_output_adapter@D@__crt_stdio_output@@V?$positional_parameter_base@DV?$stream_output_adapter@D@__crt_stdio_output@@@2@@__crt_stdio_output@@AEAA_NXZ@@?$positional_parameter_base@DV?$stream_output_adapter@D@__crt_stdio_output@@@__crt_stdio_output@@CA?AW4parameter_type@01@PEAUansi_string@?1??type_case_Z@?$output_processor@DV?$stream_output_adapter@D@__crt_stdio_output@@V?$positional_parameter_base@DV?$stream_output_adapter@D@__crt_stdio_output@@@2@@1@AEAA_NXZ@@Z 00000001800fa820 f i libucrtd:output.obj
 0001:000f9830       ??$get_parameter_type@Uansi_string@?1??type_case_Z@?$output_processor@DV?$string_output_adapter@D@__crt_stdio_output@@V?$positional_parameter_base@DV?$string_output_adapter@D@__crt_stdio_output@@@2@@__crt_stdio_output@@AEAA_NXZ@@?$positional_parameter_base@DV?$string_output_adapter@D@__crt_stdio_output@@@__crt_stdio_output@@CA?AW4parameter_type@01@PEAUansi_string@?1??type_case_Z@?$output_processor@DV?$string_output_adapter@D@__crt_stdio_output@@V?$positional_parameter_base@DV?$string_output_adapter@D@__crt_stdio_output@@@2@@1@AEAA_NXZ@@Z 00000001800fa830 f i libucrtd:output.obj
 0001:000f9840       ??$get_parameter_type@Uansi_string@?1??type_case_Z@?$output_processor@_WV?$stream_output_adapter@_W@__crt_stdio_output@@V?$positional_parameter_base@_WV?$stream_output_adapter@_W@__crt_stdio_output@@@2@@__crt_stdio_output@@AEAA_NXZ@@?$positional_parameter_base@_WV?$stream_output_adapter@_W@__crt_stdio_output@@@__crt_stdio_output@@CA?AW4parameter_type@01@PEAUansi_string@?1??type_case_Z@?$output_processor@_WV?$stream_output_adapter@_W@__crt_stdio_output@@V?$positional_parameter_base@_WV?$stream_output_adapter@_W@__crt_stdio_output@@@2@@1@AEAA_NXZ@@Z 00000001800fa840 f i libucrtd:output.obj
 0001:000f9850       ??$get_parameter_type@Uansi_string@?1??type_case_Z@?$output_processor@_WV?$string_output_adapter@_W@__crt_stdio_output@@V?$positional_parameter_base@_WV?$string_output_adapter@_W@__crt_stdio_output@@@2@@__crt_stdio_output@@AEAA_NXZ@@?$positional_parameter_base@_WV?$string_output_adapter@_W@__crt_stdio_output@@@__crt_stdio_output@@CA?AW4parameter_type@01@PEAUansi_string@?1??type_case_Z@?$output_processor@_WV?$string_output_adapter@_W@__crt_stdio_output@@V?$positional_parameter_base@_WV?$string_output_adapter@_W@__crt_stdio_output@@@2@@1@AEAA_NXZ@@Z 00000001800fa850 f i libucrtd:output.obj
 0001:000f9860       ??$get_parameter_type@X@?$positional_parameter_base@DV?$stream_output_adapter@D@__crt_stdio_output@@@__crt_stdio_output@@CA?AW4parameter_type@01@PEAX@Z 00000001800fa860 f i libucrtd:output.obj
 0001:000f9870       ??$get_parameter_type@X@?$positional_parameter_base@DV?$string_output_adapter@D@__crt_stdio_output@@@__crt_stdio_output@@CA?AW4parameter_type@01@PEAX@Z 00000001800fa870 f i libucrtd:output.obj
 0001:000f9880       ??$get_parameter_type@X@?$positional_parameter_base@_WV?$stream_output_adapter@_W@__crt_stdio_output@@@__crt_stdio_output@@CA?AW4parameter_type@01@PEAX@Z 00000001800fa880 f i libucrtd:output.obj
 0001:000f9890       ??$get_parameter_type@X@?$positional_parameter_base@_WV?$string_output_adapter@_W@__crt_stdio_output@@@__crt_stdio_output@@CA?AW4parameter_type@01@PEAX@Z 00000001800fa890 f i libucrtd:output.obj
 0001:000f98a0       ??$is_character_specifier@D@?$positional_parameter_base@DV?$stream_output_adapter@D@__crt_stdio_output@@@__crt_stdio_output@@CA_ND@Z 00000001800fa8a0 f i libucrtd:output.obj
 0001:000f98f0       ??$is_character_specifier@D@?$positional_parameter_base@DV?$string_output_adapter@D@__crt_stdio_output@@@__crt_stdio_output@@CA_ND@Z 00000001800fa8f0 f i libucrtd:output.obj
 0001:000f9940       ??$is_character_specifier@_W@?$positional_parameter_base@_WV?$stream_output_adapter@_W@__crt_stdio_output@@@__crt_stdio_output@@CA_N_W@Z 00000001800fa940 f i libucrtd:output.obj
 0001:000f9990       ??$is_character_specifier@_W@?$positional_parameter_base@_WV?$string_output_adapter@_W@__crt_stdio_output@@@__crt_stdio_output@@CA_N_W@Z 00000001800fa990 f i libucrtd:output.obj
 0001:000f99e0       ??$is_integral_specifier@D@?$positional_parameter_base@DV?$stream_output_adapter@D@__crt_stdio_output@@@__crt_stdio_output@@CA_ND@Z 00000001800fa9e0 f i libucrtd:output.obj
 0001:000f9a60       ??$is_integral_specifier@D@?$positional_parameter_base@DV?$string_output_adapter@D@__crt_stdio_output@@@__crt_stdio_output@@CA_ND@Z 00000001800faa60 f i libucrtd:output.obj
 0001:000f9ae0       ??$is_integral_specifier@_W@?$positional_parameter_base@_WV?$stream_output_adapter@_W@__crt_stdio_output@@@__crt_stdio_output@@CA_N_W@Z 00000001800faae0 f i libucrtd:output.obj
 0001:000f9b70       ??$is_integral_specifier@_W@?$positional_parameter_base@_WV?$string_output_adapter@_W@__crt_stdio_output@@@__crt_stdio_output@@CA_N_W@Z 00000001800fab70 f i libucrtd:output.obj
 0001:000f9c00       ??$is_pointer_specifier@D@?$positional_parameter_base@DV?$stream_output_adapter@D@__crt_stdio_output@@@__crt_stdio_output@@CA_ND@Z 00000001800fac00 f i libucrtd:output.obj
 0001:000f9c40       ??$is_pointer_specifier@D@?$positional_parameter_base@DV?$string_output_adapter@D@__crt_stdio_output@@@__crt_stdio_output@@CA_ND@Z 00000001800fac40 f i libucrtd:output.obj
 0001:000f9c80       ??$is_pointer_specifier@_W@?$positional_parameter_base@_WV?$stream_output_adapter@_W@__crt_stdio_output@@@__crt_stdio_output@@CA_N_W@Z 00000001800fac80 f i libucrtd:output.obj
 0001:000f9cc0       ??$is_pointer_specifier@_W@?$positional_parameter_base@_WV?$string_output_adapter@_W@__crt_stdio_output@@@__crt_stdio_output@@CA_N_W@Z 00000001800facc0 f i libucrtd:output.obj
 0001:000f9d00       ??$is_string_specifier@D@?$positional_parameter_base@DV?$stream_output_adapter@D@__crt_stdio_output@@@__crt_stdio_output@@CA_ND@Z 00000001800fad00 f i libucrtd:output.obj
 0001:000f9d50       ??$is_string_specifier@D@?$positional_parameter_base@DV?$string_output_adapter@D@__crt_stdio_output@@@__crt_stdio_output@@CA_ND@Z 00000001800fad50 f i libucrtd:output.obj
 0001:000f9da0       ??$is_string_specifier@_W@?$positional_parameter_base@_WV?$stream_output_adapter@_W@__crt_stdio_output@@@__crt_stdio_output@@CA_N_W@Z 00000001800fada0 f i libucrtd:output.obj
 0001:000f9df0       ??$is_string_specifier@_W@?$positional_parameter_base@_WV?$string_output_adapter@_W@__crt_stdio_output@@@__crt_stdio_output@@CA_N_W@Z 00000001800fadf0 f i libucrtd:output.obj
 0001:000f9e40       ??$is_wide_character_specifier@D@__crt_stdio_output@@YA_N_KDW4length_modifier@0@@Z 00000001800fae40 f i libucrtd:output.obj
 0001:000f9f00       ??$is_wide_character_specifier@_W@__crt_stdio_output@@YA_N_K_WW4length_modifier@0@@Z 00000001800faf00 f i libucrtd:output.obj
 0001:000fa000       ??$peek_va_arg@C@__crt_stdio_output@@YACPEAD@Z 00000001800fb000 f i libucrtd:output.obj
 0001:000fa070       ??$peek_va_arg@E@__crt_stdio_output@@YAEPEAD@Z 00000001800fb070 f i libucrtd:output.obj
 0001:000fa0e0       ??$peek_va_arg@F@__crt_stdio_output@@YAFPEAD@Z 00000001800fb0e0 f i libucrtd:output.obj
 0001:000fa150       ??$peek_va_arg@G@__crt_stdio_output@@YAGPEAD@Z 00000001800fb150 f i libucrtd:output.obj
 0001:000fa1c0       ??$peek_va_arg@H@__crt_stdio_output@@YAHPEAD@Z 00000001800fb1c0 f i libucrtd:output.obj
 0001:000fa230       ??$peek_va_arg@I@__crt_stdio_output@@YAIPEAD@Z 00000001800fb230 f i libucrtd:output.obj
 0001:000fa2a0       ??$peek_va_arg@PEAD@__crt_stdio_output@@YAPEADPEAD@Z 00000001800fb2a0 f i libucrtd:output.obj
 0001:000fa310       ??$peek_va_arg@PEAUansi_string@?1??type_case_Z@?$output_processor@DV?$stream_output_adapter@D@__crt_stdio_output@@V?$positional_parameter_base@DV?$stream_output_adapter@D@__crt_stdio_output@@@2@@__crt_stdio_output@@AEAA_NXZ@@__crt_stdio_output@@YAPEAUansi_string@?1??type_case_Z@?$output_processor@DV?$stream_output_adapter@D@__crt_stdio_output@@V?$positional_parameter_base@DV?$stream_output_adapter@D@__crt_stdio_output@@@2@@0@AEAA_NXZ@PEAD@Z 00000001800fb310 f i libucrtd:output.obj
 0001:000fa380       ??$peek_va_arg@PEAUansi_string@?1??type_case_Z@?$output_processor@DV?$string_output_adapter@D@__crt_stdio_output@@V?$positional_parameter_base@DV?$string_output_adapter@D@__crt_stdio_output@@@2@@__crt_stdio_output@@AEAA_NXZ@@__crt_stdio_output@@YAPEAUansi_string@?1??type_case_Z@?$output_processor@DV?$string_output_adapter@D@__crt_stdio_output@@V?$positional_parameter_base@DV?$string_output_adapter@D@__crt_stdio_output@@@2@@0@AEAA_NXZ@PEAD@Z 00000001800fb380 f i libucrtd:output.obj
 0001:000fa3f0       ??$peek_va_arg@PEAUansi_string@?1??type_case_Z@?$output_processor@_WV?$stream_output_adapter@_W@__crt_stdio_output@@V?$positional_parameter_base@_WV?$stream_output_adapter@_W@__crt_stdio_output@@@2@@__crt_stdio_output@@AEAA_NXZ@@__crt_stdio_output@@YAPEAUansi_string@?1??type_case_Z@?$output_processor@_WV?$stream_output_adapter@_W@__crt_stdio_output@@V?$positional_parameter_base@_WV?$stream_output_adapter@_W@__crt_stdio_output@@@2@@0@AEAA_NXZ@PEAD@Z 00000001800fb3f0 f i libucrtd:output.obj
 0001:000fa460       ??$peek_va_arg@PEAUansi_string@?1??type_case_Z@?$output_processor@_WV?$string_output_adapter@_W@__crt_stdio_output@@V?$positional_parameter_base@_WV?$string_output_adapter@_W@__crt_stdio_output@@@2@@__crt_stdio_output@@AEAA_NXZ@@__crt_stdio_output@@YAPEAUansi_string@?1??type_case_Z@?$output_processor@_WV?$string_output_adapter@_W@__crt_stdio_output@@V?$positional_parameter_base@_WV?$string_output_adapter@_W@__crt_stdio_output@@@2@@0@AEAA_NXZ@PEAD@Z 00000001800fb460 f i libucrtd:output.obj
 0001:000fa4d0       ??$peek_va_arg@PEAX@__crt_stdio_output@@YAPEAXPEAD@Z 00000001800fb4d0 f i libucrtd:output.obj
 0001:000fa540       ??$peek_va_arg@U_CRT_DOUBLE@@@__crt_stdio_output@@YA?AU_CRT_DOUBLE@@PEAD@Z 00000001800fb540 f i libucrtd:output.obj
 0001:000fa5b0       ??$peek_va_arg@_J@__crt_stdio_output@@YA_JPEAD@Z 00000001800fb5b0 f i libucrtd:output.obj
 0001:000fa620       ??$peek_va_arg@_K@__crt_stdio_output@@YA_KPEAD@Z 00000001800fb620 f i libucrtd:output.obj
 0001:000fa690       ??$peek_va_arg@_W@__crt_stdio_output@@YA_WPEAD@Z 00000001800fb690 f i libucrtd:output.obj
 0001:000fa700       ??$puttc_nolock@AEBDPEAU_iobuf@@@?$__crt_char_traits@D@@SAHAEBD$$QEAPEAU_iobuf@@@Z 00000001800fb700 f i libucrtd:output.obj
 0001:000fa740       ??$puttc_nolock@AEB_WPEAU_iobuf@@@?$__crt_char_traits@_W@@SAGAEB_W$$QEAPEAU_iobuf@@@Z 00000001800fb740 f i libucrtd:output.obj
 0001:000fa780       ??$read_va_arg@C@__crt_stdio_output@@YACAEAPEAD@Z 00000001800fb780 f i libucrtd:output.obj
 0001:000fa800       ??$read_va_arg@E@__crt_stdio_output@@YAEAEAPEAD@Z 00000001800fb800 f i libucrtd:output.obj
 0001:000fa880       ??$read_va_arg@F@__crt_stdio_output@@YAFAEAPEAD@Z 00000001800fb880 f i libucrtd:output.obj
 0001:000fa900       ??$read_va_arg@G@__crt_stdio_output@@YAGAEAPEAD@Z 00000001800fb900 f i libucrtd:output.obj
 0001:000fa980       ??$read_va_arg@H@__crt_stdio_output@@YAHAEAPEAD@Z 00000001800fb980 f i libucrtd:output.obj
 0001:000faa00       ??$read_va_arg@I@__crt_stdio_output@@YAIAEAPEAD@Z 00000001800fba00 f i libucrtd:output.obj
 0001:000faa80       ??$read_va_arg@PEAD@__crt_stdio_output@@YAPEADAEAPEAD@Z 00000001800fba80 f i libucrtd:output.obj
 0001:000fab00       ??$read_va_arg@PEAUansi_string@?1??type_case_Z@?$output_processor@DV?$stream_output_adapter@D@__crt_stdio_output@@V?$format_validation_base@DV?$stream_output_adapter@D@__crt_stdio_output@@@2@@__crt_stdio_output@@AEAA_NXZ@@__crt_stdio_output@@YAPEAUansi_string@?1??type_case_Z@?$output_processor@DV?$stream_output_adapter@D@__crt_stdio_output@@V?$format_validation_base@DV?$stream_output_adapter@D@__crt_stdio_output@@@2@@0@AEAA_NXZ@AEAPEAD@Z 00000001800fbb00 f i libucrtd:output.obj
 0001:000fab80       ??$read_va_arg@PEAUansi_string@?1??type_case_Z@?$output_processor@DV?$stream_output_adapter@D@__crt_stdio_output@@V?$positional_parameter_base@DV?$stream_output_adapter@D@__crt_stdio_output@@@2@@__crt_stdio_output@@AEAA_NXZ@@__crt_stdio_output@@YAPEAUansi_string@?1??type_case_Z@?$output_processor@DV?$stream_output_adapter@D@__crt_stdio_output@@V?$positional_parameter_base@DV?$stream_output_adapter@D@__crt_stdio_output@@@2@@0@AEAA_NXZ@AEAPEAD@Z 00000001800fbb80 f i libucrtd:output.obj
 0001:000fac00       ??$read_va_arg@PEAUansi_string@?1??type_case_Z@?$output_processor@DV?$stream_output_adapter@D@__crt_stdio_output@@V?$standard_base@DV?$stream_output_adapter@D@__crt_stdio_output@@@2@@__crt_stdio_output@@AEAA_NXZ@@__crt_stdio_output@@YAPEAUansi_string@?1??type_case_Z@?$output_processor@DV?$stream_output_adapter@D@__crt_stdio_output@@V?$standard_base@DV?$stream_output_adapter@D@__crt_stdio_output@@@2@@0@AEAA_NXZ@AEAPEAD@Z 00000001800fbc00 f i libucrtd:output.obj
 0001:000fac80       ??$read_va_arg@PEAUansi_string@?1??type_case_Z@?$output_processor@DV?$string_output_adapter@D@__crt_stdio_output@@V?$format_validation_base@DV?$string_output_adapter@D@__crt_stdio_output@@@2@@__crt_stdio_output@@AEAA_NXZ@@__crt_stdio_output@@YAPEAUansi_string@?1??type_case_Z@?$output_processor@DV?$string_output_adapter@D@__crt_stdio_output@@V?$format_validation_base@DV?$string_output_adapter@D@__crt_stdio_output@@@2@@0@AEAA_NXZ@AEAPEAD@Z 00000001800fbc80 f i libucrtd:output.obj
 0001:000fad00       ??$read_va_arg@PEAUansi_string@?1??type_case_Z@?$output_processor@DV?$string_output_adapter@D@__crt_stdio_output@@V?$positional_parameter_base@DV?$string_output_adapter@D@__crt_stdio_output@@@2@@__crt_stdio_output@@AEAA_NXZ@@__crt_stdio_output@@YAPEAUansi_string@?1??type_case_Z@?$output_processor@DV?$string_output_adapter@D@__crt_stdio_output@@V?$positional_parameter_base@DV?$string_output_adapter@D@__crt_stdio_output@@@2@@0@AEAA_NXZ@AEAPEAD@Z 00000001800fbd00 f i libucrtd:output.obj
 0001:000fad80       ??$read_va_arg@PEAUansi_string@?1??type_case_Z@?$output_processor@DV?$string_output_adapter@D@__crt_stdio_output@@V?$standard_base@DV?$string_output_adapter@D@__crt_stdio_output@@@2@@__crt_stdio_output@@AEAA_NXZ@@__crt_stdio_output@@YAPEAUansi_string@?1??type_case_Z@?$output_processor@DV?$string_output_adapter@D@__crt_stdio_output@@V?$standard_base@DV?$string_output_adapter@D@__crt_stdio_output@@@2@@0@AEAA_NXZ@AEAPEAD@Z 00000001800fbd80 f i libucrtd:output.obj
 0001:000fae00       ??$read_va_arg@PEAUansi_string@?1??type_case_Z@?$output_processor@_WV?$stream_output_adapter@_W@__crt_stdio_output@@V?$format_validation_base@_WV?$stream_output_adapter@_W@__crt_stdio_output@@@2@@__crt_stdio_output@@AEAA_NXZ@@__crt_stdio_output@@YAPEAUansi_string@?1??type_case_Z@?$output_processor@_WV?$stream_output_adapter@_W@__crt_stdio_output@@V?$format_validation_base@_WV?$stream_output_adapter@_W@__crt_stdio_output@@@2@@0@AEAA_NXZ@AEAPEAD@Z 00000001800fbe00 f i libucrtd:output.obj
 0001:000fae80       ??$read_va_arg@PEAUansi_string@?1??type_case_Z@?$output_processor@_WV?$stream_output_adapter@_W@__crt_stdio_output@@V?$positional_parameter_base@_WV?$stream_output_adapter@_W@__crt_stdio_output@@@2@@__crt_stdio_output@@AEAA_NXZ@@__crt_stdio_output@@YAPEAUansi_string@?1??type_case_Z@?$output_processor@_WV?$stream_output_adapter@_W@__crt_stdio_output@@V?$positional_parameter_base@_WV?$stream_output_adapter@_W@__crt_stdio_output@@@2@@0@AEAA_NXZ@AEAPEAD@Z 00000001800fbe80 f i libucrtd:output.obj
 0001:000faf00       ??$read_va_arg@PEAUansi_string@?1??type_case_Z@?$output_processor@_WV?$stream_output_adapter@_W@__crt_stdio_output@@V?$standard_base@_WV?$stream_output_adapter@_W@__crt_stdio_output@@@2@@__crt_stdio_output@@AEAA_NXZ@@__crt_stdio_output@@YAPEAUansi_string@?1??type_case_Z@?$output_processor@_WV?$stream_output_adapter@_W@__crt_stdio_output@@V?$standard_base@_WV?$stream_output_adapter@_W@__crt_stdio_output@@@2@@0@AEAA_NXZ@AEAPEAD@Z 00000001800fbf00 f i libucrtd:output.obj
 0001:000faf80       ??$read_va_arg@PEAUansi_string@?1??type_case_Z@?$output_processor@_WV?$string_output_adapter@_W@__crt_stdio_output@@V?$format_validation_base@_WV?$string_output_adapter@_W@__crt_stdio_output@@@2@@__crt_stdio_output@@AEAA_NXZ@@__crt_stdio_output@@YAPEAUansi_string@?1??type_case_Z@?$output_processor@_WV?$string_output_adapter@_W@__crt_stdio_output@@V?$format_validation_base@_WV?$string_output_adapter@_W@__crt_stdio_output@@@2@@0@AEAA_NXZ@AEAPEAD@Z 00000001800fbf80 f i libucrtd:output.obj
 0001:000fb000       ??$read_va_arg@PEAUansi_string@?1??type_case_Z@?$output_processor@_WV?$string_output_adapter@_W@__crt_stdio_output@@V?$positional_parameter_base@_WV?$string_output_adapter@_W@__crt_stdio_output@@@2@@__crt_stdio_output@@AEAA_NXZ@@__crt_stdio_output@@YAPEAUansi_string@?1??type_case_Z@?$output_processor@_WV?$string_output_adapter@_W@__crt_stdio_output@@V?$positional_parameter_base@_WV?$string_output_adapter@_W@__crt_stdio_output@@@2@@0@AEAA_NXZ@AEAPEAD@Z 00000001800fc000 f i libucrtd:output.obj
 0001:000fb080       ??$read_va_arg@PEAUansi_string@?1??type_case_Z@?$output_processor@_WV?$string_output_adapter@_W@__crt_stdio_output@@V?$standard_base@_WV?$string_output_adapter@_W@__crt_stdio_output@@@2@@__crt_stdio_output@@AEAA_NXZ@@__crt_stdio_output@@YAPEAUansi_string@?1??type_case_Z@?$output_processor@_WV?$string_output_adapter@_W@__crt_stdio_output@@V?$standard_base@_WV?$string_output_adapter@_W@__crt_stdio_output@@@2@@0@AEAA_NXZ@AEAPEAD@Z 00000001800fc080 f i libucrtd:output.obj
 0001:000fb100       ??$read_va_arg@PEAX@__crt_stdio_output@@YAPEAXAEAPEAD@Z 00000001800fc100 f i libucrtd:output.obj
 0001:000fb180       ??$read_va_arg@U_CRT_DOUBLE@@@__crt_stdio_output@@YA?AU_CRT_DOUBLE@@AEAPEAD@Z 00000001800fc180 f i libucrtd:output.obj
 0001:000fb200       ??$read_va_arg@_J@__crt_stdio_output@@YA_JAEAPEAD@Z 00000001800fc200 f i libucrtd:output.obj
 0001:000fb280       ??$read_va_arg@_K@__crt_stdio_output@@YA_KAEAPEAD@Z 00000001800fc280 f i libucrtd:output.obj
 0001:000fb300       ??$read_va_arg@_W@__crt_stdio_output@@YA_WAEAPEAD@Z 00000001800fc300 f i libucrtd:output.obj
 0001:000fb380       ??$scratch_count@D@formatting_buffer@__crt_stdio_output@@QEBA_KXZ 00000001800fc380 f i libucrtd:output.obj
 0001:000fb3a0       ??$scratch_data@D@formatting_buffer@__crt_stdio_output@@QEAAPEADXZ 00000001800fc3a0 f i libucrtd:output.obj
 0001:000fb430       ??$tcstol@AEAPEBDPEAPEADH@?$__crt_char_traits@D@@SAJAEAPEBD$$QEAPEAPEAD$$QEAH@Z 00000001800fc430 f i libucrtd:output.obj
 0001:000fb480       ??$tcstol@AEAPEB_WPEAPEA_WH@?$__crt_char_traits@_W@@SAJAEAPEB_W$$QEAPEAPEA_W$$QEAH@Z 00000001800fc480 f i libucrtd:output.obj
 0001:000fb4d0       ??$tcstol@PEBDPEAPEADH@?$__crt_char_traits@D@@SAJ$$QEAPEBD$$QEAPEAPEAD$$QEAH@Z 00000001800fc4d0 f i libucrtd:output.obj
 0001:000fb520       ??$tcstol@PEB_WPEAPEA_WH@?$__crt_char_traits@_W@@SAJ$$QEAPEB_W$$QEAPEAPEA_W$$QEAH@Z 00000001800fc520 f i libucrtd:output.obj
 0001:000fb570       ??$type_case_integer_parse_into_buffer@I@?$output_processor@DV?$stream_output_adapter@D@__crt_stdio_output@@V?$format_validation_base@DV?$stream_output_adapter@D@__crt_stdio_output@@@2@@__crt_stdio_output@@AEAAXII_N@Z 00000001800fc570 f i libucrtd:output.obj
 0001:000fb6e0       ??$type_case_integer_parse_into_buffer@I@?$output_processor@DV?$stream_output_adapter@D@__crt_stdio_output@@V?$positional_parameter_base@DV?$stream_output_adapter@D@__crt_stdio_output@@@2@@__crt_stdio_output@@AEAAXII_N@Z 00000001800fc6e0 f i libucrtd:output.obj
 0001:000fb850       ??$type_case_integer_parse_into_buffer@I@?$output_processor@DV?$stream_output_adapter@D@__crt_stdio_output@@V?$standard_base@DV?$stream_output_adapter@D@__crt_stdio_output@@@2@@__crt_stdio_output@@AEAAXII_N@Z 00000001800fc850 f i libucrtd:output.obj
 0001:000fb9c0       ??$type_case_integer_parse_into_buffer@I@?$output_processor@DV?$string_output_adapter@D@__crt_stdio_output@@V?$format_validation_base@DV?$string_output_adapter@D@__crt_stdio_output@@@2@@__crt_stdio_output@@AEAAXII_N@Z 00000001800fc9c0 f i libucrtd:output.obj
 0001:000fbb30       ??$type_case_integer_parse_into_buffer@I@?$output_processor@DV?$string_output_adapter@D@__crt_stdio_output@@V?$positional_parameter_base@DV?$string_output_adapter@D@__crt_stdio_output@@@2@@__crt_stdio_output@@AEAAXII_N@Z 00000001800fcb30 f i libucrtd:output.obj
 0001:000fbca0       ??$type_case_integer_parse_into_buffer@I@?$output_processor@DV?$string_output_adapter@D@__crt_stdio_output@@V?$standard_base@DV?$string_output_adapter@D@__crt_stdio_output@@@2@@__crt_stdio_output@@AEAAXII_N@Z 00000001800fcca0 f i libucrtd:output.obj
 0001:000fbe10       ??$type_case_integer_parse_into_buffer@I@?$output_processor@_WV?$stream_output_adapter@_W@__crt_stdio_output@@V?$format_validation_base@_WV?$stream_output_adapter@_W@__crt_stdio_output@@@2@@__crt_stdio_output@@AEAAXII_N@Z 00000001800fce10 f i libucrtd:output.obj
 0001:000fbfa0       ??$type_case_integer_parse_into_buffer@I@?$output_processor@_WV?$stream_output_adapter@_W@__crt_stdio_output@@V?$positional_parameter_base@_WV?$stream_output_adapter@_W@__crt_stdio_output@@@2@@__crt_stdio_output@@AEAAXII_N@Z 00000001800fcfa0 f i libucrtd:output.obj
 0001:000fc130       ??$type_case_integer_parse_into_buffer@I@?$output_processor@_WV?$stream_output_adapter@_W@__crt_stdio_output@@V?$standard_base@_WV?$stream_output_adapter@_W@__crt_stdio_output@@@2@@__crt_stdio_output@@AEAAXII_N@Z 00000001800fd130 f i libucrtd:output.obj
 0001:000fc2c0       ??$type_case_integer_parse_into_buffer@I@?$output_processor@_WV?$string_output_adapter@_W@__crt_stdio_output@@V?$format_validation_base@_WV?$string_output_adapter@_W@__crt_stdio_output@@@2@@__crt_stdio_output@@AEAAXII_N@Z 00000001800fd2c0 f i libucrtd:output.obj
 0001:000fc450       ??$type_case_integer_parse_into_buffer@I@?$output_processor@_WV?$string_output_adapter@_W@__crt_stdio_output@@V?$positional_parameter_base@_WV?$string_output_adapter@_W@__crt_stdio_output@@@2@@__crt_stdio_output@@AEAAXII_N@Z 00000001800fd450 f i libucrtd:output.obj
 0001:000fc5e0       ??$type_case_integer_parse_into_buffer@I@?$output_processor@_WV?$string_output_adapter@_W@__crt_stdio_output@@V?$standard_base@_WV?$string_output_adapter@_W@__crt_stdio_output@@@2@@__crt_stdio_output@@AEAAXII_N@Z 00000001800fd5e0 f i libucrtd:output.obj
 0001:000fc770       ??$type_case_integer_parse_into_buffer@_K@?$output_processor@DV?$stream_output_adapter@D@__crt_stdio_output@@V?$format_validation_base@DV?$stream_output_adapter@D@__crt_stdio_output@@@2@@__crt_stdio_output@@AEAAX_KI_N@Z 00000001800fd770 f i libucrtd:output.obj
 0001:000fc910       ??$type_case_integer_parse_into_buffer@_K@?$output_processor@DV?$stream_output_adapter@D@__crt_stdio_output@@V?$positional_parameter_base@DV?$stream_output_adapter@D@__crt_stdio_output@@@2@@__crt_stdio_output@@AEAAX_KI_N@Z 00000001800fd910 f i libucrtd:output.obj
 0001:000fcab0       ??$type_case_integer_parse_into_buffer@_K@?$output_processor@DV?$stream_output_adapter@D@__crt_stdio_output@@V?$standard_base@DV?$stream_output_adapter@D@__crt_stdio_output@@@2@@__crt_stdio_output@@AEAAX_KI_N@Z 00000001800fdab0 f i libucrtd:output.obj
 0001:000fcc50       ??$type_case_integer_parse_into_buffer@_K@?$output_processor@DV?$string_output_adapter@D@__crt_stdio_output@@V?$format_validation_base@DV?$string_output_adapter@D@__crt_stdio_output@@@2@@__crt_stdio_output@@AEAAX_KI_N@Z 00000001800fdc50 f i libucrtd:output.obj
 0001:000fcdf0       ??$type_case_integer_parse_into_buffer@_K@?$output_processor@DV?$string_output_adapter@D@__crt_stdio_output@@V?$positional_parameter_base@DV?$string_output_adapter@D@__crt_stdio_output@@@2@@__crt_stdio_output@@AEAAX_KI_N@Z 00000001800fddf0 f i libucrtd:output.obj
 0001:000fcf90       ??$type_case_integer_parse_into_buffer@_K@?$output_processor@DV?$string_output_adapter@D@__crt_stdio_output@@V?$standard_base@DV?$string_output_adapter@D@__crt_stdio_output@@@2@@__crt_stdio_output@@AEAAX_KI_N@Z 00000001800fdf90 f i libucrtd:output.obj
 0001:000fd130       ??$type_case_integer_parse_into_buffer@_K@?$output_processor@_WV?$stream_output_adapter@_W@__crt_stdio_output@@V?$format_validation_base@_WV?$stream_output_adapter@_W@__crt_stdio_output@@@2@@__crt_stdio_output@@AEAAX_KI_N@Z 00000001800fe130 f i libucrtd:output.obj
 0001:000fd2e0       ??$type_case_integer_parse_into_buffer@_K@?$output_processor@_WV?$stream_output_adapter@_W@__crt_stdio_output@@V?$positional_parameter_base@_WV?$stream_output_adapter@_W@__crt_stdio_output@@@2@@__crt_stdio_output@@AEAAX_KI_N@Z 00000001800fe2e0 f i libucrtd:output.obj
 0001:000fd490       ??$type_case_integer_parse_into_buffer@_K@?$output_processor@_WV?$stream_output_adapter@_W@__crt_stdio_output@@V?$standard_base@_WV?$stream_output_adapter@_W@__crt_stdio_output@@@2@@__crt_stdio_output@@AEAAX_KI_N@Z 00000001800fe490 f i libucrtd:output.obj
 0001:000fd640       ??$type_case_integer_parse_into_buffer@_K@?$output_processor@_WV?$string_output_adapter@_W@__crt_stdio_output@@V?$format_validation_base@_WV?$string_output_adapter@_W@__crt_stdio_output@@@2@@__crt_stdio_output@@AEAAX_KI_N@Z 00000001800fe640 f i libucrtd:output.obj
 0001:000fd7f0       ??$type_case_integer_parse_into_buffer@_K@?$output_processor@_WV?$string_output_adapter@_W@__crt_stdio_output@@V?$positional_parameter_base@_WV?$string_output_adapter@_W@__crt_stdio_output@@@2@@__crt_stdio_output@@AEAAX_KI_N@Z 00000001800fe7f0 f i libucrtd:output.obj
 0001:000fd9a0       ??$type_case_integer_parse_into_buffer@_K@?$output_processor@_WV?$string_output_adapter@_W@__crt_stdio_output@@V?$standard_base@_WV?$string_output_adapter@_W@__crt_stdio_output@@@2@@__crt_stdio_output@@AEAAX_KI_N@Z 00000001800fe9a0 f i libucrtd:output.obj
 0001:000fdb50       ??$write_multiple_characters@V?$stream_output_adapter@D@__crt_stdio_output@@D@__crt_stdio_output@@YAXAEBV?$stream_output_adapter@D@0@DHQEAH@Z 00000001800feb50 f i libucrtd:output.obj
 0001:000fdbd0       ??$write_multiple_characters@V?$stream_output_adapter@_W@__crt_stdio_output@@D@__crt_stdio_output@@YAXAEBV?$stream_output_adapter@_W@0@DHQEAH@Z 00000001800febd0 f i libucrtd:output.obj
 0001:000fdc50       ??$write_multiple_characters@V?$string_output_adapter@D@__crt_stdio_output@@D@__crt_stdio_output@@YAXAEBV?$string_output_adapter@D@0@DHQEAH@Z 00000001800fec50 f i libucrtd:output.obj
 0001:000fdcd0       ??$write_multiple_characters@V?$string_output_adapter@_W@__crt_stdio_output@@D@__crt_stdio_output@@YAXAEBV?$string_output_adapter@_W@0@DHQEAH@Z 00000001800fecd0 f i libucrtd:output.obj
 0001:000fe290       ??0?$common_data@D@__crt_stdio_output@@IEAA@XZ 00000001800ff290 f i libucrtd:output.obj
 0001:000fe390       ??0?$common_data@_W@__crt_stdio_output@@IEAA@XZ 00000001800ff390 f i libucrtd:output.obj
 0001:000fe490       ??0?$output_adapter_data@DV?$stream_output_adapter@D@__crt_stdio_output@@@__crt_stdio_output@@IEAA@AEBV?$stream_output_adapter@D@1@_KQEBDQEAU__crt_locale_pointers@@QEAD@Z 00000001800ff490 f i libucrtd:output.obj
 0001:000fe530       ??0?$output_adapter_data@DV?$string_output_adapter@D@__crt_stdio_output@@@__crt_stdio_output@@IEAA@AEBV?$string_output_adapter@D@1@_KQEBDQEAU__crt_locale_pointers@@QEAD@Z 00000001800ff530 f i libucrtd:output.obj
 0001:000fe5d0       ??0?$output_adapter_data@_WV?$stream_output_adapter@_W@__crt_stdio_output@@@__crt_stdio_output@@IEAA@AEBV?$stream_output_adapter@_W@1@_KQEB_WQEAU__crt_locale_pointers@@QEAD@Z 00000001800ff5d0 f i libucrtd:output.obj
 0001:000fe670       ??0?$output_adapter_data@_WV?$string_output_adapter@_W@__crt_stdio_output@@@__crt_stdio_output@@IEAA@AEBV?$string_output_adapter@_W@1@_KQEB_WQEAU__crt_locale_pointers@@QEAD@Z 00000001800ff670 f i libucrtd:output.obj
 0001:000fe710       ??0?$output_processor@DV?$stream_output_adapter@D@__crt_stdio_output@@V?$format_validation_base@DV?$stream_output_adapter@D@__crt_stdio_output@@@2@@__crt_stdio_output@@QEAA@AEBV?$stream_output_adapter@D@1@_KQEBDQEAU__crt_locale_pointers@@QEAD@Z 00000001800ff710 f i libucrtd:output.obj
 0001:000fe780       ??0?$output_processor@DV?$stream_output_adapter@D@__crt_stdio_output@@V?$positional_parameter_base@DV?$stream_output_adapter@D@__crt_stdio_output@@@2@@__crt_stdio_output@@QEAA@AEBV?$stream_output_adapter@D@1@_KQEBDQEAU__crt_locale_pointers@@QEAD@Z 00000001800ff780 f i libucrtd:output.obj
 0001:000fe7f0       ??0?$output_processor@DV?$stream_output_adapter@D@__crt_stdio_output@@V?$standard_base@DV?$stream_output_adapter@D@__crt_stdio_output@@@2@@__crt_stdio_output@@QEAA@AEBV?$stream_output_adapter@D@1@_KQEBDQEAU__crt_locale_pointers@@QEAD@Z 00000001800ff7f0 f i libucrtd:output.obj
 0001:000fe860       ??0?$output_processor@DV?$string_output_adapter@D@__crt_stdio_output@@V?$format_validation_base@DV?$string_output_adapter@D@__crt_stdio_output@@@2@@__crt_stdio_output@@QEAA@AEBV?$string_output_adapter@D@1@_KQEBDQEAU__crt_locale_pointers@@QEAD@Z 00000001800ff860 f i libucrtd:output.obj
 0001:000fe8d0       ??0?$output_processor@DV?$string_output_adapter@D@__crt_stdio_output@@V?$positional_parameter_base@DV?$string_output_adapter@D@__crt_stdio_output@@@2@@__crt_stdio_output@@QEAA@AEBV?$string_output_adapter@D@1@_KQEBDQEAU__crt_locale_pointers@@QEAD@Z 00000001800ff8d0 f i libucrtd:output.obj
 0001:000fe940       ??0?$output_processor@DV?$string_output_adapter@D@__crt_stdio_output@@V?$standard_base@DV?$string_output_adapter@D@__crt_stdio_output@@@2@@__crt_stdio_output@@QEAA@AEBV?$string_output_adapter@D@1@_KQEBDQEAU__crt_locale_pointers@@QEAD@Z 00000001800ff940 f i libucrtd:output.obj
 0001:000fe9b0       ??0?$output_processor@_WV?$stream_output_adapter@_W@__crt_stdio_output@@V?$format_validation_base@_WV?$stream_output_adapter@_W@__crt_stdio_output@@@2@@__crt_stdio_output@@QEAA@AEBV?$stream_output_adapter@_W@1@_KQEB_WQEAU__crt_locale_pointers@@QEAD@Z 00000001800ff9b0 f i libucrtd:output.obj
 0001:000fea20       ??0?$output_processor@_WV?$stream_output_adapter@_W@__crt_stdio_output@@V?$positional_parameter_base@_WV?$stream_output_adapter@_W@__crt_stdio_output@@@2@@__crt_stdio_output@@QEAA@AEBV?$stream_output_adapter@_W@1@_KQEB_WQEAU__crt_locale_pointers@@QEAD@Z 00000001800ffa20 f i libucrtd:output.obj
 0001:000fea90       ??0?$output_processor@_WV?$stream_output_adapter@_W@__crt_stdio_output@@V?$standard_base@_WV?$stream_output_adapter@_W@__crt_stdio_output@@@2@@__crt_stdio_output@@QEAA@AEBV?$stream_output_adapter@_W@1@_KQEB_WQEAU__crt_locale_pointers@@QEAD@Z 00000001800ffa90 f i libucrtd:output.obj
 0001:000feb00       ??0?$output_processor@_WV?$string_output_adapter@_W@__crt_stdio_output@@V?$format_validation_base@_WV?$string_output_adapter@_W@__crt_stdio_output@@@2@@__crt_stdio_output@@QEAA@AEBV?$string_output_adapter@_W@1@_KQEB_WQEAU__crt_locale_pointers@@QEAD@Z 00000001800ffb00 f i libucrtd:output.obj
 0001:000feb70       ??0?$output_processor@_WV?$string_output_adapter@_W@__crt_stdio_output@@V?$positional_parameter_base@_WV?$string_output_adapter@_W@__crt_stdio_output@@@2@@__crt_stdio_output@@QEAA@AEBV?$string_output_adapter@_W@1@_KQEB_WQEAU__crt_locale_pointers@@QEAD@Z 00000001800ffb70 f i libucrtd:output.obj
 0001:000febe0       ??0?$output_processor@_WV?$string_output_adapter@_W@__crt_stdio_output@@V?$standard_base@_WV?$string_output_adapter@_W@__crt_stdio_output@@@2@@__crt_stdio_output@@QEAA@AEBV?$string_output_adapter@_W@1@_KQEB_WQEAU__crt_locale_pointers@@QEAD@Z 00000001800ffbe0 f i libucrtd:output.obj
 0001:000fec50       ??0?$stream_output_adapter@D@__crt_stdio_output@@QEAA@QEAU_iobuf@@@Z 00000001800ffc50 f i libucrtd:output.obj
 0001:000fec90       ??0?$stream_output_adapter@_W@__crt_stdio_output@@QEAA@QEAU_iobuf@@@Z 00000001800ffc90 f i libucrtd:output.obj
 0001:000fecd0       ??0?$string_output_adapter@D@__crt_stdio_output@@QEAA@QEAU?$string_output_adapter_context@D@1@@Z 00000001800ffcd0 f i libucrtd:output.obj
 0001:000fed00       ??0?$string_output_adapter@_W@__crt_stdio_output@@QEAA@QEAU?$string_output_adapter_context@_W@1@@Z 00000001800ffd00 f i libucrtd:output.obj
 0001:000fed30       ??0_LocaleUpdate@@QEAA@QEAU__crt_locale_pointers@@@Z 00000001800ffd30 f i libucrtd:output.obj
 0001:000fee90       ??0__acrt_stdio_temporary_buffering_guard@@QEAA@QEAU_iobuf@@@Z 00000001800ffe90 f i libucrtd:output.obj
 0001:000feee0       ??0__crt_deferred_errno_cache@@QEAA@XZ 00000001800ffee0 f i libucrtd:output.obj
 0001:000fef00       ??0__crt_errno_guard@@QEAA@QEAH@Z 00000001800fff00 f i libucrtd:output.obj
 0001:000fef50       ??0formatting_buffer@__crt_stdio_output@@QEAA@XZ 00000001800fff50 f i libucrtd:output.obj
 0001:000fefa0       ??1?$common_data@D@__crt_stdio_output@@QEAA@XZ 00000001800fffa0 f i libucrtd:output.obj
 0001:000fefd0       ??1?$common_data@_W@__crt_stdio_output@@QEAA@XZ 00000001800fffd0 f i libucrtd:output.obj
 0001:000ff000       ??1?$format_validation_base@DV?$stream_output_adapter@D@__crt_stdio_output@@@__crt_stdio_output@@QEAA@XZ 0000000180100000 f i libucrtd:output.obj
 0001:000ff020       ??1?$format_validation_base@DV?$string_output_adapter@D@__crt_stdio_output@@@__crt_stdio_output@@QEAA@XZ 0000000180100020 f i libucrtd:output.obj
 0001:000ff040       ??1?$format_validation_base@_WV?$stream_output_adapter@_W@__crt_stdio_output@@@__crt_stdio_output@@QEAA@XZ 0000000180100040 f i libucrtd:output.obj
 0001:000ff060       ??1?$format_validation_base@_WV?$string_output_adapter@_W@__crt_stdio_output@@@__crt_stdio_output@@QEAA@XZ 0000000180100060 f i libucrtd:output.obj
 0001:000ff080       ??1?$output_adapter_data@DV?$stream_output_adapter@D@__crt_stdio_output@@@__crt_stdio_output@@QEAA@XZ 0000000180100080 f i libucrtd:output.obj
 0001:000ff0a0       ??1?$output_adapter_data@DV?$string_output_adapter@D@__crt_stdio_output@@@__crt_stdio_output@@QEAA@XZ 00000001801000a0 f i libucrtd:output.obj
 0001:000ff0c0       ??1?$output_adapter_data@_WV?$stream_output_adapter@_W@__crt_stdio_output@@@__crt_stdio_output@@QEAA@XZ 00000001801000c0 f i libucrtd:output.obj
 0001:000ff0e0       ??1?$output_adapter_data@_WV?$string_output_adapter@_W@__crt_stdio_output@@@__crt_stdio_output@@QEAA@XZ 00000001801000e0 f i libucrtd:output.obj
 0001:000ff100       ??1?$output_processor@DV?$stream_output_adapter@D@__crt_stdio_output@@V?$format_validation_base@DV?$stream_output_adapter@D@__crt_stdio_output@@@2@@__crt_stdio_output@@QEAA@XZ 0000000180100100 f i libucrtd:output.obj
 0001:000ff120       ??1?$output_processor@DV?$stream_output_adapter@D@__crt_stdio_output@@V?$positional_parameter_base@DV?$stream_output_adapter@D@__crt_stdio_output@@@2@@__crt_stdio_output@@QEAA@XZ 0000000180100120 f i libucrtd:output.obj
 0001:000ff140       ??1?$output_processor@DV?$stream_output_adapter@D@__crt_stdio_output@@V?$standard_base@DV?$stream_output_adapter@D@__crt_stdio_output@@@2@@__crt_stdio_output@@QEAA@XZ 0000000180100140 f i libucrtd:output.obj
 0001:000ff160       ??1?$output_processor@DV?$string_output_adapter@D@__crt_stdio_output@@V?$format_validation_base@DV?$string_output_adapter@D@__crt_stdio_output@@@2@@__crt_stdio_output@@QEAA@XZ 0000000180100160 f i libucrtd:output.obj
 0001:000ff180       ??1?$output_processor@DV?$string_output_adapter@D@__crt_stdio_output@@V?$positional_parameter_base@DV?$string_output_adapter@D@__crt_stdio_output@@@2@@__crt_stdio_output@@QEAA@XZ 0000000180100180 f i libucrtd:output.obj
 0001:000ff1a0       ??1?$output_processor@DV?$string_output_adapter@D@__crt_stdio_output@@V?$standard_base@DV?$string_output_adapter@D@__crt_stdio_output@@@2@@__crt_stdio_output@@QEAA@XZ 00000001801001a0 f i libucrtd:output.obj
 0001:000ff1c0       ??1?$output_processor@_WV?$stream_output_adapter@_W@__crt_stdio_output@@V?$format_validation_base@_WV?$stream_output_adapter@_W@__crt_stdio_output@@@2@@__crt_stdio_output@@QEAA@XZ 00000001801001c0 f i libucrtd:output.obj
 0001:000ff1e0       ??1?$output_processor@_WV?$stream_output_adapter@_W@__crt_stdio_output@@V?$positional_parameter_base@_WV?$stream_output_adapter@_W@__crt_stdio_output@@@2@@__crt_stdio_output@@QEAA@XZ 00000001801001e0 f i libucrtd:output.obj
 0001:000ff200       ??1?$output_processor@_WV?$stream_output_adapter@_W@__crt_stdio_output@@V?$standard_base@_WV?$stream_output_adapter@_W@__crt_stdio_output@@@2@@__crt_stdio_output@@QEAA@XZ 0000000180100200 f i libucrtd:output.obj
 0001:000ff220       ??1?$output_processor@_WV?$string_output_adapter@_W@__crt_stdio_output@@V?$format_validation_base@_WV?$string_output_adapter@_W@__crt_stdio_output@@@2@@__crt_stdio_output@@QEAA@XZ 0000000180100220 f i libucrtd:output.obj
 0001:000ff240       ??1?$output_processor@_WV?$string_output_adapter@_W@__crt_stdio_output@@V?$positional_parameter_base@_WV?$string_output_adapter@_W@__crt_stdio_output@@@2@@__crt_stdio_output@@QEAA@XZ 0000000180100240 f i libucrtd:output.obj
 0001:000ff260       ??1?$output_processor@_WV?$string_output_adapter@_W@__crt_stdio_output@@V?$standard_base@_WV?$string_output_adapter@_W@__crt_stdio_output@@@2@@__crt_stdio_output@@QEAA@XZ 0000000180100260 f i libucrtd:output.obj
 0001:000ff280       ??1?$positional_parameter_base@DV?$stream_output_adapter@D@__crt_stdio_output@@@__crt_stdio_output@@QEAA@XZ 0000000180100280 f i libucrtd:output.obj
 0001:000ff2a0       ??1?$positional_parameter_base@DV?$string_output_adapter@D@__crt_stdio_output@@@__crt_stdio_output@@QEAA@XZ 00000001801002a0 f i libucrtd:output.obj
 0001:000ff2c0       ??1?$positional_parameter_base@_WV?$stream_output_adapter@_W@__crt_stdio_output@@@__crt_stdio_output@@QEAA@XZ 00000001801002c0 f i libucrtd:output.obj
 0001:000ff2e0       ??1?$positional_parameter_base@_WV?$string_output_adapter@_W@__crt_stdio_output@@@__crt_stdio_output@@QEAA@XZ 00000001801002e0 f i libucrtd:output.obj
 0001:000ff300       ??1?$standard_base@DV?$stream_output_adapter@D@__crt_stdio_output@@@__crt_stdio_output@@QEAA@XZ 0000000180100300 f i libucrtd:output.obj
 0001:000ff320       ??1?$standard_base@DV?$string_output_adapter@D@__crt_stdio_output@@@__crt_stdio_output@@QEAA@XZ 0000000180100320 f i libucrtd:output.obj
 0001:000ff340       ??1?$standard_base@_WV?$stream_output_adapter@_W@__crt_stdio_output@@@__crt_stdio_output@@QEAA@XZ 0000000180100340 f i libucrtd:output.obj
 0001:000ff360       ??1?$standard_base@_WV?$string_output_adapter@_W@__crt_stdio_output@@@__crt_stdio_output@@QEAA@XZ 0000000180100360 f i libucrtd:output.obj
 0001:000ff380       ??1_LocaleUpdate@@QEAA@XZ  0000000180100380 f i libucrtd:output.obj
 0001:000ff3c0       ??1__acrt_stdio_temporary_buffering_guard@@QEAA@XZ 00000001801003c0 f i libucrtd:output.obj
 0001:000ff3f0       ??1__crt_errno_guard@@QEAA@XZ 00000001801003f0 f i libucrtd:output.obj
 0001:000ff430       ??1formatting_buffer@__crt_stdio_output@@QEAA@XZ 0000000180100430 f i libucrtd:output.obj
 0001:000ff460       ??4?$__crt_unique_heap_ptr@DU__crt_internal_free_policy@@@@QEAAAEAV0@$$QEAV0@@Z 0000000180100460 f i libucrtd:output.obj
 0001:000ff4b0       ??A?$spectre_mitigated_lookup_table@Ustate_transition_pair@__crt_stdio_output@@$0IA@@__crt_stdio_output@@QEBAAEBUstate_transition_pair@1@_K@Z 00000001801004b0 f i libucrtd:output.obj
 0001:000ff4e0       ??C__crt_stdio_stream@@QEBAPEAU__crt_stdio_stream_data@@XZ 00000001801004e0 f i libucrtd:output.obj
 0001:00100040       ?GetLocaleT@_LocaleUpdate@@QEAAPEAU__crt_locale_pointers@@XZ 0000000180101040 f i libucrtd:output.obj
 0001:00100060       ?adjust_hexit@?$output_processor@DV?$stream_output_adapter@D@__crt_stdio_output@@V?$format_validation_base@DV?$stream_output_adapter@D@__crt_stdio_output@@@2@@__crt_stdio_output@@CADH_N@Z 0000000180101060 f i libucrtd:output.obj
 0001:001000c0       ?adjust_hexit@?$output_processor@DV?$stream_output_adapter@D@__crt_stdio_output@@V?$positional_parameter_base@DV?$stream_output_adapter@D@__crt_stdio_output@@@2@@__crt_stdio_output@@CADH_N@Z 00000001801010c0 f i libucrtd:output.obj
 0001:00100120       ?adjust_hexit@?$output_processor@DV?$stream_output_adapter@D@__crt_stdio_output@@V?$standard_base@DV?$stream_output_adapter@D@__crt_stdio_output@@@2@@__crt_stdio_output@@CADH_N@Z 0000000180101120 f i libucrtd:output.obj
 0001:00100180       ?adjust_hexit@?$output_processor@DV?$string_output_adapter@D@__crt_stdio_output@@V?$format_validation_base@DV?$string_output_adapter@D@__crt_stdio_output@@@2@@__crt_stdio_output@@CADH_N@Z 0000000180101180 f i libucrtd:output.obj
 0001:001001e0       ?adjust_hexit@?$output_processor@DV?$string_output_adapter@D@__crt_stdio_output@@V?$positional_parameter_base@DV?$string_output_adapter@D@__crt_stdio_output@@@2@@__crt_stdio_output@@CADH_N@Z 00000001801011e0 f i libucrtd:output.obj
 0001:00100240       ?adjust_hexit@?$output_processor@DV?$string_output_adapter@D@__crt_stdio_output@@V?$standard_base@DV?$string_output_adapter@D@__crt_stdio_output@@@2@@__crt_stdio_output@@CADH_N@Z 0000000180101240 f i libucrtd:output.obj
 0001:001002a0       ?adjust_hexit@?$output_processor@_WV?$stream_output_adapter@_W@__crt_stdio_output@@V?$format_validation_base@_WV?$stream_output_adapter@_W@__crt_stdio_output@@@2@@__crt_stdio_output@@CADH_N@Z 00000001801012a0 f i libucrtd:output.obj
 0001:00100300       ?adjust_hexit@?$output_processor@_WV?$stream_output_adapter@_W@__crt_stdio_output@@V?$positional_parameter_base@_WV?$stream_output_adapter@_W@__crt_stdio_output@@@2@@__crt_stdio_output@@CADH_N@Z 0000000180101300 f i libucrtd:output.obj
 0001:00100360       ?adjust_hexit@?$output_processor@_WV?$stream_output_adapter@_W@__crt_stdio_output@@V?$standard_base@_WV?$stream_output_adapter@_W@__crt_stdio_output@@@2@@__crt_stdio_output@@CADH_N@Z 0000000180101360 f i libucrtd:output.obj
 0001:001003c0       ?adjust_hexit@?$output_processor@_WV?$string_output_adapter@_W@__crt_stdio_output@@V?$format_validation_base@_WV?$string_output_adapter@_W@__crt_stdio_output@@@2@@__crt_stdio_output@@CADH_N@Z 00000001801013c0 f i libucrtd:output.obj
 0001:00100420       ?adjust_hexit@?$output_processor@_WV?$string_output_adapter@_W@__crt_stdio_output@@V?$positional_parameter_base@_WV?$string_output_adapter@_W@__crt_stdio_output@@@2@@__crt_stdio_output@@CADH_N@Z 0000000180101420 f i libucrtd:output.obj
 0001:00100480       ?adjust_hexit@?$output_processor@_WV?$string_output_adapter@_W@__crt_stdio_output@@V?$standard_base@_WV?$string_output_adapter@_W@__crt_stdio_output@@@2@@__crt_stdio_output@@CADH_N@Z 0000000180101480 f i libucrtd:output.obj
 0001:001004e0       ?advance_to_next_pass@?$positional_parameter_base@DV?$stream_output_adapter@D@__crt_stdio_output@@@__crt_stdio_output@@IEAA_NXZ 00000001801014e0 f i libucrtd:output.obj
 0001:001005c0       ?advance_to_next_pass@?$positional_parameter_base@DV?$string_output_adapter@D@__crt_stdio_output@@@__crt_stdio_output@@IEAA_NXZ 00000001801015c0 f i libucrtd:output.obj
 0001:001006a0       ?advance_to_next_pass@?$positional_parameter_base@_WV?$stream_output_adapter@_W@__crt_stdio_output@@@__crt_stdio_output@@IEAA_NXZ 00000001801016a0 f i libucrtd:output.obj
 0001:00100780       ?advance_to_next_pass@?$positional_parameter_base@_WV?$string_output_adapter@_W@__crt_stdio_output@@@__crt_stdio_output@@IEAA_NXZ 0000000180101780 f i libucrtd:output.obj
 0001:00100860       ?advance_to_next_pass@?$standard_base@DV?$stream_output_adapter@D@__crt_stdio_output@@@__crt_stdio_output@@IEAA_NXZ 0000000180101860 f i libucrtd:output.obj
 0001:001008c0       ?advance_to_next_pass@?$standard_base@DV?$string_output_adapter@D@__crt_stdio_output@@@__crt_stdio_output@@IEAA_NXZ 00000001801018c0 f i libucrtd:output.obj
 0001:00100920       ?advance_to_next_pass@?$standard_base@_WV?$stream_output_adapter@_W@__crt_stdio_output@@@__crt_stdio_output@@IEAA_NXZ 0000000180101920 f i libucrtd:output.obj
 0001:00100980       ?advance_to_next_pass@?$standard_base@_WV?$string_output_adapter@_W@__crt_stdio_output@@@__crt_stdio_output@@IEAA_NXZ 0000000180101980 f i libucrtd:output.obj
 0001:001009e0       ?crop_zeroes@__crt_stdio_output@@YAXPEADQEAU__crt_locale_pointers@@@Z 00000001801019e0 f i libucrtd:output.obj
 0001:00100b70       ?find_next_state@?$output_processor@DV?$stream_output_adapter@D@__crt_stdio_output@@V?$format_validation_base@DV?$stream_output_adapter@D@__crt_stdio_output@@@2@@__crt_stdio_output@@AEBA?AW4state@2@DW432@@Z 0000000180101b70 f i libucrtd:output.obj
 0001:00100c20       ?find_next_state@?$output_processor@DV?$stream_output_adapter@D@__crt_stdio_output@@V?$positional_parameter_base@DV?$stream_output_adapter@D@__crt_stdio_output@@@2@@__crt_stdio_output@@AEBA?AW4state@2@DW432@@Z 0000000180101c20 f i libucrtd:output.obj
 0001:00100cd0       ?find_next_state@?$output_processor@DV?$stream_output_adapter@D@__crt_stdio_output@@V?$standard_base@DV?$stream_output_adapter@D@__crt_stdio_output@@@2@@__crt_stdio_output@@AEBA?AW4state@2@DW432@@Z 0000000180101cd0 f i libucrtd:output.obj
 0001:00100d80       ?find_next_state@?$output_processor@DV?$string_output_adapter@D@__crt_stdio_output@@V?$format_validation_base@DV?$string_output_adapter@D@__crt_stdio_output@@@2@@__crt_stdio_output@@AEBA?AW4state@2@DW432@@Z 0000000180101d80 f i libucrtd:output.obj
 0001:00100e30       ?find_next_state@?$output_processor@DV?$string_output_adapter@D@__crt_stdio_output@@V?$positional_parameter_base@DV?$string_output_adapter@D@__crt_stdio_output@@@2@@__crt_stdio_output@@AEBA?AW4state@2@DW432@@Z 0000000180101e30 f i libucrtd:output.obj
 0001:00100ee0       ?find_next_state@?$output_processor@DV?$string_output_adapter@D@__crt_stdio_output@@V?$standard_base@DV?$string_output_adapter@D@__crt_stdio_output@@@2@@__crt_stdio_output@@AEBA?AW4state@2@DW432@@Z 0000000180101ee0 f i libucrtd:output.obj
 0001:00100f90       ?find_next_state@?$output_processor@_WV?$stream_output_adapter@_W@__crt_stdio_output@@V?$format_validation_base@_WV?$stream_output_adapter@_W@__crt_stdio_output@@@2@@__crt_stdio_output@@AEBA?AW4state@2@_WW432@@Z 0000000180101f90 f i libucrtd:output.obj
 0001:00101050       ?find_next_state@?$output_processor@_WV?$stream_output_adapter@_W@__crt_stdio_output@@V?$positional_parameter_base@_WV?$stream_output_adapter@_W@__crt_stdio_output@@@2@@__crt_stdio_output@@AEBA?AW4state@2@_WW432@@Z 0000000180102050 f i libucrtd:output.obj
 0001:00101110       ?find_next_state@?$output_processor@_WV?$stream_output_adapter@_W@__crt_stdio_output@@V?$standard_base@_WV?$stream_output_adapter@_W@__crt_stdio_output@@@2@@__crt_stdio_output@@AEBA?AW4state@2@_WW432@@Z 0000000180102110 f i libucrtd:output.obj
 0001:001011d0       ?find_next_state@?$output_processor@_WV?$string_output_adapter@_W@__crt_stdio_output@@V?$format_validation_base@_WV?$string_output_adapter@_W@__crt_stdio_output@@@2@@__crt_stdio_output@@AEBA?AW4state@2@_WW432@@Z 00000001801021d0 f i libucrtd:output.obj
 0001:00101290       ?find_next_state@?$output_processor@_WV?$string_output_adapter@_W@__crt_stdio_output@@V?$positional_parameter_base@_WV?$string_output_adapter@_W@__crt_stdio_output@@@2@@__crt_stdio_output@@AEBA?AW4state@2@_WW432@@Z 0000000180102290 f i libucrtd:output.obj
 0001:00101350       ?find_next_state@?$output_processor@_WV?$string_output_adapter@_W@__crt_stdio_output@@V?$standard_base@_WV?$string_output_adapter@_W@__crt_stdio_output@@@2@@__crt_stdio_output@@AEBA?AW4state@2@_WW432@@Z 0000000180102350 f i libucrtd:output.obj
 0001:00101410       ?force_decimal_point@__crt_stdio_output@@YAXPEADQEAU__crt_locale_pointers@@@Z 0000000180102410 f i libucrtd:output.obj
 0001:00101540       ?get@__crt_deferred_errno_cache@@QEAAAEAHXZ 0000000180102540 f i libucrtd:output.obj
 0001:00101580       ?get_parameter_type@?$positional_parameter_base@DV?$stream_output_adapter@D@__crt_stdio_output@@@__crt_stdio_output@@CA?AW4parameter_type@12@F@Z 0000000180102580 f i libucrtd:output.obj
 0001:00101590       ?get_parameter_type@?$positional_parameter_base@DV?$stream_output_adapter@D@__crt_stdio_output@@@__crt_stdio_output@@CA?AW4parameter_type@12@G@Z 0000000180102590 f i libucrtd:output.obj
 0001:001015a0       ?get_parameter_type@?$positional_parameter_base@DV?$stream_output_adapter@D@__crt_stdio_output@@@__crt_stdio_output@@CA?AW4parameter_type@12@H@Z 00000001801025a0 f i libucrtd:output.obj
 0001:001015b0       ?get_parameter_type@?$positional_parameter_base@DV?$stream_output_adapter@D@__crt_stdio_output@@@__crt_stdio_output@@CA?AW4parameter_type@12@I@Z 00000001801025b0 f i libucrtd:output.obj
 0001:001015c0       ?get_parameter_type@?$positional_parameter_base@DV?$stream_output_adapter@D@__crt_stdio_output@@@__crt_stdio_output@@CA?AW4parameter_type@12@U_CRT_DOUBLE@@@Z 00000001801025c0 f i libucrtd:output.obj
 0001:001015d0       ?get_parameter_type@?$positional_parameter_base@DV?$stream_output_adapter@D@__crt_stdio_output@@@__crt_stdio_output@@CA?AW4parameter_type@12@_J@Z 00000001801025d0 f i libucrtd:output.obj
 0001:001015e0       ?get_parameter_type@?$positional_parameter_base@DV?$stream_output_adapter@D@__crt_stdio_output@@@__crt_stdio_output@@CA?AW4parameter_type@12@_K@Z 00000001801025e0 f i libucrtd:output.obj
 0001:001015f0       ?get_parameter_type@?$positional_parameter_base@DV?$stream_output_adapter@D@__crt_stdio_output@@@__crt_stdio_output@@CA?AW4parameter_type@12@_W@Z 00000001801025f0 f i libucrtd:output.obj
 0001:00101600       ?get_parameter_type@?$positional_parameter_base@DV?$string_output_adapter@D@__crt_stdio_output@@@__crt_stdio_output@@CA?AW4parameter_type@12@F@Z 0000000180102600 f i libucrtd:output.obj
 0001:00101610       ?get_parameter_type@?$positional_parameter_base@DV?$string_output_adapter@D@__crt_stdio_output@@@__crt_stdio_output@@CA?AW4parameter_type@12@G@Z 0000000180102610 f i libucrtd:output.obj
 0001:00101620       ?get_parameter_type@?$positional_parameter_base@DV?$string_output_adapter@D@__crt_stdio_output@@@__crt_stdio_output@@CA?AW4parameter_type@12@H@Z 0000000180102620 f i libucrtd:output.obj
 0001:00101630       ?get_parameter_type@?$positional_parameter_base@DV?$string_output_adapter@D@__crt_stdio_output@@@__crt_stdio_output@@CA?AW4parameter_type@12@I@Z 0000000180102630 f i libucrtd:output.obj
 0001:00101640       ?get_parameter_type@?$positional_parameter_base@DV?$string_output_adapter@D@__crt_stdio_output@@@__crt_stdio_output@@CA?AW4parameter_type@12@U_CRT_DOUBLE@@@Z 0000000180102640 f i libucrtd:output.obj
 0001:00101650       ?get_parameter_type@?$positional_parameter_base@DV?$string_output_adapter@D@__crt_stdio_output@@@__crt_stdio_output@@CA?AW4parameter_type@12@_J@Z 0000000180102650 f i libucrtd:output.obj
 0001:00101660       ?get_parameter_type@?$positional_parameter_base@DV?$string_output_adapter@D@__crt_stdio_output@@@__crt_stdio_output@@CA?AW4parameter_type@12@_K@Z 0000000180102660 f i libucrtd:output.obj
 0001:00101670       ?get_parameter_type@?$positional_parameter_base@DV?$string_output_adapter@D@__crt_stdio_output@@@__crt_stdio_output@@CA?AW4parameter_type@12@_W@Z 0000000180102670 f i libucrtd:output.obj
 0001:00101680       ?get_parameter_type@?$positional_parameter_base@_WV?$stream_output_adapter@_W@__crt_stdio_output@@@__crt_stdio_output@@CA?AW4parameter_type@12@F@Z 0000000180102680 f i libucrtd:output.obj
 0001:00101690       ?get_parameter_type@?$positional_parameter_base@_WV?$stream_output_adapter@_W@__crt_stdio_output@@@__crt_stdio_output@@CA?AW4parameter_type@12@G@Z 0000000180102690 f i libucrtd:output.obj
 0001:001016a0       ?get_parameter_type@?$positional_parameter_base@_WV?$stream_output_adapter@_W@__crt_stdio_output@@@__crt_stdio_output@@CA?AW4parameter_type@12@H@Z 00000001801026a0 f i libucrtd:output.obj
 0001:001016b0       ?get_parameter_type@?$positional_parameter_base@_WV?$stream_output_adapter@_W@__crt_stdio_output@@@__crt_stdio_output@@CA?AW4parameter_type@12@I@Z 00000001801026b0 f i libucrtd:output.obj
 0001:001016c0       ?get_parameter_type@?$positional_parameter_base@_WV?$stream_output_adapter@_W@__crt_stdio_output@@@__crt_stdio_output@@CA?AW4parameter_type@12@U_CRT_DOUBLE@@@Z 00000001801026c0 f i libucrtd:output.obj
 0001:001016d0       ?get_parameter_type@?$positional_parameter_base@_WV?$stream_output_adapter@_W@__crt_stdio_output@@@__crt_stdio_output@@CA?AW4parameter_type@12@_J@Z 00000001801026d0 f i libucrtd:output.obj
 0001:001016e0       ?get_parameter_type@?$positional_parameter_base@_WV?$stream_output_adapter@_W@__crt_stdio_output@@@__crt_stdio_output@@CA?AW4parameter_type@12@_K@Z 00000001801026e0 f i libucrtd:output.obj
 0001:001016f0       ?get_parameter_type@?$positional_parameter_base@_WV?$stream_output_adapter@_W@__crt_stdio_output@@@__crt_stdio_output@@CA?AW4parameter_type@12@_W@Z 00000001801026f0 f i libucrtd:output.obj
 0001:00101700       ?get_parameter_type@?$positional_parameter_base@_WV?$string_output_adapter@_W@__crt_stdio_output@@@__crt_stdio_output@@CA?AW4parameter_type@12@F@Z 0000000180102700 f i libucrtd:output.obj
 0001:00101710       ?get_parameter_type@?$positional_parameter_base@_WV?$string_output_adapter@_W@__crt_stdio_output@@@__crt_stdio_output@@CA?AW4parameter_type@12@G@Z 0000000180102710 f i libucrtd:output.obj
 0001:00101720       ?get_parameter_type@?$positional_parameter_base@_WV?$string_output_adapter@_W@__crt_stdio_output@@@__crt_stdio_output@@CA?AW4parameter_type@12@H@Z 0000000180102720 f i libucrtd:output.obj
 0001:00101730       ?get_parameter_type@?$positional_parameter_base@_WV?$string_output_adapter@_W@__crt_stdio_output@@@__crt_stdio_output@@CA?AW4parameter_type@12@I@Z 0000000180102730 f i libucrtd:output.obj
 0001:00101740       ?get_parameter_type@?$positional_parameter_base@_WV?$string_output_adapter@_W@__crt_stdio_output@@@__crt_stdio_output@@CA?AW4parameter_type@12@U_CRT_DOUBLE@@@Z 0000000180102740 f i libucrtd:output.obj
 0001:00101750       ?get_parameter_type@?$positional_parameter_base@_WV?$string_output_adapter@_W@__crt_stdio_output@@@__crt_stdio_output@@CA?AW4parameter_type@12@_J@Z 0000000180102750 f i libucrtd:output.obj
 0001:00101760       ?get_parameter_type@?$positional_parameter_base@_WV?$string_output_adapter@_W@__crt_stdio_output@@@__crt_stdio_output@@CA?AW4parameter_type@12@_K@Z 0000000180102760 f i libucrtd:output.obj
 0001:00101770       ?get_parameter_type@?$positional_parameter_base@_WV?$string_output_adapter@_W@__crt_stdio_output@@@__crt_stdio_output@@CA?AW4parameter_type@12@_W@Z 0000000180102770 f i libucrtd:output.obj
 0001:00101780       ?has_flag@?$output_processor@DV?$stream_output_adapter@D@__crt_stdio_output@@V?$format_validation_base@DV?$stream_output_adapter@D@__crt_stdio_output@@@2@@__crt_stdio_output@@AEBA_NI@Z 0000000180102780 f i libucrtd:output.obj
 0001:001017d0       ?has_flag@?$output_processor@DV?$stream_output_adapter@D@__crt_stdio_output@@V?$positional_parameter_base@DV?$stream_output_adapter@D@__crt_stdio_output@@@2@@__crt_stdio_output@@AEBA_NI@Z 00000001801027d0 f i libucrtd:output.obj
 0001:00101820       ?has_flag@?$output_processor@DV?$stream_output_adapter@D@__crt_stdio_output@@V?$standard_base@DV?$stream_output_adapter@D@__crt_stdio_output@@@2@@__crt_stdio_output@@AEBA_NI@Z 0000000180102820 f i libucrtd:output.obj
 0001:00101870       ?has_flag@?$output_processor@DV?$string_output_adapter@D@__crt_stdio_output@@V?$format_validation_base@DV?$string_output_adapter@D@__crt_stdio_output@@@2@@__crt_stdio_output@@AEBA_NI@Z 0000000180102870 f i libucrtd:output.obj
 0001:001018c0       ?has_flag@?$output_processor@DV?$string_output_adapter@D@__crt_stdio_output@@V?$positional_parameter_base@DV?$string_output_adapter@D@__crt_stdio_output@@@2@@__crt_stdio_output@@AEBA_NI@Z 00000001801028c0 f i libucrtd:output.obj
 0001:00101910       ?has_flag@?$output_processor@DV?$string_output_adapter@D@__crt_stdio_output@@V?$standard_base@DV?$string_output_adapter@D@__crt_stdio_output@@@2@@__crt_stdio_output@@AEBA_NI@Z 0000000180102910 f i libucrtd:output.obj
 0001:00101960       ?has_flag@?$output_processor@_WV?$stream_output_adapter@_W@__crt_stdio_output@@V?$format_validation_base@_WV?$stream_output_adapter@_W@__crt_stdio_output@@@2@@__crt_stdio_output@@AEBA_NI@Z 0000000180102960 f i libucrtd:output.obj
 0001:001019b0       ?has_flag@?$output_processor@_WV?$stream_output_adapter@_W@__crt_stdio_output@@V?$positional_parameter_base@_WV?$stream_output_adapter@_W@__crt_stdio_output@@@2@@__crt_stdio_output@@AEBA_NI@Z 00000001801029b0 f i libucrtd:output.obj
 0001:00101a00       ?has_flag@?$output_processor@_WV?$stream_output_adapter@_W@__crt_stdio_output@@V?$standard_base@_WV?$stream_output_adapter@_W@__crt_stdio_output@@@2@@__crt_stdio_output@@AEBA_NI@Z 0000000180102a00 f i libucrtd:output.obj
 0001:00101a50       ?has_flag@?$output_processor@_WV?$string_output_adapter@_W@__crt_stdio_output@@V?$format_validation_base@_WV?$string_output_adapter@_W@__crt_stdio_output@@@2@@__crt_stdio_output@@AEBA_NI@Z 0000000180102a50 f i libucrtd:output.obj
 0001:00101aa0       ?has_flag@?$output_processor@_WV?$string_output_adapter@_W@__crt_stdio_output@@V?$positional_parameter_base@_WV?$string_output_adapter@_W@__crt_stdio_output@@@2@@__crt_stdio_output@@AEBA_NI@Z 0000000180102aa0 f i libucrtd:output.obj
 0001:00101af0       ?has_flag@?$output_processor@_WV?$string_output_adapter@_W@__crt_stdio_output@@V?$standard_base@_WV?$string_output_adapter@_W@__crt_stdio_output@@@2@@__crt_stdio_output@@AEBA_NI@Z 0000000180102af0 f i libucrtd:output.obj
 0001:00101b40       ?is_positional_parameter_reappearance_consistent@?$positional_parameter_base@DV?$stream_output_adapter@D@__crt_stdio_output@@@__crt_stdio_output@@AEAA_NAEBUparameter_data@12@W4parameter_type@12@DW4length_modifier@2@@Z 0000000180102b40 f i libucrtd:output.obj
 0001:00101e30       ?is_positional_parameter_reappearance_consistent@?$positional_parameter_base@DV?$string_output_adapter@D@__crt_stdio_output@@@__crt_stdio_output@@AEAA_NAEBUparameter_data@12@W4parameter_type@12@DW4length_modifier@2@@Z 0000000180102e30 f i libucrtd:output.obj
 0001:00102120       ?is_positional_parameter_reappearance_consistent@?$positional_parameter_base@_WV?$stream_output_adapter@_W@__crt_stdio_output@@@__crt_stdio_output@@AEAA_NAEBUparameter_data@12@W4parameter_type@12@_WW4length_modifier@2@@Z 0000000180103120 f i libucrtd:output.obj
 0001:00102410       ?is_positional_parameter_reappearance_consistent@?$positional_parameter_base@_WV?$string_output_adapter@_W@__crt_stdio_output@@@__crt_stdio_output@@AEAA_NAEBUparameter_data@12@W4parameter_type@12@_WW4length_modifier@2@@Z 0000000180103410 f i libucrtd:output.obj
 0001:00102700       ?is_string_backed@__crt_stdio_stream@@QEBA_NXZ 0000000180103700 f i libucrtd:output.obj
 0001:00102750       ?narrow_null_string@?$output_processor@DV?$stream_output_adapter@D@__crt_stdio_output@@V?$format_validation_base@DV?$stream_output_adapter@D@__crt_stdio_output@@@2@@__crt_stdio_output@@CAPEADXZ 0000000180103750 f i libucrtd:output.obj
 0001:00102760       ?narrow_null_string@?$output_processor@DV?$stream_output_adapter@D@__crt_stdio_output@@V?$positional_parameter_base@DV?$stream_output_adapter@D@__crt_stdio_output@@@2@@__crt_stdio_output@@CAPEADXZ 0000000180103760 f i libucrtd:output.obj
 0001:00102770       ?narrow_null_string@?$output_processor@DV?$stream_output_adapter@D@__crt_stdio_output@@V?$standard_base@DV?$stream_output_adapter@D@__crt_stdio_output@@@2@@__crt_stdio_output@@CAPEADXZ 0000000180103770 f i libucrtd:output.obj
 0001:00102780       ?narrow_null_string@?$output_processor@DV?$string_output_adapter@D@__crt_stdio_output@@V?$format_validation_base@DV?$string_output_adapter@D@__crt_stdio_output@@@2@@__crt_stdio_output@@CAPEADXZ 0000000180103780 f i libucrtd:output.obj
 0001:00102790       ?narrow_null_string@?$output_processor@DV?$string_output_adapter@D@__crt_stdio_output@@V?$positional_parameter_base@DV?$string_output_adapter@D@__crt_stdio_output@@@2@@__crt_stdio_output@@CAPEADXZ 0000000180103790 f i libucrtd:output.obj
 0001:001027a0       ?narrow_null_string@?$output_processor@DV?$string_output_adapter@D@__crt_stdio_output@@V?$standard_base@DV?$string_output_adapter@D@__crt_stdio_output@@@2@@__crt_stdio_output@@CAPEADXZ 00000001801037a0 f i libucrtd:output.obj
 0001:001027b0       ?narrow_null_string@?$output_processor@_WV?$stream_output_adapter@_W@__crt_stdio_output@@V?$format_validation_base@_WV?$stream_output_adapter@_W@__crt_stdio_output@@@2@@__crt_stdio_output@@CAPEADXZ 00000001801037b0 f i libucrtd:output.obj
 0001:001027c0       ?narrow_null_string@?$output_processor@_WV?$stream_output_adapter@_W@__crt_stdio_output@@V?$positional_parameter_base@_WV?$stream_output_adapter@_W@__crt_stdio_output@@@2@@__crt_stdio_output@@CAPEADXZ 00000001801037c0 f i libucrtd:output.obj
 0001:001027d0       ?narrow_null_string@?$output_processor@_WV?$stream_output_adapter@_W@__crt_stdio_output@@V?$standard_base@_WV?$stream_output_adapter@_W@__crt_stdio_output@@@2@@__crt_stdio_output@@CAPEADXZ 00000001801037d0 f i libucrtd:output.obj
 0001:001027e0       ?narrow_null_string@?$output_processor@_WV?$string_output_adapter@_W@__crt_stdio_output@@V?$format_validation_base@_WV?$string_output_adapter@_W@__crt_stdio_output@@@2@@__crt_stdio_output@@CAPEADXZ 00000001801037e0 f i libucrtd:output.obj
 0001:001027f0       ?narrow_null_string@?$output_processor@_WV?$string_output_adapter@_W@__crt_stdio_output@@V?$positional_parameter_base@_WV?$string_output_adapter@_W@__crt_stdio_output@@@2@@__crt_stdio_output@@CAPEADXZ 00000001801037f0 f i libucrtd:output.obj
 0001:00102800       ?narrow_null_string@?$output_processor@_WV?$string_output_adapter@_W@__crt_stdio_output@@V?$standard_base@_WV?$string_output_adapter@_W@__crt_stdio_output@@@2@@__crt_stdio_output@@CAPEADXZ 0000000180103800 f i libucrtd:output.obj
 0001:00102810       ?parse_int_from_format_string@?$output_processor@DV?$stream_output_adapter@D@__crt_stdio_output@@V?$format_validation_base@DV?$stream_output_adapter@D@__crt_stdio_output@@@2@@__crt_stdio_output@@AEAA_NQEAH@Z 0000000180103810 f i libucrtd:output.obj
 0001:00102940       ?parse_int_from_format_string@?$output_processor@DV?$stream_output_adapter@D@__crt_stdio_output@@V?$positional_parameter_base@DV?$stream_output_adapter@D@__crt_stdio_output@@@2@@__crt_stdio_output@@AEAA_NQEAH@Z 0000000180103940 f i libucrtd:output.obj
 0001:00102a70       ?parse_int_from_format_string@?$output_processor@DV?$stream_output_adapter@D@__crt_stdio_output@@V?$standard_base@DV?$stream_output_adapter@D@__crt_stdio_output@@@2@@__crt_stdio_output@@AEAA_NQEAH@Z 0000000180103a70 f i libucrtd:output.obj
 0001:00102ba0       ?parse_int_from_format_string@?$output_processor@DV?$string_output_adapter@D@__crt_stdio_output@@V?$format_validation_base@DV?$string_output_adapter@D@__crt_stdio_output@@@2@@__crt_stdio_output@@AEAA_NQEAH@Z 0000000180103ba0 f i libucrtd:output.obj
 0001:00102cd0       ?parse_int_from_format_string@?$output_processor@DV?$string_output_adapter@D@__crt_stdio_output@@V?$positional_parameter_base@DV?$string_output_adapter@D@__crt_stdio_output@@@2@@__crt_stdio_output@@AEAA_NQEAH@Z 0000000180103cd0 f i libucrtd:output.obj
 0001:00102e00       ?parse_int_from_format_string@?$output_processor@DV?$string_output_adapter@D@__crt_stdio_output@@V?$standard_base@DV?$string_output_adapter@D@__crt_stdio_output@@@2@@__crt_stdio_output@@AEAA_NQEAH@Z 0000000180103e00 f i libucrtd:output.obj
 0001:00102f30       ?parse_int_from_format_string@?$output_processor@_WV?$stream_output_adapter@_W@__crt_stdio_output@@V?$format_validation_base@_WV?$stream_output_adapter@_W@__crt_stdio_output@@@2@@__crt_stdio_output@@AEAA_NQEAH@Z 0000000180103f30 f i libucrtd:output.obj
 0001:00103060       ?parse_int_from_format_string@?$output_processor@_WV?$stream_output_adapter@_W@__crt_stdio_output@@V?$positional_parameter_base@_WV?$stream_output_adapter@_W@__crt_stdio_output@@@2@@__crt_stdio_output@@AEAA_NQEAH@Z 0000000180104060 f i libucrtd:output.obj
 0001:00103190       ?parse_int_from_format_string@?$output_processor@_WV?$stream_output_adapter@_W@__crt_stdio_output@@V?$standard_base@_WV?$stream_output_adapter@_W@__crt_stdio_output@@@2@@__crt_stdio_output@@AEAA_NQEAH@Z 0000000180104190 f i libucrtd:output.obj
 0001:001032c0       ?parse_int_from_format_string@?$output_processor@_WV?$string_output_adapter@_W@__crt_stdio_output@@V?$format_validation_base@_WV?$string_output_adapter@_W@__crt_stdio_output@@@2@@__crt_stdio_output@@AEAA_NQEAH@Z 00000001801042c0 f i libucrtd:output.obj
 0001:001033f0       ?parse_int_from_format_string@?$output_processor@_WV?$string_output_adapter@_W@__crt_stdio_output@@V?$positional_parameter_base@_WV?$string_output_adapter@_W@__crt_stdio_output@@@2@@__crt_stdio_output@@AEAA_NQEAH@Z 00000001801043f0 f i libucrtd:output.obj
 0001:00103520       ?parse_int_from_format_string@?$output_processor@_WV?$string_output_adapter@_W@__crt_stdio_output@@V?$standard_base@_WV?$string_output_adapter@_W@__crt_stdio_output@@@2@@__crt_stdio_output@@AEAA_NQEAH@Z 0000000180104520 f i libucrtd:output.obj
 0001:00103650       ?process@?$output_processor@DV?$stream_output_adapter@D@__crt_stdio_output@@V?$format_validation_base@DV?$stream_output_adapter@D@__crt_stdio_output@@@2@@__crt_stdio_output@@QEAAHXZ 0000000180104650 f i libucrtd:output.obj
 0001:00103a90       ?process@?$output_processor@DV?$stream_output_adapter@D@__crt_stdio_output@@V?$positional_parameter_base@DV?$stream_output_adapter@D@__crt_stdio_output@@@2@@__crt_stdio_output@@QEAAHXZ 0000000180104a90 f i libucrtd:output.obj
 0001:00103ed0       ?process@?$output_processor@DV?$stream_output_adapter@D@__crt_stdio_output@@V?$standard_base@DV?$stream_output_adapter@D@__crt_stdio_output@@@2@@__crt_stdio_output@@QEAAHXZ 0000000180104ed0 f i libucrtd:output.obj
 0001:00104310       ?process@?$output_processor@DV?$string_output_adapter@D@__crt_stdio_output@@V?$format_validation_base@DV?$string_output_adapter@D@__crt_stdio_output@@@2@@__crt_stdio_output@@QEAAHXZ 0000000180105310 f i libucrtd:output.obj
 0001:00104750       ?process@?$output_processor@DV?$string_output_adapter@D@__crt_stdio_output@@V?$positional_parameter_base@DV?$string_output_adapter@D@__crt_stdio_output@@@2@@__crt_stdio_output@@QEAAHXZ 0000000180105750 f i libucrtd:output.obj
 0001:00104b90       ?process@?$output_processor@DV?$string_output_adapter@D@__crt_stdio_output@@V?$standard_base@DV?$string_output_adapter@D@__crt_stdio_output@@@2@@__crt_stdio_output@@QEAAHXZ 0000000180105b90 f i libucrtd:output.obj
 0001:00104fd0       ?process@?$output_processor@_WV?$stream_output_adapter@_W@__crt_stdio_output@@V?$format_validation_base@_WV?$stream_output_adapter@_W@__crt_stdio_output@@@2@@__crt_stdio_output@@QEAAHXZ 0000000180105fd0 f i libucrtd:output.obj
 0001:00105410       ?process@?$output_processor@_WV?$stream_output_adapter@_W@__crt_stdio_output@@V?$positional_parameter_base@_WV?$stream_output_adapter@_W@__crt_stdio_output@@@2@@__crt_stdio_output@@QEAAHXZ 0000000180106410 f i libucrtd:output.obj
 0001:00105850       ?process@?$output_processor@_WV?$stream_output_adapter@_W@__crt_stdio_output@@V?$standard_base@_WV?$stream_output_adapter@_W@__crt_stdio_output@@@2@@__crt_stdio_output@@QEAAHXZ 0000000180106850 f i libucrtd:output.obj
 0001:00105c90       ?process@?$output_processor@_WV?$string_output_adapter@_W@__crt_stdio_output@@V?$format_validation_base@_WV?$string_output_adapter@_W@__crt_stdio_output@@@2@@__crt_stdio_output@@QEAAHXZ 0000000180106c90 f i libucrtd:output.obj
 0001:001060d0       ?process@?$output_processor@_WV?$string_output_adapter@_W@__crt_stdio_output@@V?$positional_parameter_base@_WV?$string_output_adapter@_W@__crt_stdio_output@@@2@@__crt_stdio_output@@QEAAHXZ 00000001801070d0 f i libucrtd:output.obj
 0001:00106510       ?process@?$output_processor@_WV?$string_output_adapter@_W@__crt_stdio_output@@V?$standard_base@_WV?$string_output_adapter@_W@__crt_stdio_output@@@2@@__crt_stdio_output@@QEAAHXZ 0000000180107510 f i libucrtd:output.obj
 0001:00106950       ?public_stream@__crt_stdio_stream@@QEBAPEAU_iobuf@@XZ 0000000180107950 f i libucrtd:output.obj
 0001:00106970       ?set_flag@?$output_processor@DV?$stream_output_adapter@D@__crt_stdio_output@@V?$format_validation_base@DV?$stream_output_adapter@D@__crt_stdio_output@@@2@@__crt_stdio_output@@AEAAXI@Z 0000000180107970 f i libucrtd:output.obj
 0001:001069a0       ?set_flag@?$output_processor@DV?$stream_output_adapter@D@__crt_stdio_output@@V?$positional_parameter_base@DV?$stream_output_adapter@D@__crt_stdio_output@@@2@@__crt_stdio_output@@AEAAXI@Z 00000001801079a0 f i libucrtd:output.obj
 0001:001069d0       ?set_flag@?$output_processor@DV?$stream_output_adapter@D@__crt_stdio_output@@V?$standard_base@DV?$stream_output_adapter@D@__crt_stdio_output@@@2@@__crt_stdio_output@@AEAAXI@Z 00000001801079d0 f i libucrtd:output.obj
